-Wl,--defsym=__gcov_error_file=so_stub_for_libtelux_config
-Wl,--defsym=__gcov_master=so_stub_for_libtelux_config
-Wl,--defsym=__gcov_sort_n_vals=so_stub_for_libtelux_config
-Wl,--defsym=__gcov_var=so_stub_for_libtelux_config
-Wl,--defsym=_ZN5telux3qmi23IQmiModemConfigListener14onLoadConfiIndERK27pdc_load_config_ind_msg_v01=so_stub_for_libtelux_config
-Wl,--defsym=_ZN5telux3qmi23IQmiModemConfigListener15onGetFeatureIndERK27pdc_get_feature_ind_msg_v01=so_stub_for_libtelux_config
-Wl,--defsym=_ZN5telux3qmi23IQmiModemConfigListener15onSetFeatureIndERK27pdc_set_feature_ind_msg_v01=so_stub_for_libtelux_config
-Wl,--defsym=_ZN5telux3qmi23IQmiModemConfigListener17onDeleteConfigIndERK29pdc_delete_config_ind_msg_v01=so_stub_for_libtelux_config
-Wl,--defsym=_ZN5telux3qmi23IQmiModemConfigListener18onConfigRefreshIndERK23pdc_refresh_ind_msg_v01=so_stub_for_libtelux_config
-Wl,--defsym=_ZN5telux3qmi23IQmiModemConfigListener18onGetConfigInfoIndERK31pdc_get_config_info_ind_msg_v01=so_stub_for_libtelux_config
-Wl,--defsym=_ZN5telux3qmi23IQmiModemConfigListener18onGetConfigListIndERK28pdc_list_configs_ind_msg_v01=so_stub_for_libtelux_config
-Wl,--defsym=_ZN5telux3qmi23IQmiModemConfigListener19onActivateConfigIndERK31pdc_activate_config_ind_msg_v01=so_stub_for_libtelux_config
-Wl,--defsym=_ZN5telux3qmi23IQmiModemConfigListener20onGetSelectConfigIndERK35pdc_get_selected_config_ind_msg_v01=so_stub_for_libtelux_config
-Wl,--defsym=_ZN5telux3qmi23IQmiModemConfigListener20onSetSelectConfigIndERK35pdc_set_selected_config_ind_msg_v01=so_stub_for_libtelux_config
-Wl,--defsym=_ZN5telux3qmi23IQmiModemConfigListener21onDeactivateConfigIndERK33pdc_deactivate_config_ind_msg_v01=so_stub_for_libtelux_config
-Wl,--defsym=_ZN5telux3qmi23IQmiModemConfigListener25onGetDefaultConfigInfoIndERK39pdc_get_default_config_info_ind_msg_v01=so_stub_for_libtelux_config
-Wl,--defsym=_ZN5telux3qmi23IQmiModemConfigListener32onModemConfigServiceStatusChangeENS_6common13ServiceStatusE=so_stub_for_libtelux_config
-Wl,--defsym=_ZN5telux6common14AsyncTaskQueueIvE14purgeCompletedEv=so_stub_for_libtelux_config
-Wl,--defsym=_ZN5telux6common15ListenerManagerINS_6config20IModemConfigListenerEE16registerListenerESt8weak_ptrIS3_E=so_stub_for_libtelux_config
-Wl,--defsym=_ZN5telux6common15ListenerManagerINS_6config20IModemConfigListenerEE18deRegisterListenerESt8weak_ptrIS3_E=so_stub_for_libtelux_config
-Wl,--defsym=_ZN5telux6common15ListenerManagerINS_6config20IModemConfigListenerEE21getAvailableListenersERSt6vectorISt8weak_ptrIS3_ESaIS7_EE=so_stub_for_libtelux_config
-Wl,--defsym=_ZN5telux6common18FunctionalCallbackIJNS0_9ErrorCodeEEED0Ev=so_stub_for_libtelux_config
-Wl,--defsym=_ZN5telux6common18FunctionalCallbackIJNS0_9ErrorCodeEEED1Ev=so_stub_for_libtelux_config
-Wl,--defsym=_ZN5telux6common18FunctionalCallbackIJNS0_9ErrorCodeEEED2Ev=so_stub_for_libtelux_config
-Wl,--defsym=_ZN5telux6common18FunctionalCallbackIJNS_6config10ConfigInfoENS0_9ErrorCodeEEED0Ev=so_stub_for_libtelux_config
-Wl,--defsym=_ZN5telux6common18FunctionalCallbackIJNS_6config10ConfigInfoENS0_9ErrorCodeEEED1Ev=so_stub_for_libtelux_config
-Wl,--defsym=_ZN5telux6common18FunctionalCallbackIJNS_6config10ConfigInfoENS0_9ErrorCodeEEED2Ev=so_stub_for_libtelux_config
-Wl,--defsym=_ZN5telux6common18FunctionalCallbackIJNS_6config17AutoSelectionModeENS0_9ErrorCodeEEED0Ev=so_stub_for_libtelux_config
-Wl,--defsym=_ZN5telux6common18FunctionalCallbackIJNS_6config17AutoSelectionModeENS0_9ErrorCodeEEED1Ev=so_stub_for_libtelux_config
-Wl,--defsym=_ZN5telux6common18FunctionalCallbackIJNS_6config17AutoSelectionModeENS0_9ErrorCodeEEED2Ev=so_stub_for_libtelux_config
-Wl,--defsym=_ZN5telux6common18FunctionalCallbackIJSt6vectorINS_6config10ConfigInfoESaIS4_EENS0_9ErrorCodeEEED0Ev=so_stub_for_libtelux_config
-Wl,--defsym=_ZN5telux6common18FunctionalCallbackIJSt6vectorINS_6config10ConfigInfoESaIS4_EENS0_9ErrorCodeEEED1Ev=so_stub_for_libtelux_config
-Wl,--defsym=_ZN5telux6common18FunctionalCallbackIJSt6vectorINS_6config10ConfigInfoESaIS4_EENS0_9ErrorCodeEEED2Ev=so_stub_for_libtelux_config
-Wl,--defsym=_ZN5telux6common22CommandCallbackManager11addCallbackIJNS0_9ErrorCodeEEEEiSt8functionIFvDpT_EE=so_stub_for_libtelux_config
-Wl,--defsym=_ZN5telux6common22CommandCallbackManager11addCallbackIJNS_6config10ConfigInfoENS0_9ErrorCodeEEEEiSt8functionIFvDpT_EE=so_stub_for_libtelux_config
-Wl,--defsym=_ZN5telux6common22CommandCallbackManager11addCallbackIJNS_6config17AutoSelectionModeENS0_9ErrorCodeEEEEiSt8functionIFvDpT_EE=so_stub_for_libtelux_config
-Wl,--defsym=_ZN5telux6common22CommandCallbackManager11addCallbackIJSt6vectorINS_6config10ConfigInfoESaIS5_EENS0_9ErrorCodeEEEEiSt8functionIFvDpT_EE=so_stub_for_libtelux_config
-Wl,--defsym=_ZN5telux6common22CommandCallbackManager15executeCallbackIJRNS0_9ErrorCodeEEEEvSt10shared_ptrINS0_16ICommandCallbackEEDpOT_=so_stub_for_libtelux_config
-Wl,--defsym=_ZN5telux6common22CommandCallbackManager15executeCallbackIJRNS_6config10ConfigInfoERNS0_9ErrorCodeEEEEvSt10shared_ptrINS0_16ICommandCallbackEEDpOT_=so_stub_for_libtelux_config
-Wl,--defsym=_ZN5telux6common22CommandCallbackManager15executeCallbackIJRNS_6config17AutoSelectionModeERNS0_9ErrorCodeEEEEvSt10shared_ptrINS0_16ICommandCallbackEEDpOT_=so_stub_for_libtelux_config
-Wl,--defsym=_ZN5telux6common22CommandCallbackManager15executeCallbackIJRSt6vectorINS_6config10ConfigInfoESaIS5_EERNS0_9ErrorCodeEEEEvSt10shared_ptrINS0_16ICommandCallbackEEDpOT_=so_stub_for_libtelux_config
-Wl,--defsym=_ZN5telux6common22IServiceStatusListener21onServiceStatusChangeENS0_13ServiceStatusE=so_stub_for_libtelux_config
-Wl,--defsym=_ZN5telux6common3Log10logMessageIJPKc18qmi_error_type_v01EEEvNS0_8LogLevelERKNSt7__cxx1112basic_stringIcSt11char_traitsIcESaIcEEESE_RKiDpT_=so_stub_for_libtelux_config
-Wl,--defsym=_ZN5telux6common3Log10logMessageIJPKcEEEvNS0_8LogLevelERKNSt7__cxx1112basic_stringIcSt11char_traitsIcESaIcEEESD_RKiDpT_=so_stub_for_libtelux_config
-Wl,--defsym=_ZN5telux6common3Log10logMessageIJPKcjEEEvNS0_8LogLevelERKNSt7__cxx1112basic_stringIcSt11char_traitsIcESaIcEEESD_RKiDpT_=so_stub_for_libtelux_config
-Wl,--defsym=_ZN5telux6common3Log10logMessageIJPKcS4_bEEEvNS0_8LogLevelERKNSt7__cxx1112basic_stringIcSt11char_traitsIcESaIcEEESD_RKiDpT_=so_stub_for_libtelux_config
-Wl,--defsym=_ZN5telux6common3Log10logMessageIJPKcS4_EEEvNS0_8LogLevelERKNSt7__cxx1112basic_stringIcSt11char_traitsIcESaIcEEESD_RKiDpT_=so_stub_for_libtelux_config
-Wl,--defsym=_ZN5telux6common3Log10logMessageIJPKcS4_iEEEvNS0_8LogLevelERKNSt7__cxx1112basic_stringIcSt11char_traitsIcESaIcEEESD_RKiDpT_=so_stub_for_libtelux_config
-Wl,--defsym=_ZN5telux6common3Log10logMessageIJPKcS4_S4_EEEvNS0_8LogLevelERKNSt7__cxx1112basic_stringIcSt11char_traitsIcESaIcEEESD_RKiDpT_=so_stub_for_libtelux_config
-Wl,--defsym=_ZN5telux6common3Log10logMessageIJPKcS4_S4_iEEEvNS0_8LogLevelERKNSt7__cxx1112basic_stringIcSt11char_traitsIcESaIcEEESD_RKiDpT_=so_stub_for_libtelux_config
-Wl,--defsym=_ZN5telux6config10ConfigInfoC1ERKS1_=so_stub_for_libtelux_config
-Wl,--defsym=_ZN5telux6config10ConfigInfoC2ERKS1_=so_stub_for_libtelux_config
-Wl,--defsym=_ZN5telux6config10ConfigInfoD1Ev=so_stub_for_libtelux_config
-Wl,--defsym=_ZN5telux6config10ConfigInfoD2Ev=so_stub_for_libtelux_config
-Wl,--defsym=_ZN5telux6config13ConfigFactory11getInstanceEv=so_stub_for_libtelux_config
-Wl,--defsym=_ZN5telux6config13ConfigFactory21getModemConfigManagerEv=so_stub_for_libtelux_config
-Wl,--defsym=_ZN5telux6config13ConfigFactoryC1Ev=so_stub_for_libtelux_config
-Wl,--defsym=_ZN5telux6config13ConfigFactoryC2Ev=so_stub_for_libtelux_config
-Wl,--defsym=_ZN5telux6config13ConfigFactoryD1Ev=so_stub_for_libtelux_config
-Wl,--defsym=_ZN5telux6config13ConfigFactoryD2Ev=so_stub_for_libtelux_config
-Wl,--defsym=_ZN5telux6config17ModemConfigHelper13modeToQmiModeERNS0_17AutoSelectionModeER27pdc_selection_mode_enum_v01=so_stub_for_libtelux_config
-Wl,--defsym=_ZN5telux6config17ModemConfigHelper13qmiModeToModeER27pdc_selection_mode_enum_v01RNS0_17AutoSelectionModeE=so_stub_for_libtelux_config
-Wl,--defsym=_ZN5telux6config17ModemConfigHelper13slotIdToSubIdEiRj=so_stub_for_libtelux_config
-Wl,--defsym=_ZN5telux6config17ModemConfigHelper13subIdToSlotIdEj=so_stub_for_libtelux_config
-Wl,--defsym=_ZN5telux6config17ModemConfigHelper22refEventToUpdateStatusER26pdc_refresh_event_enum_v01RNS0_18ConfigUpdateStatusE=so_stub_for_libtelux_config
-Wl,--defsym=_ZN5telux6config17ModemConfigHelper25configTypeToQmiConfigTypeERNS0_10ConfigTypeER24pdc_config_type_enum_v01=so_stub_for_libtelux_config
-Wl,--defsym=_ZN5telux6config17ModemConfigHelper25qmiConfigTypeToConfigTypeER24pdc_config_type_enum_v01RNS0_10ConfigTypeE=so_stub_for_libtelux_config
-Wl,--defsym=_ZN5telux6config20IModemConfigListener20onConfigUpdateStatusENS0_18ConfigUpdateStatusEi=so_stub_for_libtelux_config
-Wl,--defsym=_ZN5telux6config21QmiLoadConfigCallback14onLoadConfiIndERK27pdc_load_config_ind_msg_v01=so_stub_for_libtelux_config
-Wl,--defsym=_ZN5telux6config21QmiLoadConfigCallback17onCommandResponseEiPv=so_stub_for_libtelux_config
-Wl,--defsym=_ZN5telux6config21QmiLoadConfigCallbackD0Ev=so_stub_for_libtelux_config
-Wl,--defsym=_ZN5telux6config21QmiLoadConfigCallbackD1Ev=so_stub_for_libtelux_config
-Wl,--defsym=_ZN5telux6config21QmiLoadConfigCallbackD2Ev=so_stub_for_libtelux_config
-Wl,--defsym=_ZN5telux6config22ModemConfigManagerImpl12deleteConfigENS0_10ConfigTypeENSt7__cxx1112basic_stringIcSt11char_traitsIcESaIcEEESt8functionIFvNS_6common9ErrorCodeEEE=so_stub_for_libtelux_config
-Wl,--defsym=_ZN5telux6config22ModemConfigManagerImpl12selectConfigENS0_10ConfigTypeENSt7__cxx1112basic_stringIcSt11char_traitsIcESaIcEEEjP19ModemConfigUserData=so_stub_for_libtelux_config
-Wl,--defsym=_ZN5telux6config22ModemConfigManagerImpl14activateConfigENS0_10ConfigTypeENSt7__cxx1112basic_stringIcSt11char_traitsIcESaIcEEEiSt8functionIFvNS_6common9ErrorCodeEEE=so_stub_for_libtelux_config
-Wl,--defsym=_ZN5telux6config22ModemConfigManagerImpl14fillConfigInfoERNS0_10ConfigInfoEP19ModemConfigUserData=so_stub_for_libtelux_config
-Wl,--defsym=_ZN5telux6config22ModemConfigManagerImpl14loadConfigFileENSt7__cxx1112basic_stringIcSt11char_traitsIcESaIcEEENS0_10ConfigTypeESt8functionIFvNS_6common9ErrorCodeEEE=so_stub_for_libtelux_config
-Wl,--defsym=_ZN5telux6config22ModemConfigManagerImpl15getActiveConfigENS0_10ConfigTypeESt8functionIFvNS0_10ConfigInfoENS_6common9ErrorCodeEEEi=so_stub_for_libtelux_config
-Wl,--defsym=_ZN5telux6config22ModemConfigManagerImpl15getConfigIdListE24pdc_config_type_enum_v01RSt6vectorINS0_10ConfigInfoESaIS4_EEP19ModemConfigUserDataRb=so_stub_for_libtelux_config
-Wl,--defsym=_ZN5telux6config22ModemConfigManagerImpl16deactivateConfigENS0_10ConfigTypeEiSt8functionIFvNS_6common9ErrorCodeEEE=so_stub_for_libtelux_config
-Wl,--defsym=_ZN5telux6config22ModemConfigManagerImpl16deleteConfigSyncENS0_10ConfigTypeENSt7__cxx1112basic_stringIcSt11char_traitsIcESaIcEEESt8functionIFvNS_6common9ErrorCodeEEE=so_stub_for_libtelux_config
-Wl,--defsym=_ZN5telux6config22ModemConfigManagerImpl16generateConfigIdENSt7__cxx1112basic_stringIcSt11char_traitsIcESaIcEEE=so_stub_for_libtelux_config
-Wl,--defsym=_ZN5telux6config22ModemConfigManagerImpl16isSubsystemReadyEv=so_stub_for_libtelux_config
-Wl,--defsym=_ZN5telux6config22ModemConfigManagerImpl16onSubsystemReadyEv=so_stub_for_libtelux_config
-Wl,--defsym=_ZN5telux6config22ModemConfigManagerImpl16registerListenerESt8weak_ptrINS0_20IModemConfigListenerEE=so_stub_for_libtelux_config
-Wl,--defsym=_ZN5telux6config22ModemConfigManagerImpl17loadConfigSegmentE24pdc_config_type_enum_v01NSt7__cxx1112basic_stringIcSt11char_traitsIcESaIcEEEjjPhP19ModemConfigUserData=so_stub_for_libtelux_config
-Wl,--defsym=_ZN5telux6config22ModemConfigManagerImpl17requestConfigListESt8functionIFvSt6vectorINS0_10ConfigInfoESaIS4_EENS_6common9ErrorCodeEEE=so_stub_for_libtelux_config
-Wl,--defsym=_ZN5telux6config22ModemConfigManagerImpl17setSubsystemReadyEb=so_stub_for_libtelux_config
-Wl,--defsym=_ZN5telux6config22ModemConfigManagerImpl18activateConfigSyncENS0_10ConfigTypeENSt7__cxx1112basic_stringIcSt11char_traitsIcESaIcEEEiSt8functionIFvNS_6common9ErrorCodeEEE=so_stub_for_libtelux_config
-Wl,--defsym=_ZN5telux6config22ModemConfigManagerImpl18deregisterListenerESt8weak_ptrINS0_20IModemConfigListenerEE=so_stub_for_libtelux_config
-Wl,--defsym=_ZN5telux6config22ModemConfigManagerImpl18loadConfigFileSyncENSt7__cxx1112basic_stringIcSt11char_traitsIcESaIcEEENS0_10ConfigTypeESt8functionIFvNS_6common9ErrorCodeEEE=so_stub_for_libtelux_config
-Wl,--defsym=_ZN5telux6config22ModemConfigManagerImpl18onConfigRefreshIndERK23pdc_refresh_ind_msg_v01=so_stub_for_libtelux_config
-Wl,--defsym=_ZN5telux6config22ModemConfigManagerImpl19getActiveConfigSyncENS0_10ConfigTypeESt8functionIFvNS0_10ConfigInfoENS_6common9ErrorCodeEEEi=so_stub_for_libtelux_config
-Wl,--defsym=_ZN5telux6config22ModemConfigManagerImpl20deactivateConfigSyncENS0_10ConfigTypeEiSt8functionIFvNS_6common9ErrorCodeEEE=so_stub_for_libtelux_config
-Wl,--defsym=_ZN5telux6config22ModemConfigManagerImpl20getAutoSelectionModeESt8functionIFvNS0_17AutoSelectionModeENS_6common9ErrorCodeEEEi=so_stub_for_libtelux_config
-Wl,--defsym=_ZN5telux6config22ModemConfigManagerImpl20getDefaultConfigInfoENS0_10ConfigTypeERNS0_10ConfigInfoEP19ModemConfigUserData=so_stub_for_libtelux_config
-Wl,--defsym=_ZN5telux6config22ModemConfigManagerImpl20setAutoSelectionModeENS0_17AutoSelectionModeEiSt8functionIFvNS_6common9ErrorCodeEEE=so_stub_for_libtelux_config
-Wl,--defsym=_ZN5telux6config22ModemConfigManagerImpl21requestConfigListSyncESt8functionIFvSt6vectorINS0_10ConfigInfoESaIS4_EENS_6common9ErrorCodeEEE=so_stub_for_libtelux_config
-Wl,--defsym=_ZN5telux6config22ModemConfigManagerImpl21waitForInitializationEv=so_stub_for_libtelux_config
-Wl,--defsym=_ZN5telux6config22ModemConfigManagerImpl24getAutoSelectionModeSyncESt8functionIFvNS0_17AutoSelectionModeENS_6common9ErrorCodeEEEi=so_stub_for_libtelux_config
-Wl,--defsym=_ZN5telux6config22ModemConfigManagerImpl24setAutoSelectionModeSyncENS0_17AutoSelectionModeEiSt8functionIFvNS_6common9ErrorCodeEEE=so_stub_for_libtelux_config
-Wl,--defsym=_ZN5telux6config22ModemConfigManagerImpl26onRegisterListenerResponseEiPv=so_stub_for_libtelux_config
-Wl,--defsym=_ZN5telux6config22ModemConfigManagerImpl32onModemConfigServiceStatusChangeENS_6common13ServiceStatusE=so_stub_for_libtelux_config
-Wl,--defsym=_ZN5telux6config22ModemConfigManagerImpl4initEv=so_stub_for_libtelux_config
-Wl,--defsym=_ZN5telux6config22ModemConfigManagerImpl7cleanupEv=so_stub_for_libtelux_config
-Wl,--defsym=_ZN5telux6config22ModemConfigManagerImpl8initSyncEv=so_stub_for_libtelux_config
-Wl,--defsym=_ZN5telux6config22ModemConfigManagerImplC1Ev=so_stub_for_libtelux_config
-Wl,--defsym=_ZN5telux6config22ModemConfigManagerImplC2Ev=so_stub_for_libtelux_config
-Wl,--defsym=_ZN5telux6config22ModemConfigManagerImplD0Ev=so_stub_for_libtelux_config
-Wl,--defsym=_ZN5telux6config22ModemConfigManagerImplD1Ev=so_stub_for_libtelux_config
-Wl,--defsym=_ZN5telux6config22ModemConfigManagerImplD2Ev=so_stub_for_libtelux_config
-Wl,--defsym=_ZN5telux6config23QmiDeleteConfigCallback17onCommandResponseEiPv=so_stub_for_libtelux_config
-Wl,--defsym=_ZN5telux6config23QmiDeleteConfigCallback17onDeleteConfigIndERK29pdc_delete_config_ind_msg_v01=so_stub_for_libtelux_config
-Wl,--defsym=_ZN5telux6config23QmiDeleteConfigCallbackD0Ev=so_stub_for_libtelux_config
-Wl,--defsym=_ZN5telux6config23QmiDeleteConfigCallbackD1Ev=so_stub_for_libtelux_config
-Wl,--defsym=_ZN5telux6config23QmiDeleteConfigCallbackD2Ev=so_stub_for_libtelux_config
-Wl,--defsym=_ZN5telux6config25QmiActivateConfigCallback17onCommandResponseEiPv=so_stub_for_libtelux_config
-Wl,--defsym=_ZN5telux6config25QmiActivateConfigCallback19onActivateConfigIndERK31pdc_activate_config_ind_msg_v01=so_stub_for_libtelux_config
-Wl,--defsym=_ZN5telux6config25QmiActivateConfigCallbackD0Ev=so_stub_for_libtelux_config
-Wl,--defsym=_ZN5telux6config25QmiActivateConfigCallbackD1Ev=so_stub_for_libtelux_config
-Wl,--defsym=_ZN5telux6config25QmiActivateConfigCallbackD2Ev=so_stub_for_libtelux_config
-Wl,--defsym=_ZN5telux6config26QmiGetActiveConfigCallback17onCommandResponseEiPv=so_stub_for_libtelux_config
-Wl,--defsym=_ZN5telux6config26QmiGetActiveConfigCallback20onGetSelectConfigIndERK35pdc_get_selected_config_ind_msg_v01=so_stub_for_libtelux_config
-Wl,--defsym=_ZN5telux6config26QmiGetActiveConfigCallbackD0Ev=so_stub_for_libtelux_config
-Wl,--defsym=_ZN5telux6config26QmiGetActiveConfigCallbackD1Ev=so_stub_for_libtelux_config
-Wl,--defsym=_ZN5telux6config26QmiGetActiveConfigCallbackD2Ev=so_stub_for_libtelux_config
-Wl,--defsym=_ZN5telux6config26QmiSetSelectConfigCallback17onCommandResponseEiPv=so_stub_for_libtelux_config
-Wl,--defsym=_ZN5telux6config26QmiSetSelectConfigCallback20onSetSelectConfigIndERK35pdc_set_selected_config_ind_msg_v01=so_stub_for_libtelux_config
-Wl,--defsym=_ZN5telux6config26QmiSetSelectConfigCallbackD0Ev=so_stub_for_libtelux_config
-Wl,--defsym=_ZN5telux6config26QmiSetSelectConfigCallbackD1Ev=so_stub_for_libtelux_config
-Wl,--defsym=_ZN5telux6config26QmiSetSelectConfigCallbackD2Ev=so_stub_for_libtelux_config
-Wl,--defsym=_ZN5telux6config27QmiDeactivateConfigCallback17onCommandResponseEiPv=so_stub_for_libtelux_config
-Wl,--defsym=_ZN5telux6config27QmiDeactivateConfigCallback21onDeactivateConfigIndERK33pdc_deactivate_config_ind_msg_v01=so_stub_for_libtelux_config
-Wl,--defsym=_ZN5telux6config27QmiDeactivateConfigCallbackD0Ev=so_stub_for_libtelux_config
-Wl,--defsym=_ZN5telux6config27QmiDeactivateConfigCallbackD1Ev=so_stub_for_libtelux_config
-Wl,--defsym=_ZN5telux6config27QmiDeactivateConfigCallbackD2Ev=so_stub_for_libtelux_config
-Wl,--defsym=_ZN5telux6config27QmiGetConfigFeatureCallback15onGetFeatureIndERK27pdc_get_feature_ind_msg_v01=so_stub_for_libtelux_config
-Wl,--defsym=_ZN5telux6config27QmiGetConfigFeatureCallback17onCommandResponseEiPv=so_stub_for_libtelux_config
-Wl,--defsym=_ZN5telux6config27QmiGetConfigFeatureCallbackD0Ev=so_stub_for_libtelux_config
-Wl,--defsym=_ZN5telux6config27QmiGetConfigFeatureCallbackD1Ev=so_stub_for_libtelux_config
-Wl,--defsym=_ZN5telux6config27QmiGetConfigFeatureCallbackD2Ev=so_stub_for_libtelux_config
-Wl,--defsym=_ZN5telux6config27QmiSetConfigFeatureCallback15onSetFeatureIndERK27pdc_set_feature_ind_msg_v01=so_stub_for_libtelux_config
-Wl,--defsym=_ZN5telux6config27QmiSetConfigFeatureCallback17onCommandResponseEiPv=so_stub_for_libtelux_config
-Wl,--defsym=_ZN5telux6config27QmiSetConfigFeatureCallbackD0Ev=so_stub_for_libtelux_config
-Wl,--defsym=_ZN5telux6config27QmiSetConfigFeatureCallbackD1Ev=so_stub_for_libtelux_config
-Wl,--defsym=_ZN5telux6config27QmiSetConfigFeatureCallbackD2Ev=so_stub_for_libtelux_config
-Wl,--defsym=_ZN5telux6config28QmiModemConfigFutureCallbackIiE17onCommandResponseEiPv=so_stub_for_libtelux_config
-Wl,--defsym=_ZN5telux6config28QmiModemConfigFutureCallbackIiED0Ev=so_stub_for_libtelux_config
-Wl,--defsym=_ZN5telux6config28QmiModemConfigFutureCallbackIiED1Ev=so_stub_for_libtelux_config
-Wl,--defsym=_ZN5telux6config28QmiModemConfigFutureCallbackIiED2Ev=so_stub_for_libtelux_config
-Wl,--defsym=_ZN5telux6config28QmiRequestConfigInfoCallback17onCommandResponseEiPv=so_stub_for_libtelux_config
-Wl,--defsym=_ZN5telux6config28QmiRequestConfigInfoCallback18onGetConfigInfoIndERK31pdc_get_config_info_ind_msg_v01=so_stub_for_libtelux_config
-Wl,--defsym=_ZN5telux6config28QmiRequestConfigInfoCallbackD0Ev=so_stub_for_libtelux_config
-Wl,--defsym=_ZN5telux6config28QmiRequestConfigInfoCallbackD1Ev=so_stub_for_libtelux_config
-Wl,--defsym=_ZN5telux6config28QmiRequestConfigInfoCallbackD2Ev=so_stub_for_libtelux_config
-Wl,--defsym=_ZN5telux6config28QmiRequestConfigListCallback17onCommandResponseEiPv=so_stub_for_libtelux_config
-Wl,--defsym=_ZN5telux6config28QmiRequestConfigListCallback18onGetConfigListIndERK28pdc_list_configs_ind_msg_v01=so_stub_for_libtelux_config
-Wl,--defsym=_ZN5telux6config28QmiRequestConfigListCallbackD0Ev=so_stub_for_libtelux_config
-Wl,--defsym=_ZN5telux6config28QmiRequestConfigListCallbackD1Ev=so_stub_for_libtelux_config
-Wl,--defsym=_ZN5telux6config28QmiRequestConfigListCallbackD2Ev=so_stub_for_libtelux_config
-Wl,--defsym=_ZN5telux6config35QmiRequestDefaultConfigInfoCallback17onCommandResponseEiPv=so_stub_for_libtelux_config
-Wl,--defsym=_ZN5telux6config35QmiRequestDefaultConfigInfoCallback25onGetDefaultConfigInfoIndERK39pdc_get_default_config_info_ind_msg_v01=so_stub_for_libtelux_config
-Wl,--defsym=_ZN5telux6config35QmiRequestDefaultConfigInfoCallbackD0Ev=so_stub_for_libtelux_config
-Wl,--defsym=_ZN5telux6config35QmiRequestDefaultConfigInfoCallbackD1Ev=so_stub_for_libtelux_config
-Wl,--defsym=_ZN5telux6config35QmiRequestDefaultConfigInfoCallbackD2Ev=so_stub_for_libtelux_config
-Wl,--defsym=_ZN9__gnu_cxx5__ops10_Iter_predIZN5telux6common15ListenerManagerINS2_6config20IModemConfigListenerEE16registerListenerESt8weak_ptrIS6_EEUlS9_E_EclINS_17__normal_iteratorIPS9_St6vectorIS9_SaIS9_EEEEEEbT_=so_stub_for_libtelux_config
-Wl,--defsym=_ZNKSt13__future_base13_State_baseV221_M_is_deferred_futureEv=so_stub_for_libtelux_config
-Wl,--defsym=_ZNKSt14__basic_futureIbE13_M_get_resultEv=so_stub_for_libtelux_config
-Wl,--defsym=_ZNKSt14__basic_futureIiE13_M_get_resultEv=so_stub_for_libtelux_config
-Wl,--defsym=_ZNKSt6vectorISt8weak_ptrIN5telux6config20IModemConfigListenerEESaIS4_EE12_M_check_lenEjPKc=so_stub_for_libtelux_config
-Wl,--defsym=_ZNSt10_HashtableIiSt4pairIKiSt10shared_ptrIN5telux6common16ICommandCallbackEEESaIS7_ENSt8__detail10_Select1stESt8equal_toIiESt4hashIiENS9_18_Mod_range_hashingENS9_20_Default_ranged_hashENS9_20_Prime_rehash_policyENS9_17_Hashtable_traitsILb0ELb0ELb1EEEE13_M_rehash_auxEjSt17integral_constantIbLb1EE=so_stub_for_libtelux_config
-Wl,--defsym=_ZNSt10_HashtableIiSt4pairIKiSt10shared_ptrIN5telux6common16ICommandCallbackEEESaIS7_ENSt8__detail10_Select1stESt8equal_toIiESt4hashIiENS9_18_Mod_range_hashingENS9_20_Default_ranged_hashENS9_20_Prime_rehash_policyENS9_17_Hashtable_traitsILb0ELb0ELb1EEEE21_M_insert_unique_nodeEjjPNS9_10_Hash_nodeIS7_Lb0EEEj=so_stub_for_libtelux_config
-Wl,--defsym=_ZNSt10_HashtableIiSt4pairIKiSt10shared_ptrIN5telux6common16ICommandCallbackEEESaIS7_ENSt8__detail10_Select1stESt8equal_toIiESt4hashIiENS9_18_Mod_range_hashingENS9_20_Default_ranged_hashENS9_20_Prime_rehash_policyENS9_17_Hashtable_traitsILb0ELb0ELb1EEEE9_M_rehashEjRKj=so_stub_for_libtelux_config
-Wl,--defsym=_ZNSt11__copy_moveILb1ELb0ESt26random_access_iterator_tagE8__copy_mIPSt13shared_futureIvES5_EET0_T_S7_S6_=so_stub_for_libtelux_config
-Wl,--defsym=_ZNSt11__copy_moveILb1ELb0ESt26random_access_iterator_tagE8__copy_mIPSt8weak_ptrIN5telux6config20IModemConfigListenerEES8_EET0_T_SA_S9_=so_stub_for_libtelux_config
-Wl,--defsym=_ZNSt11_Deque_baseISt13shared_futureIvESaIS1_EE15_M_create_nodesEPPS1_S5_=so_stub_for_libtelux_config
-Wl,--defsym=_ZNSt11_Deque_baseISt13shared_futureIvESaIS1_EE17_M_initialize_mapEj=so_stub_for_libtelux_config
-Wl,--defsym=_ZNSt11_Deque_baseISt13shared_futureIvESaIS1_EED1Ev=so_stub_for_libtelux_config
-Wl,--defsym=_ZNSt11_Deque_baseISt13shared_futureIvESaIS1_EED2Ev=so_stub_for_libtelux_config
-Wl,--defsym=_ZNSt12future_errorC1ESt10error_code=so_stub_for_libtelux_config
-Wl,--defsym=_ZNSt12future_errorC2ESt10error_code=so_stub_for_libtelux_config
-Wl,--defsym=_ZNSt12__shared_ptrIN5telux6common15ListenerManagerINS0_6config20IModemConfigListenerEEELN9__gnu_cxx12_Lock_policyE2EEC1ISaIS5_EJEEESt19_Sp_make_shared_tagRKT_DpOT0_=so_stub_for_libtelux_config
-Wl,--defsym=_ZNSt12__shared_ptrIN5telux6common15ListenerManagerINS0_6config20IModemConfigListenerEEELN9__gnu_cxx12_Lock_policyE2EEC2ISaIS5_EJEEESt19_Sp_make_shared_tagRKT_DpOT0_=so_stub_for_libtelux_config
-Wl,--defsym=_ZNSt12__shared_ptrIN5telux6config20IModemConfigListenerELN9__gnu_cxx12_Lock_policyE2EEC1ERKSt10__weak_ptrIS2_LS4_2EESt9nothrow_t=so_stub_for_libtelux_config
-Wl,--defsym=_ZNSt12__shared_ptrIN5telux6config20IModemConfigListenerELN9__gnu_cxx12_Lock_policyE2EEC2ERKSt10__weak_ptrIS2_LS4_2EESt9nothrow_t=so_stub_for_libtelux_config
-Wl,--defsym=_ZNSt12__shared_ptrIN5telux6config22ModemConfigManagerImplELN9__gnu_cxx12_Lock_policyE2EEC1ISaIS2_EJEEESt19_Sp_make_shared_tagRKT_DpOT0_=so_stub_for_libtelux_config
-Wl,--defsym=_ZNSt12__shared_ptrIN5telux6config22ModemConfigManagerImplELN9__gnu_cxx12_Lock_policyE2EEC2ISaIS2_EJEEESt19_Sp_make_shared_tagRKT_DpOT0_=so_stub_for_libtelux_config
-Wl,--defsym=_ZNSt13__future_base13_State_baseV210wait_untilINSt6chrono3_V212system_clockENS2_8durationIxSt5ratioILx1ELx1000000000EEEEEESt13future_statusRKNS2_10time_pointIT_T0_EE=so_stub_for_libtelux_config
-Wl,--defsym=_ZNSt13__future_base13_State_baseV213_M_set_resultESt8functionIFSt10unique_ptrINS_12_Result_baseENS3_8_DeleterEEvEEb=so_stub_for_libtelux_config
-Wl,--defsym=_ZNSt13__future_base13_State_baseV216_M_break_promiseESt10unique_ptrINS_12_Result_baseENS2_8_DeleterEE=so_stub_for_libtelux_config
-Wl,--defsym=_ZNSt13__future_base13_State_baseV217_M_complete_asyncEv=so_stub_for_libtelux_config
-Wl,--defsym=_ZNSt13__future_base13_State_baseV24waitEv=so_stub_for_libtelux_config
-Wl,--defsym=_ZNSt13__future_base13_State_baseV29_M_do_setEPSt8functionIFSt10unique_ptrINS_12_Result_baseENS3_8_DeleterEEvEEPb=so_stub_for_libtelux_config
-Wl,--defsym=_ZNSt13__future_base13_State_baseV2D0Ev=so_stub_for_libtelux_config
-Wl,--defsym=_ZNSt13__future_base13_State_baseV2D1Ev=so_stub_for_libtelux_config
-Wl,--defsym=_ZNSt13__future_base13_State_baseV2D2Ev=so_stub_for_libtelux_config
-Wl,--defsym=_ZNSt13__future_base21_Async_state_commonV217_M_complete_asyncEv=so_stub_for_libtelux_config
-Wl,--defsym=_ZNSt13__future_base21_Async_state_commonV2D0Ev=so_stub_for_libtelux_config
-Wl,--defsym=_ZNSt13__future_base21_Async_state_commonV2D1Ev=so_stub_for_libtelux_config
-Wl,--defsym=_ZNSt13__future_base21_Async_state_commonV2D2Ev=so_stub_for_libtelux_config
-Wl,--defsym=_ZNSt13__future_base7_ResultIbE10_M_destroyEv=so_stub_for_libtelux_config
-Wl,--defsym=_ZNSt13__future_base7_ResultIbED0Ev=so_stub_for_libtelux_config
-Wl,--defsym=_ZNSt13__future_base7_ResultIbED1Ev=so_stub_for_libtelux_config
-Wl,--defsym=_ZNSt13__future_base7_ResultIbED2Ev=so_stub_for_libtelux_config
-Wl,--defsym=_ZNSt13__future_base7_ResultIiE10_M_destroyEv=so_stub_for_libtelux_config
-Wl,--defsym=_ZNSt13__future_base7_ResultIiED0Ev=so_stub_for_libtelux_config
-Wl,--defsym=_ZNSt13__future_base7_ResultIiED1Ev=so_stub_for_libtelux_config
-Wl,--defsym=_ZNSt13__future_base7_ResultIiED2Ev=so_stub_for_libtelux_config
-Wl,--defsym=_ZNSt13__future_base7_ResultIvE10_M_destroyEv=so_stub_for_libtelux_config
-Wl,--defsym=_ZNSt13__future_base7_ResultIvED0Ev=so_stub_for_libtelux_config
-Wl,--defsym=_ZNSt13__future_base7_ResultIvED1Ev=so_stub_for_libtelux_config
-Wl,--defsym=_ZNSt13__future_base7_ResultIvED2Ev=so_stub_for_libtelux_config
-Wl,--defsym=_ZNSt14__basic_futureIbEC1ERKSt10shared_ptrINSt13__future_base13_State_baseV2EE=so_stub_for_libtelux_config
-Wl,--defsym=_ZNSt14__basic_futureIbEC2ERKSt10shared_ptrINSt13__future_base13_State_baseV2EE=so_stub_for_libtelux_config
-Wl,--defsym=_ZNSt14__basic_futureIiEC1ERKSt10shared_ptrINSt13__future_base13_State_baseV2EE=so_stub_for_libtelux_config
-Wl,--defsym=_ZNSt14__basic_futureIiEC2ERKSt10shared_ptrINSt13__future_base13_State_baseV2EE=so_stub_for_libtelux_config
-Wl,--defsym=_ZNSt14__basic_futureIvEC1ERKSt10shared_ptrINSt13__future_base13_State_baseV2EE=so_stub_for_libtelux_config
-Wl,--defsym=_ZNSt14__basic_futureIvEC2ERKSt10shared_ptrINSt13__future_base13_State_baseV2EE=so_stub_for_libtelux_config
-Wl,--defsym=_ZNSt14_Function_base13_Base_managerINSt13__future_base13_State_baseV27_SetterIiOiEEE10_M_managerERSt9_Any_dataRKS7_St18_Manager_operation=so_stub_for_libtelux_config
-Wl,--defsym=_ZNSt14_Function_base13_Base_managerINSt13__future_base13_State_baseV27_SetterIiRKiEEE10_M_managerERSt9_Any_dataRKS8_St18_Manager_operation=so_stub_for_libtelux_config
-Wl,--defsym=_ZNSt14__shared_countILN9__gnu_cxx12_Lock_policyE2EEC1IN5telux6common18FunctionalCallbackIJNS4_6config10ConfigInfoENS5_9ErrorCodeEEEESaISA_EJRSt8functionIFvS8_S9_EEEEESt19_Sp_make_shared_tagPT_RKT0_DpOT1_=so_stub_for_libtelux_config
-Wl,--defsym=_ZNSt14__shared_countILN9__gnu_cxx12_Lock_policyE2EEC1IN5telux6common18FunctionalCallbackIJNS4_6config17AutoSelectionModeENS5_9ErrorCodeEEEESaISA_EJRSt8functionIFvS8_S9_EEEEESt19_Sp_make_shared_tagPT_RKT0_DpOT1_=so_stub_for_libtelux_config
-Wl,--defsym=_ZNSt14__shared_countILN9__gnu_cxx12_Lock_policyE2EEC1IN5telux6common18FunctionalCallbackIJNS5_9ErrorCodeEEEESaIS8_EJRSt8functionIFvS7_EEEEESt19_Sp_make_shared_tagPT_RKT0_DpOT1_=so_stub_for_libtelux_config
-Wl,--defsym=_ZNSt14__shared_countILN9__gnu_cxx12_Lock_policyE2EEC1IN5telux6common18FunctionalCallbackIJSt6vectorINS4_6config10ConfigInfoESaIS9_EENS5_9ErrorCodeEEEESaISD_EJRSt8functionIFvSB_SC_EEEEESt19_Sp_make_shared_tagPT_RKT0_DpOT1_=so_stub_for_libtelux_config
-Wl,--defsym=_ZNSt14__shared_countILN9__gnu_cxx12_Lock_policyE2EEC1IN5telux6config21QmiLoadConfigCallbackESaIS6_EJRiEEESt19_Sp_make_shared_tagPT_RKT0_DpOT1_=so_stub_for_libtelux_config
-Wl,--defsym=_ZNSt14__shared_countILN9__gnu_cxx12_Lock_policyE2EEC1IN5telux6config22ModemConfigManagerImplESaIS6_EJEEESt19_Sp_make_shared_tagPT_RKT0_DpOT1_=so_stub_for_libtelux_config
-Wl,--defsym=_ZNSt14__shared_countILN9__gnu_cxx12_Lock_policyE2EEC1IN5telux6config23QmiDeleteConfigCallbackESaIS6_EJRiEEESt19_Sp_make_shared_tagPT_RKT0_DpOT1_=so_stub_for_libtelux_config
-Wl,--defsym=_ZNSt14__shared_countILN9__gnu_cxx12_Lock_policyE2EEC1IN5telux6config25QmiActivateConfigCallbackESaIS6_EJRiEEESt19_Sp_make_shared_tagPT_RKT0_DpOT1_=so_stub_for_libtelux_config
-Wl,--defsym=_ZNSt14__shared_countILN9__gnu_cxx12_Lock_policyE2EEC1IN5telux6config26QmiGetActiveConfigCallbackESaIS6_EJRiEEESt19_Sp_make_shared_tagPT_RKT0_DpOT1_=so_stub_for_libtelux_config
-Wl,--defsym=_ZNSt14__shared_countILN9__gnu_cxx12_Lock_policyE2EEC1IN5telux6config26QmiSetSelectConfigCallbackESaIS6_EJRiEEESt19_Sp_make_shared_tagPT_RKT0_DpOT1_=so_stub_for_libtelux_config
-Wl,--defsym=_ZNSt14__shared_countILN9__gnu_cxx12_Lock_policyE2EEC1IN5telux6config27QmiDeactivateConfigCallbackESaIS6_EJRiEEESt19_Sp_make_shared_tagPT_RKT0_DpOT1_=so_stub_for_libtelux_config
-Wl,--defsym=_ZNSt14__shared_countILN9__gnu_cxx12_Lock_policyE2EEC1IN5telux6config27QmiGetConfigFeatureCallbackESaIS6_EJRiEEESt19_Sp_make_shared_tagPT_RKT0_DpOT1_=so_stub_for_libtelux_config
-Wl,--defsym=_ZNSt14__shared_countILN9__gnu_cxx12_Lock_policyE2EEC1IN5telux6config27QmiSetConfigFeatureCallbackESaIS6_EJRiEEESt19_Sp_make_shared_tagPT_RKT0_DpOT1_=so_stub_for_libtelux_config
-Wl,--defsym=_ZNSt14__shared_countILN9__gnu_cxx12_Lock_policyE2EEC1IN5telux6config28QmiRequestConfigInfoCallbackESaIS6_EJRiEEESt19_Sp_make_shared_tagPT_RKT0_DpOT1_=so_stub_for_libtelux_config
-Wl,--defsym=_ZNSt14__shared_countILN9__gnu_cxx12_Lock_policyE2EEC1IN5telux6config28QmiRequestConfigListCallbackESaIS6_EJRiEEESt19_Sp_make_shared_tagPT_RKT0_DpOT1_=so_stub_for_libtelux_config
-Wl,--defsym=_ZNSt14__shared_countILN9__gnu_cxx12_Lock_policyE2EEC1IN5telux6config35QmiRequestDefaultConfigInfoCallbackESaIS6_EJRiEEESt19_Sp_make_shared_tagPT_RKT0_DpOT1_=so_stub_for_libtelux_config
-Wl,--defsym=_ZNSt14__shared_countILN9__gnu_cxx12_Lock_policyE2EEC2IN5telux6common18FunctionalCallbackIJNS4_6config10ConfigInfoENS5_9ErrorCodeEEEESaISA_EJRSt8functionIFvS8_S9_EEEEESt19_Sp_make_shared_tagPT_RKT0_DpOT1_=so_stub_for_libtelux_config
-Wl,--defsym=_ZNSt14__shared_countILN9__gnu_cxx12_Lock_policyE2EEC2IN5telux6common18FunctionalCallbackIJNS4_6config17AutoSelectionModeENS5_9ErrorCodeEEEESaISA_EJRSt8functionIFvS8_S9_EEEEESt19_Sp_make_shared_tagPT_RKT0_DpOT1_=so_stub_for_libtelux_config
-Wl,--defsym=_ZNSt14__shared_countILN9__gnu_cxx12_Lock_policyE2EEC2IN5telux6common18FunctionalCallbackIJNS5_9ErrorCodeEEEESaIS8_EJRSt8functionIFvS7_EEEEESt19_Sp_make_shared_tagPT_RKT0_DpOT1_=so_stub_for_libtelux_config
-Wl,--defsym=_ZNSt14__shared_countILN9__gnu_cxx12_Lock_policyE2EEC2IN5telux6common18FunctionalCallbackIJSt6vectorINS4_6config10ConfigInfoESaIS9_EENS5_9ErrorCodeEEEESaISD_EJRSt8functionIFvSB_SC_EEEEESt19_Sp_make_shared_tagPT_RKT0_DpOT1_=so_stub_for_libtelux_config
-Wl,--defsym=_ZNSt14__shared_countILN9__gnu_cxx12_Lock_policyE2EEC2IN5telux6config21QmiLoadConfigCallbackESaIS6_EJRiEEESt19_Sp_make_shared_tagPT_RKT0_DpOT1_=so_stub_for_libtelux_config
-Wl,--defsym=_ZNSt14__shared_countILN9__gnu_cxx12_Lock_policyE2EEC2IN5telux6config22ModemConfigManagerImplESaIS6_EJEEESt19_Sp_make_shared_tagPT_RKT0_DpOT1_=so_stub_for_libtelux_config
-Wl,--defsym=_ZNSt14__shared_countILN9__gnu_cxx12_Lock_policyE2EEC2IN5telux6config23QmiDeleteConfigCallbackESaIS6_EJRiEEESt19_Sp_make_shared_tagPT_RKT0_DpOT1_=so_stub_for_libtelux_config
-Wl,--defsym=_ZNSt14__shared_countILN9__gnu_cxx12_Lock_policyE2EEC2IN5telux6config25QmiActivateConfigCallbackESaIS6_EJRiEEESt19_Sp_make_shared_tagPT_RKT0_DpOT1_=so_stub_for_libtelux_config
-Wl,--defsym=_ZNSt14__shared_countILN9__gnu_cxx12_Lock_policyE2EEC2IN5telux6config26QmiGetActiveConfigCallbackESaIS6_EJRiEEESt19_Sp_make_shared_tagPT_RKT0_DpOT1_=so_stub_for_libtelux_config
-Wl,--defsym=_ZNSt14__shared_countILN9__gnu_cxx12_Lock_policyE2EEC2IN5telux6config26QmiSetSelectConfigCallbackESaIS6_EJRiEEESt19_Sp_make_shared_tagPT_RKT0_DpOT1_=so_stub_for_libtelux_config
-Wl,--defsym=_ZNSt14__shared_countILN9__gnu_cxx12_Lock_policyE2EEC2IN5telux6config27QmiDeactivateConfigCallbackESaIS6_EJRiEEESt19_Sp_make_shared_tagPT_RKT0_DpOT1_=so_stub_for_libtelux_config
-Wl,--defsym=_ZNSt14__shared_countILN9__gnu_cxx12_Lock_policyE2EEC2IN5telux6config27QmiGetConfigFeatureCallbackESaIS6_EJRiEEESt19_Sp_make_shared_tagPT_RKT0_DpOT1_=so_stub_for_libtelux_config
-Wl,--defsym=_ZNSt14__shared_countILN9__gnu_cxx12_Lock_policyE2EEC2IN5telux6config27QmiSetConfigFeatureCallbackESaIS6_EJRiEEESt19_Sp_make_shared_tagPT_RKT0_DpOT1_=so_stub_for_libtelux_config
-Wl,--defsym=_ZNSt14__shared_countILN9__gnu_cxx12_Lock_policyE2EEC2IN5telux6config28QmiRequestConfigInfoCallbackESaIS6_EJRiEEESt19_Sp_make_shared_tagPT_RKT0_DpOT1_=so_stub_for_libtelux_config
-Wl,--defsym=_ZNSt14__shared_countILN9__gnu_cxx12_Lock_policyE2EEC2IN5telux6config28QmiRequestConfigListCallbackESaIS6_EJRiEEESt19_Sp_make_shared_tagPT_RKT0_DpOT1_=so_stub_for_libtelux_config
-Wl,--defsym=_ZNSt14__shared_countILN9__gnu_cxx12_Lock_policyE2EEC2IN5telux6config35QmiRequestDefaultConfigInfoCallbackESaIS6_EJRiEEESt19_Sp_make_shared_tagPT_RKT0_DpOT1_=so_stub_for_libtelux_config
-Wl,--defsym=_ZNSt15_Deque_iteratorISt13shared_futureIvERS1_PS1_EpLEi=so_stub_for_libtelux_config
-Wl,--defsym=_ZNSt15__exception_ptr12__dest_thunkISt12future_errorEEvPv=so_stub_for_libtelux_config
-Wl,--defsym=_ZNSt16_Sp_counted_baseILN9__gnu_cxx12_Lock_policyE2EE10_M_releaseEv=so_stub_for_libtelux_config
-Wl,--defsym=_ZNSt16_Sp_counted_baseILN9__gnu_cxx12_Lock_policyE2EE15_M_weak_releaseEv=so_stub_for_libtelux_config
-Wl,--defsym=_ZNSt17_Function_handlerIFSt10unique_ptrINSt13__future_base12_Result_baseENS2_8_DeleterEEvENS1_13_State_baseV27_SetterIiOiEEE9_M_invokeERKSt9_Any_data=so_stub_for_libtelux_config
-Wl,--defsym=_ZNSt17_Function_handlerIFSt10unique_ptrINSt13__future_base12_Result_baseENS2_8_DeleterEEvENS1_13_State_baseV27_SetterIiRKiEEE9_M_invokeERKSt9_Any_data=so_stub_for_libtelux_config
-Wl,--defsym=_ZNSt20__copy_move_backwardILb1ELb0ESt26random_access_iterator_tagE13__copy_move_bIPSt13shared_futureIvES5_EET0_T_S7_S6_=so_stub_for_libtelux_config
-Wl,--defsym=_ZNSt20__uninitialized_copyILb0EE13__uninit_copyIPKN5telux6config10ConfigInfoEPS4_EET0_T_S9_S8_=so_stub_for_libtelux_config
-Wl,--defsym=_ZNSt23__atomic_futex_unsignedILj2147483648EE22_M_load_and_test_untilEjjbSt12memory_orderbNSt6chrono8durationIxSt5ratioILx1ELx1EEEENS3_IxS4_ILx1ELx1000000000EEEE=so_stub_for_libtelux_config
-Wl,--defsym=_ZNSt23_Sp_counted_ptr_inplaceIN5telux6common15ListenerManagerINS0_6config20IModemConfigListenerEEESaIS5_ELN9__gnu_cxx12_Lock_policyE2EE10_M_destroyEv=so_stub_for_libtelux_config
-Wl,--defsym=_ZNSt23_Sp_counted_ptr_inplaceIN5telux6common15ListenerManagerINS0_6config20IModemConfigListenerEEESaIS5_ELN9__gnu_cxx12_Lock_policyE2EE10_M_disposeEv=so_stub_for_libtelux_config
-Wl,--defsym=_ZNSt23_Sp_counted_ptr_inplaceIN5telux6common15ListenerManagerINS0_6config20IModemConfigListenerEEESaIS5_ELN9__gnu_cxx12_Lock_policyE2EE14_M_get_deleterERKSt9type_info=so_stub_for_libtelux_config
-Wl,--defsym=_ZNSt23_Sp_counted_ptr_inplaceIN5telux6common15ListenerManagerINS0_6config20IModemConfigListenerEEESaIS5_ELN9__gnu_cxx12_Lock_policyE2EED0Ev=so_stub_for_libtelux_config
-Wl,--defsym=_ZNSt23_Sp_counted_ptr_inplaceIN5telux6common15ListenerManagerINS0_6config20IModemConfigListenerEEESaIS5_ELN9__gnu_cxx12_Lock_policyE2EED1Ev=so_stub_for_libtelux_config
-Wl,--defsym=_ZNSt23_Sp_counted_ptr_inplaceIN5telux6common15ListenerManagerINS0_6config20IModemConfigListenerEEESaIS5_ELN9__gnu_cxx12_Lock_policyE2EED2Ev=so_stub_for_libtelux_config
-Wl,--defsym=_ZNSt23_Sp_counted_ptr_inplaceIN5telux6common18FunctionalCallbackIJNS0_6config10ConfigInfoENS1_9ErrorCodeEEEESaIS6_ELN9__gnu_cxx12_Lock_policyE2EE10_M_destroyEv=so_stub_for_libtelux_config
-Wl,--defsym=_ZNSt23_Sp_counted_ptr_inplaceIN5telux6common18FunctionalCallbackIJNS0_6config10ConfigInfoENS1_9ErrorCodeEEEESaIS6_ELN9__gnu_cxx12_Lock_policyE2EE10_M_disposeEv=so_stub_for_libtelux_config
-Wl,--defsym=_ZNSt23_Sp_counted_ptr_inplaceIN5telux6common18FunctionalCallbackIJNS0_6config10ConfigInfoENS1_9ErrorCodeEEEESaIS6_ELN9__gnu_cxx12_Lock_policyE2EE14_M_get_deleterERKSt9type_info=so_stub_for_libtelux_config
-Wl,--defsym=_ZNSt23_Sp_counted_ptr_inplaceIN5telux6common18FunctionalCallbackIJNS0_6config10ConfigInfoENS1_9ErrorCodeEEEESaIS6_ELN9__gnu_cxx12_Lock_policyE2EED0Ev=so_stub_for_libtelux_config
-Wl,--defsym=_ZNSt23_Sp_counted_ptr_inplaceIN5telux6common18FunctionalCallbackIJNS0_6config10ConfigInfoENS1_9ErrorCodeEEEESaIS6_ELN9__gnu_cxx12_Lock_policyE2EED1Ev=so_stub_for_libtelux_config
-Wl,--defsym=_ZNSt23_Sp_counted_ptr_inplaceIN5telux6common18FunctionalCallbackIJNS0_6config10ConfigInfoENS1_9ErrorCodeEEEESaIS6_ELN9__gnu_cxx12_Lock_policyE2EED2Ev=so_stub_for_libtelux_config
-Wl,--defsym=_ZNSt23_Sp_counted_ptr_inplaceIN5telux6common18FunctionalCallbackIJNS0_6config17AutoSelectionModeENS1_9ErrorCodeEEEESaIS6_ELN9__gnu_cxx12_Lock_policyE2EE10_M_destroyEv=so_stub_for_libtelux_config
-Wl,--defsym=_ZNSt23_Sp_counted_ptr_inplaceIN5telux6common18FunctionalCallbackIJNS0_6config17AutoSelectionModeENS1_9ErrorCodeEEEESaIS6_ELN9__gnu_cxx12_Lock_policyE2EE10_M_disposeEv=so_stub_for_libtelux_config
-Wl,--defsym=_ZNSt23_Sp_counted_ptr_inplaceIN5telux6common18FunctionalCallbackIJNS0_6config17AutoSelectionModeENS1_9ErrorCodeEEEESaIS6_ELN9__gnu_cxx12_Lock_policyE2EE14_M_get_deleterERKSt9type_info=so_stub_for_libtelux_config
-Wl,--defsym=_ZNSt23_Sp_counted_ptr_inplaceIN5telux6common18FunctionalCallbackIJNS0_6config17AutoSelectionModeENS1_9ErrorCodeEEEESaIS6_ELN9__gnu_cxx12_Lock_policyE2EED0Ev=so_stub_for_libtelux_config
-Wl,--defsym=_ZNSt23_Sp_counted_ptr_inplaceIN5telux6common18FunctionalCallbackIJNS0_6config17AutoSelectionModeENS1_9ErrorCodeEEEESaIS6_ELN9__gnu_cxx12_Lock_policyE2EED1Ev=so_stub_for_libtelux_config
-Wl,--defsym=_ZNSt23_Sp_counted_ptr_inplaceIN5telux6common18FunctionalCallbackIJNS0_6config17AutoSelectionModeENS1_9ErrorCodeEEEESaIS6_ELN9__gnu_cxx12_Lock_policyE2EED2Ev=so_stub_for_libtelux_config
-Wl,--defsym=_ZNSt23_Sp_counted_ptr_inplaceIN5telux6common18FunctionalCallbackIJNS1_9ErrorCodeEEEESaIS4_ELN9__gnu_cxx12_Lock_policyE2EE10_M_destroyEv=so_stub_for_libtelux_config
-Wl,--defsym=_ZNSt23_Sp_counted_ptr_inplaceIN5telux6common18FunctionalCallbackIJNS1_9ErrorCodeEEEESaIS4_ELN9__gnu_cxx12_Lock_policyE2EE10_M_disposeEv=so_stub_for_libtelux_config
-Wl,--defsym=_ZNSt23_Sp_counted_ptr_inplaceIN5telux6common18FunctionalCallbackIJNS1_9ErrorCodeEEEESaIS4_ELN9__gnu_cxx12_Lock_policyE2EE14_M_get_deleterERKSt9type_info=so_stub_for_libtelux_config
-Wl,--defsym=_ZNSt23_Sp_counted_ptr_inplaceIN5telux6common18FunctionalCallbackIJNS1_9ErrorCodeEEEESaIS4_ELN9__gnu_cxx12_Lock_policyE2EED0Ev=so_stub_for_libtelux_config
-Wl,--defsym=_ZNSt23_Sp_counted_ptr_inplaceIN5telux6common18FunctionalCallbackIJNS1_9ErrorCodeEEEESaIS4_ELN9__gnu_cxx12_Lock_policyE2EED1Ev=so_stub_for_libtelux_config
-Wl,--defsym=_ZNSt23_Sp_counted_ptr_inplaceIN5telux6common18FunctionalCallbackIJNS1_9ErrorCodeEEEESaIS4_ELN9__gnu_cxx12_Lock_policyE2EED2Ev=so_stub_for_libtelux_config
-Wl,--defsym=_ZNSt23_Sp_counted_ptr_inplaceIN5telux6common18FunctionalCallbackIJSt6vectorINS0_6config10ConfigInfoESaIS5_EENS1_9ErrorCodeEEEESaIS9_ELN9__gnu_cxx12_Lock_policyE2EE10_M_destroyEv=so_stub_for_libtelux_config
-Wl,--defsym=_ZNSt23_Sp_counted_ptr_inplaceIN5telux6common18FunctionalCallbackIJSt6vectorINS0_6config10ConfigInfoESaIS5_EENS1_9ErrorCodeEEEESaIS9_ELN9__gnu_cxx12_Lock_policyE2EE10_M_disposeEv=so_stub_for_libtelux_config
-Wl,--defsym=_ZNSt23_Sp_counted_ptr_inplaceIN5telux6common18FunctionalCallbackIJSt6vectorINS0_6config10ConfigInfoESaIS5_EENS1_9ErrorCodeEEEESaIS9_ELN9__gnu_cxx12_Lock_policyE2EE14_M_get_deleterERKSt9type_info=so_stub_for_libtelux_config
-Wl,--defsym=_ZNSt23_Sp_counted_ptr_inplaceIN5telux6common18FunctionalCallbackIJSt6vectorINS0_6config10ConfigInfoESaIS5_EENS1_9ErrorCodeEEEESaIS9_ELN9__gnu_cxx12_Lock_policyE2EED0Ev=so_stub_for_libtelux_config
-Wl,--defsym=_ZNSt23_Sp_counted_ptr_inplaceIN5telux6common18FunctionalCallbackIJSt6vectorINS0_6config10ConfigInfoESaIS5_EENS1_9ErrorCodeEEEESaIS9_ELN9__gnu_cxx12_Lock_policyE2EED1Ev=so_stub_for_libtelux_config
-Wl,--defsym=_ZNSt23_Sp_counted_ptr_inplaceIN5telux6common18FunctionalCallbackIJSt6vectorINS0_6config10ConfigInfoESaIS5_EENS1_9ErrorCodeEEEESaIS9_ELN9__gnu_cxx12_Lock_policyE2EED2Ev=so_stub_for_libtelux_config
-Wl,--defsym=_ZNSt23_Sp_counted_ptr_inplaceIN5telux6config21QmiLoadConfigCallbackESaIS2_ELN9__gnu_cxx12_Lock_policyE2EE10_M_destroyEv=so_stub_for_libtelux_config
-Wl,--defsym=_ZNSt23_Sp_counted_ptr_inplaceIN5telux6config21QmiLoadConfigCallbackESaIS2_ELN9__gnu_cxx12_Lock_policyE2EE10_M_disposeEv=so_stub_for_libtelux_config
-Wl,--defsym=_ZNSt23_Sp_counted_ptr_inplaceIN5telux6config21QmiLoadConfigCallbackESaIS2_ELN9__gnu_cxx12_Lock_policyE2EE14_M_get_deleterERKSt9type_info=so_stub_for_libtelux_config
-Wl,--defsym=_ZNSt23_Sp_counted_ptr_inplaceIN5telux6config21QmiLoadConfigCallbackESaIS2_ELN9__gnu_cxx12_Lock_policyE2EED0Ev=so_stub_for_libtelux_config
-Wl,--defsym=_ZNSt23_Sp_counted_ptr_inplaceIN5telux6config21QmiLoadConfigCallbackESaIS2_ELN9__gnu_cxx12_Lock_policyE2EED1Ev=so_stub_for_libtelux_config
-Wl,--defsym=_ZNSt23_Sp_counted_ptr_inplaceIN5telux6config21QmiLoadConfigCallbackESaIS2_ELN9__gnu_cxx12_Lock_policyE2EED2Ev=so_stub_for_libtelux_config
-Wl,--defsym=_ZNSt23_Sp_counted_ptr_inplaceIN5telux6config22ModemConfigManagerImplESaIS2_ELN9__gnu_cxx12_Lock_policyE2EE10_M_destroyEv=so_stub_for_libtelux_config
-Wl,--defsym=_ZNSt23_Sp_counted_ptr_inplaceIN5telux6config22ModemConfigManagerImplESaIS2_ELN9__gnu_cxx12_Lock_policyE2EE10_M_disposeEv=so_stub_for_libtelux_config
-Wl,--defsym=_ZNSt23_Sp_counted_ptr_inplaceIN5telux6config22ModemConfigManagerImplESaIS2_ELN9__gnu_cxx12_Lock_policyE2EE14_M_get_deleterERKSt9type_info=so_stub_for_libtelux_config
-Wl,--defsym=_ZNSt23_Sp_counted_ptr_inplaceIN5telux6config22ModemConfigManagerImplESaIS2_ELN9__gnu_cxx12_Lock_policyE2EED0Ev=so_stub_for_libtelux_config
-Wl,--defsym=_ZNSt23_Sp_counted_ptr_inplaceIN5telux6config22ModemConfigManagerImplESaIS2_ELN9__gnu_cxx12_Lock_policyE2EED1Ev=so_stub_for_libtelux_config
-Wl,--defsym=_ZNSt23_Sp_counted_ptr_inplaceIN5telux6config22ModemConfigManagerImplESaIS2_ELN9__gnu_cxx12_Lock_policyE2EED2Ev=so_stub_for_libtelux_config
-Wl,--defsym=_ZNSt23_Sp_counted_ptr_inplaceIN5telux6config23QmiDeleteConfigCallbackESaIS2_ELN9__gnu_cxx12_Lock_policyE2EE10_M_destroyEv=so_stub_for_libtelux_config
-Wl,--defsym=_ZNSt23_Sp_counted_ptr_inplaceIN5telux6config23QmiDeleteConfigCallbackESaIS2_ELN9__gnu_cxx12_Lock_policyE2EE10_M_disposeEv=so_stub_for_libtelux_config
-Wl,--defsym=_ZNSt23_Sp_counted_ptr_inplaceIN5telux6config23QmiDeleteConfigCallbackESaIS2_ELN9__gnu_cxx12_Lock_policyE2EE14_M_get_deleterERKSt9type_info=so_stub_for_libtelux_config
-Wl,--defsym=_ZNSt23_Sp_counted_ptr_inplaceIN5telux6config23QmiDeleteConfigCallbackESaIS2_ELN9__gnu_cxx12_Lock_policyE2EED0Ev=so_stub_for_libtelux_config
-Wl,--defsym=_ZNSt23_Sp_counted_ptr_inplaceIN5telux6config23QmiDeleteConfigCallbackESaIS2_ELN9__gnu_cxx12_Lock_policyE2EED1Ev=so_stub_for_libtelux_config
-Wl,--defsym=_ZNSt23_Sp_counted_ptr_inplaceIN5telux6config23QmiDeleteConfigCallbackESaIS2_ELN9__gnu_cxx12_Lock_policyE2EED2Ev=so_stub_for_libtelux_config
-Wl,--defsym=_ZNSt23_Sp_counted_ptr_inplaceIN5telux6config25QmiActivateConfigCallbackESaIS2_ELN9__gnu_cxx12_Lock_policyE2EE10_M_destroyEv=so_stub_for_libtelux_config
-Wl,--defsym=_ZNSt23_Sp_counted_ptr_inplaceIN5telux6config25QmiActivateConfigCallbackESaIS2_ELN9__gnu_cxx12_Lock_policyE2EE10_M_disposeEv=so_stub_for_libtelux_config
-Wl,--defsym=_ZNSt23_Sp_counted_ptr_inplaceIN5telux6config25QmiActivateConfigCallbackESaIS2_ELN9__gnu_cxx12_Lock_policyE2EE14_M_get_deleterERKSt9type_info=so_stub_for_libtelux_config
-Wl,--defsym=_ZNSt23_Sp_counted_ptr_inplaceIN5telux6config25QmiActivateConfigCallbackESaIS2_ELN9__gnu_cxx12_Lock_policyE2EED0Ev=so_stub_for_libtelux_config
-Wl,--defsym=_ZNSt23_Sp_counted_ptr_inplaceIN5telux6config25QmiActivateConfigCallbackESaIS2_ELN9__gnu_cxx12_Lock_policyE2EED1Ev=so_stub_for_libtelux_config
-Wl,--defsym=_ZNSt23_Sp_counted_ptr_inplaceIN5telux6config25QmiActivateConfigCallbackESaIS2_ELN9__gnu_cxx12_Lock_policyE2EED2Ev=so_stub_for_libtelux_config
-Wl,--defsym=_ZNSt23_Sp_counted_ptr_inplaceIN5telux6config26QmiGetActiveConfigCallbackESaIS2_ELN9__gnu_cxx12_Lock_policyE2EE10_M_destroyEv=so_stub_for_libtelux_config
-Wl,--defsym=_ZNSt23_Sp_counted_ptr_inplaceIN5telux6config26QmiGetActiveConfigCallbackESaIS2_ELN9__gnu_cxx12_Lock_policyE2EE10_M_disposeEv=so_stub_for_libtelux_config
-Wl,--defsym=_ZNSt23_Sp_counted_ptr_inplaceIN5telux6config26QmiGetActiveConfigCallbackESaIS2_ELN9__gnu_cxx12_Lock_policyE2EE14_M_get_deleterERKSt9type_info=so_stub_for_libtelux_config
-Wl,--defsym=_ZNSt23_Sp_counted_ptr_inplaceIN5telux6config26QmiGetActiveConfigCallbackESaIS2_ELN9__gnu_cxx12_Lock_policyE2EED0Ev=so_stub_for_libtelux_config
-Wl,--defsym=_ZNSt23_Sp_counted_ptr_inplaceIN5telux6config26QmiGetActiveConfigCallbackESaIS2_ELN9__gnu_cxx12_Lock_policyE2EED1Ev=so_stub_for_libtelux_config
-Wl,--defsym=_ZNSt23_Sp_counted_ptr_inplaceIN5telux6config26QmiGetActiveConfigCallbackESaIS2_ELN9__gnu_cxx12_Lock_policyE2EED2Ev=so_stub_for_libtelux_config
-Wl,--defsym=_ZNSt23_Sp_counted_ptr_inplaceIN5telux6config26QmiSetSelectConfigCallbackESaIS2_ELN9__gnu_cxx12_Lock_policyE2EE10_M_destroyEv=so_stub_for_libtelux_config
-Wl,--defsym=_ZNSt23_Sp_counted_ptr_inplaceIN5telux6config26QmiSetSelectConfigCallbackESaIS2_ELN9__gnu_cxx12_Lock_policyE2EE10_M_disposeEv=so_stub_for_libtelux_config
-Wl,--defsym=_ZNSt23_Sp_counted_ptr_inplaceIN5telux6config26QmiSetSelectConfigCallbackESaIS2_ELN9__gnu_cxx12_Lock_policyE2EE14_M_get_deleterERKSt9type_info=so_stub_for_libtelux_config
-Wl,--defsym=_ZNSt23_Sp_counted_ptr_inplaceIN5telux6config26QmiSetSelectConfigCallbackESaIS2_ELN9__gnu_cxx12_Lock_policyE2EED0Ev=so_stub_for_libtelux_config
-Wl,--defsym=_ZNSt23_Sp_counted_ptr_inplaceIN5telux6config26QmiSetSelectConfigCallbackESaIS2_ELN9__gnu_cxx12_Lock_policyE2EED1Ev=so_stub_for_libtelux_config
-Wl,--defsym=_ZNSt23_Sp_counted_ptr_inplaceIN5telux6config26QmiSetSelectConfigCallbackESaIS2_ELN9__gnu_cxx12_Lock_policyE2EED2Ev=so_stub_for_libtelux_config
-Wl,--defsym=_ZNSt23_Sp_counted_ptr_inplaceIN5telux6config27QmiDeactivateConfigCallbackESaIS2_ELN9__gnu_cxx12_Lock_policyE2EE10_M_destroyEv=so_stub_for_libtelux_config
-Wl,--defsym=_ZNSt23_Sp_counted_ptr_inplaceIN5telux6config27QmiDeactivateConfigCallbackESaIS2_ELN9__gnu_cxx12_Lock_policyE2EE10_M_disposeEv=so_stub_for_libtelux_config
-Wl,--defsym=_ZNSt23_Sp_counted_ptr_inplaceIN5telux6config27QmiDeactivateConfigCallbackESaIS2_ELN9__gnu_cxx12_Lock_policyE2EE14_M_get_deleterERKSt9type_info=so_stub_for_libtelux_config
-Wl,--defsym=_ZNSt23_Sp_counted_ptr_inplaceIN5telux6config27QmiDeactivateConfigCallbackESaIS2_ELN9__gnu_cxx12_Lock_policyE2EED0Ev=so_stub_for_libtelux_config
-Wl,--defsym=_ZNSt23_Sp_counted_ptr_inplaceIN5telux6config27QmiDeactivateConfigCallbackESaIS2_ELN9__gnu_cxx12_Lock_policyE2EED1Ev=so_stub_for_libtelux_config
-Wl,--defsym=_ZNSt23_Sp_counted_ptr_inplaceIN5telux6config27QmiDeactivateConfigCallbackESaIS2_ELN9__gnu_cxx12_Lock_policyE2EED2Ev=so_stub_for_libtelux_config
-Wl,--defsym=_ZNSt23_Sp_counted_ptr_inplaceIN5telux6config27QmiGetConfigFeatureCallbackESaIS2_ELN9__gnu_cxx12_Lock_policyE2EE10_M_destroyEv=so_stub_for_libtelux_config
-Wl,--defsym=_ZNSt23_Sp_counted_ptr_inplaceIN5telux6config27QmiGetConfigFeatureCallbackESaIS2_ELN9__gnu_cxx12_Lock_policyE2EE10_M_disposeEv=so_stub_for_libtelux_config
-Wl,--defsym=_ZNSt23_Sp_counted_ptr_inplaceIN5telux6config27QmiGetConfigFeatureCallbackESaIS2_ELN9__gnu_cxx12_Lock_policyE2EE14_M_get_deleterERKSt9type_info=so_stub_for_libtelux_config
-Wl,--defsym=_ZNSt23_Sp_counted_ptr_inplaceIN5telux6config27QmiGetConfigFeatureCallbackESaIS2_ELN9__gnu_cxx12_Lock_policyE2EED0Ev=so_stub_for_libtelux_config
-Wl,--defsym=_ZNSt23_Sp_counted_ptr_inplaceIN5telux6config27QmiGetConfigFeatureCallbackESaIS2_ELN9__gnu_cxx12_Lock_policyE2EED1Ev=so_stub_for_libtelux_config
-Wl,--defsym=_ZNSt23_Sp_counted_ptr_inplaceIN5telux6config27QmiGetConfigFeatureCallbackESaIS2_ELN9__gnu_cxx12_Lock_policyE2EED2Ev=so_stub_for_libtelux_config
-Wl,--defsym=_ZNSt23_Sp_counted_ptr_inplaceIN5telux6config27QmiSetConfigFeatureCallbackESaIS2_ELN9__gnu_cxx12_Lock_policyE2EE10_M_destroyEv=so_stub_for_libtelux_config
-Wl,--defsym=_ZNSt23_Sp_counted_ptr_inplaceIN5telux6config27QmiSetConfigFeatureCallbackESaIS2_ELN9__gnu_cxx12_Lock_policyE2EE10_M_disposeEv=so_stub_for_libtelux_config
-Wl,--defsym=_ZNSt23_Sp_counted_ptr_inplaceIN5telux6config27QmiSetConfigFeatureCallbackESaIS2_ELN9__gnu_cxx12_Lock_policyE2EE14_M_get_deleterERKSt9type_info=so_stub_for_libtelux_config
-Wl,--defsym=_ZNSt23_Sp_counted_ptr_inplaceIN5telux6config27QmiSetConfigFeatureCallbackESaIS2_ELN9__gnu_cxx12_Lock_policyE2EED0Ev=so_stub_for_libtelux_config
-Wl,--defsym=_ZNSt23_Sp_counted_ptr_inplaceIN5telux6config27QmiSetConfigFeatureCallbackESaIS2_ELN9__gnu_cxx12_Lock_policyE2EED1Ev=so_stub_for_libtelux_config
-Wl,--defsym=_ZNSt23_Sp_counted_ptr_inplaceIN5telux6config27QmiSetConfigFeatureCallbackESaIS2_ELN9__gnu_cxx12_Lock_policyE2EED2Ev=so_stub_for_libtelux_config
-Wl,--defsym=_ZNSt23_Sp_counted_ptr_inplaceIN5telux6config28QmiRequestConfigInfoCallbackESaIS2_ELN9__gnu_cxx12_Lock_policyE2EE10_M_destroyEv=so_stub_for_libtelux_config
-Wl,--defsym=_ZNSt23_Sp_counted_ptr_inplaceIN5telux6config28QmiRequestConfigInfoCallbackESaIS2_ELN9__gnu_cxx12_Lock_policyE2EE10_M_disposeEv=so_stub_for_libtelux_config
-Wl,--defsym=_ZNSt23_Sp_counted_ptr_inplaceIN5telux6config28QmiRequestConfigInfoCallbackESaIS2_ELN9__gnu_cxx12_Lock_policyE2EE14_M_get_deleterERKSt9type_info=so_stub_for_libtelux_config
-Wl,--defsym=_ZNSt23_Sp_counted_ptr_inplaceIN5telux6config28QmiRequestConfigInfoCallbackESaIS2_ELN9__gnu_cxx12_Lock_policyE2EED0Ev=so_stub_for_libtelux_config
-Wl,--defsym=_ZNSt23_Sp_counted_ptr_inplaceIN5telux6config28QmiRequestConfigInfoCallbackESaIS2_ELN9__gnu_cxx12_Lock_policyE2EED1Ev=so_stub_for_libtelux_config
-Wl,--defsym=_ZNSt23_Sp_counted_ptr_inplaceIN5telux6config28QmiRequestConfigInfoCallbackESaIS2_ELN9__gnu_cxx12_Lock_policyE2EED2Ev=so_stub_for_libtelux_config
-Wl,--defsym=_ZNSt23_Sp_counted_ptr_inplaceIN5telux6config28QmiRequestConfigListCallbackESaIS2_ELN9__gnu_cxx12_Lock_policyE2EE10_M_destroyEv=so_stub_for_libtelux_config
-Wl,--defsym=_ZNSt23_Sp_counted_ptr_inplaceIN5telux6config28QmiRequestConfigListCallbackESaIS2_ELN9__gnu_cxx12_Lock_policyE2EE10_M_disposeEv=so_stub_for_libtelux_config
-Wl,--defsym=_ZNSt23_Sp_counted_ptr_inplaceIN5telux6config28QmiRequestConfigListCallbackESaIS2_ELN9__gnu_cxx12_Lock_policyE2EE14_M_get_deleterERKSt9type_info=so_stub_for_libtelux_config
-Wl,--defsym=_ZNSt23_Sp_counted_ptr_inplaceIN5telux6config28QmiRequestConfigListCallbackESaIS2_ELN9__gnu_cxx12_Lock_policyE2EED0Ev=so_stub_for_libtelux_config
-Wl,--defsym=_ZNSt23_Sp_counted_ptr_inplaceIN5telux6config28QmiRequestConfigListCallbackESaIS2_ELN9__gnu_cxx12_Lock_policyE2EED1Ev=so_stub_for_libtelux_config
-Wl,--defsym=_ZNSt23_Sp_counted_ptr_inplaceIN5telux6config28QmiRequestConfigListCallbackESaIS2_ELN9__gnu_cxx12_Lock_policyE2EED2Ev=so_stub_for_libtelux_config
-Wl,--defsym=_ZNSt23_Sp_counted_ptr_inplaceIN5telux6config35QmiRequestDefaultConfigInfoCallbackESaIS2_ELN9__gnu_cxx12_Lock_policyE2EE10_M_destroyEv=so_stub_for_libtelux_config
-Wl,--defsym=_ZNSt23_Sp_counted_ptr_inplaceIN5telux6config35QmiRequestDefaultConfigInfoCallbackESaIS2_ELN9__gnu_cxx12_Lock_policyE2EE10_M_disposeEv=so_stub_for_libtelux_config
-Wl,--defsym=_ZNSt23_Sp_counted_ptr_inplaceIN5telux6config35QmiRequestDefaultConfigInfoCallbackESaIS2_ELN9__gnu_cxx12_Lock_policyE2EE14_M_get_deleterERKSt9type_info=so_stub_for_libtelux_config
-Wl,--defsym=_ZNSt23_Sp_counted_ptr_inplaceIN5telux6config35QmiRequestDefaultConfigInfoCallbackESaIS2_ELN9__gnu_cxx12_Lock_policyE2EED0Ev=so_stub_for_libtelux_config
-Wl,--defsym=_ZNSt23_Sp_counted_ptr_inplaceIN5telux6config35QmiRequestDefaultConfigInfoCallbackESaIS2_ELN9__gnu_cxx12_Lock_policyE2EED1Ev=so_stub_for_libtelux_config
-Wl,--defsym=_ZNSt23_Sp_counted_ptr_inplaceIN5telux6config35QmiRequestDefaultConfigInfoCallbackESaIS2_ELN9__gnu_cxx12_Lock_policyE2EED2Ev=so_stub_for_libtelux_config
-Wl,--defsym=_ZNSt23_Sp_counted_ptr_inplaceINSt13__future_base13_State_baseV2ESaIS1_ELN9__gnu_cxx12_Lock_policyE2EE10_M_destroyEv=so_stub_for_libtelux_config
-Wl,--defsym=_ZNSt23_Sp_counted_ptr_inplaceINSt13__future_base13_State_baseV2ESaIS1_ELN9__gnu_cxx12_Lock_policyE2EE10_M_disposeEv=so_stub_for_libtelux_config
-Wl,--defsym=_ZNSt23_Sp_counted_ptr_inplaceINSt13__future_base13_State_baseV2ESaIS1_ELN9__gnu_cxx12_Lock_policyE2EE14_M_get_deleterERKSt9type_info=so_stub_for_libtelux_config
-Wl,--defsym=_ZNSt23_Sp_counted_ptr_inplaceINSt13__future_base13_State_baseV2ESaIS1_ELN9__gnu_cxx12_Lock_policyE2EED0Ev=so_stub_for_libtelux_config
-Wl,--defsym=_ZNSt23_Sp_counted_ptr_inplaceINSt13__future_base13_State_baseV2ESaIS1_ELN9__gnu_cxx12_Lock_policyE2EED1Ev=so_stub_for_libtelux_config
-Wl,--defsym=_ZNSt23_Sp_counted_ptr_inplaceINSt13__future_base13_State_baseV2ESaIS1_ELN9__gnu_cxx12_Lock_policyE2EED2Ev=so_stub_for_libtelux_config
-Wl,--defsym=_ZNSt5dequeISt13shared_futureIvESaIS1_EE16_M_push_back_auxIJRKS1_EEEvDpOT_=so_stub_for_libtelux_config
-Wl,--defsym=_ZNSt5dequeISt13shared_futureIvESaIS1_EE19_M_destroy_data_auxESt15_Deque_iteratorIS1_RS1_PS1_ES7_=so_stub_for_libtelux_config
-Wl,--defsym=_ZNSt5dequeISt13shared_futureIvESaIS1_EE8_M_eraseESt15_Deque_iteratorIS1_RS1_PS1_E=so_stub_for_libtelux_config
-Wl,--defsym=_ZNSt5dequeISt13shared_futureIvESaIS1_EE8pop_backEv=so_stub_for_libtelux_config
-Wl,--defsym=_ZNSt5dequeISt13shared_futureIvESaIS1_EE9pop_frontEv=so_stub_for_libtelux_config
-Wl,--defsym=_ZNSt5dequeISt13shared_futureIvESaIS1_EE9push_backERKS1_=so_stub_for_libtelux_config
-Wl,--defsym=_ZNSt5dequeISt13shared_futureIvESaIS1_EED1Ev=so_stub_for_libtelux_config
-Wl,--defsym=_ZNSt5dequeISt13shared_futureIvESaIS1_EED2Ev=so_stub_for_libtelux_config
-Wl,--defsym=_ZNSt6futureIbE3getEv=so_stub_for_libtelux_config
-Wl,--defsym=_ZNSt6futureIiE3getEv=so_stub_for_libtelux_config
-Wl,--defsym=_ZNSt6vectorIN5telux6config10ConfigInfoESaIS2_EE13_M_assign_auxIPKS2_EEvT_S8_St20forward_iterator_tag=so_stub_for_libtelux_config
-Wl,--defsym=_ZNSt6vectorIN5telux6config10ConfigInfoESaIS2_EE17_M_realloc_insertIJRS2_EEEvN9__gnu_cxx17__normal_iteratorIPS2_S4_EEDpOT_=so_stub_for_libtelux_config
-Wl,--defsym=_ZNSt6vectorIN5telux6config10ConfigInfoESaIS2_EED1Ev=so_stub_for_libtelux_config
-Wl,--defsym=_ZNSt6vectorIN5telux6config10ConfigInfoESaIS2_EED2Ev=so_stub_for_libtelux_config
-Wl,--defsym=_ZNSt6vectorISt8weak_ptrIN5telux6config20IModemConfigListenerEESaIS4_EE17_M_realloc_insertIJRS4_EEEvN9__gnu_cxx17__normal_iteratorIPS4_S6_EEDpOT_=so_stub_for_libtelux_config
-Wl,--defsym=_ZNSt6vectorISt8weak_ptrIN5telux6config20IModemConfigListenerEESaIS4_EE17_M_realloc_insertIJRSt10shared_ptrIS3_EEEEvN9__gnu_cxx17__normal_iteratorIPS4_S6_EEDpOT_=so_stub_for_libtelux_config
-Wl,--defsym=_ZNSt6vectorISt8weak_ptrIN5telux6config20IModemConfigListenerEESaIS4_EE8_M_eraseEN9__gnu_cxx17__normal_iteratorIPS4_S6_EE=so_stub_for_libtelux_config
-Wl,--defsym=_ZNSt6vectorISt8weak_ptrIN5telux6config20IModemConfigListenerEESaIS4_EED1Ev=so_stub_for_libtelux_config
-Wl,--defsym=_ZNSt6vectorISt8weak_ptrIN5telux6config20IModemConfigListenerEESaIS4_EED2Ev=so_stub_for_libtelux_config
-Wl,--defsym=_ZNSt7__cxx1112basic_stringIcSt11char_traitsIcESaIcEE12_M_constructIPcEEvT_S7_St20forward_iterator_tag=so_stub_for_libtelux_config
-Wl,--defsym=_ZNSt7__cxx1112basic_stringIcSt11char_traitsIcESaIcEE12_M_constructIPKcEEvT_S8_St20forward_iterator_tag=so_stub_for_libtelux_config
-Wl,--defsym=_ZNSt7promiseIiE9set_valueEOi=so_stub_for_libtelux_config
-Wl,--defsym=_ZNSt7promiseIiE9set_valueERKi=so_stub_for_libtelux_config
-Wl,--defsym=_ZNSt7promiseIiEC1Ev=so_stub_for_libtelux_config
-Wl,--defsym=_ZNSt7promiseIiEC2Ev=so_stub_for_libtelux_config
-Wl,--defsym=_ZNSt7promiseIiED1Ev=so_stub_for_libtelux_config
-Wl,--defsym=_ZNSt7promiseIiED2Ev=so_stub_for_libtelux_config
-Wl,--defsym=_ZNSt8__detail9_Map_baseIiSt4pairIKiSt10shared_ptrIN5telux6common16ICommandCallbackEEESaIS8_ENS_10_Select1stESt8equal_toIiESt4hashIiENS_18_Mod_range_hashingENS_20_Default_ranged_hashENS_20_Prime_rehash_policyENS_17_Hashtable_traitsILb0ELb0ELb1EEELb1EEixERS2_=so_stub_for_libtelux_config
-Wl,--defsym=_ZNSt8functionIFvN5telux6common9ErrorCodeEEEC1ERKS4_=so_stub_for_libtelux_config
-Wl,--defsym=_ZNSt8functionIFvN5telux6common9ErrorCodeEEEC2ERKS4_=so_stub_for_libtelux_config
-Wl,--defsym=_ZNSt8functionIFvN5telux6config10ConfigInfoENS0_6common9ErrorCodeEEEC1ERKS6_=so_stub_for_libtelux_config
-Wl,--defsym=_ZNSt8functionIFvN5telux6config10ConfigInfoENS0_6common9ErrorCodeEEEC2ERKS6_=so_stub_for_libtelux_config
-Wl,--defsym=_ZNSt8functionIFvN5telux6config17AutoSelectionModeENS0_6common9ErrorCodeEEEC1ERKS6_=so_stub_for_libtelux_config
-Wl,--defsym=_ZNSt8functionIFvN5telux6config17AutoSelectionModeENS0_6common9ErrorCodeEEEC2ERKS6_=so_stub_for_libtelux_config
-Wl,--defsym=_ZNSt8functionIFvSt6vectorIN5telux6config10ConfigInfoESaIS3_EENS1_6common9ErrorCodeEEEC1ERKS9_=so_stub_for_libtelux_config
-Wl,--defsym=_ZNSt8functionIFvSt6vectorIN5telux6config10ConfigInfoESaIS3_EENS1_6common9ErrorCodeEEEC2ERKS9_=so_stub_for_libtelux_config
-Wl,--defsym=_ZSt13move_backwardISt13shared_futureIvEESt15_Deque_iteratorIT_RS3_PS3_ES2_IS3_RKS3_PS7_ESA_S6_=so_stub_for_libtelux_config
-Wl,--defsym=_ZSt18make_exception_ptrISt12future_errorENSt15__exception_ptr13exception_ptrET_=so_stub_for_libtelux_config
-Wl,--defsym=_ZSt20__throw_bad_weak_ptrv=so_stub_for_libtelux_config
-Wl,--defsym=_ZSt4moveISt13shared_futureIvEESt15_Deque_iteratorIT_RS3_PS3_ES6_S6_S6_=so_stub_for_libtelux_config
-Wl,--defsym=_ZSt7find_ifIN9__gnu_cxx17__normal_iteratorIPSt8weak_ptrIN5telux6config20IModemConfigListenerEESt6vectorIS6_SaIS6_EEEEZNS3_6common15ListenerManagerIS5_E16registerListenerES6_EUlS6_E_ET_SG_SG_T0_=so_stub_for_libtelux_config
-Wl,--defsym=_ZSt9__find_ifIN9__gnu_cxx17__normal_iteratorIPSt8weak_ptrIN5telux6config20IModemConfigListenerEESt6vectorIS6_SaIS6_EEEENS0_5__ops10_Iter_predIZNS3_6common15ListenerManagerIS5_E16registerListenerES6_EUlS6_E_EEET_SJ_SJ_T0_=so_stub_for_libtelux_config
-Wl,--defsym=_ZSt9__find_ifIN9__gnu_cxx17__normal_iteratorIPSt8weak_ptrIN5telux6config20IModemConfigListenerEESt6vectorIS6_SaIS6_EEEENS0_5__ops10_Iter_predIZNS3_6common15ListenerManagerIS5_E16registerListenerES6_EUlS6_E_EEET_SJ_SJ_T0_St26random_access_iterator_tag=so_stub_for_libtelux_config
-Wl,--defsym=_ZSteqRKSt10error_codeRKSt15error_condition=so_stub_for_libtelux_config
-Wl,--defsym=_ZThn16_N5telux6config21QmiLoadConfigCallback14onLoadConfiIndERK27pdc_load_config_ind_msg_v01=so_stub_for_libtelux_config
-Wl,--defsym=_ZThn16_N5telux6config21QmiLoadConfigCallbackD0Ev=so_stub_for_libtelux_config
-Wl,--defsym=_ZThn16_N5telux6config21QmiLoadConfigCallbackD1Ev=so_stub_for_libtelux_config
-Wl,--defsym=_ZThn16_N5telux6config23QmiDeleteConfigCallback17onDeleteConfigIndERK29pdc_delete_config_ind_msg_v01=so_stub_for_libtelux_config
-Wl,--defsym=_ZThn16_N5telux6config23QmiDeleteConfigCallbackD0Ev=so_stub_for_libtelux_config
-Wl,--defsym=_ZThn16_N5telux6config23QmiDeleteConfigCallbackD1Ev=so_stub_for_libtelux_config
-Wl,--defsym=_ZThn16_N5telux6config25QmiActivateConfigCallback19onActivateConfigIndERK31pdc_activate_config_ind_msg_v01=so_stub_for_libtelux_config
-Wl,--defsym=_ZThn16_N5telux6config25QmiActivateConfigCallbackD0Ev=so_stub_for_libtelux_config
-Wl,--defsym=_ZThn16_N5telux6config25QmiActivateConfigCallbackD1Ev=so_stub_for_libtelux_config
-Wl,--defsym=_ZThn16_N5telux6config26QmiGetActiveConfigCallback20onGetSelectConfigIndERK35pdc_get_selected_config_ind_msg_v01=so_stub_for_libtelux_config
-Wl,--defsym=_ZThn16_N5telux6config26QmiGetActiveConfigCallbackD0Ev=so_stub_for_libtelux_config
-Wl,--defsym=_ZThn16_N5telux6config26QmiGetActiveConfigCallbackD1Ev=so_stub_for_libtelux_config
-Wl,--defsym=_ZThn16_N5telux6config26QmiSetSelectConfigCallback20onSetSelectConfigIndERK35pdc_set_selected_config_ind_msg_v01=so_stub_for_libtelux_config
-Wl,--defsym=_ZThn16_N5telux6config26QmiSetSelectConfigCallbackD0Ev=so_stub_for_libtelux_config
-Wl,--defsym=_ZThn16_N5telux6config26QmiSetSelectConfigCallbackD1Ev=so_stub_for_libtelux_config
-Wl,--defsym=_ZThn16_N5telux6config27QmiDeactivateConfigCallback21onDeactivateConfigIndERK33pdc_deactivate_config_ind_msg_v01=so_stub_for_libtelux_config
-Wl,--defsym=_ZThn16_N5telux6config27QmiDeactivateConfigCallbackD0Ev=so_stub_for_libtelux_config
-Wl,--defsym=_ZThn16_N5telux6config27QmiDeactivateConfigCallbackD1Ev=so_stub_for_libtelux_config
-Wl,--defsym=_ZThn16_N5telux6config27QmiGetConfigFeatureCallback15onGetFeatureIndERK27pdc_get_feature_ind_msg_v01=so_stub_for_libtelux_config
-Wl,--defsym=_ZThn16_N5telux6config27QmiGetConfigFeatureCallbackD0Ev=so_stub_for_libtelux_config
-Wl,--defsym=_ZThn16_N5telux6config27QmiGetConfigFeatureCallbackD1Ev=so_stub_for_libtelux_config
-Wl,--defsym=_ZThn16_N5telux6config27QmiSetConfigFeatureCallback15onSetFeatureIndERK27pdc_set_feature_ind_msg_v01=so_stub_for_libtelux_config
-Wl,--defsym=_ZThn16_N5telux6config27QmiSetConfigFeatureCallbackD0Ev=so_stub_for_libtelux_config
-Wl,--defsym=_ZThn16_N5telux6config27QmiSetConfigFeatureCallbackD1Ev=so_stub_for_libtelux_config
-Wl,--defsym=_ZThn16_N5telux6config28QmiRequestConfigInfoCallback18onGetConfigInfoIndERK31pdc_get_config_info_ind_msg_v01=so_stub_for_libtelux_config
-Wl,--defsym=_ZThn16_N5telux6config28QmiRequestConfigInfoCallbackD0Ev=so_stub_for_libtelux_config
-Wl,--defsym=_ZThn16_N5telux6config28QmiRequestConfigInfoCallbackD1Ev=so_stub_for_libtelux_config
-Wl,--defsym=_ZThn16_N5telux6config28QmiRequestConfigListCallback18onGetConfigListIndERK28pdc_list_configs_ind_msg_v01=so_stub_for_libtelux_config
-Wl,--defsym=_ZThn16_N5telux6config28QmiRequestConfigListCallbackD0Ev=so_stub_for_libtelux_config
-Wl,--defsym=_ZThn16_N5telux6config28QmiRequestConfigListCallbackD1Ev=so_stub_for_libtelux_config
-Wl,--defsym=_ZThn16_N5telux6config35QmiRequestDefaultConfigInfoCallback25onGetDefaultConfigInfoIndERK39pdc_get_default_config_info_ind_msg_v01=so_stub_for_libtelux_config
-Wl,--defsym=_ZThn16_N5telux6config35QmiRequestDefaultConfigInfoCallbackD0Ev=so_stub_for_libtelux_config
-Wl,--defsym=_ZThn16_N5telux6config35QmiRequestDefaultConfigInfoCallbackD1Ev=so_stub_for_libtelux_config
-Wl,--defsym=_ZThn4_N5telux6config22ModemConfigManagerImpl18onConfigRefreshIndERK23pdc_refresh_ind_msg_v01=so_stub_for_libtelux_config
-Wl,--defsym=_ZThn4_N5telux6config22ModemConfigManagerImpl32onModemConfigServiceStatusChangeENS_6common13ServiceStatusE=so_stub_for_libtelux_config
-Wl,--defsym=_ZThn4_N5telux6config22ModemConfigManagerImplD0Ev=so_stub_for_libtelux_config
-Wl,--defsym=_ZThn4_N5telux6config22ModemConfigManagerImplD1Ev=so_stub_for_libtelux_config
-Wl,--defsym=_ZThn8_N5telux6config22ModemConfigManagerImpl26onRegisterListenerResponseEiPv=so_stub_for_libtelux_config
-Wl,--defsym=_ZThn8_N5telux6config22ModemConfigManagerImplD0Ev=so_stub_for_libtelux_config
-Wl,--defsym=_ZThn8_N5telux6config22ModemConfigManagerImplD1Ev=so_stub_for_libtelux_config
-Wl,--defsym=_ZTIN5telux3qmi12IQmiListenerE=so_stub_for_libtelux_config
-Wl,--defsym=_ZTIN5telux3qmi20IQmiResponseCallbackE=so_stub_for_libtelux_config
-Wl,--defsym=_ZTIN5telux3qmi23IQmiModemConfigListenerE=so_stub_for_libtelux_config
-Wl,--defsym=_ZTIN5telux3qmi28IQmiRegisterListenerCallbackE=so_stub_for_libtelux_config
-Wl,--defsym=_ZTIN5telux6common16ICommandCallbackE=so_stub_for_libtelux_config
-Wl,--defsym=_ZTIN5telux6common18FunctionalCallbackIJNS0_9ErrorCodeEEEE=so_stub_for_libtelux_config
-Wl,--defsym=_ZTIN5telux6common18FunctionalCallbackIJNS_6config10ConfigInfoENS0_9ErrorCodeEEEE=so_stub_for_libtelux_config
-Wl,--defsym=_ZTIN5telux6common18FunctionalCallbackIJNS_6config17AutoSelectionModeENS0_9ErrorCodeEEEE=so_stub_for_libtelux_config
-Wl,--defsym=_ZTIN5telux6common18FunctionalCallbackIJSt6vectorINS_6config10ConfigInfoESaIS4_EENS0_9ErrorCodeEEEE=so_stub_for_libtelux_config
-Wl,--defsym=_ZTIN5telux6config19IModemConfigManagerE=so_stub_for_libtelux_config
-Wl,--defsym=_ZTIN5telux6config21QmiLoadConfigCallbackE=so_stub_for_libtelux_config
-Wl,--defsym=_ZTIN5telux6config22ModemConfigManagerImplE=so_stub_for_libtelux_config
-Wl,--defsym=_ZTIN5telux6config23QmiDeleteConfigCallbackE=so_stub_for_libtelux_config
-Wl,--defsym=_ZTIN5telux6config25QmiActivateConfigCallbackE=so_stub_for_libtelux_config
-Wl,--defsym=_ZTIN5telux6config26QmiGetActiveConfigCallbackE=so_stub_for_libtelux_config
-Wl,--defsym=_ZTIN5telux6config26QmiSetSelectConfigCallbackE=so_stub_for_libtelux_config
-Wl,--defsym=_ZTIN5telux6config27QmiDeactivateConfigCallbackE=so_stub_for_libtelux_config
-Wl,--defsym=_ZTIN5telux6config27QmiGetConfigFeatureCallbackE=so_stub_for_libtelux_config
-Wl,--defsym=_ZTIN5telux6config27QmiSetConfigFeatureCallbackE=so_stub_for_libtelux_config
-Wl,--defsym=_ZTIN5telux6config28QmiModemConfigFutureCallbackIiEE=so_stub_for_libtelux_config
-Wl,--defsym=_ZTIN5telux6config28QmiRequestConfigInfoCallbackE=so_stub_for_libtelux_config
-Wl,--defsym=_ZTIN5telux6config28QmiRequestConfigListCallbackE=so_stub_for_libtelux_config
-Wl,--defsym=_ZTIN5telux6config35QmiRequestDefaultConfigInfoCallbackE=so_stub_for_libtelux_config
-Wl,--defsym=_ZTINSt13__future_base13_State_baseV27_SetterIiOiEE=so_stub_for_libtelux_config
-Wl,--defsym=_ZTINSt13__future_base13_State_baseV27_SetterIiRKiEE=so_stub_for_libtelux_config
-Wl,--defsym=_ZTINSt13__future_base13_State_baseV2E=so_stub_for_libtelux_config
-Wl,--defsym=_ZTINSt13__future_base21_Async_state_commonV2E=so_stub_for_libtelux_config
-Wl,--defsym=_ZTINSt13__future_base7_ResultIbEE=so_stub_for_libtelux_config
-Wl,--defsym=_ZTINSt13__future_base7_ResultIiEE=so_stub_for_libtelux_config
-Wl,--defsym=_ZTINSt13__future_base7_ResultIvEE=so_stub_for_libtelux_config
-Wl,--defsym=_ZTISt11_Mutex_baseILN9__gnu_cxx12_Lock_policyE2EE=so_stub_for_libtelux_config
-Wl,--defsym=_ZTISt16_Sp_counted_baseILN9__gnu_cxx12_Lock_policyE2EE=so_stub_for_libtelux_config
-Wl,--defsym=_ZTISt19_Sp_make_shared_tag=so_stub_for_libtelux_config
-Wl,--defsym=_ZTISt23enable_shared_from_thisIN5telux6config22ModemConfigManagerImplEE=so_stub_for_libtelux_config
-Wl,--defsym=_ZTISt23_Sp_counted_ptr_inplaceIN5telux6common15ListenerManagerINS0_6config20IModemConfigListenerEEESaIS5_ELN9__gnu_cxx12_Lock_policyE2EE=so_stub_for_libtelux_config
-Wl,--defsym=_ZTISt23_Sp_counted_ptr_inplaceIN5telux6common18FunctionalCallbackIJNS0_6config10ConfigInfoENS1_9ErrorCodeEEEESaIS6_ELN9__gnu_cxx12_Lock_policyE2EE=so_stub_for_libtelux_config
-Wl,--defsym=_ZTISt23_Sp_counted_ptr_inplaceIN5telux6common18FunctionalCallbackIJNS0_6config17AutoSelectionModeENS1_9ErrorCodeEEEESaIS6_ELN9__gnu_cxx12_Lock_policyE2EE=so_stub_for_libtelux_config
-Wl,--defsym=_ZTISt23_Sp_counted_ptr_inplaceIN5telux6common18FunctionalCallbackIJNS1_9ErrorCodeEEEESaIS4_ELN9__gnu_cxx12_Lock_policyE2EE=so_stub_for_libtelux_config
-Wl,--defsym=_ZTISt23_Sp_counted_ptr_inplaceIN5telux6common18FunctionalCallbackIJSt6vectorINS0_6config10ConfigInfoESaIS5_EENS1_9ErrorCodeEEEESaIS9_ELN9__gnu_cxx12_Lock_policyE2EE=so_stub_for_libtelux_config
-Wl,--defsym=_ZTISt23_Sp_counted_ptr_inplaceIN5telux6config21QmiLoadConfigCallbackESaIS2_ELN9__gnu_cxx12_Lock_policyE2EE=so_stub_for_libtelux_config
-Wl,--defsym=_ZTISt23_Sp_counted_ptr_inplaceIN5telux6config22ModemConfigManagerImplESaIS2_ELN9__gnu_cxx12_Lock_policyE2EE=so_stub_for_libtelux_config
-Wl,--defsym=_ZTISt23_Sp_counted_ptr_inplaceIN5telux6config23QmiDeleteConfigCallbackESaIS2_ELN9__gnu_cxx12_Lock_policyE2EE=so_stub_for_libtelux_config
-Wl,--defsym=_ZTISt23_Sp_counted_ptr_inplaceIN5telux6config25QmiActivateConfigCallbackESaIS2_ELN9__gnu_cxx12_Lock_policyE2EE=so_stub_for_libtelux_config
-Wl,--defsym=_ZTISt23_Sp_counted_ptr_inplaceIN5telux6config26QmiGetActiveConfigCallbackESaIS2_ELN9__gnu_cxx12_Lock_policyE2EE=so_stub_for_libtelux_config
-Wl,--defsym=_ZTISt23_Sp_counted_ptr_inplaceIN5telux6config26QmiSetSelectConfigCallbackESaIS2_ELN9__gnu_cxx12_Lock_policyE2EE=so_stub_for_libtelux_config
-Wl,--defsym=_ZTISt23_Sp_counted_ptr_inplaceIN5telux6config27QmiDeactivateConfigCallbackESaIS2_ELN9__gnu_cxx12_Lock_policyE2EE=so_stub_for_libtelux_config
-Wl,--defsym=_ZTISt23_Sp_counted_ptr_inplaceIN5telux6config27QmiGetConfigFeatureCallbackESaIS2_ELN9__gnu_cxx12_Lock_policyE2EE=so_stub_for_libtelux_config
-Wl,--defsym=_ZTISt23_Sp_counted_ptr_inplaceIN5telux6config27QmiSetConfigFeatureCallbackESaIS2_ELN9__gnu_cxx12_Lock_policyE2EE=so_stub_for_libtelux_config
-Wl,--defsym=_ZTISt23_Sp_counted_ptr_inplaceIN5telux6config28QmiRequestConfigInfoCallbackESaIS2_ELN9__gnu_cxx12_Lock_policyE2EE=so_stub_for_libtelux_config
-Wl,--defsym=_ZTISt23_Sp_counted_ptr_inplaceIN5telux6config28QmiRequestConfigListCallbackESaIS2_ELN9__gnu_cxx12_Lock_policyE2EE=so_stub_for_libtelux_config
-Wl,--defsym=_ZTISt23_Sp_counted_ptr_inplaceIN5telux6config35QmiRequestDefaultConfigInfoCallbackESaIS2_ELN9__gnu_cxx12_Lock_policyE2EE=so_stub_for_libtelux_config
-Wl,--defsym=_ZTISt23_Sp_counted_ptr_inplaceINSt13__future_base13_State_baseV2ESaIS1_ELN9__gnu_cxx12_Lock_policyE2EE=so_stub_for_libtelux_config
-Wl,--defsym=_ZTSN5telux3qmi12IQmiListenerE=so_stub_for_libtelux_config
-Wl,--defsym=_ZTSN5telux3qmi20IQmiResponseCallbackE=so_stub_for_libtelux_config
-Wl,--defsym=_ZTSN5telux3qmi23IQmiModemConfigListenerE=so_stub_for_libtelux_config
-Wl,--defsym=_ZTSN5telux3qmi28IQmiRegisterListenerCallbackE=so_stub_for_libtelux_config
-Wl,--defsym=_ZTSN5telux6common16ICommandCallbackE=so_stub_for_libtelux_config
-Wl,--defsym=_ZTSN5telux6common18FunctionalCallbackIJNS0_9ErrorCodeEEEE=so_stub_for_libtelux_config
-Wl,--defsym=_ZTSN5telux6common18FunctionalCallbackIJNS_6config10ConfigInfoENS0_9ErrorCodeEEEE=so_stub_for_libtelux_config
-Wl,--defsym=_ZTSN5telux6common18FunctionalCallbackIJNS_6config17AutoSelectionModeENS0_9ErrorCodeEEEE=so_stub_for_libtelux_config
-Wl,--defsym=_ZTSN5telux6common18FunctionalCallbackIJSt6vectorINS_6config10ConfigInfoESaIS4_EENS0_9ErrorCodeEEEE=so_stub_for_libtelux_config
-Wl,--defsym=_ZTSN5telux6config19IModemConfigManagerE=so_stub_for_libtelux_config
-Wl,--defsym=_ZTSN5telux6config21QmiLoadConfigCallbackE=so_stub_for_libtelux_config
-Wl,--defsym=_ZTSN5telux6config22ModemConfigManagerImplE=so_stub_for_libtelux_config
-Wl,--defsym=_ZTSN5telux6config23QmiDeleteConfigCallbackE=so_stub_for_libtelux_config
-Wl,--defsym=_ZTSN5telux6config25QmiActivateConfigCallbackE=so_stub_for_libtelux_config
-Wl,--defsym=_ZTSN5telux6config26QmiGetActiveConfigCallbackE=so_stub_for_libtelux_config
-Wl,--defsym=_ZTSN5telux6config26QmiSetSelectConfigCallbackE=so_stub_for_libtelux_config
-Wl,--defsym=_ZTSN5telux6config27QmiDeactivateConfigCallbackE=so_stub_for_libtelux_config
-Wl,--defsym=_ZTSN5telux6config27QmiGetConfigFeatureCallbackE=so_stub_for_libtelux_config
-Wl,--defsym=_ZTSN5telux6config27QmiSetConfigFeatureCallbackE=so_stub_for_libtelux_config
-Wl,--defsym=_ZTSN5telux6config28QmiModemConfigFutureCallbackIiEE=so_stub_for_libtelux_config
-Wl,--defsym=_ZTSN5telux6config28QmiRequestConfigInfoCallbackE=so_stub_for_libtelux_config
-Wl,--defsym=_ZTSN5telux6config28QmiRequestConfigListCallbackE=so_stub_for_libtelux_config
-Wl,--defsym=_ZTSN5telux6config35QmiRequestDefaultConfigInfoCallbackE=so_stub_for_libtelux_config
-Wl,--defsym=_ZTSNSt13__future_base13_State_baseV27_SetterIiOiEE=so_stub_for_libtelux_config
-Wl,--defsym=_ZTSNSt13__future_base13_State_baseV27_SetterIiRKiEE=so_stub_for_libtelux_config
-Wl,--defsym=_ZTSNSt13__future_base13_State_baseV2E=so_stub_for_libtelux_config
-Wl,--defsym=_ZTSNSt13__future_base21_Async_state_commonV2E=so_stub_for_libtelux_config
-Wl,--defsym=_ZTSNSt13__future_base7_ResultIbEE=so_stub_for_libtelux_config
-Wl,--defsym=_ZTSNSt13__future_base7_ResultIiEE=so_stub_for_libtelux_config
-Wl,--defsym=_ZTSNSt13__future_base7_ResultIvEE=so_stub_for_libtelux_config
-Wl,--defsym=_ZTSSt11_Mutex_baseILN9__gnu_cxx12_Lock_policyE2EE=so_stub_for_libtelux_config
-Wl,--defsym=_ZTSSt16_Sp_counted_baseILN9__gnu_cxx12_Lock_policyE2EE=so_stub_for_libtelux_config
-Wl,--defsym=_ZTSSt19_Sp_make_shared_tag=so_stub_for_libtelux_config
-Wl,--defsym=_ZTSSt23enable_shared_from_thisIN5telux6config22ModemConfigManagerImplEE=so_stub_for_libtelux_config
-Wl,--defsym=_ZTSSt23_Sp_counted_ptr_inplaceIN5telux6common15ListenerManagerINS0_6config20IModemConfigListenerEEESaIS5_ELN9__gnu_cxx12_Lock_policyE2EE=so_stub_for_libtelux_config
-Wl,--defsym=_ZTSSt23_Sp_counted_ptr_inplaceIN5telux6common18FunctionalCallbackIJNS0_6config10ConfigInfoENS1_9ErrorCodeEEEESaIS6_ELN9__gnu_cxx12_Lock_policyE2EE=so_stub_for_libtelux_config
-Wl,--defsym=_ZTSSt23_Sp_counted_ptr_inplaceIN5telux6common18FunctionalCallbackIJNS0_6config17AutoSelectionModeENS1_9ErrorCodeEEEESaIS6_ELN9__gnu_cxx12_Lock_policyE2EE=so_stub_for_libtelux_config
-Wl,--defsym=_ZTSSt23_Sp_counted_ptr_inplaceIN5telux6common18FunctionalCallbackIJNS1_9ErrorCodeEEEESaIS4_ELN9__gnu_cxx12_Lock_policyE2EE=so_stub_for_libtelux_config
-Wl,--defsym=_ZTSSt23_Sp_counted_ptr_inplaceIN5telux6common18FunctionalCallbackIJSt6vectorINS0_6config10ConfigInfoESaIS5_EENS1_9ErrorCodeEEEESaIS9_ELN9__gnu_cxx12_Lock_policyE2EE=so_stub_for_libtelux_config
-Wl,--defsym=_ZTSSt23_Sp_counted_ptr_inplaceIN5telux6config21QmiLoadConfigCallbackESaIS2_ELN9__gnu_cxx12_Lock_policyE2EE=so_stub_for_libtelux_config
-Wl,--defsym=_ZTSSt23_Sp_counted_ptr_inplaceIN5telux6config22ModemConfigManagerImplESaIS2_ELN9__gnu_cxx12_Lock_policyE2EE=so_stub_for_libtelux_config
-Wl,--defsym=_ZTSSt23_Sp_counted_ptr_inplaceIN5telux6config23QmiDeleteConfigCallbackESaIS2_ELN9__gnu_cxx12_Lock_policyE2EE=so_stub_for_libtelux_config
-Wl,--defsym=_ZTSSt23_Sp_counted_ptr_inplaceIN5telux6config25QmiActivateConfigCallbackESaIS2_ELN9__gnu_cxx12_Lock_policyE2EE=so_stub_for_libtelux_config
-Wl,--defsym=_ZTSSt23_Sp_counted_ptr_inplaceIN5telux6config26QmiGetActiveConfigCallbackESaIS2_ELN9__gnu_cxx12_Lock_policyE2EE=so_stub_for_libtelux_config
-Wl,--defsym=_ZTSSt23_Sp_counted_ptr_inplaceIN5telux6config26QmiSetSelectConfigCallbackESaIS2_ELN9__gnu_cxx12_Lock_policyE2EE=so_stub_for_libtelux_config
-Wl,--defsym=_ZTSSt23_Sp_counted_ptr_inplaceIN5telux6config27QmiDeactivateConfigCallbackESaIS2_ELN9__gnu_cxx12_Lock_policyE2EE=so_stub_for_libtelux_config
-Wl,--defsym=_ZTSSt23_Sp_counted_ptr_inplaceIN5telux6config27QmiGetConfigFeatureCallbackESaIS2_ELN9__gnu_cxx12_Lock_policyE2EE=so_stub_for_libtelux_config
-Wl,--defsym=_ZTSSt23_Sp_counted_ptr_inplaceIN5telux6config27QmiSetConfigFeatureCallbackESaIS2_ELN9__gnu_cxx12_Lock_policyE2EE=so_stub_for_libtelux_config
-Wl,--defsym=_ZTSSt23_Sp_counted_ptr_inplaceIN5telux6config28QmiRequestConfigInfoCallbackESaIS2_ELN9__gnu_cxx12_Lock_policyE2EE=so_stub_for_libtelux_config
-Wl,--defsym=_ZTSSt23_Sp_counted_ptr_inplaceIN5telux6config28QmiRequestConfigListCallbackESaIS2_ELN9__gnu_cxx12_Lock_policyE2EE=so_stub_for_libtelux_config
-Wl,--defsym=_ZTSSt23_Sp_counted_ptr_inplaceIN5telux6config35QmiRequestDefaultConfigInfoCallbackESaIS2_ELN9__gnu_cxx12_Lock_policyE2EE=so_stub_for_libtelux_config
-Wl,--defsym=_ZTSSt23_Sp_counted_ptr_inplaceINSt13__future_base13_State_baseV2ESaIS1_ELN9__gnu_cxx12_Lock_policyE2EE=so_stub_for_libtelux_config
-Wl,--defsym=_ZTVN5telux6common18FunctionalCallbackIJNS0_9ErrorCodeEEEE=so_stub_for_libtelux_config
-Wl,--defsym=_ZTVN5telux6common18FunctionalCallbackIJNS_6config10ConfigInfoENS0_9ErrorCodeEEEE=so_stub_for_libtelux_config
-Wl,--defsym=_ZTVN5telux6common18FunctionalCallbackIJNS_6config17AutoSelectionModeENS0_9ErrorCodeEEEE=so_stub_for_libtelux_config
-Wl,--defsym=_ZTVN5telux6common18FunctionalCallbackIJSt6vectorINS_6config10ConfigInfoESaIS4_EENS0_9ErrorCodeEEEE=so_stub_for_libtelux_config
-Wl,--defsym=_ZTVN5telux6config21QmiLoadConfigCallbackE=so_stub_for_libtelux_config
-Wl,--defsym=_ZTVN5telux6config22ModemConfigManagerImplE=so_stub_for_libtelux_config
-Wl,--defsym=_ZTVN5telux6config23QmiDeleteConfigCallbackE=so_stub_for_libtelux_config
-Wl,--defsym=_ZTVN5telux6config25QmiActivateConfigCallbackE=so_stub_for_libtelux_config
-Wl,--defsym=_ZTVN5telux6config26QmiGetActiveConfigCallbackE=so_stub_for_libtelux_config
-Wl,--defsym=_ZTVN5telux6config26QmiSetSelectConfigCallbackE=so_stub_for_libtelux_config
-Wl,--defsym=_ZTVN5telux6config27QmiDeactivateConfigCallbackE=so_stub_for_libtelux_config
-Wl,--defsym=_ZTVN5telux6config27QmiGetConfigFeatureCallbackE=so_stub_for_libtelux_config
-Wl,--defsym=_ZTVN5telux6config27QmiSetConfigFeatureCallbackE=so_stub_for_libtelux_config
-Wl,--defsym=_ZTVN5telux6config28QmiModemConfigFutureCallbackIiEE=so_stub_for_libtelux_config
-Wl,--defsym=_ZTVN5telux6config28QmiRequestConfigInfoCallbackE=so_stub_for_libtelux_config
-Wl,--defsym=_ZTVN5telux6config28QmiRequestConfigListCallbackE=so_stub_for_libtelux_config
-Wl,--defsym=_ZTVN5telux6config35QmiRequestDefaultConfigInfoCallbackE=so_stub_for_libtelux_config
-Wl,--defsym=_ZTVNSt13__future_base13_State_baseV2E=so_stub_for_libtelux_config
-Wl,--defsym=_ZTVNSt13__future_base21_Async_state_commonV2E=so_stub_for_libtelux_config
-Wl,--defsym=_ZTVNSt13__future_base7_ResultIbEE=so_stub_for_libtelux_config
-Wl,--defsym=_ZTVNSt13__future_base7_ResultIiEE=so_stub_for_libtelux_config
-Wl,--defsym=_ZTVNSt13__future_base7_ResultIvEE=so_stub_for_libtelux_config
-Wl,--defsym=_ZTVSt23_Sp_counted_ptr_inplaceIN5telux6common15ListenerManagerINS0_6config20IModemConfigListenerEEESaIS5_ELN9__gnu_cxx12_Lock_policyE2EE=so_stub_for_libtelux_config
-Wl,--defsym=_ZTVSt23_Sp_counted_ptr_inplaceIN5telux6common18FunctionalCallbackIJNS0_6config10ConfigInfoENS1_9ErrorCodeEEEESaIS6_ELN9__gnu_cxx12_Lock_policyE2EE=so_stub_for_libtelux_config
-Wl,--defsym=_ZTVSt23_Sp_counted_ptr_inplaceIN5telux6common18FunctionalCallbackIJNS0_6config17AutoSelectionModeENS1_9ErrorCodeEEEESaIS6_ELN9__gnu_cxx12_Lock_policyE2EE=so_stub_for_libtelux_config
-Wl,--defsym=_ZTVSt23_Sp_counted_ptr_inplaceIN5telux6common18FunctionalCallbackIJNS1_9ErrorCodeEEEESaIS4_ELN9__gnu_cxx12_Lock_policyE2EE=so_stub_for_libtelux_config
-Wl,--defsym=_ZTVSt23_Sp_counted_ptr_inplaceIN5telux6common18FunctionalCallbackIJSt6vectorINS0_6config10ConfigInfoESaIS5_EENS1_9ErrorCodeEEEESaIS9_ELN9__gnu_cxx12_Lock_policyE2EE=so_stub_for_libtelux_config
-Wl,--defsym=_ZTVSt23_Sp_counted_ptr_inplaceIN5telux6config21QmiLoadConfigCallbackESaIS2_ELN9__gnu_cxx12_Lock_policyE2EE=so_stub_for_libtelux_config
-Wl,--defsym=_ZTVSt23_Sp_counted_ptr_inplaceIN5telux6config22ModemConfigManagerImplESaIS2_ELN9__gnu_cxx12_Lock_policyE2EE=so_stub_for_libtelux_config
-Wl,--defsym=_ZTVSt23_Sp_counted_ptr_inplaceIN5telux6config23QmiDeleteConfigCallbackESaIS2_ELN9__gnu_cxx12_Lock_policyE2EE=so_stub_for_libtelux_config
-Wl,--defsym=_ZTVSt23_Sp_counted_ptr_inplaceIN5telux6config25QmiActivateConfigCallbackESaIS2_ELN9__gnu_cxx12_Lock_policyE2EE=so_stub_for_libtelux_config
-Wl,--defsym=_ZTVSt23_Sp_counted_ptr_inplaceIN5telux6config26QmiGetActiveConfigCallbackESaIS2_ELN9__gnu_cxx12_Lock_policyE2EE=so_stub_for_libtelux_config
-Wl,--defsym=_ZTVSt23_Sp_counted_ptr_inplaceIN5telux6config26QmiSetSelectConfigCallbackESaIS2_ELN9__gnu_cxx12_Lock_policyE2EE=so_stub_for_libtelux_config
-Wl,--defsym=_ZTVSt23_Sp_counted_ptr_inplaceIN5telux6config27QmiDeactivateConfigCallbackESaIS2_ELN9__gnu_cxx12_Lock_policyE2EE=so_stub_for_libtelux_config
-Wl,--defsym=_ZTVSt23_Sp_counted_ptr_inplaceIN5telux6config27QmiGetConfigFeatureCallbackESaIS2_ELN9__gnu_cxx12_Lock_policyE2EE=so_stub_for_libtelux_config
-Wl,--defsym=_ZTVSt23_Sp_counted_ptr_inplaceIN5telux6config27QmiSetConfigFeatureCallbackESaIS2_ELN9__gnu_cxx12_Lock_policyE2EE=so_stub_for_libtelux_config
-Wl,--defsym=_ZTVSt23_Sp_counted_ptr_inplaceIN5telux6config28QmiRequestConfigInfoCallbackESaIS2_ELN9__gnu_cxx12_Lock_policyE2EE=so_stub_for_libtelux_config
-Wl,--defsym=_ZTVSt23_Sp_counted_ptr_inplaceIN5telux6config28QmiRequestConfigListCallbackESaIS2_ELN9__gnu_cxx12_Lock_policyE2EE=so_stub_for_libtelux_config
-Wl,--defsym=_ZTVSt23_Sp_counted_ptr_inplaceIN5telux6config35QmiRequestDefaultConfigInfoCallbackESaIS2_ELN9__gnu_cxx12_Lock_policyE2EE=so_stub_for_libtelux_config
-Wl,--defsym=_ZTVSt23_Sp_counted_ptr_inplaceINSt13__future_base13_State_baseV2ESaIS1_ELN9__gnu_cxx12_Lock_policyE2EE=so_stub_for_libtelux_config
-Wl,--defsym=_ZZSt9call_onceIMNSt13__future_base13_State_baseV2EFvPSt8functionIFSt10unique_ptrINS0_12_Result_baseENS4_8_DeleterEEvEEPbEJPS1_S9_SA_EEvRSt9once_flagOT_DpOT0_ENKUlvE0_clEv=so_stub_for_libtelux_config
-Wl,--defsym=_ZZSt9call_onceIMNSt13__future_base13_State_baseV2EFvPSt8functionIFSt10unique_ptrINS0_12_Result_baseENS4_8_DeleterEEvEEPbEJPS1_S9_SA_EEvRSt9once_flagOT_DpOT0_ENUlvE0_4_FUNEv=so_stub_for_libtelux_config
-Wl,--defsym=_ZZSt9call_onceIMSt6threadFvvEJPS0_EEvRSt9once_flagOT_DpOT0_ENKUlvE0_clEv=so_stub_for_libtelux_config
-Wl,--defsym=_ZZSt9call_onceIMSt6threadFvvEJPS0_EEvRSt9once_flagOT_DpOT0_ENUlvE0_4_FUNEv=so_stub_for_libtelux_config
