-Wl,--defsym=__gcov_error_file=so_stub_for_libtelux_audio
-Wl,--defsym=__gcov_master=so_stub_for_libtelux_audio
-Wl,--defsym=__gcov_sort_n_vals=so_stub_for_libtelux_audio
-Wl,--defsym=__gcov_var=so_stub_for_libtelux_audio
-Wl,--defsym=_ZN5telux3qmi21IQmiAudioPlayListener22onWriteReadyIndicationERK30audio_stream_write_ind_msg_v01=so_stub_for_libtelux_audio
-Wl,--defsym=_ZN5telux3qmi21IQmiAudioPlayListener23onPlayStoppedIndicationERK30audio_stream_drain_ind_msg_v01=so_stub_for_libtelux_audio
-Wl,--defsym=_ZN5telux3qmi21IQmiAudioPlayListenerD0Ev=so_stub_for_libtelux_audio
-Wl,--defsym=_ZN5telux3qmi21IQmiAudioPlayListenerD1Ev=so_stub_for_libtelux_audio
-Wl,--defsym=_ZN5telux3qmi21IQmiAudioPlayListenerD2Ev=so_stub_for_libtelux_audio
-Wl,--defsym=_ZN5telux3qmi22IQmiAudioVoiceListener19onDtmfToneDetectionEP32audio_dtmf_detection_ind_msg_v01=so_stub_for_libtelux_audio
-Wl,--defsym=_ZN5telux3qmi22IQmiAudioVoiceListenerD0Ev=so_stub_for_libtelux_audio
-Wl,--defsym=_ZN5telux3qmi22IQmiAudioVoiceListenerD1Ev=so_stub_for_libtelux_audio
-Wl,--defsym=_ZN5telux3qmi22IQmiAudioVoiceListenerD2Ev=so_stub_for_libtelux_audio
-Wl,--defsym=_ZN5telux3qmi24IQmiAudioServiceListener19onModemStatusChangeENS_6common13ServiceStatusE=so_stub_for_libtelux_audio
-Wl,--defsym=_ZN5telux3qmi24IQmiAudioServiceListener21onServiceStatusChangeENS_6common13ServiceStatusE=so_stub_for_libtelux_audio
-Wl,--defsym=_ZN5telux5audio12AudioFactory11getInstanceEv=so_stub_for_libtelux_audio
-Wl,--defsym=_ZN5telux5audio12AudioFactory15getAudioManagerEv=so_stub_for_libtelux_audio
-Wl,--defsym=_ZN5telux5audio12AudioFactoryC1Ev=so_stub_for_libtelux_audio
-Wl,--defsym=_ZN5telux5audio12AudioFactoryC2Ev=so_stub_for_libtelux_audio
-Wl,--defsym=_ZN5telux5audio12AudioFactoryD1Ev=so_stub_for_libtelux_audio
-Wl,--defsym=_ZN5telux5audio12AudioFactoryD2Ev=so_stub_for_libtelux_audio
-Wl,--defsym=_ZN5telux5audio13AudioUserDataD1Ev=so_stub_for_libtelux_audio
-Wl,--defsym=_ZN5telux5audio13AudioUserDataD2Ev=so_stub_for_libtelux_audio
-Wl,--defsym=_ZN5telux5audio13IPlayListener13onPlayStoppedEv=so_stub_for_libtelux_audio
-Wl,--defsym=_ZN5telux5audio13IPlayListener15onReadyForWriteEv=so_stub_for_libtelux_audio
-Wl,--defsym=_ZN5telux5audio14IVoiceListener19onDtmfToneDetectionENS0_8DtmfToneE=so_stub_for_libtelux_audio
-Wl,--defsym=_ZN5telux5audio14TranscoderImpl13getReadBufferEv=so_stub_for_libtelux_audio
-Wl,--defsym=_ZN5telux5audio14TranscoderImpl14getWriteBufferEv=so_stub_for_libtelux_audio
-Wl,--defsym=_ZN5telux5audio14TranscoderImpl16registerListenerESt8weak_ptrINS0_18ITranscodeListenerEE=so_stub_for_libtelux_audio
-Wl,--defsym=_ZN5telux5audio14TranscoderImpl18deRegisterListenerESt8weak_ptrINS0_18ITranscodeListenerEE=so_stub_for_libtelux_audio
-Wl,--defsym=_ZN5telux5audio14TranscoderImpl20onStreamReadResponseEP30audio_stream_read_resp_msg_v01iPv=so_stub_for_libtelux_audio
-Wl,--defsym=_ZN5telux5audio14TranscoderImpl21onServiceStatusChangeENS_6common13ServiceStatusE=so_stub_for_libtelux_audio
-Wl,--defsym=_ZN5telux5audio14TranscoderImpl21onStreamWriteResponseEP31audio_stream_write_resp_msg_v01iPv=so_stub_for_libtelux_audio
-Wl,--defsym=_ZN5telux5audio14TranscoderImpl22onWriteReadyIndicationERK30audio_stream_write_ind_msg_v01=so_stub_for_libtelux_audio
-Wl,--defsym=_ZN5telux5audio14TranscoderImpl28onTranscoderTeardownResponseEP38audio_teardown_transcoder_resp_msg_v01iPv=so_stub_for_libtelux_audio
-Wl,--defsym=_ZN5telux5audio14TranscoderImpl4initEv=so_stub_for_libtelux_audio
-Wl,--defsym=_ZN5telux5audio14TranscoderImpl4readESt10shared_ptrINS0_12IAudioBufferEEjSt8functionIFvS4_jNS_6common9ErrorCodeEEE=so_stub_for_libtelux_audio
-Wl,--defsym=_ZN5telux5audio14TranscoderImpl5writeESt10shared_ptrINS0_12IAudioBufferEEjSt8functionIFvS4_jNS_6common9ErrorCodeEEE=so_stub_for_libtelux_audio
-Wl,--defsym=_ZN5telux5audio14TranscoderImpl8tearDownESt8functionIFvNS_6common9ErrorCodeEEE=so_stub_for_libtelux_audio
-Wl,--defsym=_ZN5telux5audio14TranscoderImplC1Ejjjjj=so_stub_for_libtelux_audio
-Wl,--defsym=_ZN5telux5audio14TranscoderImplC2Ejjjjj=so_stub_for_libtelux_audio
-Wl,--defsym=_ZN5telux5audio14TranscoderImplD0Ev=so_stub_for_libtelux_audio
-Wl,--defsym=_ZN5telux5audio14TranscoderImplD1Ev=so_stub_for_libtelux_audio
-Wl,--defsym=_ZN5telux5audio14TranscoderImplD2Ev=so_stub_for_libtelux_audio
-Wl,--defsym=_ZN5telux5audio15AudioBufferImpl10getMaxSizeEv=so_stub_for_libtelux_audio
-Wl,--defsym=_ZN5telux5audio15AudioBufferImpl10getMinSizeEv=so_stub_for_libtelux_audio
-Wl,--defsym=_ZN5telux5audio15AudioBufferImpl11getDataSizeEv=so_stub_for_libtelux_audio
-Wl,--defsym=_ZN5telux5audio15AudioBufferImpl11setDataSizeEj=so_stub_for_libtelux_audio
-Wl,--defsym=_ZN5telux5audio15AudioBufferImpl12getQmiBufferEv=so_stub_for_libtelux_audio
-Wl,--defsym=_ZN5telux5audio15AudioBufferImpl12getRawBufferEv=so_stub_for_libtelux_audio
-Wl,--defsym=_ZN5telux5audio15AudioBufferImpl14getQmiBuffSizeEv=so_stub_for_libtelux_audio
-Wl,--defsym=_ZN5telux5audio15AudioBufferImpl15setAsLastBufferEv=so_stub_for_libtelux_audio
-Wl,--defsym=_ZN5telux5audio15AudioBufferImpl5resetEv=so_stub_for_libtelux_audio
-Wl,--defsym=_ZN5telux5audio15AudioBufferImplC1Ejjjj=so_stub_for_libtelux_audio
-Wl,--defsym=_ZN5telux5audio15AudioBufferImplC2Ejjjj=so_stub_for_libtelux_audio
-Wl,--defsym=_ZN5telux5audio15AudioBufferImplD0Ev=so_stub_for_libtelux_audio
-Wl,--defsym=_ZN5telux5audio15AudioBufferImplD1Ev=so_stub_for_libtelux_audio
-Wl,--defsym=_ZN5telux5audio15AudioBufferImplD2Ev=so_stub_for_libtelux_audio
-Wl,--defsym=_ZN5telux5audio15AudioDeviceImpl12getDirectionEv=so_stub_for_libtelux_audio
-Wl,--defsym=_ZN5telux5audio15AudioDeviceImpl12setDirectionENS0_15DeviceDirectionE=so_stub_for_libtelux_audio
-Wl,--defsym=_ZN5telux5audio15AudioDeviceImpl7getTypeEv=so_stub_for_libtelux_audio
-Wl,--defsym=_ZN5telux5audio15AudioDeviceImpl7setTypeENS0_10DeviceTypeE=so_stub_for_libtelux_audio
-Wl,--defsym=_ZN5telux5audio15AudioDeviceImplC1Ev=so_stub_for_libtelux_audio
-Wl,--defsym=_ZN5telux5audio15AudioDeviceImplC2Ev=so_stub_for_libtelux_audio
-Wl,--defsym=_ZN5telux5audio15AudioDeviceImplD1Ev=so_stub_for_libtelux_audio
-Wl,--defsym=_ZN5telux5audio15AudioDeviceImplD2Ev=so_stub_for_libtelux_audio
-Wl,--defsym=_ZN5telux5audio15AudioStreamImpl14handleResponseENS_6common9ErrorCodeEPv=so_stub_for_libtelux_audio
-Wl,--defsym=_ZN5telux5audio15AudioStreamImpl14setSystemStateEb=so_stub_for_libtelux_audio
-Wl,--defsym=_ZN5telux5audio15AudioStreamImpl18getStreamReferenceEv=so_stub_for_libtelux_audio
-Wl,--defsym=_ZN5telux5audio15AudioStreamImpl23onStreamGetMuteResponseEP34audio_stream_get_mute_resp_msg_v01iPv=so_stub_for_libtelux_audio
-Wl,--defsym=_ZN5telux5audio15AudioStreamImpl23onStreamSetMuteResponseEP34audio_stream_set_mute_resp_msg_v01iPv=so_stub_for_libtelux_audio
-Wl,--defsym=_ZN5telux5audio15AudioStreamImpl25onStreamGetDeviceResponseEP36audio_stream_get_device_resp_msg_v01iPv=so_stub_for_libtelux_audio
-Wl,--defsym=_ZN5telux5audio15AudioStreamImpl25onStreamGetVolumeResponseEP36audio_stream_get_volume_resp_msg_v01iPv=so_stub_for_libtelux_audio
-Wl,--defsym=_ZN5telux5audio15AudioStreamImpl25onStreamSetDeviceResponseEP36audio_stream_set_device_resp_msg_v01iPv=so_stub_for_libtelux_audio
-Wl,--defsym=_ZN5telux5audio15AudioStreamImpl25onStreamSetVolumeResponseEP36audio_stream_set_volume_resp_msg_v01iPv=so_stub_for_libtelux_audio
-Wl,--defsym=_ZN5telux5audio15AudioStreamImpl4initEv=so_stub_for_libtelux_audio
-Wl,--defsym=_ZN5telux5audio15AudioStreamImpl7getMuteENS0_15StreamDirectionESt8functionIFvNS0_10StreamMuteENS_6common9ErrorCodeEEE=so_stub_for_libtelux_audio
-Wl,--defsym=_ZN5telux5audio15AudioStreamImpl7getTypeEv=so_stub_for_libtelux_audio
-Wl,--defsym=_ZN5telux5audio15AudioStreamImpl7setMuteENS0_10StreamMuteESt8functionIFvNS_6common9ErrorCodeEEE=so_stub_for_libtelux_audio
-Wl,--defsym=_ZN5telux5audio15AudioStreamImpl9getDeviceESt8functionIFvSt6vectorINS0_10DeviceTypeESaIS4_EENS_6common9ErrorCodeEEE=so_stub_for_libtelux_audio
-Wl,--defsym=_ZN5telux5audio15AudioStreamImpl9getVolumeENS0_15StreamDirectionESt8functionIFvNS0_12StreamVolumeENS_6common9ErrorCodeEEE=so_stub_for_libtelux_audio
-Wl,--defsym=_ZN5telux5audio15AudioStreamImpl9setDeviceESt6vectorINS0_10DeviceTypeESaIS3_EESt8functionIFvNS_6common9ErrorCodeEEE=so_stub_for_libtelux_audio
-Wl,--defsym=_ZN5telux5audio15AudioStreamImpl9setVolumeENS0_12StreamVolumeESt8functionIFvNS_6common9ErrorCodeEEE=so_stub_for_libtelux_audio
-Wl,--defsym=_ZN5telux5audio15AudioStreamImplC1EjNS0_10StreamTypeE=so_stub_for_libtelux_audio
-Wl,--defsym=_ZN5telux5audio15AudioStreamImplC2EjNS0_10StreamTypeE=so_stub_for_libtelux_audio
-Wl,--defsym=_ZN5telux5audio15AudioStreamImplD0Ev=so_stub_for_libtelux_audio
-Wl,--defsym=_ZN5telux5audio15AudioStreamImplD1Ev=so_stub_for_libtelux_audio
-Wl,--defsym=_ZN5telux5audio15AudioStreamImplD2Ev=so_stub_for_libtelux_audio
-Wl,--defsym=_ZN5telux5audio16AudioManagerImpl10getDevicesESt8functionIFvSt6vectorISt10shared_ptrINS0_12IAudioDeviceEESaIS6_EENS_6common9ErrorCodeEEE=so_stub_for_libtelux_audio
-Wl,--defsym=_ZN5telux5audio16AudioManagerImpl11initQmiSyncEv=so_stub_for_libtelux_audio
-Wl,--defsym=_ZN5telux5audio16AudioManagerImpl12createStreamENS0_12StreamConfigESt8functionIFvRSt10shared_ptrINS0_12IAudioStreamEENS_6common9ErrorCodeEEE=so_stub_for_libtelux_audio
-Wl,--defsym=_ZN5telux5audio16AudioManagerImpl12deleteStreamESt10shared_ptrINS0_12IAudioStreamEESt8functionIFvNS_6common9ErrorCodeEEE=so_stub_for_libtelux_audio
-Wl,--defsym=_ZN5telux5audio16AudioManagerImpl13releaseStreamESt10shared_ptrINS0_12IAudioStreamEE=so_stub_for_libtelux_audio
-Wl,--defsym=_ZN5telux5audio16AudioManagerImpl14getStreamTypesESt8functionIFvSt6vectorINS0_10StreamTypeESaIS4_EENS_6common9ErrorCodeEEE=so_stub_for_libtelux_audio
-Wl,--defsym=_ZN5telux5audio16AudioManagerImpl14setSystemStateEb=so_stub_for_libtelux_audio
-Wl,--defsym=_ZN5telux5audio16AudioManagerImpl16createTranscoderENS0_10FormatInfoES2_St8functionIFvRSt10shared_ptrINS0_11ITranscoderEENS_6common9ErrorCodeEEE=so_stub_for_libtelux_audio
-Wl,--defsym=_ZN5telux5audio16AudioManagerImpl16isSubsystemReadyEv=so_stub_for_libtelux_audio
-Wl,--defsym=_ZN5telux5audio16AudioManagerImpl16onSubsystemReadyEv=so_stub_for_libtelux_audio
-Wl,--defsym=_ZN5telux5audio16AudioManagerImpl16registerListenerESt8weak_ptrINS0_14IAudioListenerEE=so_stub_for_libtelux_audio
-Wl,--defsym=_ZN5telux5audio16AudioManagerImpl17setSubsystemReadyEb=so_stub_for_libtelux_audio
-Wl,--defsym=_ZN5telux5audio16AudioManagerImpl18deRegisterListenerESt8weak_ptrINS0_14IAudioListenerEE=so_stub_for_libtelux_audio
-Wl,--defsym=_ZN5telux5audio16AudioManagerImpl19onModemStatusChangeENS_6common13ServiceStatusE=so_stub_for_libtelux_audio
-Wl,--defsym=_ZN5telux5audio16AudioManagerImpl21onServiceStatusChangeENS_6common13ServiceStatusE=so_stub_for_libtelux_audio
-Wl,--defsym=_ZN5telux5audio16AudioManagerImpl21waitForInitializationEv=so_stub_for_libtelux_audio
-Wl,--defsym=_ZN5telux5audio16AudioManagerImpl22onCreateStreamResponseEP32audio_create_stream_resp_msg_v01iPv=so_stub_for_libtelux_audio
-Wl,--defsym=_ZN5telux5audio16AudioManagerImpl22onDeleteStreamResponseEP31audio_close_stream_resp_msg_v01iPv=so_stub_for_libtelux_audio
-Wl,--defsym=_ZN5telux5audio16AudioManagerImpl23onLoadSubsystemResponseEP33audio_load_subsystem_resp_msg_v01iPv=so_stub_for_libtelux_audio
-Wl,--defsym=_ZN5telux5audio16AudioManagerImpl26onCreateTranscoderResponseEP36audio_create_transcoder_resp_msg_v01iPv=so_stub_for_libtelux_audio
-Wl,--defsym=_ZN5telux5audio16AudioManagerImpl29onGetSupportedDevicesResponseEP40audio_get_supported_devices_resp_msg_v01iPv=so_stub_for_libtelux_audio
-Wl,--defsym=_ZN5telux5audio16AudioManagerImpl29onGetSupportedStreamsResponseEP40audio_get_supported_streams_resp_msg_v01iPv=so_stub_for_libtelux_audio
-Wl,--defsym=_ZN5telux5audio16AudioManagerImpl4initEv=so_stub_for_libtelux_audio
-Wl,--defsym=_ZN5telux5audio16AudioManagerImpl7cleanupEv=so_stub_for_libtelux_audio
-Wl,--defsym=_ZN5telux5audio16AudioManagerImplC1Ev=so_stub_for_libtelux_audio
-Wl,--defsym=_ZN5telux5audio16AudioManagerImplC2Ev=so_stub_for_libtelux_audio
-Wl,--defsym=_ZN5telux5audio16AudioManagerImplD0Ev=so_stub_for_libtelux_audio
-Wl,--defsym=_ZN5telux5audio16AudioManagerImplD1Ev=so_stub_for_libtelux_audio
-Wl,--defsym=_ZN5telux5audio16AudioManagerImplD2Ev=so_stub_for_libtelux_audio
-Wl,--defsym=_ZN5telux5audio16StreamBufferImplC1Ejjjj=so_stub_for_libtelux_audio
-Wl,--defsym=_ZN5telux5audio16StreamBufferImplC2Ejjjj=so_stub_for_libtelux_audio
-Wl,--defsym=_ZN5telux5audio16StreamBufferImplD0Ev=so_stub_for_libtelux_audio
-Wl,--defsym=_ZN5telux5audio16StreamBufferImplD1Ev=so_stub_for_libtelux_audio
-Wl,--defsym=_ZN5telux5audio16StreamBufferImplD2Ev=so_stub_for_libtelux_audio
-Wl,--defsym=_ZN5telux5audio18ITranscodeListener15onReadyForWriteEv=so_stub_for_libtelux_audio
-Wl,--defsym=_ZN5telux5audio19AudioPlayStreamImpl15getStreamBufferEv=so_stub_for_libtelux_audio
-Wl,--defsym=_ZN5telux5audio19AudioPlayStreamImpl16registerListenerESt8weak_ptrINS0_13IPlayListenerEE=so_stub_for_libtelux_audio
-Wl,--defsym=_ZN5telux5audio19AudioPlayStreamImpl18deRegisterListenerESt8weak_ptrINS0_13IPlayListenerEE=so_stub_for_libtelux_audio
-Wl,--defsym=_ZN5telux5audio19AudioPlayStreamImpl21onStreamWriteResponseEP31audio_stream_write_resp_msg_v01iPv=so_stub_for_libtelux_audio
-Wl,--defsym=_ZN5telux5audio19AudioPlayStreamImpl22onWriteReadyIndicationERK30audio_stream_write_ind_msg_v01=so_stub_for_libtelux_audio
-Wl,--defsym=_ZN5telux5audio19AudioPlayStreamImpl23onPlayStoppedIndicationERK30audio_stream_drain_ind_msg_v01=so_stub_for_libtelux_audio
-Wl,--defsym=_ZN5telux5audio19AudioPlayStreamImpl25onPlayStreamDrainResponseEP31audio_stream_drain_resp_msg_v01iPv=so_stub_for_libtelux_audio
-Wl,--defsym=_ZN5telux5audio19AudioPlayStreamImpl25onPlayStreamFlushResponseEP31audio_stream_flush_resp_msg_v01iPv=so_stub_for_libtelux_audio
-Wl,--defsym=_ZN5telux5audio19AudioPlayStreamImpl4initEv=so_stub_for_libtelux_audio
-Wl,--defsym=_ZN5telux5audio19AudioPlayStreamImpl5drainESt8functionIFvNS_6common9ErrorCodeEEE=so_stub_for_libtelux_audio
-Wl,--defsym=_ZN5telux5audio19AudioPlayStreamImpl5flushESt8functionIFvNS_6common9ErrorCodeEEE=so_stub_for_libtelux_audio
-Wl,--defsym=_ZN5telux5audio19AudioPlayStreamImpl5writeESt10shared_ptrINS0_13IStreamBufferEESt8functionIFvS4_jNS_6common9ErrorCodeEEE=so_stub_for_libtelux_audio
-Wl,--defsym=_ZN5telux5audio19AudioPlayStreamImpl9stopAudioENS0_8StopTypeESt8functionIFvNS_6common9ErrorCodeEEE=so_stub_for_libtelux_audio
-Wl,--defsym=_ZN5telux5audio19AudioPlayStreamImplC1Ejjj=so_stub_for_libtelux_audio
-Wl,--defsym=_ZN5telux5audio19AudioPlayStreamImplC2Ejjj=so_stub_for_libtelux_audio
-Wl,--defsym=_ZN5telux5audio19AudioPlayStreamImplD0Ev=so_stub_for_libtelux_audio
-Wl,--defsym=_ZN5telux5audio19AudioPlayStreamImplD1Ev=so_stub_for_libtelux_audio
-Wl,--defsym=_ZN5telux5audio19AudioPlayStreamImplD2Ev=so_stub_for_libtelux_audio
-Wl,--defsym=_ZN5telux5audio20AudioVoiceStreamImpl10startAudioESt8functionIFvNS_6common9ErrorCodeEEE=so_stub_for_libtelux_audio
-Wl,--defsym=_ZN5telux5audio20AudioVoiceStreamImpl12playDtmfToneENS0_8DtmfToneEttSt8functionIFvNS_6common9ErrorCodeEEE=so_stub_for_libtelux_audio
-Wl,--defsym=_ZN5telux5audio20AudioVoiceStreamImpl12stopDtmfToneENS0_15StreamDirectionESt8functionIFvNS_6common9ErrorCodeEEE=so_stub_for_libtelux_audio
-Wl,--defsym=_ZN5telux5audio20AudioVoiceStreamImpl14onDtmfResponseEP34audio_dtmf_generation_resp_msg_v01iPv=so_stub_for_libtelux_audio
-Wl,--defsym=_ZN5telux5audio20AudioVoiceStreamImpl16registerListenerESt8weak_ptrINS0_14IVoiceListenerEESt8functionIFvNS_6common9ErrorCodeEEE=so_stub_for_libtelux_audio
-Wl,--defsym=_ZN5telux5audio20AudioVoiceStreamImpl18deRegisterListenerESt8weak_ptrINS0_14IVoiceListenerEE=so_stub_for_libtelux_audio
-Wl,--defsym=_ZN5telux5audio20AudioVoiceStreamImpl19onDtmfToneDetectionEP32audio_dtmf_detection_ind_msg_v01=so_stub_for_libtelux_audio
-Wl,--defsym=_ZN5telux5audio20AudioVoiceStreamImpl20onStreamStopResponseEP30audio_stream_stop_resp_msg_v01iPv=so_stub_for_libtelux_audio
-Wl,--defsym=_ZN5telux5audio20AudioVoiceStreamImpl21onStreamStartResponseEP31audio_stream_start_resp_msg_v01iPv=so_stub_for_libtelux_audio
-Wl,--defsym=_ZN5telux5audio20AudioVoiceStreamImpl24onRegisterEventsResponseEP39audio_service_ind_register_resp_msg_v01iPv=so_stub_for_libtelux_audio
-Wl,--defsym=_ZN5telux5audio20AudioVoiceStreamImpl4initEv=so_stub_for_libtelux_audio
-Wl,--defsym=_ZN5telux5audio20AudioVoiceStreamImpl9stopAudioESt8functionIFvNS_6common9ErrorCodeEEE=so_stub_for_libtelux_audio
-Wl,--defsym=_ZN5telux5audio20AudioVoiceStreamImplC1Ej=so_stub_for_libtelux_audio
-Wl,--defsym=_ZN5telux5audio20AudioVoiceStreamImplC2Ej=so_stub_for_libtelux_audio
-Wl,--defsym=_ZN5telux5audio20AudioVoiceStreamImplD0Ev=so_stub_for_libtelux_audio
-Wl,--defsym=_ZN5telux5audio20AudioVoiceStreamImplD1Ev=so_stub_for_libtelux_audio
-Wl,--defsym=_ZN5telux5audio20AudioVoiceStreamImplD2Ev=so_stub_for_libtelux_audio
-Wl,--defsym=_ZN5telux5audio22AudioCaptureStreamImpl15getStreamBufferEv=so_stub_for_libtelux_audio
-Wl,--defsym=_ZN5telux5audio22AudioCaptureStreamImpl20onStreamReadResponseEP30audio_stream_read_resp_msg_v01iPv=so_stub_for_libtelux_audio
-Wl,--defsym=_ZN5telux5audio22AudioCaptureStreamImpl4readESt10shared_ptrINS0_13IStreamBufferEEjSt8functionIFvS4_NS_6common9ErrorCodeEEE=so_stub_for_libtelux_audio
-Wl,--defsym=_ZN5telux5audio22AudioCaptureStreamImplC1Ejjj=so_stub_for_libtelux_audio
-Wl,--defsym=_ZN5telux5audio22AudioCaptureStreamImplC2Ejjj=so_stub_for_libtelux_audio
-Wl,--defsym=_ZN5telux5audio22AudioCaptureStreamImplD0Ev=so_stub_for_libtelux_audio
-Wl,--defsym=_ZN5telux5audio22AudioCaptureStreamImplD1Ev=so_stub_for_libtelux_audio
-Wl,--defsym=_ZN5telux5audio22AudioCaptureStreamImplD2Ev=so_stub_for_libtelux_audio
-Wl,--defsym=_ZN5telux5audio23AudioLoopbackStreamImpl12stopLoopbackESt8functionIFvNS_6common9ErrorCodeEEE=so_stub_for_libtelux_audio
-Wl,--defsym=_ZN5telux5audio23AudioLoopbackStreamImpl13startLoopbackESt8functionIFvNS_6common9ErrorCodeEEE=so_stub_for_libtelux_audio
-Wl,--defsym=_ZN5telux5audio23AudioLoopbackStreamImpl18onLoopbackResponseEP34audio_stream_loopback_resp_msg_v01iPv=so_stub_for_libtelux_audio
-Wl,--defsym=_ZN5telux5audio23AudioLoopbackStreamImplC1Ej=so_stub_for_libtelux_audio
-Wl,--defsym=_ZN5telux5audio23AudioLoopbackStreamImplC2Ej=so_stub_for_libtelux_audio
-Wl,--defsym=_ZN5telux5audio23AudioLoopbackStreamImplD0Ev=so_stub_for_libtelux_audio
-Wl,--defsym=_ZN5telux5audio23AudioLoopbackStreamImplD1Ev=so_stub_for_libtelux_audio
-Wl,--defsym=_ZN5telux5audio23AudioLoopbackStreamImplD2Ev=so_stub_for_libtelux_audio
-Wl,--defsym=_ZN5telux5audio28AudioToneGeneratorStreamImpl14onToneResponseEP34audio_tone_generation_resp_msg_v01iPv=so_stub_for_libtelux_audio
-Wl,--defsym=_ZN5telux5audio28AudioToneGeneratorStreamImpl8playToneESt6vectorItSaItEEttSt8functionIFvNS_6common9ErrorCodeEEE=so_stub_for_libtelux_audio
-Wl,--defsym=_ZN5telux5audio28AudioToneGeneratorStreamImpl8stopToneESt8functionIFvNS_6common9ErrorCodeEEE=so_stub_for_libtelux_audio
-Wl,--defsym=_ZN5telux5audio28AudioToneGeneratorStreamImplC1Ej=so_stub_for_libtelux_audio
-Wl,--defsym=_ZN5telux5audio28AudioToneGeneratorStreamImplC2Ej=so_stub_for_libtelux_audio
-Wl,--defsym=_ZN5telux5audio28AudioToneGeneratorStreamImplD0Ev=so_stub_for_libtelux_audio
-Wl,--defsym=_ZN5telux5audio28AudioToneGeneratorStreamImplD1Ev=so_stub_for_libtelux_audio
-Wl,--defsym=_ZN5telux5audio28AudioToneGeneratorStreamImplD2Ev=so_stub_for_libtelux_audio
-Wl,--defsym=_ZN5telux6common14AsyncTaskQueueIvE14purgeCompletedEv=so_stub_for_libtelux_audio
-Wl,--defsym=_ZN5telux6common14SharedFromThisD0Ev=so_stub_for_libtelux_audio
-Wl,--defsym=_ZN5telux6common14SharedFromThisD1Ev=so_stub_for_libtelux_audio
-Wl,--defsym=_ZN5telux6common14SharedFromThisD2Ev=so_stub_for_libtelux_audio
-Wl,--defsym=_ZN5telux6common15ListenerManagerINS_5audio13IPlayListenerEE16registerListenerESt8weak_ptrIS3_E=so_stub_for_libtelux_audio
-Wl,--defsym=_ZN5telux6common15ListenerManagerINS_5audio13IPlayListenerEE18deRegisterListenerESt8weak_ptrIS3_E=so_stub_for_libtelux_audio
-Wl,--defsym=_ZN5telux6common15ListenerManagerINS_5audio13IPlayListenerEE21getAvailableListenersERSt6vectorISt8weak_ptrIS3_ESaIS7_EE=so_stub_for_libtelux_audio
-Wl,--defsym=_ZN5telux6common15ListenerManagerINS_5audio14IAudioListenerEE16registerListenerESt8weak_ptrIS3_E=so_stub_for_libtelux_audio
-Wl,--defsym=_ZN5telux6common15ListenerManagerINS_5audio14IAudioListenerEE18deRegisterListenerESt8weak_ptrIS3_E=so_stub_for_libtelux_audio
-Wl,--defsym=_ZN5telux6common15ListenerManagerINS_5audio14IAudioListenerEE21getAvailableListenersERSt6vectorISt8weak_ptrIS3_ESaIS7_EE=so_stub_for_libtelux_audio
-Wl,--defsym=_ZN5telux6common15ListenerManagerINS_5audio14IVoiceListenerEE16registerListenerESt8weak_ptrIS3_E=so_stub_for_libtelux_audio
-Wl,--defsym=_ZN5telux6common15ListenerManagerINS_5audio14IVoiceListenerEE18deRegisterListenerESt8weak_ptrIS3_E=so_stub_for_libtelux_audio
-Wl,--defsym=_ZN5telux6common15ListenerManagerINS_5audio14IVoiceListenerEE21getAvailableListenersERSt6vectorISt8weak_ptrIS3_ESaIS7_EE=so_stub_for_libtelux_audio
-Wl,--defsym=_ZN5telux6common15ListenerManagerINS_5audio18ITranscodeListenerEE16registerListenerESt8weak_ptrIS3_E=so_stub_for_libtelux_audio
-Wl,--defsym=_ZN5telux6common15ListenerManagerINS_5audio18ITranscodeListenerEE18deRegisterListenerESt8weak_ptrIS3_E=so_stub_for_libtelux_audio
-Wl,--defsym=_ZN5telux6common15ListenerManagerINS_5audio18ITranscodeListenerEE21getAvailableListenersERSt6vectorISt8weak_ptrIS3_ESaIS7_EE=so_stub_for_libtelux_audio
-Wl,--defsym=_ZN5telux6common18FunctionalCallbackIJNS0_9ErrorCodeEEED0Ev=so_stub_for_libtelux_audio
-Wl,--defsym=_ZN5telux6common18FunctionalCallbackIJNS0_9ErrorCodeEEED1Ev=so_stub_for_libtelux_audio
-Wl,--defsym=_ZN5telux6common18FunctionalCallbackIJNS0_9ErrorCodeEEED2Ev=so_stub_for_libtelux_audio
-Wl,--defsym=_ZN5telux6common18FunctionalCallbackIJNS_5audio10StreamMuteENS0_9ErrorCodeEEED0Ev=so_stub_for_libtelux_audio
-Wl,--defsym=_ZN5telux6common18FunctionalCallbackIJNS_5audio10StreamMuteENS0_9ErrorCodeEEED1Ev=so_stub_for_libtelux_audio
-Wl,--defsym=_ZN5telux6common18FunctionalCallbackIJNS_5audio10StreamMuteENS0_9ErrorCodeEEED2Ev=so_stub_for_libtelux_audio
-Wl,--defsym=_ZN5telux6common18FunctionalCallbackIJNS_5audio12StreamVolumeENS0_9ErrorCodeEEED0Ev=so_stub_for_libtelux_audio
-Wl,--defsym=_ZN5telux6common18FunctionalCallbackIJNS_5audio12StreamVolumeENS0_9ErrorCodeEEED1Ev=so_stub_for_libtelux_audio
-Wl,--defsym=_ZN5telux6common18FunctionalCallbackIJNS_5audio12StreamVolumeENS0_9ErrorCodeEEED2Ev=so_stub_for_libtelux_audio
-Wl,--defsym=_ZN5telux6common18FunctionalCallbackIJRSt10shared_ptrINS_5audio11ITranscoderEENS0_9ErrorCodeEEED0Ev=so_stub_for_libtelux_audio
-Wl,--defsym=_ZN5telux6common18FunctionalCallbackIJRSt10shared_ptrINS_5audio11ITranscoderEENS0_9ErrorCodeEEED1Ev=so_stub_for_libtelux_audio
-Wl,--defsym=_ZN5telux6common18FunctionalCallbackIJRSt10shared_ptrINS_5audio11ITranscoderEENS0_9ErrorCodeEEED2Ev=so_stub_for_libtelux_audio
-Wl,--defsym=_ZN5telux6common18FunctionalCallbackIJRSt10shared_ptrINS_5audio12IAudioStreamEENS0_9ErrorCodeEEED0Ev=so_stub_for_libtelux_audio
-Wl,--defsym=_ZN5telux6common18FunctionalCallbackIJRSt10shared_ptrINS_5audio12IAudioStreamEENS0_9ErrorCodeEEED1Ev=so_stub_for_libtelux_audio
-Wl,--defsym=_ZN5telux6common18FunctionalCallbackIJRSt10shared_ptrINS_5audio12IAudioStreamEENS0_9ErrorCodeEEED2Ev=so_stub_for_libtelux_audio
-Wl,--defsym=_ZN5telux6common18FunctionalCallbackIJSt10shared_ptrINS_5audio12IAudioBufferEEjNS0_9ErrorCodeEEED0Ev=so_stub_for_libtelux_audio
-Wl,--defsym=_ZN5telux6common18FunctionalCallbackIJSt10shared_ptrINS_5audio12IAudioBufferEEjNS0_9ErrorCodeEEED1Ev=so_stub_for_libtelux_audio
-Wl,--defsym=_ZN5telux6common18FunctionalCallbackIJSt10shared_ptrINS_5audio12IAudioBufferEEjNS0_9ErrorCodeEEED2Ev=so_stub_for_libtelux_audio
-Wl,--defsym=_ZN5telux6common18FunctionalCallbackIJSt10shared_ptrINS_5audio13IStreamBufferEEjNS0_9ErrorCodeEEED0Ev=so_stub_for_libtelux_audio
-Wl,--defsym=_ZN5telux6common18FunctionalCallbackIJSt10shared_ptrINS_5audio13IStreamBufferEEjNS0_9ErrorCodeEEED1Ev=so_stub_for_libtelux_audio
-Wl,--defsym=_ZN5telux6common18FunctionalCallbackIJSt10shared_ptrINS_5audio13IStreamBufferEEjNS0_9ErrorCodeEEED2Ev=so_stub_for_libtelux_audio
-Wl,--defsym=_ZN5telux6common18FunctionalCallbackIJSt10shared_ptrINS_5audio13IStreamBufferEENS0_9ErrorCodeEEED0Ev=so_stub_for_libtelux_audio
-Wl,--defsym=_ZN5telux6common18FunctionalCallbackIJSt10shared_ptrINS_5audio13IStreamBufferEENS0_9ErrorCodeEEED1Ev=so_stub_for_libtelux_audio
-Wl,--defsym=_ZN5telux6common18FunctionalCallbackIJSt10shared_ptrINS_5audio13IStreamBufferEENS0_9ErrorCodeEEED2Ev=so_stub_for_libtelux_audio
-Wl,--defsym=_ZN5telux6common18FunctionalCallbackIJSt6vectorINS_5audio10DeviceTypeESaIS4_EENS0_9ErrorCodeEEED0Ev=so_stub_for_libtelux_audio
-Wl,--defsym=_ZN5telux6common18FunctionalCallbackIJSt6vectorINS_5audio10DeviceTypeESaIS4_EENS0_9ErrorCodeEEED1Ev=so_stub_for_libtelux_audio
-Wl,--defsym=_ZN5telux6common18FunctionalCallbackIJSt6vectorINS_5audio10DeviceTypeESaIS4_EENS0_9ErrorCodeEEED2Ev=so_stub_for_libtelux_audio
-Wl,--defsym=_ZN5telux6common18FunctionalCallbackIJSt6vectorINS_5audio10StreamTypeESaIS4_EENS0_9ErrorCodeEEED0Ev=so_stub_for_libtelux_audio
-Wl,--defsym=_ZN5telux6common18FunctionalCallbackIJSt6vectorINS_5audio10StreamTypeESaIS4_EENS0_9ErrorCodeEEED1Ev=so_stub_for_libtelux_audio
-Wl,--defsym=_ZN5telux6common18FunctionalCallbackIJSt6vectorINS_5audio10StreamTypeESaIS4_EENS0_9ErrorCodeEEED2Ev=so_stub_for_libtelux_audio
-Wl,--defsym=_ZN5telux6common18FunctionalCallbackIJSt6vectorISt10shared_ptrINS_5audio12IAudioDeviceEESaIS6_EENS0_9ErrorCodeEEED0Ev=so_stub_for_libtelux_audio
-Wl,--defsym=_ZN5telux6common18FunctionalCallbackIJSt6vectorISt10shared_ptrINS_5audio12IAudioDeviceEESaIS6_EENS0_9ErrorCodeEEED1Ev=so_stub_for_libtelux_audio
-Wl,--defsym=_ZN5telux6common18FunctionalCallbackIJSt6vectorISt10shared_ptrINS_5audio12IAudioDeviceEESaIS6_EENS0_9ErrorCodeEEED2Ev=so_stub_for_libtelux_audio
-Wl,--defsym=_ZN5telux6common22CommandCallbackManager11addCallbackIJNS0_9ErrorCodeEEEEiSt8functionIFvDpT_EE=so_stub_for_libtelux_audio
-Wl,--defsym=_ZN5telux6common22CommandCallbackManager11addCallbackIJNS_5audio10StreamMuteENS0_9ErrorCodeEEEEiSt8functionIFvDpT_EE=so_stub_for_libtelux_audio
-Wl,--defsym=_ZN5telux6common22CommandCallbackManager11addCallbackIJNS_5audio12StreamVolumeENS0_9ErrorCodeEEEEiSt8functionIFvDpT_EE=so_stub_for_libtelux_audio
-Wl,--defsym=_ZN5telux6common22CommandCallbackManager11addCallbackIJRSt10shared_ptrINS_5audio11ITranscoderEENS0_9ErrorCodeEEEEiSt8functionIFvDpT_EE=so_stub_for_libtelux_audio
-Wl,--defsym=_ZN5telux6common22CommandCallbackManager11addCallbackIJRSt10shared_ptrINS_5audio12IAudioStreamEENS0_9ErrorCodeEEEEiSt8functionIFvDpT_EE=so_stub_for_libtelux_audio
-Wl,--defsym=_ZN5telux6common22CommandCallbackManager11addCallbackIJSt10shared_ptrINS_5audio12IAudioBufferEEjNS0_9ErrorCodeEEEEiSt8functionIFvDpT_EE=so_stub_for_libtelux_audio
-Wl,--defsym=_ZN5telux6common22CommandCallbackManager11addCallbackIJSt10shared_ptrINS_5audio13IStreamBufferEEjNS0_9ErrorCodeEEEEiSt8functionIFvDpT_EE=so_stub_for_libtelux_audio
-Wl,--defsym=_ZN5telux6common22CommandCallbackManager11addCallbackIJSt10shared_ptrINS_5audio13IStreamBufferEENS0_9ErrorCodeEEEEiSt8functionIFvDpT_EE=so_stub_for_libtelux_audio
-Wl,--defsym=_ZN5telux6common22CommandCallbackManager11addCallbackIJSt6vectorINS_5audio10DeviceTypeESaIS5_EENS0_9ErrorCodeEEEEiSt8functionIFvDpT_EE=so_stub_for_libtelux_audio
-Wl,--defsym=_ZN5telux6common22CommandCallbackManager11addCallbackIJSt6vectorINS_5audio10StreamTypeESaIS5_EENS0_9ErrorCodeEEEEiSt8functionIFvDpT_EE=so_stub_for_libtelux_audio
-Wl,--defsym=_ZN5telux6common22CommandCallbackManager11addCallbackIJSt6vectorISt10shared_ptrINS_5audio12IAudioDeviceEESaIS7_EENS0_9ErrorCodeEEEEiSt8functionIFvDpT_EE=so_stub_for_libtelux_audio
-Wl,--defsym=_ZN5telux6common22CommandCallbackManager15executeCallbackIJDnRNS0_9ErrorCodeEEEEvSt10shared_ptrINS0_16ICommandCallbackEEDpOT_=so_stub_for_libtelux_audio
-Wl,--defsym=_ZN5telux6common22CommandCallbackManager15executeCallbackIJRjRNS0_9ErrorCodeEEEEvSt10shared_ptrINS0_16ICommandCallbackEEDpOT_=so_stub_for_libtelux_audio
-Wl,--defsym=_ZN5telux6common22CommandCallbackManager15executeCallbackIJRNS0_9ErrorCodeEEEEvSt10shared_ptrINS0_16ICommandCallbackEEDpOT_=so_stub_for_libtelux_audio
-Wl,--defsym=_ZN5telux6common22CommandCallbackManager15executeCallbackIJRNS_5audio10StreamMuteERNS0_9ErrorCodeEEEEvSt10shared_ptrINS0_16ICommandCallbackEEDpOT_=so_stub_for_libtelux_audio
-Wl,--defsym=_ZN5telux6common22CommandCallbackManager15executeCallbackIJRNS_5audio12StreamVolumeERNS0_9ErrorCodeEEEEvSt10shared_ptrINS0_16ICommandCallbackEEDpOT_=so_stub_for_libtelux_audio
-Wl,--defsym=_ZN5telux6common22CommandCallbackManager15executeCallbackIJRSt10shared_ptrINS_5audio14TranscoderImplEERNS0_9ErrorCodeEEEEvS3_INS0_16ICommandCallbackEEDpOT_=so_stub_for_libtelux_audio
-Wl,--defsym=_ZN5telux6common22CommandCallbackManager15executeCallbackIJRSt10shared_ptrINS_5audio15AudioBufferImplEERiRNS0_9ErrorCodeEEEEvS3_INS0_16ICommandCallbackEEDpOT_=so_stub_for_libtelux_audio
-Wl,--defsym=_ZN5telux6common22CommandCallbackManager15executeCallbackIJRSt10shared_ptrINS_5audio15AudioBufferImplEERjRNS0_9ErrorCodeEEEEvS3_INS0_16ICommandCallbackEEDpOT_=so_stub_for_libtelux_audio
-Wl,--defsym=_ZN5telux6common22CommandCallbackManager15executeCallbackIJRSt10shared_ptrINS_5audio16StreamBufferImplEERiRNS0_9ErrorCodeEEEEvS3_INS0_16ICommandCallbackEEDpOT_=so_stub_for_libtelux_audio
-Wl,--defsym=_ZN5telux6common22CommandCallbackManager15executeCallbackIJRSt10shared_ptrINS_5audio16StreamBufferImplEERNS0_9ErrorCodeEEEEvS3_INS0_16ICommandCallbackEEDpOT_=so_stub_for_libtelux_audio
-Wl,--defsym=_ZN5telux6common22CommandCallbackManager15executeCallbackIJRSt10shared_ptrINS_5audio19AudioPlayStreamImplEERNS0_9ErrorCodeEEEEvS3_INS0_16ICommandCallbackEEDpOT_=so_stub_for_libtelux_audio
-Wl,--defsym=_ZN5telux6common22CommandCallbackManager15executeCallbackIJRSt10shared_ptrINS_5audio20AudioVoiceStreamImplEERNS0_9ErrorCodeEEEEvS3_INS0_16ICommandCallbackEEDpOT_=so_stub_for_libtelux_audio
-Wl,--defsym=_ZN5telux6common22CommandCallbackManager15executeCallbackIJRSt10shared_ptrINS_5audio22AudioCaptureStreamImplEERNS0_9ErrorCodeEEEEvS3_INS0_16ICommandCallbackEEDpOT_=so_stub_for_libtelux_audio
-Wl,--defsym=_ZN5telux6common22CommandCallbackManager15executeCallbackIJRSt10shared_ptrINS_5audio23AudioLoopbackStreamImplEERNS0_9ErrorCodeEEEEvS3_INS0_16ICommandCallbackEEDpOT_=so_stub_for_libtelux_audio
-Wl,--defsym=_ZN5telux6common22CommandCallbackManager15executeCallbackIJRSt10shared_ptrINS_5audio28AudioToneGeneratorStreamImplEERNS0_9ErrorCodeEEEEvS3_INS0_16ICommandCallbackEEDpOT_=so_stub_for_libtelux_audio
-Wl,--defsym=_ZN5telux6common22CommandCallbackManager15executeCallbackIJRSt6vectorINS_5audio10DeviceTypeESaIS5_EERNS0_9ErrorCodeEEEEvSt10shared_ptrINS0_16ICommandCallbackEEDpOT_=so_stub_for_libtelux_audio
-Wl,--defsym=_ZN5telux6common22CommandCallbackManager15executeCallbackIJRSt6vectorINS_5audio10StreamTypeESaIS5_EERNS0_9ErrorCodeEEEEvSt10shared_ptrINS0_16ICommandCallbackEEDpOT_=so_stub_for_libtelux_audio
-Wl,--defsym=_ZN5telux6common22CommandCallbackManager15executeCallbackIJRSt6vectorISt10shared_ptrINS_5audio15AudioDeviceImplEESaIS7_EERNS0_9ErrorCodeEEEEvS4_INS0_16ICommandCallbackEEDpOT_=so_stub_for_libtelux_audio
-Wl,--defsym=_ZN5telux6common22IServiceStatusListener21onServiceStatusChangeENS0_13ServiceStatusE=so_stub_for_libtelux_audio
-Wl,--defsym=_ZN5telux6common35enable_inheritable_shared_from_thisINS_5audio15AudioStreamImplEE16shared_from_thisEv=so_stub_for_libtelux_audio
-Wl,--defsym=_ZN5telux6common35enable_inheritable_shared_from_thisINS_5audio15AudioStreamImplEE27downcasted_shared_from_thisINS2_19AudioPlayStreamImplEEESt10shared_ptrIT_Ev=so_stub_for_libtelux_audio
-Wl,--defsym=_ZN5telux6common35enable_inheritable_shared_from_thisINS_5audio15AudioStreamImplEE27downcasted_shared_from_thisINS2_20AudioVoiceStreamImplEEESt10shared_ptrIT_Ev=so_stub_for_libtelux_audio
-Wl,--defsym=_ZN5telux6common35enable_inheritable_shared_from_thisINS_5audio15AudioStreamImplEE27downcasted_shared_from_thisINS2_22AudioCaptureStreamImplEEESt10shared_ptrIT_Ev=so_stub_for_libtelux_audio
-Wl,--defsym=_ZN5telux6common35enable_inheritable_shared_from_thisINS_5audio15AudioStreamImplEE27downcasted_shared_from_thisINS2_23AudioLoopbackStreamImplEEESt10shared_ptrIT_Ev=so_stub_for_libtelux_audio
-Wl,--defsym=_ZN5telux6common35enable_inheritable_shared_from_thisINS_5audio15AudioStreamImplEE27downcasted_shared_from_thisINS2_28AudioToneGeneratorStreamImplEEESt10shared_ptrIT_Ev=so_stub_for_libtelux_audio
-Wl,--defsym=_ZN5telux6common3Log10logMessageIJPKcEEEvNS0_8LogLevelERKNSt7__cxx1112basic_stringIcSt11char_traitsIcESaIcEEESD_RKiDpT_=so_stub_for_libtelux_audio
-Wl,--defsym=_ZN5telux6common3Log10logMessageIJPKciS4_EEEvNS0_8LogLevelERKNSt7__cxx1112basic_stringIcSt11char_traitsIcESaIcEEESD_RKiDpT_=so_stub_for_libtelux_audio
-Wl,--defsym=_ZN5telux6common3Log10logMessageIJPKcS4_bEEEvNS0_8LogLevelERKNSt7__cxx1112basic_stringIcSt11char_traitsIcESaIcEEESD_RKiDpT_=so_stub_for_libtelux_audio
-Wl,--defsym=_ZN5telux6common3Log10logMessageIJPKcS4_EEEvNS0_8LogLevelERKNSt7__cxx1112basic_stringIcSt11char_traitsIcESaIcEEESD_RKiDpT_=so_stub_for_libtelux_audio
-Wl,--defsym=_ZN5telux6common3Log10logMessageIJPKcS4_iEEEvNS0_8LogLevelERKNSt7__cxx1112basic_stringIcSt11char_traitsIcESaIcEEESD_RKiDpT_=so_stub_for_libtelux_audio
-Wl,--defsym=_ZN5telux6common3Log10logMessageIJPKcS4_jEEEvNS0_8LogLevelERKNSt7__cxx1112basic_stringIcSt11char_traitsIcESaIcEEESD_RKiDpT_=so_stub_for_libtelux_audio
-Wl,--defsym=_ZN5telux6common3Log10logMessageIJPKcS4_jjjEEEvNS0_8LogLevelERKNSt7__cxx1112basic_stringIcSt11char_traitsIcESaIcEEESD_RKiDpT_=so_stub_for_libtelux_audio
-Wl,--defsym=_ZN5telux6common3Log10logMessageIJPKcS4_jS4_fEEEvNS0_8LogLevelERKNSt7__cxx1112basic_stringIcSt11char_traitsIcESaIcEEESD_RKiDpT_=so_stub_for_libtelux_audio
-Wl,--defsym=_ZN5telux6common3Log10logMessageIJPKcS4_jS4_jEEEvNS0_8LogLevelERKNSt7__cxx1112basic_stringIcSt11char_traitsIcESaIcEEESD_RKiDpT_=so_stub_for_libtelux_audio
-Wl,--defsym=_ZN5telux6common3Log10logMessageIJPKcS4_jS4_S4_jEEEvNS0_8LogLevelERKNSt7__cxx1112basic_stringIcSt11char_traitsIcESaIcEEESD_RKiDpT_=so_stub_for_libtelux_audio
-Wl,--defsym=_ZN5telux6common3Log10logMessageIJPKcS4_NSt7__cxx1112basic_stringIcSt11char_traitsIcESaIcEEEEEEvNS0_8LogLevelERKSA_SD_RKiDpT_=so_stub_for_libtelux_audio
-Wl,--defsym=_ZN5telux6common3Log10logMessageIJPKcS4_S4_EEEvNS0_8LogLevelERKNSt7__cxx1112basic_stringIcSt11char_traitsIcESaIcEEESD_RKiDpT_=so_stub_for_libtelux_audio
-Wl,--defsym=_ZN5telux6common3Log10logMessageIJPKcS4_S4_jEEEvNS0_8LogLevelERKNSt7__cxx1112basic_stringIcSt11char_traitsIcESaIcEEESD_RKiDpT_=so_stub_for_libtelux_audio
-Wl,--defsym=_ZN5telux6common3Log16constructMessageINSt7__cxx1119basic_ostringstreamIcSt11char_traitsIcESaIcEEEPKcJNS3_12basic_stringIcS6_S7_EEEEEvRT_T0_DpT1_=so_stub_for_libtelux_audio
-Wl,--defsym=_ZN5telux6common3Log16constructMessageINSt7__cxx1119basic_ostringstreamIcSt11char_traitsIcESaIcEEEPKcJSA_jEEEvRT_T0_DpT1_=so_stub_for_libtelux_audio
-Wl,--defsym=_ZN5telux6common3Log16constructMessageINSt7__cxx1119basic_ostringstreamIcSt11char_traitsIcESaIcEEEPKcJSA_jjjEEEvRT_T0_DpT1_=so_stub_for_libtelux_audio
-Wl,--defsym=_ZN5telux6common3Log16constructMessageINSt7__cxx1119basic_ostringstreamIcSt11char_traitsIcESaIcEEEPKcJSA_jSA_fEEEvRT_T0_DpT1_=so_stub_for_libtelux_audio
-Wl,--defsym=_ZN5telux6common3Log16constructMessageINSt7__cxx1119basic_ostringstreamIcSt11char_traitsIcESaIcEEEPKcJSA_jSA_jEEEvRT_T0_DpT1_=so_stub_for_libtelux_audio
-Wl,--defsym=_ZN5telux6common3Log16constructMessageINSt7__cxx1119basic_ostringstreamIcSt11char_traitsIcESaIcEEEPKcJSA_NS3_12basic_stringIcS6_S7_EEEEEvRT_T0_DpT1_=so_stub_for_libtelux_audio
-Wl,--defsym=_ZN9__gnu_cxx5__ops10_Iter_predIZN5telux6common15ListenerManagerINS2_5audio13IPlayListenerEE16registerListenerESt8weak_ptrIS6_EEUlS9_E_EclINS_17__normal_iteratorIPS9_St6vectorIS9_SaIS9_EEEEEEbT_=so_stub_for_libtelux_audio
-Wl,--defsym=_ZN9__gnu_cxx5__ops10_Iter_predIZN5telux6common15ListenerManagerINS2_5audio14IAudioListenerEE16registerListenerESt8weak_ptrIS6_EEUlS9_E_EclINS_17__normal_iteratorIPS9_St6vectorIS9_SaIS9_EEEEEEbT_=so_stub_for_libtelux_audio
-Wl,--defsym=_ZN9__gnu_cxx5__ops10_Iter_predIZN5telux6common15ListenerManagerINS2_5audio14IVoiceListenerEE16registerListenerESt8weak_ptrIS6_EEUlS9_E_EclINS_17__normal_iteratorIPS9_St6vectorIS9_SaIS9_EEEEEEbT_=so_stub_for_libtelux_audio
-Wl,--defsym=_ZN9__gnu_cxx5__ops10_Iter_predIZN5telux6common15ListenerManagerINS2_5audio18ITranscodeListenerEE16registerListenerESt8weak_ptrIS6_EEUlS9_E_EclINS_17__normal_iteratorIPS9_St6vectorIS9_SaIS9_EEEEEEbT_=so_stub_for_libtelux_audio
-Wl,--defsym=_ZNKSt13__future_base13_State_baseV221_M_is_deferred_futureEv=so_stub_for_libtelux_audio
-Wl,--defsym=_ZNKSt14__basic_futureIbE13_M_get_resultEv=so_stub_for_libtelux_audio
-Wl,--defsym=_ZNKSt6vectorISt8weak_ptrIN5telux5audio13IPlayListenerEESaIS4_EE12_M_check_lenEjPKc=so_stub_for_libtelux_audio
-Wl,--defsym=_ZNKSt6vectorISt8weak_ptrIN5telux5audio14IAudioListenerEESaIS4_EE12_M_check_lenEjPKc=so_stub_for_libtelux_audio
-Wl,--defsym=_ZNKSt6vectorISt8weak_ptrIN5telux5audio14IVoiceListenerEESaIS4_EE12_M_check_lenEjPKc=so_stub_for_libtelux_audio
-Wl,--defsym=_ZNKSt6vectorISt8weak_ptrIN5telux5audio18ITranscodeListenerEESaIS4_EE12_M_check_lenEjPKc=so_stub_for_libtelux_audio
-Wl,--defsym=_ZNSt10_HashtableIiSt4pairIKiSt10shared_ptrIN5telux6common16ICommandCallbackEEESaIS7_ENSt8__detail10_Select1stESt8equal_toIiESt4hashIiENS9_18_Mod_range_hashingENS9_20_Default_ranged_hashENS9_20_Prime_rehash_policyENS9_17_Hashtable_traitsILb0ELb0ELb1EEEE13_M_rehash_auxEjSt17integral_constantIbLb1EE=so_stub_for_libtelux_audio
-Wl,--defsym=_ZNSt10_HashtableIiSt4pairIKiSt10shared_ptrIN5telux6common16ICommandCallbackEEESaIS7_ENSt8__detail10_Select1stESt8equal_toIiESt4hashIiENS9_18_Mod_range_hashingENS9_20_Default_ranged_hashENS9_20_Prime_rehash_policyENS9_17_Hashtable_traitsILb0ELb0ELb1EEEE21_M_insert_unique_nodeEjjPNS9_10_Hash_nodeIS7_Lb0EEEj=so_stub_for_libtelux_audio
-Wl,--defsym=_ZNSt10_HashtableIiSt4pairIKiSt10shared_ptrIN5telux6common16ICommandCallbackEEESaIS7_ENSt8__detail10_Select1stESt8equal_toIiESt4hashIiENS9_18_Mod_range_hashingENS9_20_Default_ranged_hashENS9_20_Prime_rehash_policyENS9_17_Hashtable_traitsILb0ELb0ELb1EEEE9_M_rehashEjRKj=so_stub_for_libtelux_audio
-Wl,--defsym=_ZNSt10_HashtableIjSt4pairIKjSt10shared_ptrIN5telux5audio12IAudioStreamEEESaIS7_ENSt8__detail10_Select1stESt8equal_toIjESt4hashIjENS9_18_Mod_range_hashingENS9_20_Default_ranged_hashENS9_20_Prime_rehash_policyENS9_17_Hashtable_traitsILb0ELb0ELb1EEEE13_M_rehash_auxEjSt17integral_constantIbLb1EE=so_stub_for_libtelux_audio
-Wl,--defsym=_ZNSt10_HashtableIjSt4pairIKjSt10shared_ptrIN5telux5audio12IAudioStreamEEESaIS7_ENSt8__detail10_Select1stESt8equal_toIjESt4hashIjENS9_18_Mod_range_hashingENS9_20_Default_ranged_hashENS9_20_Prime_rehash_policyENS9_17_Hashtable_traitsILb0ELb0ELb1EEEE21_M_insert_unique_nodeEjjPNS9_10_Hash_nodeIS7_Lb0EEEj=so_stub_for_libtelux_audio
-Wl,--defsym=_ZNSt10_HashtableIjSt4pairIKjSt10shared_ptrIN5telux5audio12IAudioStreamEEESaIS7_ENSt8__detail10_Select1stESt8equal_toIjESt4hashIjENS9_18_Mod_range_hashingENS9_20_Default_ranged_hashENS9_20_Prime_rehash_policyENS9_17_Hashtable_traitsILb0ELb0ELb1EEEE8_M_eraseEjPNS9_15_Hash_node_baseEPNS9_10_Hash_nodeIS7_Lb0EEE=so_stub_for_libtelux_audio
-Wl,--defsym=_ZNSt10_HashtableIjSt4pairIKjSt10shared_ptrIN5telux5audio12IAudioStreamEEESaIS7_ENSt8__detail10_Select1stESt8equal_toIjESt4hashIjENS9_18_Mod_range_hashingENS9_20_Default_ranged_hashENS9_20_Prime_rehash_policyENS9_17_Hashtable_traitsILb0ELb0ELb1EEEE8_M_eraseESt17integral_constantIbLb1EERS1_=so_stub_for_libtelux_audio
-Wl,--defsym=_ZNSt10_HashtableIjSt4pairIKjSt10shared_ptrIN5telux5audio12IAudioStreamEEESaIS7_ENSt8__detail10_Select1stESt8equal_toIjESt4hashIjENS9_18_Mod_range_hashingENS9_20_Default_ranged_hashENS9_20_Prime_rehash_policyENS9_17_Hashtable_traitsILb0ELb0ELb1EEEE9_M_rehashEjRS1_=so_stub_for_libtelux_audio
-Wl,--defsym=_ZNSt10_HashtableIjSt4pairIKjSt10shared_ptrIN5telux5audio12IAudioStreamEEESaIS7_ENSt8__detail10_Select1stESt8equal_toIjESt4hashIjENS9_18_Mod_range_hashingENS9_20_Default_ranged_hashENS9_20_Prime_rehash_policyENS9_17_Hashtable_traitsILb0ELb0ELb1EEEED1Ev=so_stub_for_libtelux_audio
-Wl,--defsym=_ZNSt10_HashtableIjSt4pairIKjSt10shared_ptrIN5telux5audio12IAudioStreamEEESaIS7_ENSt8__detail10_Select1stESt8equal_toIjESt4hashIjENS9_18_Mod_range_hashingENS9_20_Default_ranged_hashENS9_20_Prime_rehash_policyENS9_17_Hashtable_traitsILb0ELb0ELb1EEEED2Ev=so_stub_for_libtelux_audio
-Wl,--defsym=_ZNSt11__copy_moveILb1ELb0ESt26random_access_iterator_tagE8__copy_mIPSt13shared_futureIvES5_EET0_T_S7_S6_=so_stub_for_libtelux_audio
-Wl,--defsym=_ZNSt11__copy_moveILb1ELb0ESt26random_access_iterator_tagE8__copy_mIPSt8weak_ptrIN5telux5audio13IPlayListenerEES8_EET0_T_SA_S9_=so_stub_for_libtelux_audio
-Wl,--defsym=_ZNSt11__copy_moveILb1ELb0ESt26random_access_iterator_tagE8__copy_mIPSt8weak_ptrIN5telux5audio14IAudioListenerEES8_EET0_T_SA_S9_=so_stub_for_libtelux_audio
-Wl,--defsym=_ZNSt11__copy_moveILb1ELb0ESt26random_access_iterator_tagE8__copy_mIPSt8weak_ptrIN5telux5audio14IVoiceListenerEES8_EET0_T_SA_S9_=so_stub_for_libtelux_audio
-Wl,--defsym=_ZNSt11__copy_moveILb1ELb0ESt26random_access_iterator_tagE8__copy_mIPSt8weak_ptrIN5telux5audio18ITranscodeListenerEES8_EET0_T_SA_S9_=so_stub_for_libtelux_audio
-Wl,--defsym=_ZNSt11_Deque_baseISt13shared_futureIvESaIS1_EE15_M_create_nodesEPPS1_S5_=so_stub_for_libtelux_audio
-Wl,--defsym=_ZNSt11_Deque_baseISt13shared_futureIvESaIS1_EE17_M_initialize_mapEj=so_stub_for_libtelux_audio
-Wl,--defsym=_ZNSt11_Deque_baseISt13shared_futureIvESaIS1_EED1Ev=so_stub_for_libtelux_audio
-Wl,--defsym=_ZNSt11_Deque_baseISt13shared_futureIvESaIS1_EED2Ev=so_stub_for_libtelux_audio
-Wl,--defsym=_ZNSt12future_errorC1ESt10error_code=so_stub_for_libtelux_audio
-Wl,--defsym=_ZNSt12future_errorC2ESt10error_code=so_stub_for_libtelux_audio
-Wl,--defsym=_ZNSt12__shared_ptrIN5telux5audio13IPlayListenerELN9__gnu_cxx12_Lock_policyE2EEC1ERKSt10__weak_ptrIS2_LS4_2EESt9nothrow_t=so_stub_for_libtelux_audio
-Wl,--defsym=_ZNSt12__shared_ptrIN5telux5audio13IPlayListenerELN9__gnu_cxx12_Lock_policyE2EEC2ERKSt10__weak_ptrIS2_LS4_2EESt9nothrow_t=so_stub_for_libtelux_audio
-Wl,--defsym=_ZNSt12__shared_ptrIN5telux5audio14IAudioListenerELN9__gnu_cxx12_Lock_policyE2EEC1ERKSt10__weak_ptrIS2_LS4_2EESt9nothrow_t=so_stub_for_libtelux_audio
-Wl,--defsym=_ZNSt12__shared_ptrIN5telux5audio14IAudioListenerELN9__gnu_cxx12_Lock_policyE2EEC2ERKSt10__weak_ptrIS2_LS4_2EESt9nothrow_t=so_stub_for_libtelux_audio
-Wl,--defsym=_ZNSt12__shared_ptrIN5telux5audio14IVoiceListenerELN9__gnu_cxx12_Lock_policyE2EEC1ERKSt10__weak_ptrIS2_LS4_2EESt9nothrow_t=so_stub_for_libtelux_audio
-Wl,--defsym=_ZNSt12__shared_ptrIN5telux5audio14IVoiceListenerELN9__gnu_cxx12_Lock_policyE2EEC2ERKSt10__weak_ptrIS2_LS4_2EESt9nothrow_t=so_stub_for_libtelux_audio
-Wl,--defsym=_ZNSt12__shared_ptrIN5telux5audio14TranscoderImplELN9__gnu_cxx12_Lock_policyE2EEC1ISaIS2_EJRjS8_S8_S8_S8_EEESt19_Sp_make_shared_tagRKT_DpOT0_=so_stub_for_libtelux_audio
-Wl,--defsym=_ZNSt12__shared_ptrIN5telux5audio14TranscoderImplELN9__gnu_cxx12_Lock_policyE2EEC2ISaIS2_EJRjS8_S8_S8_S8_EEESt19_Sp_make_shared_tagRKT_DpOT0_=so_stub_for_libtelux_audio
-Wl,--defsym=_ZNSt12__shared_ptrIN5telux5audio15AudioBufferImplELN9__gnu_cxx12_Lock_policyE2EEC1ISaIS2_EJRjS8_S8_jEEESt19_Sp_make_shared_tagRKT_DpOT0_=so_stub_for_libtelux_audio
-Wl,--defsym=_ZNSt12__shared_ptrIN5telux5audio15AudioBufferImplELN9__gnu_cxx12_Lock_policyE2EEC2ISaIS2_EJRjS8_S8_jEEESt19_Sp_make_shared_tagRKT_DpOT0_=so_stub_for_libtelux_audio
-Wl,--defsym=_ZNSt12__shared_ptrIN5telux5audio15AudioDeviceImplELN9__gnu_cxx12_Lock_policyE2EEC1ISaIS2_EJEEESt19_Sp_make_shared_tagRKT_DpOT0_=so_stub_for_libtelux_audio
-Wl,--defsym=_ZNSt12__shared_ptrIN5telux5audio15AudioDeviceImplELN9__gnu_cxx12_Lock_policyE2EEC2ISaIS2_EJEEESt19_Sp_make_shared_tagRKT_DpOT0_=so_stub_for_libtelux_audio
-Wl,--defsym=_ZNSt12__shared_ptrIN5telux5audio16AudioManagerImplELN9__gnu_cxx12_Lock_policyE2EEC1ISaIS2_EJEEESt19_Sp_make_shared_tagRKT_DpOT0_=so_stub_for_libtelux_audio
-Wl,--defsym=_ZNSt12__shared_ptrIN5telux5audio16AudioManagerImplELN9__gnu_cxx12_Lock_policyE2EEC2ISaIS2_EJEEESt19_Sp_make_shared_tagRKT_DpOT0_=so_stub_for_libtelux_audio
-Wl,--defsym=_ZNSt12__shared_ptrIN5telux5audio16StreamBufferImplELN9__gnu_cxx12_Lock_policyE2EEC1ISaIS2_EJRjS8_S8_jEEESt19_Sp_make_shared_tagRKT_DpOT0_=so_stub_for_libtelux_audio
-Wl,--defsym=_ZNSt12__shared_ptrIN5telux5audio16StreamBufferImplELN9__gnu_cxx12_Lock_policyE2EEC2ISaIS2_EJRjS8_S8_jEEESt19_Sp_make_shared_tagRKT_DpOT0_=so_stub_for_libtelux_audio
-Wl,--defsym=_ZNSt12__shared_ptrIN5telux5audio18ITranscodeListenerELN9__gnu_cxx12_Lock_policyE2EEC1ERKSt10__weak_ptrIS2_LS4_2EESt9nothrow_t=so_stub_for_libtelux_audio
-Wl,--defsym=_ZNSt12__shared_ptrIN5telux5audio18ITranscodeListenerELN9__gnu_cxx12_Lock_policyE2EEC2ERKSt10__weak_ptrIS2_LS4_2EESt9nothrow_t=so_stub_for_libtelux_audio
-Wl,--defsym=_ZNSt12__shared_ptrIN5telux5audio19AudioPlayStreamImplELN9__gnu_cxx12_Lock_policyE2EEC1ISaIS2_EJRjS8_S8_EEESt19_Sp_make_shared_tagRKT_DpOT0_=so_stub_for_libtelux_audio
-Wl,--defsym=_ZNSt12__shared_ptrIN5telux5audio19AudioPlayStreamImplELN9__gnu_cxx12_Lock_policyE2EEC2ISaIS2_EJRjS8_S8_EEESt19_Sp_make_shared_tagRKT_DpOT0_=so_stub_for_libtelux_audio
-Wl,--defsym=_ZNSt12__shared_ptrIN5telux5audio20AudioVoiceStreamImplELN9__gnu_cxx12_Lock_policyE2EEC1ISaIS2_EJRjEEESt19_Sp_make_shared_tagRKT_DpOT0_=so_stub_for_libtelux_audio
-Wl,--defsym=_ZNSt12__shared_ptrIN5telux5audio20AudioVoiceStreamImplELN9__gnu_cxx12_Lock_policyE2EEC2ISaIS2_EJRjEEESt19_Sp_make_shared_tagRKT_DpOT0_=so_stub_for_libtelux_audio
-Wl,--defsym=_ZNSt12__shared_ptrIN5telux5audio22AudioCaptureStreamImplELN9__gnu_cxx12_Lock_policyE2EEC1ISaIS2_EJRjS8_S8_EEESt19_Sp_make_shared_tagRKT_DpOT0_=so_stub_for_libtelux_audio
-Wl,--defsym=_ZNSt12__shared_ptrIN5telux5audio22AudioCaptureStreamImplELN9__gnu_cxx12_Lock_policyE2EEC2ISaIS2_EJRjS8_S8_EEESt19_Sp_make_shared_tagRKT_DpOT0_=so_stub_for_libtelux_audio
-Wl,--defsym=_ZNSt12__shared_ptrIN5telux5audio23AudioLoopbackStreamImplELN9__gnu_cxx12_Lock_policyE2EEC1ISaIS2_EJRjEEESt19_Sp_make_shared_tagRKT_DpOT0_=so_stub_for_libtelux_audio
-Wl,--defsym=_ZNSt12__shared_ptrIN5telux5audio23AudioLoopbackStreamImplELN9__gnu_cxx12_Lock_policyE2EEC2ISaIS2_EJRjEEESt19_Sp_make_shared_tagRKT_DpOT0_=so_stub_for_libtelux_audio
-Wl,--defsym=_ZNSt12__shared_ptrIN5telux5audio28AudioToneGeneratorStreamImplELN9__gnu_cxx12_Lock_policyE2EEC1ISaIS2_EJRjEEESt19_Sp_make_shared_tagRKT_DpOT0_=so_stub_for_libtelux_audio
-Wl,--defsym=_ZNSt12__shared_ptrIN5telux5audio28AudioToneGeneratorStreamImplELN9__gnu_cxx12_Lock_policyE2EEC2ISaIS2_EJRjEEESt19_Sp_make_shared_tagRKT_DpOT0_=so_stub_for_libtelux_audio
-Wl,--defsym=_ZNSt12__shared_ptrIN5telux6common15ListenerManagerINS0_5audio13IPlayListenerEEELN9__gnu_cxx12_Lock_policyE2EEC1ISaIS5_EJEEESt19_Sp_make_shared_tagRKT_DpOT0_=so_stub_for_libtelux_audio
-Wl,--defsym=_ZNSt12__shared_ptrIN5telux6common15ListenerManagerINS0_5audio13IPlayListenerEEELN9__gnu_cxx12_Lock_policyE2EEC2ISaIS5_EJEEESt19_Sp_make_shared_tagRKT_DpOT0_=so_stub_for_libtelux_audio
-Wl,--defsym=_ZNSt12__shared_ptrIN5telux6common15ListenerManagerINS0_5audio14IAudioListenerEEELN9__gnu_cxx12_Lock_policyE2EEC1ISaIS5_EJEEESt19_Sp_make_shared_tagRKT_DpOT0_=so_stub_for_libtelux_audio
-Wl,--defsym=_ZNSt12__shared_ptrIN5telux6common15ListenerManagerINS0_5audio14IAudioListenerEEELN9__gnu_cxx12_Lock_policyE2EEC2ISaIS5_EJEEESt19_Sp_make_shared_tagRKT_DpOT0_=so_stub_for_libtelux_audio
-Wl,--defsym=_ZNSt12__shared_ptrIN5telux6common15ListenerManagerINS0_5audio14IVoiceListenerEEELN9__gnu_cxx12_Lock_policyE2EEC1ISaIS5_EJEEESt19_Sp_make_shared_tagRKT_DpOT0_=so_stub_for_libtelux_audio
-Wl,--defsym=_ZNSt12__shared_ptrIN5telux6common15ListenerManagerINS0_5audio14IVoiceListenerEEELN9__gnu_cxx12_Lock_policyE2EEC2ISaIS5_EJEEESt19_Sp_make_shared_tagRKT_DpOT0_=so_stub_for_libtelux_audio
-Wl,--defsym=_ZNSt12__shared_ptrIN5telux6common15ListenerManagerINS0_5audio18ITranscodeListenerEEELN9__gnu_cxx12_Lock_policyE2EEC1ISaIS5_EJEEESt19_Sp_make_shared_tagRKT_DpOT0_=so_stub_for_libtelux_audio
-Wl,--defsym=_ZNSt12__shared_ptrIN5telux6common15ListenerManagerINS0_5audio18ITranscodeListenerEEELN9__gnu_cxx12_Lock_policyE2EEC2ISaIS5_EJEEESt19_Sp_make_shared_tagRKT_DpOT0_=so_stub_for_libtelux_audio
-Wl,--defsym=_ZNSt13__future_base13_State_baseV210wait_untilINSt6chrono3_V212system_clockENS2_8durationIxSt5ratioILx1ELx1000000000EEEEEESt13future_statusRKNS2_10time_pointIT_T0_EE=so_stub_for_libtelux_audio
-Wl,--defsym=_ZNSt13__future_base13_State_baseV213_M_set_resultESt8functionIFSt10unique_ptrINS_12_Result_baseENS3_8_DeleterEEvEEb=so_stub_for_libtelux_audio
-Wl,--defsym=_ZNSt13__future_base13_State_baseV216_M_break_promiseESt10unique_ptrINS_12_Result_baseENS2_8_DeleterEE=so_stub_for_libtelux_audio
-Wl,--defsym=_ZNSt13__future_base13_State_baseV217_M_complete_asyncEv=so_stub_for_libtelux_audio
-Wl,--defsym=_ZNSt13__future_base13_State_baseV24waitEv=so_stub_for_libtelux_audio
-Wl,--defsym=_ZNSt13__future_base13_State_baseV29_M_do_setEPSt8functionIFSt10unique_ptrINS_12_Result_baseENS3_8_DeleterEEvEEPb=so_stub_for_libtelux_audio
-Wl,--defsym=_ZNSt13__future_base13_State_baseV2D0Ev=so_stub_for_libtelux_audio
-Wl,--defsym=_ZNSt13__future_base13_State_baseV2D1Ev=so_stub_for_libtelux_audio
-Wl,--defsym=_ZNSt13__future_base13_State_baseV2D2Ev=so_stub_for_libtelux_audio
-Wl,--defsym=_ZNSt13__future_base21_Async_state_commonV217_M_complete_asyncEv=so_stub_for_libtelux_audio
-Wl,--defsym=_ZNSt13__future_base21_Async_state_commonV2D0Ev=so_stub_for_libtelux_audio
-Wl,--defsym=_ZNSt13__future_base21_Async_state_commonV2D1Ev=so_stub_for_libtelux_audio
-Wl,--defsym=_ZNSt13__future_base21_Async_state_commonV2D2Ev=so_stub_for_libtelux_audio
-Wl,--defsym=_ZNSt13__future_base7_ResultIbE10_M_destroyEv=so_stub_for_libtelux_audio
-Wl,--defsym=_ZNSt13__future_base7_ResultIbED0Ev=so_stub_for_libtelux_audio
-Wl,--defsym=_ZNSt13__future_base7_ResultIbED1Ev=so_stub_for_libtelux_audio
-Wl,--defsym=_ZNSt13__future_base7_ResultIbED2Ev=so_stub_for_libtelux_audio
-Wl,--defsym=_ZNSt13__future_base7_ResultIvE10_M_destroyEv=so_stub_for_libtelux_audio
-Wl,--defsym=_ZNSt13__future_base7_ResultIvED0Ev=so_stub_for_libtelux_audio
-Wl,--defsym=_ZNSt13__future_base7_ResultIvED1Ev=so_stub_for_libtelux_audio
-Wl,--defsym=_ZNSt13__future_base7_ResultIvED2Ev=so_stub_for_libtelux_audio
-Wl,--defsym=_ZNSt14__basic_futureIbEC1ERKSt10shared_ptrINSt13__future_base13_State_baseV2EE=so_stub_for_libtelux_audio
-Wl,--defsym=_ZNSt14__basic_futureIbEC2ERKSt10shared_ptrINSt13__future_base13_State_baseV2EE=so_stub_for_libtelux_audio
-Wl,--defsym=_ZNSt14__basic_futureIvEC1ERKSt10shared_ptrINSt13__future_base13_State_baseV2EE=so_stub_for_libtelux_audio
-Wl,--defsym=_ZNSt14__basic_futureIvEC2ERKSt10shared_ptrINSt13__future_base13_State_baseV2EE=so_stub_for_libtelux_audio
-Wl,--defsym=_ZNSt14__shared_countILN9__gnu_cxx12_Lock_policyE2EEC1IN5telux5audio15AudioDeviceImplESaIS6_EJEEESt19_Sp_make_shared_tagPT_RKT0_DpOT1_=so_stub_for_libtelux_audio
-Wl,--defsym=_ZNSt14__shared_countILN9__gnu_cxx12_Lock_policyE2EEC1IN5telux5audio16AudioManagerImplESaIS6_EJEEESt19_Sp_make_shared_tagPT_RKT0_DpOT1_=so_stub_for_libtelux_audio
-Wl,--defsym=_ZNSt14__shared_countILN9__gnu_cxx12_Lock_policyE2EEC1IN5telux6common18FunctionalCallbackIJNS4_5audio10StreamMuteENS5_9ErrorCodeEEEESaISA_EJRSt8functionIFvS8_S9_EEEEESt19_Sp_make_shared_tagPT_RKT0_DpOT1_=so_stub_for_libtelux_audio
-Wl,--defsym=_ZNSt14__shared_countILN9__gnu_cxx12_Lock_policyE2EEC1IN5telux6common18FunctionalCallbackIJNS4_5audio12StreamVolumeENS5_9ErrorCodeEEEESaISA_EJRSt8functionIFvS8_S9_EEEEESt19_Sp_make_shared_tagPT_RKT0_DpOT1_=so_stub_for_libtelux_audio
-Wl,--defsym=_ZNSt14__shared_countILN9__gnu_cxx12_Lock_policyE2EEC1IN5telux6common18FunctionalCallbackIJNS5_9ErrorCodeEEEESaIS8_EJRSt8functionIFvS7_EEEEESt19_Sp_make_shared_tagPT_RKT0_DpOT1_=so_stub_for_libtelux_audio
-Wl,--defsym=_ZNSt14__shared_countILN9__gnu_cxx12_Lock_policyE2EEC1IN5telux6common18FunctionalCallbackIJRSt10shared_ptrINS4_5audio11ITranscoderEENS5_9ErrorCodeEEEESaISD_EJRSt8functionIFvSB_SC_EEEEESt19_Sp_make_shared_tagPT_RKT0_DpOT1_=so_stub_for_libtelux_audio
-Wl,--defsym=_ZNSt14__shared_countILN9__gnu_cxx12_Lock_policyE2EEC1IN5telux6common18FunctionalCallbackIJRSt10shared_ptrINS4_5audio12IAudioStreamEENS5_9ErrorCodeEEEESaISD_EJRSt8functionIFvSB_SC_EEEEESt19_Sp_make_shared_tagPT_RKT0_DpOT1_=so_stub_for_libtelux_audio
-Wl,--defsym=_ZNSt14__shared_countILN9__gnu_cxx12_Lock_policyE2EEC1IN5telux6common18FunctionalCallbackIJSt10shared_ptrINS4_5audio12IAudioBufferEEjNS5_9ErrorCodeEEEESaISC_EJRSt8functionIFvSA_jSB_EEEEESt19_Sp_make_shared_tagPT_RKT0_DpOT1_=so_stub_for_libtelux_audio
-Wl,--defsym=_ZNSt14__shared_countILN9__gnu_cxx12_Lock_policyE2EEC1IN5telux6common18FunctionalCallbackIJSt10shared_ptrINS4_5audio13IStreamBufferEEjNS5_9ErrorCodeEEEESaISC_EJRSt8functionIFvSA_jSB_EEEEESt19_Sp_make_shared_tagPT_RKT0_DpOT1_=so_stub_for_libtelux_audio
-Wl,--defsym=_ZNSt14__shared_countILN9__gnu_cxx12_Lock_policyE2EEC1IN5telux6common18FunctionalCallbackIJSt10shared_ptrINS4_5audio13IStreamBufferEENS5_9ErrorCodeEEEESaISC_EJRSt8functionIFvSA_SB_EEEEESt19_Sp_make_shared_tagPT_RKT0_DpOT1_=so_stub_for_libtelux_audio
-Wl,--defsym=_ZNSt14__shared_countILN9__gnu_cxx12_Lock_policyE2EEC1IN5telux6common18FunctionalCallbackIJSt6vectorINS4_5audio10DeviceTypeESaIS9_EENS5_9ErrorCodeEEEESaISD_EJRSt8functionIFvSB_SC_EEEEESt19_Sp_make_shared_tagPT_RKT0_DpOT1_=so_stub_for_libtelux_audio
-Wl,--defsym=_ZNSt14__shared_countILN9__gnu_cxx12_Lock_policyE2EEC1IN5telux6common18FunctionalCallbackIJSt6vectorINS4_5audio10StreamTypeESaIS9_EENS5_9ErrorCodeEEEESaISD_EJRSt8functionIFvSB_SC_EEEEESt19_Sp_make_shared_tagPT_RKT0_DpOT1_=so_stub_for_libtelux_audio
-Wl,--defsym=_ZNSt14__shared_countILN9__gnu_cxx12_Lock_policyE2EEC1IN5telux6common18FunctionalCallbackIJSt6vectorISt10shared_ptrINS4_5audio12IAudioDeviceEESaISB_EENS5_9ErrorCodeEEEESaISF_EJRSt8functionIFvSD_SE_EEEEESt19_Sp_make_shared_tagPT_RKT0_DpOT1_=so_stub_for_libtelux_audio
-Wl,--defsym=_ZNSt14__shared_countILN9__gnu_cxx12_Lock_policyE2EEC2IN5telux5audio15AudioDeviceImplESaIS6_EJEEESt19_Sp_make_shared_tagPT_RKT0_DpOT1_=so_stub_for_libtelux_audio
-Wl,--defsym=_ZNSt14__shared_countILN9__gnu_cxx12_Lock_policyE2EEC2IN5telux5audio16AudioManagerImplESaIS6_EJEEESt19_Sp_make_shared_tagPT_RKT0_DpOT1_=so_stub_for_libtelux_audio
-Wl,--defsym=_ZNSt14__shared_countILN9__gnu_cxx12_Lock_policyE2EEC2IN5telux6common18FunctionalCallbackIJNS4_5audio10StreamMuteENS5_9ErrorCodeEEEESaISA_EJRSt8functionIFvS8_S9_EEEEESt19_Sp_make_shared_tagPT_RKT0_DpOT1_=so_stub_for_libtelux_audio
-Wl,--defsym=_ZNSt14__shared_countILN9__gnu_cxx12_Lock_policyE2EEC2IN5telux6common18FunctionalCallbackIJNS4_5audio12StreamVolumeENS5_9ErrorCodeEEEESaISA_EJRSt8functionIFvS8_S9_EEEEESt19_Sp_make_shared_tagPT_RKT0_DpOT1_=so_stub_for_libtelux_audio
-Wl,--defsym=_ZNSt14__shared_countILN9__gnu_cxx12_Lock_policyE2EEC2IN5telux6common18FunctionalCallbackIJNS5_9ErrorCodeEEEESaIS8_EJRSt8functionIFvS7_EEEEESt19_Sp_make_shared_tagPT_RKT0_DpOT1_=so_stub_for_libtelux_audio
-Wl,--defsym=_ZNSt14__shared_countILN9__gnu_cxx12_Lock_policyE2EEC2IN5telux6common18FunctionalCallbackIJRSt10shared_ptrINS4_5audio11ITranscoderEENS5_9ErrorCodeEEEESaISD_EJRSt8functionIFvSB_SC_EEEEESt19_Sp_make_shared_tagPT_RKT0_DpOT1_=so_stub_for_libtelux_audio
-Wl,--defsym=_ZNSt14__shared_countILN9__gnu_cxx12_Lock_policyE2EEC2IN5telux6common18FunctionalCallbackIJRSt10shared_ptrINS4_5audio12IAudioStreamEENS5_9ErrorCodeEEEESaISD_EJRSt8functionIFvSB_SC_EEEEESt19_Sp_make_shared_tagPT_RKT0_DpOT1_=so_stub_for_libtelux_audio
-Wl,--defsym=_ZNSt14__shared_countILN9__gnu_cxx12_Lock_policyE2EEC2IN5telux6common18FunctionalCallbackIJSt10shared_ptrINS4_5audio12IAudioBufferEEjNS5_9ErrorCodeEEEESaISC_EJRSt8functionIFvSA_jSB_EEEEESt19_Sp_make_shared_tagPT_RKT0_DpOT1_=so_stub_for_libtelux_audio
-Wl,--defsym=_ZNSt14__shared_countILN9__gnu_cxx12_Lock_policyE2EEC2IN5telux6common18FunctionalCallbackIJSt10shared_ptrINS4_5audio13IStreamBufferEEjNS5_9ErrorCodeEEEESaISC_EJRSt8functionIFvSA_jSB_EEEEESt19_Sp_make_shared_tagPT_RKT0_DpOT1_=so_stub_for_libtelux_audio
-Wl,--defsym=_ZNSt14__shared_countILN9__gnu_cxx12_Lock_policyE2EEC2IN5telux6common18FunctionalCallbackIJSt10shared_ptrINS4_5audio13IStreamBufferEENS5_9ErrorCodeEEEESaISC_EJRSt8functionIFvSA_SB_EEEEESt19_Sp_make_shared_tagPT_RKT0_DpOT1_=so_stub_for_libtelux_audio
-Wl,--defsym=_ZNSt14__shared_countILN9__gnu_cxx12_Lock_policyE2EEC2IN5telux6common18FunctionalCallbackIJSt6vectorINS4_5audio10DeviceTypeESaIS9_EENS5_9ErrorCodeEEEESaISD_EJRSt8functionIFvSB_SC_EEEEESt19_Sp_make_shared_tagPT_RKT0_DpOT1_=so_stub_for_libtelux_audio
-Wl,--defsym=_ZNSt14__shared_countILN9__gnu_cxx12_Lock_policyE2EEC2IN5telux6common18FunctionalCallbackIJSt6vectorINS4_5audio10StreamTypeESaIS9_EENS5_9ErrorCodeEEEESaISD_EJRSt8functionIFvSB_SC_EEEEESt19_Sp_make_shared_tagPT_RKT0_DpOT1_=so_stub_for_libtelux_audio
-Wl,--defsym=_ZNSt14__shared_countILN9__gnu_cxx12_Lock_policyE2EEC2IN5telux6common18FunctionalCallbackIJSt6vectorISt10shared_ptrINS4_5audio12IAudioDeviceEESaISB_EENS5_9ErrorCodeEEEESaISF_EJRSt8functionIFvSD_SE_EEEEESt19_Sp_make_shared_tagPT_RKT0_DpOT1_=so_stub_for_libtelux_audio
-Wl,--defsym=_ZNSt15_Deque_iteratorISt13shared_futureIvERS1_PS1_EpLEi=so_stub_for_libtelux_audio
-Wl,--defsym=_ZNSt15__exception_ptr12__dest_thunkISt12future_errorEEvPv=so_stub_for_libtelux_audio
-Wl,--defsym=_ZNSt16_Sp_counted_baseILN9__gnu_cxx12_Lock_policyE2EE10_M_releaseEv=so_stub_for_libtelux_audio
-Wl,--defsym=_ZNSt16_Sp_counted_baseILN9__gnu_cxx12_Lock_policyE2EE15_M_weak_releaseEv=so_stub_for_libtelux_audio
-Wl,--defsym=_ZNSt20__copy_move_backwardILb1ELb0ESt26random_access_iterator_tagE13__copy_move_bIPSt13shared_futureIvES5_EET0_T_S7_S6_=so_stub_for_libtelux_audio
-Wl,--defsym=_ZNSt23__atomic_futex_unsignedILj2147483648EE22_M_load_and_test_untilEjjbSt12memory_orderbNSt6chrono8durationIxSt5ratioILx1ELx1EEEENS3_IxS4_ILx1ELx1000000000EEEE=so_stub_for_libtelux_audio
-Wl,--defsym=_ZNSt23_Sp_counted_ptr_inplaceIN5telux5audio14TranscoderImplESaIS2_ELN9__gnu_cxx12_Lock_policyE2EE10_M_destroyEv=so_stub_for_libtelux_audio
-Wl,--defsym=_ZNSt23_Sp_counted_ptr_inplaceIN5telux5audio14TranscoderImplESaIS2_ELN9__gnu_cxx12_Lock_policyE2EE10_M_disposeEv=so_stub_for_libtelux_audio
-Wl,--defsym=_ZNSt23_Sp_counted_ptr_inplaceIN5telux5audio14TranscoderImplESaIS2_ELN9__gnu_cxx12_Lock_policyE2EE14_M_get_deleterERKSt9type_info=so_stub_for_libtelux_audio
-Wl,--defsym=_ZNSt23_Sp_counted_ptr_inplaceIN5telux5audio14TranscoderImplESaIS2_ELN9__gnu_cxx12_Lock_policyE2EED0Ev=so_stub_for_libtelux_audio
-Wl,--defsym=_ZNSt23_Sp_counted_ptr_inplaceIN5telux5audio14TranscoderImplESaIS2_ELN9__gnu_cxx12_Lock_policyE2EED1Ev=so_stub_for_libtelux_audio
-Wl,--defsym=_ZNSt23_Sp_counted_ptr_inplaceIN5telux5audio14TranscoderImplESaIS2_ELN9__gnu_cxx12_Lock_policyE2EED2Ev=so_stub_for_libtelux_audio
-Wl,--defsym=_ZNSt23_Sp_counted_ptr_inplaceIN5telux5audio15AudioBufferImplESaIS2_ELN9__gnu_cxx12_Lock_policyE2EE10_M_destroyEv=so_stub_for_libtelux_audio
-Wl,--defsym=_ZNSt23_Sp_counted_ptr_inplaceIN5telux5audio15AudioBufferImplESaIS2_ELN9__gnu_cxx12_Lock_policyE2EE10_M_disposeEv=so_stub_for_libtelux_audio
-Wl,--defsym=_ZNSt23_Sp_counted_ptr_inplaceIN5telux5audio15AudioBufferImplESaIS2_ELN9__gnu_cxx12_Lock_policyE2EE14_M_get_deleterERKSt9type_info=so_stub_for_libtelux_audio
-Wl,--defsym=_ZNSt23_Sp_counted_ptr_inplaceIN5telux5audio15AudioBufferImplESaIS2_ELN9__gnu_cxx12_Lock_policyE2EED0Ev=so_stub_for_libtelux_audio
-Wl,--defsym=_ZNSt23_Sp_counted_ptr_inplaceIN5telux5audio15AudioBufferImplESaIS2_ELN9__gnu_cxx12_Lock_policyE2EED1Ev=so_stub_for_libtelux_audio
-Wl,--defsym=_ZNSt23_Sp_counted_ptr_inplaceIN5telux5audio15AudioBufferImplESaIS2_ELN9__gnu_cxx12_Lock_policyE2EED2Ev=so_stub_for_libtelux_audio
-Wl,--defsym=_ZNSt23_Sp_counted_ptr_inplaceIN5telux5audio15AudioDeviceImplESaIS2_ELN9__gnu_cxx12_Lock_policyE2EE10_M_destroyEv=so_stub_for_libtelux_audio
-Wl,--defsym=_ZNSt23_Sp_counted_ptr_inplaceIN5telux5audio15AudioDeviceImplESaIS2_ELN9__gnu_cxx12_Lock_policyE2EE10_M_disposeEv=so_stub_for_libtelux_audio
-Wl,--defsym=_ZNSt23_Sp_counted_ptr_inplaceIN5telux5audio15AudioDeviceImplESaIS2_ELN9__gnu_cxx12_Lock_policyE2EE14_M_get_deleterERKSt9type_info=so_stub_for_libtelux_audio
-Wl,--defsym=_ZNSt23_Sp_counted_ptr_inplaceIN5telux5audio15AudioDeviceImplESaIS2_ELN9__gnu_cxx12_Lock_policyE2EED0Ev=so_stub_for_libtelux_audio
-Wl,--defsym=_ZNSt23_Sp_counted_ptr_inplaceIN5telux5audio15AudioDeviceImplESaIS2_ELN9__gnu_cxx12_Lock_policyE2EED1Ev=so_stub_for_libtelux_audio
-Wl,--defsym=_ZNSt23_Sp_counted_ptr_inplaceIN5telux5audio15AudioDeviceImplESaIS2_ELN9__gnu_cxx12_Lock_policyE2EED2Ev=so_stub_for_libtelux_audio
-Wl,--defsym=_ZNSt23_Sp_counted_ptr_inplaceIN5telux5audio16AudioManagerImplESaIS2_ELN9__gnu_cxx12_Lock_policyE2EE10_M_destroyEv=so_stub_for_libtelux_audio
-Wl,--defsym=_ZNSt23_Sp_counted_ptr_inplaceIN5telux5audio16AudioManagerImplESaIS2_ELN9__gnu_cxx12_Lock_policyE2EE10_M_disposeEv=so_stub_for_libtelux_audio
-Wl,--defsym=_ZNSt23_Sp_counted_ptr_inplaceIN5telux5audio16AudioManagerImplESaIS2_ELN9__gnu_cxx12_Lock_policyE2EE14_M_get_deleterERKSt9type_info=so_stub_for_libtelux_audio
-Wl,--defsym=_ZNSt23_Sp_counted_ptr_inplaceIN5telux5audio16AudioManagerImplESaIS2_ELN9__gnu_cxx12_Lock_policyE2EED0Ev=so_stub_for_libtelux_audio
-Wl,--defsym=_ZNSt23_Sp_counted_ptr_inplaceIN5telux5audio16AudioManagerImplESaIS2_ELN9__gnu_cxx12_Lock_policyE2EED1Ev=so_stub_for_libtelux_audio
-Wl,--defsym=_ZNSt23_Sp_counted_ptr_inplaceIN5telux5audio16AudioManagerImplESaIS2_ELN9__gnu_cxx12_Lock_policyE2EED2Ev=so_stub_for_libtelux_audio
-Wl,--defsym=_ZNSt23_Sp_counted_ptr_inplaceIN5telux5audio16StreamBufferImplESaIS2_ELN9__gnu_cxx12_Lock_policyE2EE10_M_destroyEv=so_stub_for_libtelux_audio
-Wl,--defsym=_ZNSt23_Sp_counted_ptr_inplaceIN5telux5audio16StreamBufferImplESaIS2_ELN9__gnu_cxx12_Lock_policyE2EE10_M_disposeEv=so_stub_for_libtelux_audio
-Wl,--defsym=_ZNSt23_Sp_counted_ptr_inplaceIN5telux5audio16StreamBufferImplESaIS2_ELN9__gnu_cxx12_Lock_policyE2EE14_M_get_deleterERKSt9type_info=so_stub_for_libtelux_audio
-Wl,--defsym=_ZNSt23_Sp_counted_ptr_inplaceIN5telux5audio16StreamBufferImplESaIS2_ELN9__gnu_cxx12_Lock_policyE2EED0Ev=so_stub_for_libtelux_audio
-Wl,--defsym=_ZNSt23_Sp_counted_ptr_inplaceIN5telux5audio16StreamBufferImplESaIS2_ELN9__gnu_cxx12_Lock_policyE2EED1Ev=so_stub_for_libtelux_audio
-Wl,--defsym=_ZNSt23_Sp_counted_ptr_inplaceIN5telux5audio16StreamBufferImplESaIS2_ELN9__gnu_cxx12_Lock_policyE2EED2Ev=so_stub_for_libtelux_audio
-Wl,--defsym=_ZNSt23_Sp_counted_ptr_inplaceIN5telux5audio19AudioPlayStreamImplESaIS2_ELN9__gnu_cxx12_Lock_policyE2EE10_M_destroyEv=so_stub_for_libtelux_audio
-Wl,--defsym=_ZNSt23_Sp_counted_ptr_inplaceIN5telux5audio19AudioPlayStreamImplESaIS2_ELN9__gnu_cxx12_Lock_policyE2EE10_M_disposeEv=so_stub_for_libtelux_audio
-Wl,--defsym=_ZNSt23_Sp_counted_ptr_inplaceIN5telux5audio19AudioPlayStreamImplESaIS2_ELN9__gnu_cxx12_Lock_policyE2EE14_M_get_deleterERKSt9type_info=so_stub_for_libtelux_audio
-Wl,--defsym=_ZNSt23_Sp_counted_ptr_inplaceIN5telux5audio19AudioPlayStreamImplESaIS2_ELN9__gnu_cxx12_Lock_policyE2EED0Ev=so_stub_for_libtelux_audio
-Wl,--defsym=_ZNSt23_Sp_counted_ptr_inplaceIN5telux5audio19AudioPlayStreamImplESaIS2_ELN9__gnu_cxx12_Lock_policyE2EED1Ev=so_stub_for_libtelux_audio
-Wl,--defsym=_ZNSt23_Sp_counted_ptr_inplaceIN5telux5audio19AudioPlayStreamImplESaIS2_ELN9__gnu_cxx12_Lock_policyE2EED2Ev=so_stub_for_libtelux_audio
-Wl,--defsym=_ZNSt23_Sp_counted_ptr_inplaceIN5telux5audio20AudioVoiceStreamImplESaIS2_ELN9__gnu_cxx12_Lock_policyE2EE10_M_destroyEv=so_stub_for_libtelux_audio
-Wl,--defsym=_ZNSt23_Sp_counted_ptr_inplaceIN5telux5audio20AudioVoiceStreamImplESaIS2_ELN9__gnu_cxx12_Lock_policyE2EE10_M_disposeEv=so_stub_for_libtelux_audio
-Wl,--defsym=_ZNSt23_Sp_counted_ptr_inplaceIN5telux5audio20AudioVoiceStreamImplESaIS2_ELN9__gnu_cxx12_Lock_policyE2EE14_M_get_deleterERKSt9type_info=so_stub_for_libtelux_audio
-Wl,--defsym=_ZNSt23_Sp_counted_ptr_inplaceIN5telux5audio20AudioVoiceStreamImplESaIS2_ELN9__gnu_cxx12_Lock_policyE2EED0Ev=so_stub_for_libtelux_audio
-Wl,--defsym=_ZNSt23_Sp_counted_ptr_inplaceIN5telux5audio20AudioVoiceStreamImplESaIS2_ELN9__gnu_cxx12_Lock_policyE2EED1Ev=so_stub_for_libtelux_audio
-Wl,--defsym=_ZNSt23_Sp_counted_ptr_inplaceIN5telux5audio20AudioVoiceStreamImplESaIS2_ELN9__gnu_cxx12_Lock_policyE2EED2Ev=so_stub_for_libtelux_audio
-Wl,--defsym=_ZNSt23_Sp_counted_ptr_inplaceIN5telux5audio22AudioCaptureStreamImplESaIS2_ELN9__gnu_cxx12_Lock_policyE2EE10_M_destroyEv=so_stub_for_libtelux_audio
-Wl,--defsym=_ZNSt23_Sp_counted_ptr_inplaceIN5telux5audio22AudioCaptureStreamImplESaIS2_ELN9__gnu_cxx12_Lock_policyE2EE10_M_disposeEv=so_stub_for_libtelux_audio
-Wl,--defsym=_ZNSt23_Sp_counted_ptr_inplaceIN5telux5audio22AudioCaptureStreamImplESaIS2_ELN9__gnu_cxx12_Lock_policyE2EE14_M_get_deleterERKSt9type_info=so_stub_for_libtelux_audio
-Wl,--defsym=_ZNSt23_Sp_counted_ptr_inplaceIN5telux5audio22AudioCaptureStreamImplESaIS2_ELN9__gnu_cxx12_Lock_policyE2EED0Ev=so_stub_for_libtelux_audio
-Wl,--defsym=_ZNSt23_Sp_counted_ptr_inplaceIN5telux5audio22AudioCaptureStreamImplESaIS2_ELN9__gnu_cxx12_Lock_policyE2EED1Ev=so_stub_for_libtelux_audio
-Wl,--defsym=_ZNSt23_Sp_counted_ptr_inplaceIN5telux5audio22AudioCaptureStreamImplESaIS2_ELN9__gnu_cxx12_Lock_policyE2EED2Ev=so_stub_for_libtelux_audio
-Wl,--defsym=_ZNSt23_Sp_counted_ptr_inplaceIN5telux5audio23AudioLoopbackStreamImplESaIS2_ELN9__gnu_cxx12_Lock_policyE2EE10_M_destroyEv=so_stub_for_libtelux_audio
-Wl,--defsym=_ZNSt23_Sp_counted_ptr_inplaceIN5telux5audio23AudioLoopbackStreamImplESaIS2_ELN9__gnu_cxx12_Lock_policyE2EE10_M_disposeEv=so_stub_for_libtelux_audio
-Wl,--defsym=_ZNSt23_Sp_counted_ptr_inplaceIN5telux5audio23AudioLoopbackStreamImplESaIS2_ELN9__gnu_cxx12_Lock_policyE2EE14_M_get_deleterERKSt9type_info=so_stub_for_libtelux_audio
-Wl,--defsym=_ZNSt23_Sp_counted_ptr_inplaceIN5telux5audio23AudioLoopbackStreamImplESaIS2_ELN9__gnu_cxx12_Lock_policyE2EED0Ev=so_stub_for_libtelux_audio
-Wl,--defsym=_ZNSt23_Sp_counted_ptr_inplaceIN5telux5audio23AudioLoopbackStreamImplESaIS2_ELN9__gnu_cxx12_Lock_policyE2EED1Ev=so_stub_for_libtelux_audio
-Wl,--defsym=_ZNSt23_Sp_counted_ptr_inplaceIN5telux5audio23AudioLoopbackStreamImplESaIS2_ELN9__gnu_cxx12_Lock_policyE2EED2Ev=so_stub_for_libtelux_audio
-Wl,--defsym=_ZNSt23_Sp_counted_ptr_inplaceIN5telux5audio28AudioToneGeneratorStreamImplESaIS2_ELN9__gnu_cxx12_Lock_policyE2EE10_M_destroyEv=so_stub_for_libtelux_audio
-Wl,--defsym=_ZNSt23_Sp_counted_ptr_inplaceIN5telux5audio28AudioToneGeneratorStreamImplESaIS2_ELN9__gnu_cxx12_Lock_policyE2EE10_M_disposeEv=so_stub_for_libtelux_audio
-Wl,--defsym=_ZNSt23_Sp_counted_ptr_inplaceIN5telux5audio28AudioToneGeneratorStreamImplESaIS2_ELN9__gnu_cxx12_Lock_policyE2EE14_M_get_deleterERKSt9type_info=so_stub_for_libtelux_audio
-Wl,--defsym=_ZNSt23_Sp_counted_ptr_inplaceIN5telux5audio28AudioToneGeneratorStreamImplESaIS2_ELN9__gnu_cxx12_Lock_policyE2EED0Ev=so_stub_for_libtelux_audio
-Wl,--defsym=_ZNSt23_Sp_counted_ptr_inplaceIN5telux5audio28AudioToneGeneratorStreamImplESaIS2_ELN9__gnu_cxx12_Lock_policyE2EED1Ev=so_stub_for_libtelux_audio
-Wl,--defsym=_ZNSt23_Sp_counted_ptr_inplaceIN5telux5audio28AudioToneGeneratorStreamImplESaIS2_ELN9__gnu_cxx12_Lock_policyE2EED2Ev=so_stub_for_libtelux_audio
-Wl,--defsym=_ZNSt23_Sp_counted_ptr_inplaceIN5telux6common15ListenerManagerINS0_5audio13IPlayListenerEEESaIS5_ELN9__gnu_cxx12_Lock_policyE2EE10_M_destroyEv=so_stub_for_libtelux_audio
-Wl,--defsym=_ZNSt23_Sp_counted_ptr_inplaceIN5telux6common15ListenerManagerINS0_5audio13IPlayListenerEEESaIS5_ELN9__gnu_cxx12_Lock_policyE2EE10_M_disposeEv=so_stub_for_libtelux_audio
-Wl,--defsym=_ZNSt23_Sp_counted_ptr_inplaceIN5telux6common15ListenerManagerINS0_5audio13IPlayListenerEEESaIS5_ELN9__gnu_cxx12_Lock_policyE2EE14_M_get_deleterERKSt9type_info=so_stub_for_libtelux_audio
-Wl,--defsym=_ZNSt23_Sp_counted_ptr_inplaceIN5telux6common15ListenerManagerINS0_5audio13IPlayListenerEEESaIS5_ELN9__gnu_cxx12_Lock_policyE2EED0Ev=so_stub_for_libtelux_audio
-Wl,--defsym=_ZNSt23_Sp_counted_ptr_inplaceIN5telux6common15ListenerManagerINS0_5audio13IPlayListenerEEESaIS5_ELN9__gnu_cxx12_Lock_policyE2EED1Ev=so_stub_for_libtelux_audio
-Wl,--defsym=_ZNSt23_Sp_counted_ptr_inplaceIN5telux6common15ListenerManagerINS0_5audio13IPlayListenerEEESaIS5_ELN9__gnu_cxx12_Lock_policyE2EED2Ev=so_stub_for_libtelux_audio
-Wl,--defsym=_ZNSt23_Sp_counted_ptr_inplaceIN5telux6common15ListenerManagerINS0_5audio14IAudioListenerEEESaIS5_ELN9__gnu_cxx12_Lock_policyE2EE10_M_destroyEv=so_stub_for_libtelux_audio
-Wl,--defsym=_ZNSt23_Sp_counted_ptr_inplaceIN5telux6common15ListenerManagerINS0_5audio14IAudioListenerEEESaIS5_ELN9__gnu_cxx12_Lock_policyE2EE10_M_disposeEv=so_stub_for_libtelux_audio
-Wl,--defsym=_ZNSt23_Sp_counted_ptr_inplaceIN5telux6common15ListenerManagerINS0_5audio14IAudioListenerEEESaIS5_ELN9__gnu_cxx12_Lock_policyE2EE14_M_get_deleterERKSt9type_info=so_stub_for_libtelux_audio
-Wl,--defsym=_ZNSt23_Sp_counted_ptr_inplaceIN5telux6common15ListenerManagerINS0_5audio14IAudioListenerEEESaIS5_ELN9__gnu_cxx12_Lock_policyE2EED0Ev=so_stub_for_libtelux_audio
-Wl,--defsym=_ZNSt23_Sp_counted_ptr_inplaceIN5telux6common15ListenerManagerINS0_5audio14IAudioListenerEEESaIS5_ELN9__gnu_cxx12_Lock_policyE2EED1Ev=so_stub_for_libtelux_audio
-Wl,--defsym=_ZNSt23_Sp_counted_ptr_inplaceIN5telux6common15ListenerManagerINS0_5audio14IAudioListenerEEESaIS5_ELN9__gnu_cxx12_Lock_policyE2EED2Ev=so_stub_for_libtelux_audio
-Wl,--defsym=_ZNSt23_Sp_counted_ptr_inplaceIN5telux6common15ListenerManagerINS0_5audio14IVoiceListenerEEESaIS5_ELN9__gnu_cxx12_Lock_policyE2EE10_M_destroyEv=so_stub_for_libtelux_audio
-Wl,--defsym=_ZNSt23_Sp_counted_ptr_inplaceIN5telux6common15ListenerManagerINS0_5audio14IVoiceListenerEEESaIS5_ELN9__gnu_cxx12_Lock_policyE2EE10_M_disposeEv=so_stub_for_libtelux_audio
-Wl,--defsym=_ZNSt23_Sp_counted_ptr_inplaceIN5telux6common15ListenerManagerINS0_5audio14IVoiceListenerEEESaIS5_ELN9__gnu_cxx12_Lock_policyE2EE14_M_get_deleterERKSt9type_info=so_stub_for_libtelux_audio
-Wl,--defsym=_ZNSt23_Sp_counted_ptr_inplaceIN5telux6common15ListenerManagerINS0_5audio14IVoiceListenerEEESaIS5_ELN9__gnu_cxx12_Lock_policyE2EED0Ev=so_stub_for_libtelux_audio
-Wl,--defsym=_ZNSt23_Sp_counted_ptr_inplaceIN5telux6common15ListenerManagerINS0_5audio14IVoiceListenerEEESaIS5_ELN9__gnu_cxx12_Lock_policyE2EED1Ev=so_stub_for_libtelux_audio
-Wl,--defsym=_ZNSt23_Sp_counted_ptr_inplaceIN5telux6common15ListenerManagerINS0_5audio14IVoiceListenerEEESaIS5_ELN9__gnu_cxx12_Lock_policyE2EED2Ev=so_stub_for_libtelux_audio
-Wl,--defsym=_ZNSt23_Sp_counted_ptr_inplaceIN5telux6common15ListenerManagerINS0_5audio18ITranscodeListenerEEESaIS5_ELN9__gnu_cxx12_Lock_policyE2EE10_M_destroyEv=so_stub_for_libtelux_audio
-Wl,--defsym=_ZNSt23_Sp_counted_ptr_inplaceIN5telux6common15ListenerManagerINS0_5audio18ITranscodeListenerEEESaIS5_ELN9__gnu_cxx12_Lock_policyE2EE10_M_disposeEv=so_stub_for_libtelux_audio
-Wl,--defsym=_ZNSt23_Sp_counted_ptr_inplaceIN5telux6common15ListenerManagerINS0_5audio18ITranscodeListenerEEESaIS5_ELN9__gnu_cxx12_Lock_policyE2EE14_M_get_deleterERKSt9type_info=so_stub_for_libtelux_audio
-Wl,--defsym=_ZNSt23_Sp_counted_ptr_inplaceIN5telux6common15ListenerManagerINS0_5audio18ITranscodeListenerEEESaIS5_ELN9__gnu_cxx12_Lock_policyE2EED0Ev=so_stub_for_libtelux_audio
-Wl,--defsym=_ZNSt23_Sp_counted_ptr_inplaceIN5telux6common15ListenerManagerINS0_5audio18ITranscodeListenerEEESaIS5_ELN9__gnu_cxx12_Lock_policyE2EED1Ev=so_stub_for_libtelux_audio
-Wl,--defsym=_ZNSt23_Sp_counted_ptr_inplaceIN5telux6common15ListenerManagerINS0_5audio18ITranscodeListenerEEESaIS5_ELN9__gnu_cxx12_Lock_policyE2EED2Ev=so_stub_for_libtelux_audio
-Wl,--defsym=_ZNSt23_Sp_counted_ptr_inplaceIN5telux6common18FunctionalCallbackIJNS0_5audio10StreamMuteENS1_9ErrorCodeEEEESaIS6_ELN9__gnu_cxx12_Lock_policyE2EE10_M_destroyEv=so_stub_for_libtelux_audio
-Wl,--defsym=_ZNSt23_Sp_counted_ptr_inplaceIN5telux6common18FunctionalCallbackIJNS0_5audio10StreamMuteENS1_9ErrorCodeEEEESaIS6_ELN9__gnu_cxx12_Lock_policyE2EE10_M_disposeEv=so_stub_for_libtelux_audio
-Wl,--defsym=_ZNSt23_Sp_counted_ptr_inplaceIN5telux6common18FunctionalCallbackIJNS0_5audio10StreamMuteENS1_9ErrorCodeEEEESaIS6_ELN9__gnu_cxx12_Lock_policyE2EE14_M_get_deleterERKSt9type_info=so_stub_for_libtelux_audio
-Wl,--defsym=_ZNSt23_Sp_counted_ptr_inplaceIN5telux6common18FunctionalCallbackIJNS0_5audio10StreamMuteENS1_9ErrorCodeEEEESaIS6_ELN9__gnu_cxx12_Lock_policyE2EED0Ev=so_stub_for_libtelux_audio
-Wl,--defsym=_ZNSt23_Sp_counted_ptr_inplaceIN5telux6common18FunctionalCallbackIJNS0_5audio10StreamMuteENS1_9ErrorCodeEEEESaIS6_ELN9__gnu_cxx12_Lock_policyE2EED1Ev=so_stub_for_libtelux_audio
-Wl,--defsym=_ZNSt23_Sp_counted_ptr_inplaceIN5telux6common18FunctionalCallbackIJNS0_5audio10StreamMuteENS1_9ErrorCodeEEEESaIS6_ELN9__gnu_cxx12_Lock_policyE2EED2Ev=so_stub_for_libtelux_audio
-Wl,--defsym=_ZNSt23_Sp_counted_ptr_inplaceIN5telux6common18FunctionalCallbackIJNS0_5audio12StreamVolumeENS1_9ErrorCodeEEEESaIS6_ELN9__gnu_cxx12_Lock_policyE2EE10_M_destroyEv=so_stub_for_libtelux_audio
-Wl,--defsym=_ZNSt23_Sp_counted_ptr_inplaceIN5telux6common18FunctionalCallbackIJNS0_5audio12StreamVolumeENS1_9ErrorCodeEEEESaIS6_ELN9__gnu_cxx12_Lock_policyE2EE10_M_disposeEv=so_stub_for_libtelux_audio
-Wl,--defsym=_ZNSt23_Sp_counted_ptr_inplaceIN5telux6common18FunctionalCallbackIJNS0_5audio12StreamVolumeENS1_9ErrorCodeEEEESaIS6_ELN9__gnu_cxx12_Lock_policyE2EE14_M_get_deleterERKSt9type_info=so_stub_for_libtelux_audio
-Wl,--defsym=_ZNSt23_Sp_counted_ptr_inplaceIN5telux6common18FunctionalCallbackIJNS0_5audio12StreamVolumeENS1_9ErrorCodeEEEESaIS6_ELN9__gnu_cxx12_Lock_policyE2EED0Ev=so_stub_for_libtelux_audio
-Wl,--defsym=_ZNSt23_Sp_counted_ptr_inplaceIN5telux6common18FunctionalCallbackIJNS0_5audio12StreamVolumeENS1_9ErrorCodeEEEESaIS6_ELN9__gnu_cxx12_Lock_policyE2EED1Ev=so_stub_for_libtelux_audio
-Wl,--defsym=_ZNSt23_Sp_counted_ptr_inplaceIN5telux6common18FunctionalCallbackIJNS0_5audio12StreamVolumeENS1_9ErrorCodeEEEESaIS6_ELN9__gnu_cxx12_Lock_policyE2EED2Ev=so_stub_for_libtelux_audio
-Wl,--defsym=_ZNSt23_Sp_counted_ptr_inplaceIN5telux6common18FunctionalCallbackIJNS1_9ErrorCodeEEEESaIS4_ELN9__gnu_cxx12_Lock_policyE2EE10_M_destroyEv=so_stub_for_libtelux_audio
-Wl,--defsym=_ZNSt23_Sp_counted_ptr_inplaceIN5telux6common18FunctionalCallbackIJNS1_9ErrorCodeEEEESaIS4_ELN9__gnu_cxx12_Lock_policyE2EE10_M_disposeEv=so_stub_for_libtelux_audio
-Wl,--defsym=_ZNSt23_Sp_counted_ptr_inplaceIN5telux6common18FunctionalCallbackIJNS1_9ErrorCodeEEEESaIS4_ELN9__gnu_cxx12_Lock_policyE2EE14_M_get_deleterERKSt9type_info=so_stub_for_libtelux_audio
-Wl,--defsym=_ZNSt23_Sp_counted_ptr_inplaceIN5telux6common18FunctionalCallbackIJNS1_9ErrorCodeEEEESaIS4_ELN9__gnu_cxx12_Lock_policyE2EED0Ev=so_stub_for_libtelux_audio
-Wl,--defsym=_ZNSt23_Sp_counted_ptr_inplaceIN5telux6common18FunctionalCallbackIJNS1_9ErrorCodeEEEESaIS4_ELN9__gnu_cxx12_Lock_policyE2EED1Ev=so_stub_for_libtelux_audio
-Wl,--defsym=_ZNSt23_Sp_counted_ptr_inplaceIN5telux6common18FunctionalCallbackIJNS1_9ErrorCodeEEEESaIS4_ELN9__gnu_cxx12_Lock_policyE2EED2Ev=so_stub_for_libtelux_audio
-Wl,--defsym=_ZNSt23_Sp_counted_ptr_inplaceIN5telux6common18FunctionalCallbackIJRSt10shared_ptrINS0_5audio11ITranscoderEENS1_9ErrorCodeEEEESaIS9_ELN9__gnu_cxx12_Lock_policyE2EE10_M_destroyEv=so_stub_for_libtelux_audio
-Wl,--defsym=_ZNSt23_Sp_counted_ptr_inplaceIN5telux6common18FunctionalCallbackIJRSt10shared_ptrINS0_5audio11ITranscoderEENS1_9ErrorCodeEEEESaIS9_ELN9__gnu_cxx12_Lock_policyE2EE10_M_disposeEv=so_stub_for_libtelux_audio
-Wl,--defsym=_ZNSt23_Sp_counted_ptr_inplaceIN5telux6common18FunctionalCallbackIJRSt10shared_ptrINS0_5audio11ITranscoderEENS1_9ErrorCodeEEEESaIS9_ELN9__gnu_cxx12_Lock_policyE2EE14_M_get_deleterERKSt9type_info=so_stub_for_libtelux_audio
-Wl,--defsym=_ZNSt23_Sp_counted_ptr_inplaceIN5telux6common18FunctionalCallbackIJRSt10shared_ptrINS0_5audio11ITranscoderEENS1_9ErrorCodeEEEESaIS9_ELN9__gnu_cxx12_Lock_policyE2EED0Ev=so_stub_for_libtelux_audio
-Wl,--defsym=_ZNSt23_Sp_counted_ptr_inplaceIN5telux6common18FunctionalCallbackIJRSt10shared_ptrINS0_5audio11ITranscoderEENS1_9ErrorCodeEEEESaIS9_ELN9__gnu_cxx12_Lock_policyE2EED1Ev=so_stub_for_libtelux_audio
-Wl,--defsym=_ZNSt23_Sp_counted_ptr_inplaceIN5telux6common18FunctionalCallbackIJRSt10shared_ptrINS0_5audio11ITranscoderEENS1_9ErrorCodeEEEESaIS9_ELN9__gnu_cxx12_Lock_policyE2EED2Ev=so_stub_for_libtelux_audio
-Wl,--defsym=_ZNSt23_Sp_counted_ptr_inplaceIN5telux6common18FunctionalCallbackIJRSt10shared_ptrINS0_5audio12IAudioStreamEENS1_9ErrorCodeEEEESaIS9_ELN9__gnu_cxx12_Lock_policyE2EE10_M_destroyEv=so_stub_for_libtelux_audio
-Wl,--defsym=_ZNSt23_Sp_counted_ptr_inplaceIN5telux6common18FunctionalCallbackIJRSt10shared_ptrINS0_5audio12IAudioStreamEENS1_9ErrorCodeEEEESaIS9_ELN9__gnu_cxx12_Lock_policyE2EE10_M_disposeEv=so_stub_for_libtelux_audio
-Wl,--defsym=_ZNSt23_Sp_counted_ptr_inplaceIN5telux6common18FunctionalCallbackIJRSt10shared_ptrINS0_5audio12IAudioStreamEENS1_9ErrorCodeEEEESaIS9_ELN9__gnu_cxx12_Lock_policyE2EE14_M_get_deleterERKSt9type_info=so_stub_for_libtelux_audio
-Wl,--defsym=_ZNSt23_Sp_counted_ptr_inplaceIN5telux6common18FunctionalCallbackIJRSt10shared_ptrINS0_5audio12IAudioStreamEENS1_9ErrorCodeEEEESaIS9_ELN9__gnu_cxx12_Lock_policyE2EED0Ev=so_stub_for_libtelux_audio
-Wl,--defsym=_ZNSt23_Sp_counted_ptr_inplaceIN5telux6common18FunctionalCallbackIJRSt10shared_ptrINS0_5audio12IAudioStreamEENS1_9ErrorCodeEEEESaIS9_ELN9__gnu_cxx12_Lock_policyE2EED1Ev=so_stub_for_libtelux_audio
-Wl,--defsym=_ZNSt23_Sp_counted_ptr_inplaceIN5telux6common18FunctionalCallbackIJRSt10shared_ptrINS0_5audio12IAudioStreamEENS1_9ErrorCodeEEEESaIS9_ELN9__gnu_cxx12_Lock_policyE2EED2Ev=so_stub_for_libtelux_audio
-Wl,--defsym=_ZNSt23_Sp_counted_ptr_inplaceIN5telux6common18FunctionalCallbackIJSt10shared_ptrINS0_5audio12IAudioBufferEEjNS1_9ErrorCodeEEEESaIS8_ELN9__gnu_cxx12_Lock_policyE2EE10_M_destroyEv=so_stub_for_libtelux_audio
-Wl,--defsym=_ZNSt23_Sp_counted_ptr_inplaceIN5telux6common18FunctionalCallbackIJSt10shared_ptrINS0_5audio12IAudioBufferEEjNS1_9ErrorCodeEEEESaIS8_ELN9__gnu_cxx12_Lock_policyE2EE10_M_disposeEv=so_stub_for_libtelux_audio
-Wl,--defsym=_ZNSt23_Sp_counted_ptr_inplaceIN5telux6common18FunctionalCallbackIJSt10shared_ptrINS0_5audio12IAudioBufferEEjNS1_9ErrorCodeEEEESaIS8_ELN9__gnu_cxx12_Lock_policyE2EE14_M_get_deleterERKSt9type_info=so_stub_for_libtelux_audio
-Wl,--defsym=_ZNSt23_Sp_counted_ptr_inplaceIN5telux6common18FunctionalCallbackIJSt10shared_ptrINS0_5audio12IAudioBufferEEjNS1_9ErrorCodeEEEESaIS8_ELN9__gnu_cxx12_Lock_policyE2EED0Ev=so_stub_for_libtelux_audio
-Wl,--defsym=_ZNSt23_Sp_counted_ptr_inplaceIN5telux6common18FunctionalCallbackIJSt10shared_ptrINS0_5audio12IAudioBufferEEjNS1_9ErrorCodeEEEESaIS8_ELN9__gnu_cxx12_Lock_policyE2EED1Ev=so_stub_for_libtelux_audio
-Wl,--defsym=_ZNSt23_Sp_counted_ptr_inplaceIN5telux6common18FunctionalCallbackIJSt10shared_ptrINS0_5audio12IAudioBufferEEjNS1_9ErrorCodeEEEESaIS8_ELN9__gnu_cxx12_Lock_policyE2EED2Ev=so_stub_for_libtelux_audio
-Wl,--defsym=_ZNSt23_Sp_counted_ptr_inplaceIN5telux6common18FunctionalCallbackIJSt10shared_ptrINS0_5audio13IStreamBufferEEjNS1_9ErrorCodeEEEESaIS8_ELN9__gnu_cxx12_Lock_policyE2EE10_M_destroyEv=so_stub_for_libtelux_audio
-Wl,--defsym=_ZNSt23_Sp_counted_ptr_inplaceIN5telux6common18FunctionalCallbackIJSt10shared_ptrINS0_5audio13IStreamBufferEEjNS1_9ErrorCodeEEEESaIS8_ELN9__gnu_cxx12_Lock_policyE2EE10_M_disposeEv=so_stub_for_libtelux_audio
-Wl,--defsym=_ZNSt23_Sp_counted_ptr_inplaceIN5telux6common18FunctionalCallbackIJSt10shared_ptrINS0_5audio13IStreamBufferEEjNS1_9ErrorCodeEEEESaIS8_ELN9__gnu_cxx12_Lock_policyE2EE14_M_get_deleterERKSt9type_info=so_stub_for_libtelux_audio
-Wl,--defsym=_ZNSt23_Sp_counted_ptr_inplaceIN5telux6common18FunctionalCallbackIJSt10shared_ptrINS0_5audio13IStreamBufferEEjNS1_9ErrorCodeEEEESaIS8_ELN9__gnu_cxx12_Lock_policyE2EED0Ev=so_stub_for_libtelux_audio
-Wl,--defsym=_ZNSt23_Sp_counted_ptr_inplaceIN5telux6common18FunctionalCallbackIJSt10shared_ptrINS0_5audio13IStreamBufferEEjNS1_9ErrorCodeEEEESaIS8_ELN9__gnu_cxx12_Lock_policyE2EED1Ev=so_stub_for_libtelux_audio
-Wl,--defsym=_ZNSt23_Sp_counted_ptr_inplaceIN5telux6common18FunctionalCallbackIJSt10shared_ptrINS0_5audio13IStreamBufferEEjNS1_9ErrorCodeEEEESaIS8_ELN9__gnu_cxx12_Lock_policyE2EED2Ev=so_stub_for_libtelux_audio
-Wl,--defsym=_ZNSt23_Sp_counted_ptr_inplaceIN5telux6common18FunctionalCallbackIJSt10shared_ptrINS0_5audio13IStreamBufferEENS1_9ErrorCodeEEEESaIS8_ELN9__gnu_cxx12_Lock_policyE2EE10_M_destroyEv=so_stub_for_libtelux_audio
-Wl,--defsym=_ZNSt23_Sp_counted_ptr_inplaceIN5telux6common18FunctionalCallbackIJSt10shared_ptrINS0_5audio13IStreamBufferEENS1_9ErrorCodeEEEESaIS8_ELN9__gnu_cxx12_Lock_policyE2EE10_M_disposeEv=so_stub_for_libtelux_audio
-Wl,--defsym=_ZNSt23_Sp_counted_ptr_inplaceIN5telux6common18FunctionalCallbackIJSt10shared_ptrINS0_5audio13IStreamBufferEENS1_9ErrorCodeEEEESaIS8_ELN9__gnu_cxx12_Lock_policyE2EE14_M_get_deleterERKSt9type_info=so_stub_for_libtelux_audio
-Wl,--defsym=_ZNSt23_Sp_counted_ptr_inplaceIN5telux6common18FunctionalCallbackIJSt10shared_ptrINS0_5audio13IStreamBufferEENS1_9ErrorCodeEEEESaIS8_ELN9__gnu_cxx12_Lock_policyE2EED0Ev=so_stub_for_libtelux_audio
-Wl,--defsym=_ZNSt23_Sp_counted_ptr_inplaceIN5telux6common18FunctionalCallbackIJSt10shared_ptrINS0_5audio13IStreamBufferEENS1_9ErrorCodeEEEESaIS8_ELN9__gnu_cxx12_Lock_policyE2EED1Ev=so_stub_for_libtelux_audio
-Wl,--defsym=_ZNSt23_Sp_counted_ptr_inplaceIN5telux6common18FunctionalCallbackIJSt10shared_ptrINS0_5audio13IStreamBufferEENS1_9ErrorCodeEEEESaIS8_ELN9__gnu_cxx12_Lock_policyE2EED2Ev=so_stub_for_libtelux_audio
-Wl,--defsym=_ZNSt23_Sp_counted_ptr_inplaceIN5telux6common18FunctionalCallbackIJSt6vectorINS0_5audio10DeviceTypeESaIS5_EENS1_9ErrorCodeEEEESaIS9_ELN9__gnu_cxx12_Lock_policyE2EE10_M_destroyEv=so_stub_for_libtelux_audio
-Wl,--defsym=_ZNSt23_Sp_counted_ptr_inplaceIN5telux6common18FunctionalCallbackIJSt6vectorINS0_5audio10DeviceTypeESaIS5_EENS1_9ErrorCodeEEEESaIS9_ELN9__gnu_cxx12_Lock_policyE2EE10_M_disposeEv=so_stub_for_libtelux_audio
-Wl,--defsym=_ZNSt23_Sp_counted_ptr_inplaceIN5telux6common18FunctionalCallbackIJSt6vectorINS0_5audio10DeviceTypeESaIS5_EENS1_9ErrorCodeEEEESaIS9_ELN9__gnu_cxx12_Lock_policyE2EE14_M_get_deleterERKSt9type_info=so_stub_for_libtelux_audio
-Wl,--defsym=_ZNSt23_Sp_counted_ptr_inplaceIN5telux6common18FunctionalCallbackIJSt6vectorINS0_5audio10DeviceTypeESaIS5_EENS1_9ErrorCodeEEEESaIS9_ELN9__gnu_cxx12_Lock_policyE2EED0Ev=so_stub_for_libtelux_audio
-Wl,--defsym=_ZNSt23_Sp_counted_ptr_inplaceIN5telux6common18FunctionalCallbackIJSt6vectorINS0_5audio10DeviceTypeESaIS5_EENS1_9ErrorCodeEEEESaIS9_ELN9__gnu_cxx12_Lock_policyE2EED1Ev=so_stub_for_libtelux_audio
-Wl,--defsym=_ZNSt23_Sp_counted_ptr_inplaceIN5telux6common18FunctionalCallbackIJSt6vectorINS0_5audio10DeviceTypeESaIS5_EENS1_9ErrorCodeEEEESaIS9_ELN9__gnu_cxx12_Lock_policyE2EED2Ev=so_stub_for_libtelux_audio
-Wl,--defsym=_ZNSt23_Sp_counted_ptr_inplaceIN5telux6common18FunctionalCallbackIJSt6vectorINS0_5audio10StreamTypeESaIS5_EENS1_9ErrorCodeEEEESaIS9_ELN9__gnu_cxx12_Lock_policyE2EE10_M_destroyEv=so_stub_for_libtelux_audio
-Wl,--defsym=_ZNSt23_Sp_counted_ptr_inplaceIN5telux6common18FunctionalCallbackIJSt6vectorINS0_5audio10StreamTypeESaIS5_EENS1_9ErrorCodeEEEESaIS9_ELN9__gnu_cxx12_Lock_policyE2EE10_M_disposeEv=so_stub_for_libtelux_audio
-Wl,--defsym=_ZNSt23_Sp_counted_ptr_inplaceIN5telux6common18FunctionalCallbackIJSt6vectorINS0_5audio10StreamTypeESaIS5_EENS1_9ErrorCodeEEEESaIS9_ELN9__gnu_cxx12_Lock_policyE2EE14_M_get_deleterERKSt9type_info=so_stub_for_libtelux_audio
-Wl,--defsym=_ZNSt23_Sp_counted_ptr_inplaceIN5telux6common18FunctionalCallbackIJSt6vectorINS0_5audio10StreamTypeESaIS5_EENS1_9ErrorCodeEEEESaIS9_ELN9__gnu_cxx12_Lock_policyE2EED0Ev=so_stub_for_libtelux_audio
-Wl,--defsym=_ZNSt23_Sp_counted_ptr_inplaceIN5telux6common18FunctionalCallbackIJSt6vectorINS0_5audio10StreamTypeESaIS5_EENS1_9ErrorCodeEEEESaIS9_ELN9__gnu_cxx12_Lock_policyE2EED1Ev=so_stub_for_libtelux_audio
-Wl,--defsym=_ZNSt23_Sp_counted_ptr_inplaceIN5telux6common18FunctionalCallbackIJSt6vectorINS0_5audio10StreamTypeESaIS5_EENS1_9ErrorCodeEEEESaIS9_ELN9__gnu_cxx12_Lock_policyE2EED2Ev=so_stub_for_libtelux_audio
-Wl,--defsym=_ZNSt23_Sp_counted_ptr_inplaceIN5telux6common18FunctionalCallbackIJSt6vectorISt10shared_ptrINS0_5audio12IAudioDeviceEESaIS7_EENS1_9ErrorCodeEEEESaISB_ELN9__gnu_cxx12_Lock_policyE2EE10_M_destroyEv=so_stub_for_libtelux_audio
-Wl,--defsym=_ZNSt23_Sp_counted_ptr_inplaceIN5telux6common18FunctionalCallbackIJSt6vectorISt10shared_ptrINS0_5audio12IAudioDeviceEESaIS7_EENS1_9ErrorCodeEEEESaISB_ELN9__gnu_cxx12_Lock_policyE2EE10_M_disposeEv=so_stub_for_libtelux_audio
-Wl,--defsym=_ZNSt23_Sp_counted_ptr_inplaceIN5telux6common18FunctionalCallbackIJSt6vectorISt10shared_ptrINS0_5audio12IAudioDeviceEESaIS7_EENS1_9ErrorCodeEEEESaISB_ELN9__gnu_cxx12_Lock_policyE2EE14_M_get_deleterERKSt9type_info=so_stub_for_libtelux_audio
-Wl,--defsym=_ZNSt23_Sp_counted_ptr_inplaceIN5telux6common18FunctionalCallbackIJSt6vectorISt10shared_ptrINS0_5audio12IAudioDeviceEESaIS7_EENS1_9ErrorCodeEEEESaISB_ELN9__gnu_cxx12_Lock_policyE2EED0Ev=so_stub_for_libtelux_audio
-Wl,--defsym=_ZNSt23_Sp_counted_ptr_inplaceIN5telux6common18FunctionalCallbackIJSt6vectorISt10shared_ptrINS0_5audio12IAudioDeviceEESaIS7_EENS1_9ErrorCodeEEEESaISB_ELN9__gnu_cxx12_Lock_policyE2EED1Ev=so_stub_for_libtelux_audio
-Wl,--defsym=_ZNSt23_Sp_counted_ptr_inplaceIN5telux6common18FunctionalCallbackIJSt6vectorISt10shared_ptrINS0_5audio12IAudioDeviceEESaIS7_EENS1_9ErrorCodeEEEESaISB_ELN9__gnu_cxx12_Lock_policyE2EED2Ev=so_stub_for_libtelux_audio
-Wl,--defsym=_ZNSt5dequeISt13shared_futureIvESaIS1_EE16_M_push_back_auxIJRKS1_EEEvDpOT_=so_stub_for_libtelux_audio
-Wl,--defsym=_ZNSt5dequeISt13shared_futureIvESaIS1_EE19_M_destroy_data_auxESt15_Deque_iteratorIS1_RS1_PS1_ES7_=so_stub_for_libtelux_audio
-Wl,--defsym=_ZNSt5dequeISt13shared_futureIvESaIS1_EE8_M_eraseESt15_Deque_iteratorIS1_RS1_PS1_E=so_stub_for_libtelux_audio
-Wl,--defsym=_ZNSt5dequeISt13shared_futureIvESaIS1_EE8pop_backEv=so_stub_for_libtelux_audio
-Wl,--defsym=_ZNSt5dequeISt13shared_futureIvESaIS1_EE9pop_frontEv=so_stub_for_libtelux_audio
-Wl,--defsym=_ZNSt5dequeISt13shared_futureIvESaIS1_EED1Ev=so_stub_for_libtelux_audio
-Wl,--defsym=_ZNSt5dequeISt13shared_futureIvESaIS1_EED2Ev=so_stub_for_libtelux_audio
-Wl,--defsym=_ZNSt6futureIbE3getEv=so_stub_for_libtelux_audio
-Wl,--defsym=_ZNSt6vectorIN5telux5audio10DeviceTypeESaIS2_EE17_M_realloc_insertIJS2_EEEvN9__gnu_cxx17__normal_iteratorIPS2_S4_EEDpOT_=so_stub_for_libtelux_audio
-Wl,--defsym=_ZNSt6vectorIN5telux5audio10StreamTypeESaIS2_EE17_M_realloc_insertIJS2_EEEvN9__gnu_cxx17__normal_iteratorIPS2_S4_EEDpOT_=so_stub_for_libtelux_audio
-Wl,--defsym=_ZNSt6vectorIN5telux5audio13ChannelVolumeESaIS2_EE17_M_realloc_insertIJRS2_EEEvN9__gnu_cxx17__normal_iteratorIPS2_S4_EEDpOT_=so_stub_for_libtelux_audio
-Wl,--defsym=_ZNSt6vectorISt10shared_ptrIN5telux5audio15AudioDeviceImplEESaIS4_EE17_M_realloc_insertIJRS4_EEEvN9__gnu_cxx17__normal_iteratorIPS4_S6_EEDpOT_=so_stub_for_libtelux_audio
-Wl,--defsym=_ZNSt6vectorISt10shared_ptrIN5telux5audio15AudioDeviceImplEESaIS4_EED1Ev=so_stub_for_libtelux_audio
-Wl,--defsym=_ZNSt6vectorISt10shared_ptrIN5telux5audio15AudioDeviceImplEESaIS4_EED2Ev=so_stub_for_libtelux_audio
-Wl,--defsym=_ZNSt6vectorISt8weak_ptrIN5telux5audio13IPlayListenerEESaIS4_EE17_M_realloc_insertIJRS4_EEEvN9__gnu_cxx17__normal_iteratorIPS4_S6_EEDpOT_=so_stub_for_libtelux_audio
-Wl,--defsym=_ZNSt6vectorISt8weak_ptrIN5telux5audio13IPlayListenerEESaIS4_EE17_M_realloc_insertIJRSt10shared_ptrIS3_EEEEvN9__gnu_cxx17__normal_iteratorIPS4_S6_EEDpOT_=so_stub_for_libtelux_audio
-Wl,--defsym=_ZNSt6vectorISt8weak_ptrIN5telux5audio13IPlayListenerEESaIS4_EE8_M_eraseEN9__gnu_cxx17__normal_iteratorIPS4_S6_EE=so_stub_for_libtelux_audio
-Wl,--defsym=_ZNSt6vectorISt8weak_ptrIN5telux5audio13IPlayListenerEESaIS4_EED1Ev=so_stub_for_libtelux_audio
-Wl,--defsym=_ZNSt6vectorISt8weak_ptrIN5telux5audio13IPlayListenerEESaIS4_EED2Ev=so_stub_for_libtelux_audio
-Wl,--defsym=_ZNSt6vectorISt8weak_ptrIN5telux5audio14IAudioListenerEESaIS4_EE17_M_realloc_insertIJRS4_EEEvN9__gnu_cxx17__normal_iteratorIPS4_S6_EEDpOT_=so_stub_for_libtelux_audio
-Wl,--defsym=_ZNSt6vectorISt8weak_ptrIN5telux5audio14IAudioListenerEESaIS4_EE17_M_realloc_insertIJRSt10shared_ptrIS3_EEEEvN9__gnu_cxx17__normal_iteratorIPS4_S6_EEDpOT_=so_stub_for_libtelux_audio
-Wl,--defsym=_ZNSt6vectorISt8weak_ptrIN5telux5audio14IAudioListenerEESaIS4_EE8_M_eraseEN9__gnu_cxx17__normal_iteratorIPS4_S6_EE=so_stub_for_libtelux_audio
-Wl,--defsym=_ZNSt6vectorISt8weak_ptrIN5telux5audio14IAudioListenerEESaIS4_EED1Ev=so_stub_for_libtelux_audio
-Wl,--defsym=_ZNSt6vectorISt8weak_ptrIN5telux5audio14IAudioListenerEESaIS4_EED2Ev=so_stub_for_libtelux_audio
-Wl,--defsym=_ZNSt6vectorISt8weak_ptrIN5telux5audio14IVoiceListenerEESaIS4_EE17_M_realloc_insertIJRS4_EEEvN9__gnu_cxx17__normal_iteratorIPS4_S6_EEDpOT_=so_stub_for_libtelux_audio
-Wl,--defsym=_ZNSt6vectorISt8weak_ptrIN5telux5audio14IVoiceListenerEESaIS4_EE17_M_realloc_insertIJRSt10shared_ptrIS3_EEEEvN9__gnu_cxx17__normal_iteratorIPS4_S6_EEDpOT_=so_stub_for_libtelux_audio
-Wl,--defsym=_ZNSt6vectorISt8weak_ptrIN5telux5audio14IVoiceListenerEESaIS4_EE8_M_eraseEN9__gnu_cxx17__normal_iteratorIPS4_S6_EE=so_stub_for_libtelux_audio
-Wl,--defsym=_ZNSt6vectorISt8weak_ptrIN5telux5audio14IVoiceListenerEESaIS4_EED1Ev=so_stub_for_libtelux_audio
-Wl,--defsym=_ZNSt6vectorISt8weak_ptrIN5telux5audio14IVoiceListenerEESaIS4_EED2Ev=so_stub_for_libtelux_audio
-Wl,--defsym=_ZNSt6vectorISt8weak_ptrIN5telux5audio18ITranscodeListenerEESaIS4_EE17_M_realloc_insertIJRS4_EEEvN9__gnu_cxx17__normal_iteratorIPS4_S6_EEDpOT_=so_stub_for_libtelux_audio
-Wl,--defsym=_ZNSt6vectorISt8weak_ptrIN5telux5audio18ITranscodeListenerEESaIS4_EE17_M_realloc_insertIJRSt10shared_ptrIS3_EEEEvN9__gnu_cxx17__normal_iteratorIPS4_S6_EEDpOT_=so_stub_for_libtelux_audio
-Wl,--defsym=_ZNSt6vectorISt8weak_ptrIN5telux5audio18ITranscodeListenerEESaIS4_EE8_M_eraseEN9__gnu_cxx17__normal_iteratorIPS4_S6_EE=so_stub_for_libtelux_audio
-Wl,--defsym=_ZNSt6vectorISt8weak_ptrIN5telux5audio18ITranscodeListenerEESaIS4_EED1Ev=so_stub_for_libtelux_audio
-Wl,--defsym=_ZNSt6vectorISt8weak_ptrIN5telux5audio18ITranscodeListenerEESaIS4_EED2Ev=so_stub_for_libtelux_audio
-Wl,--defsym=_ZNSt6vectorItSaItEE17_M_default_appendEj=so_stub_for_libtelux_audio
-Wl,--defsym=_ZNSt6vectorItSaItEE6resizeEj=so_stub_for_libtelux_audio
-Wl,--defsym=_ZNSt6vectorItSaItEEC1ERKS1_=so_stub_for_libtelux_audio
-Wl,--defsym=_ZNSt6vectorItSaItEEC1ESt16initializer_listItERKS0_=so_stub_for_libtelux_audio
-Wl,--defsym=_ZNSt6vectorItSaItEEC2ERKS1_=so_stub_for_libtelux_audio
-Wl,--defsym=_ZNSt6vectorItSaItEEC2ESt16initializer_listItERKS0_=so_stub_for_libtelux_audio
-Wl,--defsym=_ZNSt7__cxx1112basic_stringIcSt11char_traitsIcESaIcEE12_M_constructIPcEEvT_S7_St20forward_iterator_tag=so_stub_for_libtelux_audio
-Wl,--defsym=_ZNSt7__cxx1112basic_stringIcSt11char_traitsIcESaIcEE12_M_constructIPKcEEvT_S8_St20forward_iterator_tag=so_stub_for_libtelux_audio
-Wl,--defsym=_ZNSt8__detail9_Map_baseIiSt4pairIKiSt10shared_ptrIN5telux6common16ICommandCallbackEEESaIS8_ENS_10_Select1stESt8equal_toIiESt4hashIiENS_18_Mod_range_hashingENS_20_Default_ranged_hashENS_20_Prime_rehash_policyENS_17_Hashtable_traitsILb0ELb0ELb1EEELb1EEixERS2_=so_stub_for_libtelux_audio
-Wl,--defsym=_ZNSt8__detail9_Map_baseIjSt4pairIKjSt10shared_ptrIN5telux5audio12IAudioStreamEEESaIS8_ENS_10_Select1stESt8equal_toIjESt4hashIjENS_18_Mod_range_hashingENS_20_Default_ranged_hashENS_20_Prime_rehash_policyENS_17_Hashtable_traitsILb0ELb0ELb1EEELb1EEixERS2_=so_stub_for_libtelux_audio
-Wl,--defsym=_ZNSt8functionIFvN5telux5audio10StreamMuteENS0_6common9ErrorCodeEEEC1ERKS6_=so_stub_for_libtelux_audio
-Wl,--defsym=_ZNSt8functionIFvN5telux5audio10StreamMuteENS0_6common9ErrorCodeEEEC2ERKS6_=so_stub_for_libtelux_audio
-Wl,--defsym=_ZNSt8functionIFvN5telux5audio12StreamVolumeENS0_6common9ErrorCodeEEEC1ERKS6_=so_stub_for_libtelux_audio
-Wl,--defsym=_ZNSt8functionIFvN5telux5audio12StreamVolumeENS0_6common9ErrorCodeEEEC2ERKS6_=so_stub_for_libtelux_audio
-Wl,--defsym=_ZNSt8functionIFvN5telux6common9ErrorCodeEEEC1ERKS4_=so_stub_for_libtelux_audio
-Wl,--defsym=_ZNSt8functionIFvN5telux6common9ErrorCodeEEEC2ERKS4_=so_stub_for_libtelux_audio
-Wl,--defsym=_ZNSt8functionIFvRSt10shared_ptrIN5telux5audio11ITranscoderEENS1_6common9ErrorCodeEEEC1ERKS9_=so_stub_for_libtelux_audio
-Wl,--defsym=_ZNSt8functionIFvRSt10shared_ptrIN5telux5audio11ITranscoderEENS1_6common9ErrorCodeEEEC2ERKS9_=so_stub_for_libtelux_audio
-Wl,--defsym=_ZNSt8functionIFvRSt10shared_ptrIN5telux5audio12IAudioStreamEENS1_6common9ErrorCodeEEEC1ERKS9_=so_stub_for_libtelux_audio
-Wl,--defsym=_ZNSt8functionIFvRSt10shared_ptrIN5telux5audio12IAudioStreamEENS1_6common9ErrorCodeEEEC2ERKS9_=so_stub_for_libtelux_audio
-Wl,--defsym=_ZNSt8functionIFvSt10shared_ptrIN5telux5audio12IAudioBufferEEjNS1_6common9ErrorCodeEEEC1ERKS8_=so_stub_for_libtelux_audio
-Wl,--defsym=_ZNSt8functionIFvSt10shared_ptrIN5telux5audio12IAudioBufferEEjNS1_6common9ErrorCodeEEEC2ERKS8_=so_stub_for_libtelux_audio
-Wl,--defsym=_ZNSt8functionIFvSt10shared_ptrIN5telux5audio13IStreamBufferEEjNS1_6common9ErrorCodeEEEC1ERKS8_=so_stub_for_libtelux_audio
-Wl,--defsym=_ZNSt8functionIFvSt10shared_ptrIN5telux5audio13IStreamBufferEEjNS1_6common9ErrorCodeEEEC2ERKS8_=so_stub_for_libtelux_audio
-Wl,--defsym=_ZNSt8functionIFvSt10shared_ptrIN5telux5audio13IStreamBufferEENS1_6common9ErrorCodeEEEC1ERKS8_=so_stub_for_libtelux_audio
-Wl,--defsym=_ZNSt8functionIFvSt10shared_ptrIN5telux5audio13IStreamBufferEENS1_6common9ErrorCodeEEEC2ERKS8_=so_stub_for_libtelux_audio
-Wl,--defsym=_ZNSt8functionIFvSt6vectorIN5telux5audio10DeviceTypeESaIS3_EENS1_6common9ErrorCodeEEEC1ERKS9_=so_stub_for_libtelux_audio
-Wl,--defsym=_ZNSt8functionIFvSt6vectorIN5telux5audio10DeviceTypeESaIS3_EENS1_6common9ErrorCodeEEEC2ERKS9_=so_stub_for_libtelux_audio
-Wl,--defsym=_ZNSt8functionIFvSt6vectorIN5telux5audio10StreamTypeESaIS3_EENS1_6common9ErrorCodeEEEC1ERKS9_=so_stub_for_libtelux_audio
-Wl,--defsym=_ZNSt8functionIFvSt6vectorIN5telux5audio10StreamTypeESaIS3_EENS1_6common9ErrorCodeEEEC2ERKS9_=so_stub_for_libtelux_audio
-Wl,--defsym=_ZNSt8functionIFvSt6vectorISt10shared_ptrIN5telux5audio12IAudioDeviceEESaIS5_EENS2_6common9ErrorCodeEEEC1ERKSB_=so_stub_for_libtelux_audio
-Wl,--defsym=_ZNSt8functionIFvSt6vectorISt10shared_ptrIN5telux5audio12IAudioDeviceEESaIS5_EENS2_6common9ErrorCodeEEEC2ERKSB_=so_stub_for_libtelux_audio
-Wl,--defsym=_ZSt13move_backwardISt13shared_futureIvEESt15_Deque_iteratorIT_RS3_PS3_ES2_IS3_RKS3_PS7_ESA_S6_=so_stub_for_libtelux_audio
-Wl,--defsym=_ZSt18make_exception_ptrISt12future_errorENSt15__exception_ptr13exception_ptrET_=so_stub_for_libtelux_audio
-Wl,--defsym=_ZSt20dynamic_pointer_castIN5telux5audio15AudioBufferImplENS1_12IAudioBufferEESt10shared_ptrIT_ERKS4_IT0_E=so_stub_for_libtelux_audio
-Wl,--defsym=_ZSt20dynamic_pointer_castIN5telux5audio15AudioStreamImplENS0_6common14SharedFromThisEESt10shared_ptrIT_ERKS5_IT0_E=so_stub_for_libtelux_audio
-Wl,--defsym=_ZSt20dynamic_pointer_castIN5telux5audio15AudioStreamImplENS1_12IAudioStreamEESt10shared_ptrIT_ERKS4_IT0_E=so_stub_for_libtelux_audio
-Wl,--defsym=_ZSt20dynamic_pointer_castIN5telux5audio16StreamBufferImplENS1_13IStreamBufferEESt10shared_ptrIT_ERKS4_IT0_E=so_stub_for_libtelux_audio
-Wl,--defsym=_ZSt20dynamic_pointer_castIN5telux5audio19AudioPlayStreamImplENS0_6common14SharedFromThisEESt10shared_ptrIT_ERKS5_IT0_E=so_stub_for_libtelux_audio
-Wl,--defsym=_ZSt20dynamic_pointer_castIN5telux5audio20AudioVoiceStreamImplENS0_6common14SharedFromThisEESt10shared_ptrIT_ERKS5_IT0_E=so_stub_for_libtelux_audio
-Wl,--defsym=_ZSt20dynamic_pointer_castIN5telux5audio22AudioCaptureStreamImplENS0_6common14SharedFromThisEESt10shared_ptrIT_ERKS5_IT0_E=so_stub_for_libtelux_audio
-Wl,--defsym=_ZSt20dynamic_pointer_castIN5telux5audio23AudioLoopbackStreamImplENS0_6common14SharedFromThisEESt10shared_ptrIT_ERKS5_IT0_E=so_stub_for_libtelux_audio
-Wl,--defsym=_ZSt20dynamic_pointer_castIN5telux5audio28AudioToneGeneratorStreamImplENS0_6common14SharedFromThisEESt10shared_ptrIT_ERKS5_IT0_E=so_stub_for_libtelux_audio
-Wl,--defsym=_ZSt20__throw_bad_weak_ptrv=so_stub_for_libtelux_audio
-Wl,--defsym=_ZSt4moveISt13shared_futureIvEESt15_Deque_iteratorIT_RS3_PS3_ES6_S6_S6_=so_stub_for_libtelux_audio
-Wl,--defsym=_ZSt7find_ifIN9__gnu_cxx17__normal_iteratorIPSt8weak_ptrIN5telux5audio13IPlayListenerEESt6vectorIS6_SaIS6_EEEEZNS3_6common15ListenerManagerIS5_E16registerListenerES6_EUlS6_E_ET_SG_SG_T0_=so_stub_for_libtelux_audio
-Wl,--defsym=_ZSt7find_ifIN9__gnu_cxx17__normal_iteratorIPSt8weak_ptrIN5telux5audio14IAudioListenerEESt6vectorIS6_SaIS6_EEEEZNS3_6common15ListenerManagerIS5_E16registerListenerES6_EUlS6_E_ET_SG_SG_T0_=so_stub_for_libtelux_audio
-Wl,--defsym=_ZSt7find_ifIN9__gnu_cxx17__normal_iteratorIPSt8weak_ptrIN5telux5audio14IVoiceListenerEESt6vectorIS6_SaIS6_EEEEZNS3_6common15ListenerManagerIS5_E16registerListenerES6_EUlS6_E_ET_SG_SG_T0_=so_stub_for_libtelux_audio
-Wl,--defsym=_ZSt7find_ifIN9__gnu_cxx17__normal_iteratorIPSt8weak_ptrIN5telux5audio18ITranscodeListenerEESt6vectorIS6_SaIS6_EEEEZNS3_6common15ListenerManagerIS5_E16registerListenerES6_EUlS6_E_ET_SG_SG_T0_=so_stub_for_libtelux_audio
-Wl,--defsym=_ZSt9__find_ifIN9__gnu_cxx17__normal_iteratorIPSt8weak_ptrIN5telux5audio13IPlayListenerEESt6vectorIS6_SaIS6_EEEENS0_5__ops10_Iter_predIZNS3_6common15ListenerManagerIS5_E16registerListenerES6_EUlS6_E_EEET_SJ_SJ_T0_=so_stub_for_libtelux_audio
-Wl,--defsym=_ZSt9__find_ifIN9__gnu_cxx17__normal_iteratorIPSt8weak_ptrIN5telux5audio13IPlayListenerEESt6vectorIS6_SaIS6_EEEENS0_5__ops10_Iter_predIZNS3_6common15ListenerManagerIS5_E16registerListenerES6_EUlS6_E_EEET_SJ_SJ_T0_St26random_access_iterator_tag=so_stub_for_libtelux_audio
-Wl,--defsym=_ZSt9__find_ifIN9__gnu_cxx17__normal_iteratorIPSt8weak_ptrIN5telux5audio14IAudioListenerEESt6vectorIS6_SaIS6_EEEENS0_5__ops10_Iter_predIZNS3_6common15ListenerManagerIS5_E16registerListenerES6_EUlS6_E_EEET_SJ_SJ_T0_=so_stub_for_libtelux_audio
-Wl,--defsym=_ZSt9__find_ifIN9__gnu_cxx17__normal_iteratorIPSt8weak_ptrIN5telux5audio14IAudioListenerEESt6vectorIS6_SaIS6_EEEENS0_5__ops10_Iter_predIZNS3_6common15ListenerManagerIS5_E16registerListenerES6_EUlS6_E_EEET_SJ_SJ_T0_St26random_access_iterator_tag=so_stub_for_libtelux_audio
-Wl,--defsym=_ZSt9__find_ifIN9__gnu_cxx17__normal_iteratorIPSt8weak_ptrIN5telux5audio14IVoiceListenerEESt6vectorIS6_SaIS6_EEEENS0_5__ops10_Iter_predIZNS3_6common15ListenerManagerIS5_E16registerListenerES6_EUlS6_E_EEET_SJ_SJ_T0_=so_stub_for_libtelux_audio
-Wl,--defsym=_ZSt9__find_ifIN9__gnu_cxx17__normal_iteratorIPSt8weak_ptrIN5telux5audio14IVoiceListenerEESt6vectorIS6_SaIS6_EEEENS0_5__ops10_Iter_predIZNS3_6common15ListenerManagerIS5_E16registerListenerES6_EUlS6_E_EEET_SJ_SJ_T0_St26random_access_iterator_tag=so_stub_for_libtelux_audio
-Wl,--defsym=_ZSt9__find_ifIN9__gnu_cxx17__normal_iteratorIPSt8weak_ptrIN5telux5audio18ITranscodeListenerEESt6vectorIS6_SaIS6_EEEENS0_5__ops10_Iter_predIZNS3_6common15ListenerManagerIS5_E16registerListenerES6_EUlS6_E_EEET_SJ_SJ_T0_=so_stub_for_libtelux_audio
-Wl,--defsym=_ZSt9__find_ifIN9__gnu_cxx17__normal_iteratorIPSt8weak_ptrIN5telux5audio18ITranscodeListenerEESt6vectorIS6_SaIS6_EEEENS0_5__ops10_Iter_predIZNS3_6common15ListenerManagerIS5_E16registerListenerES6_EUlS6_E_EEET_SJ_SJ_T0_St26random_access_iterator_tag=so_stub_for_libtelux_audio
-Wl,--defsym=_ZSteqRKSt10error_codeRKSt15error_condition=so_stub_for_libtelux_audio
-Wl,--defsym=_ZThn12_N5telux5audio14TranscoderImpl28onTranscoderTeardownResponseEP38audio_teardown_transcoder_resp_msg_v01iPv=so_stub_for_libtelux_audio
-Wl,--defsym=_ZThn12_N5telux5audio14TranscoderImplD0Ev=so_stub_for_libtelux_audio
-Wl,--defsym=_ZThn12_N5telux5audio14TranscoderImplD1Ev=so_stub_for_libtelux_audio
-Wl,--defsym=_ZThn12_N5telux5audio15AudioStreamImpl25onStreamGetVolumeResponseEP36audio_stream_get_volume_resp_msg_v01iPv=so_stub_for_libtelux_audio
-Wl,--defsym=_ZThn12_N5telux5audio15AudioStreamImplD0Ev=so_stub_for_libtelux_audio
-Wl,--defsym=_ZThn12_N5telux5audio15AudioStreamImplD1Ev=so_stub_for_libtelux_audio
-Wl,--defsym=_ZThn12_N5telux5audio16AudioManagerImpl29onGetSupportedStreamsResponseEP40audio_get_supported_streams_resp_msg_v01iPv=so_stub_for_libtelux_audio
-Wl,--defsym=_ZThn12_N5telux5audio16AudioManagerImplD0Ev=so_stub_for_libtelux_audio
-Wl,--defsym=_ZThn12_N5telux5audio16AudioManagerImplD1Ev=so_stub_for_libtelux_audio
-Wl,--defsym=_ZThn12_N5telux5audio19AudioPlayStreamImplD0Ev=so_stub_for_libtelux_audio
-Wl,--defsym=_ZThn12_N5telux5audio19AudioPlayStreamImplD1Ev=so_stub_for_libtelux_audio
-Wl,--defsym=_ZThn12_N5telux5audio20AudioVoiceStreamImplD0Ev=so_stub_for_libtelux_audio
-Wl,--defsym=_ZThn12_N5telux5audio20AudioVoiceStreamImplD1Ev=so_stub_for_libtelux_audio
-Wl,--defsym=_ZThn12_N5telux5audio22AudioCaptureStreamImplD0Ev=so_stub_for_libtelux_audio
-Wl,--defsym=_ZThn12_N5telux5audio22AudioCaptureStreamImplD1Ev=so_stub_for_libtelux_audio
-Wl,--defsym=_ZThn12_N5telux5audio23AudioLoopbackStreamImplD0Ev=so_stub_for_libtelux_audio
-Wl,--defsym=_ZThn12_N5telux5audio23AudioLoopbackStreamImplD1Ev=so_stub_for_libtelux_audio
-Wl,--defsym=_ZThn12_N5telux5audio28AudioToneGeneratorStreamImplD0Ev=so_stub_for_libtelux_audio
-Wl,--defsym=_ZThn12_N5telux5audio28AudioToneGeneratorStreamImplD1Ev=so_stub_for_libtelux_audio
-Wl,--defsym=_ZThn132_N5telux5audio19AudioPlayStreamImpl22onWriteReadyIndicationERK30audio_stream_write_ind_msg_v01=so_stub_for_libtelux_audio
-Wl,--defsym=_ZThn132_N5telux5audio19AudioPlayStreamImpl23onPlayStoppedIndicationERK30audio_stream_drain_ind_msg_v01=so_stub_for_libtelux_audio
-Wl,--defsym=_ZThn132_N5telux5audio19AudioPlayStreamImplD0Ev=so_stub_for_libtelux_audio
-Wl,--defsym=_ZThn132_N5telux5audio19AudioPlayStreamImplD1Ev=so_stub_for_libtelux_audio
-Wl,--defsym=_ZThn132_N5telux5audio20AudioVoiceStreamImpl19onDtmfToneDetectionEP32audio_dtmf_detection_ind_msg_v01=so_stub_for_libtelux_audio
-Wl,--defsym=_ZThn132_N5telux5audio20AudioVoiceStreamImplD0Ev=so_stub_for_libtelux_audio
-Wl,--defsym=_ZThn132_N5telux5audio20AudioVoiceStreamImplD1Ev=so_stub_for_libtelux_audio
-Wl,--defsym=_ZThn132_N5telux5audio22AudioCaptureStreamImpl20onStreamReadResponseEP30audio_stream_read_resp_msg_v01iPv=so_stub_for_libtelux_audio
-Wl,--defsym=_ZThn132_N5telux5audio22AudioCaptureStreamImplD0Ev=so_stub_for_libtelux_audio
-Wl,--defsym=_ZThn132_N5telux5audio22AudioCaptureStreamImplD1Ev=so_stub_for_libtelux_audio
-Wl,--defsym=_ZThn132_N5telux5audio23AudioLoopbackStreamImpl18onLoopbackResponseEP34audio_stream_loopback_resp_msg_v01iPv=so_stub_for_libtelux_audio
-Wl,--defsym=_ZThn132_N5telux5audio23AudioLoopbackStreamImplD0Ev=so_stub_for_libtelux_audio
-Wl,--defsym=_ZThn132_N5telux5audio23AudioLoopbackStreamImplD1Ev=so_stub_for_libtelux_audio
-Wl,--defsym=_ZThn132_N5telux5audio28AudioToneGeneratorStreamImpl14onToneResponseEP34audio_tone_generation_resp_msg_v01iPv=so_stub_for_libtelux_audio
-Wl,--defsym=_ZThn132_N5telux5audio28AudioToneGeneratorStreamImplD0Ev=so_stub_for_libtelux_audio
-Wl,--defsym=_ZThn132_N5telux5audio28AudioToneGeneratorStreamImplD1Ev=so_stub_for_libtelux_audio
-Wl,--defsym=_ZThn136_N5telux5audio19AudioPlayStreamImpl21onStreamWriteResponseEP31audio_stream_write_resp_msg_v01iPv=so_stub_for_libtelux_audio
-Wl,--defsym=_ZThn136_N5telux5audio19AudioPlayStreamImplD0Ev=so_stub_for_libtelux_audio
-Wl,--defsym=_ZThn136_N5telux5audio19AudioPlayStreamImplD1Ev=so_stub_for_libtelux_audio
-Wl,--defsym=_ZThn136_N5telux5audio20AudioVoiceStreamImpl21onStreamStartResponseEP31audio_stream_start_resp_msg_v01iPv=so_stub_for_libtelux_audio
-Wl,--defsym=_ZThn136_N5telux5audio20AudioVoiceStreamImplD0Ev=so_stub_for_libtelux_audio
-Wl,--defsym=_ZThn136_N5telux5audio20AudioVoiceStreamImplD1Ev=so_stub_for_libtelux_audio
-Wl,--defsym=_ZThn140_N5telux5audio19AudioPlayStreamImpl25onPlayStreamFlushResponseEP31audio_stream_flush_resp_msg_v01iPv=so_stub_for_libtelux_audio
-Wl,--defsym=_ZThn140_N5telux5audio19AudioPlayStreamImplD0Ev=so_stub_for_libtelux_audio
-Wl,--defsym=_ZThn140_N5telux5audio19AudioPlayStreamImplD1Ev=so_stub_for_libtelux_audio
-Wl,--defsym=_ZThn140_N5telux5audio20AudioVoiceStreamImpl20onStreamStopResponseEP30audio_stream_stop_resp_msg_v01iPv=so_stub_for_libtelux_audio
-Wl,--defsym=_ZThn140_N5telux5audio20AudioVoiceStreamImplD0Ev=so_stub_for_libtelux_audio
-Wl,--defsym=_ZThn140_N5telux5audio20AudioVoiceStreamImplD1Ev=so_stub_for_libtelux_audio
-Wl,--defsym=_ZThn144_N5telux5audio19AudioPlayStreamImpl25onPlayStreamDrainResponseEP31audio_stream_drain_resp_msg_v01iPv=so_stub_for_libtelux_audio
-Wl,--defsym=_ZThn144_N5telux5audio19AudioPlayStreamImplD0Ev=so_stub_for_libtelux_audio
-Wl,--defsym=_ZThn144_N5telux5audio19AudioPlayStreamImplD1Ev=so_stub_for_libtelux_audio
-Wl,--defsym=_ZThn144_N5telux5audio20AudioVoiceStreamImpl24onRegisterEventsResponseEP39audio_service_ind_register_resp_msg_v01iPv=so_stub_for_libtelux_audio
-Wl,--defsym=_ZThn144_N5telux5audio20AudioVoiceStreamImplD0Ev=so_stub_for_libtelux_audio
-Wl,--defsym=_ZThn144_N5telux5audio20AudioVoiceStreamImplD1Ev=so_stub_for_libtelux_audio
-Wl,--defsym=_ZThn148_N5telux5audio20AudioVoiceStreamImpl14onDtmfResponseEP34audio_dtmf_generation_resp_msg_v01iPv=so_stub_for_libtelux_audio
-Wl,--defsym=_ZThn148_N5telux5audio20AudioVoiceStreamImplD0Ev=so_stub_for_libtelux_audio
-Wl,--defsym=_ZThn148_N5telux5audio20AudioVoiceStreamImplD1Ev=so_stub_for_libtelux_audio
-Wl,--defsym=_ZThn16_N5telux5audio14TranscoderImpl20onStreamReadResponseEP30audio_stream_read_resp_msg_v01iPv=so_stub_for_libtelux_audio
-Wl,--defsym=_ZThn16_N5telux5audio14TranscoderImplD0Ev=so_stub_for_libtelux_audio
-Wl,--defsym=_ZThn16_N5telux5audio14TranscoderImplD1Ev=so_stub_for_libtelux_audio
-Wl,--defsym=_ZThn16_N5telux5audio15AudioStreamImpl23onStreamSetMuteResponseEP34audio_stream_set_mute_resp_msg_v01iPv=so_stub_for_libtelux_audio
-Wl,--defsym=_ZThn16_N5telux5audio15AudioStreamImplD0Ev=so_stub_for_libtelux_audio
-Wl,--defsym=_ZThn16_N5telux5audio15AudioStreamImplD1Ev=so_stub_for_libtelux_audio
-Wl,--defsym=_ZThn16_N5telux5audio16AudioManagerImpl22onCreateStreamResponseEP32audio_create_stream_resp_msg_v01iPv=so_stub_for_libtelux_audio
-Wl,--defsym=_ZThn16_N5telux5audio16AudioManagerImplD0Ev=so_stub_for_libtelux_audio
-Wl,--defsym=_ZThn16_N5telux5audio16AudioManagerImplD1Ev=so_stub_for_libtelux_audio
-Wl,--defsym=_ZThn16_N5telux5audio19AudioPlayStreamImplD0Ev=so_stub_for_libtelux_audio
-Wl,--defsym=_ZThn16_N5telux5audio19AudioPlayStreamImplD1Ev=so_stub_for_libtelux_audio
-Wl,--defsym=_ZThn16_N5telux5audio20AudioVoiceStreamImplD0Ev=so_stub_for_libtelux_audio
-Wl,--defsym=_ZThn16_N5telux5audio20AudioVoiceStreamImplD1Ev=so_stub_for_libtelux_audio
-Wl,--defsym=_ZThn16_N5telux5audio22AudioCaptureStreamImplD0Ev=so_stub_for_libtelux_audio
-Wl,--defsym=_ZThn16_N5telux5audio22AudioCaptureStreamImplD1Ev=so_stub_for_libtelux_audio
-Wl,--defsym=_ZThn16_N5telux5audio23AudioLoopbackStreamImplD0Ev=so_stub_for_libtelux_audio
-Wl,--defsym=_ZThn16_N5telux5audio23AudioLoopbackStreamImplD1Ev=so_stub_for_libtelux_audio
-Wl,--defsym=_ZThn16_N5telux5audio28AudioToneGeneratorStreamImplD0Ev=so_stub_for_libtelux_audio
-Wl,--defsym=_ZThn16_N5telux5audio28AudioToneGeneratorStreamImplD1Ev=so_stub_for_libtelux_audio
-Wl,--defsym=_ZThn20_N5telux5audio15AudioStreamImpl23onStreamGetMuteResponseEP34audio_stream_get_mute_resp_msg_v01iPv=so_stub_for_libtelux_audio
-Wl,--defsym=_ZThn20_N5telux5audio15AudioStreamImplD0Ev=so_stub_for_libtelux_audio
-Wl,--defsym=_ZThn20_N5telux5audio15AudioStreamImplD1Ev=so_stub_for_libtelux_audio
-Wl,--defsym=_ZThn20_N5telux5audio16AudioManagerImpl26onCreateTranscoderResponseEP36audio_create_transcoder_resp_msg_v01iPv=so_stub_for_libtelux_audio
-Wl,--defsym=_ZThn20_N5telux5audio16AudioManagerImplD0Ev=so_stub_for_libtelux_audio
-Wl,--defsym=_ZThn20_N5telux5audio16AudioManagerImplD1Ev=so_stub_for_libtelux_audio
-Wl,--defsym=_ZThn20_N5telux5audio19AudioPlayStreamImplD0Ev=so_stub_for_libtelux_audio
-Wl,--defsym=_ZThn20_N5telux5audio19AudioPlayStreamImplD1Ev=so_stub_for_libtelux_audio
-Wl,--defsym=_ZThn20_N5telux5audio20AudioVoiceStreamImplD0Ev=so_stub_for_libtelux_audio
-Wl,--defsym=_ZThn20_N5telux5audio20AudioVoiceStreamImplD1Ev=so_stub_for_libtelux_audio
-Wl,--defsym=_ZThn20_N5telux5audio22AudioCaptureStreamImplD0Ev=so_stub_for_libtelux_audio
-Wl,--defsym=_ZThn20_N5telux5audio22AudioCaptureStreamImplD1Ev=so_stub_for_libtelux_audio
-Wl,--defsym=_ZThn20_N5telux5audio23AudioLoopbackStreamImplD0Ev=so_stub_for_libtelux_audio
-Wl,--defsym=_ZThn20_N5telux5audio23AudioLoopbackStreamImplD1Ev=so_stub_for_libtelux_audio
-Wl,--defsym=_ZThn20_N5telux5audio28AudioToneGeneratorStreamImplD0Ev=so_stub_for_libtelux_audio
-Wl,--defsym=_ZThn20_N5telux5audio28AudioToneGeneratorStreamImplD1Ev=so_stub_for_libtelux_audio
-Wl,--defsym=_ZThn24_N5telux5audio15AudioStreamImplD0Ev=so_stub_for_libtelux_audio
-Wl,--defsym=_ZThn24_N5telux5audio15AudioStreamImplD1Ev=so_stub_for_libtelux_audio
-Wl,--defsym=_ZThn24_N5telux5audio16AudioManagerImpl22onDeleteStreamResponseEP31audio_close_stream_resp_msg_v01iPv=so_stub_for_libtelux_audio
-Wl,--defsym=_ZThn24_N5telux5audio16AudioManagerImplD0Ev=so_stub_for_libtelux_audio
-Wl,--defsym=_ZThn24_N5telux5audio16AudioManagerImplD1Ev=so_stub_for_libtelux_audio
-Wl,--defsym=_ZThn24_N5telux5audio19AudioPlayStreamImplD0Ev=so_stub_for_libtelux_audio
-Wl,--defsym=_ZThn24_N5telux5audio19AudioPlayStreamImplD1Ev=so_stub_for_libtelux_audio
-Wl,--defsym=_ZThn24_N5telux5audio20AudioVoiceStreamImplD0Ev=so_stub_for_libtelux_audio
-Wl,--defsym=_ZThn24_N5telux5audio20AudioVoiceStreamImplD1Ev=so_stub_for_libtelux_audio
-Wl,--defsym=_ZThn24_N5telux5audio22AudioCaptureStreamImplD0Ev=so_stub_for_libtelux_audio
-Wl,--defsym=_ZThn24_N5telux5audio22AudioCaptureStreamImplD1Ev=so_stub_for_libtelux_audio
-Wl,--defsym=_ZThn24_N5telux5audio23AudioLoopbackStreamImplD0Ev=so_stub_for_libtelux_audio
-Wl,--defsym=_ZThn24_N5telux5audio23AudioLoopbackStreamImplD1Ev=so_stub_for_libtelux_audio
-Wl,--defsym=_ZThn24_N5telux5audio28AudioToneGeneratorStreamImplD0Ev=so_stub_for_libtelux_audio
-Wl,--defsym=_ZThn24_N5telux5audio28AudioToneGeneratorStreamImplD1Ev=so_stub_for_libtelux_audio
-Wl,--defsym=_ZThn28_N5telux5audio16AudioManagerImpl19onModemStatusChangeENS_6common13ServiceStatusE=so_stub_for_libtelux_audio
-Wl,--defsym=_ZThn28_N5telux5audio16AudioManagerImpl21onServiceStatusChangeENS_6common13ServiceStatusE=so_stub_for_libtelux_audio
-Wl,--defsym=_ZThn28_N5telux5audio16AudioManagerImplD0Ev=so_stub_for_libtelux_audio
-Wl,--defsym=_ZThn28_N5telux5audio16AudioManagerImplD1Ev=so_stub_for_libtelux_audio
-Wl,--defsym=_ZThn28_N5telux5audio19AudioPlayStreamImplD0Ev=so_stub_for_libtelux_audio
-Wl,--defsym=_ZThn28_N5telux5audio19AudioPlayStreamImplD1Ev=so_stub_for_libtelux_audio
-Wl,--defsym=_ZThn28_N5telux5audio20AudioVoiceStreamImplD0Ev=so_stub_for_libtelux_audio
-Wl,--defsym=_ZThn28_N5telux5audio20AudioVoiceStreamImplD1Ev=so_stub_for_libtelux_audio
-Wl,--defsym=_ZThn28_N5telux5audio22AudioCaptureStreamImplD0Ev=so_stub_for_libtelux_audio
-Wl,--defsym=_ZThn28_N5telux5audio22AudioCaptureStreamImplD1Ev=so_stub_for_libtelux_audio
-Wl,--defsym=_ZThn28_N5telux5audio23AudioLoopbackStreamImplD0Ev=so_stub_for_libtelux_audio
-Wl,--defsym=_ZThn28_N5telux5audio23AudioLoopbackStreamImplD1Ev=so_stub_for_libtelux_audio
-Wl,--defsym=_ZThn28_N5telux5audio28AudioToneGeneratorStreamImplD0Ev=so_stub_for_libtelux_audio
-Wl,--defsym=_ZThn28_N5telux5audio28AudioToneGeneratorStreamImplD1Ev=so_stub_for_libtelux_audio
-Wl,--defsym=_ZThn4_N5telux5audio14TranscoderImpl21onServiceStatusChangeENS_6common13ServiceStatusE=so_stub_for_libtelux_audio
-Wl,--defsym=_ZThn4_N5telux5audio14TranscoderImpl22onWriteReadyIndicationERK30audio_stream_write_ind_msg_v01=so_stub_for_libtelux_audio
-Wl,--defsym=_ZThn4_N5telux5audio14TranscoderImplD0Ev=so_stub_for_libtelux_audio
-Wl,--defsym=_ZThn4_N5telux5audio14TranscoderImplD1Ev=so_stub_for_libtelux_audio
-Wl,--defsym=_ZThn4_N5telux5audio15AudioStreamImpl25onStreamGetDeviceResponseEP36audio_stream_get_device_resp_msg_v01iPv=so_stub_for_libtelux_audio
-Wl,--defsym=_ZThn4_N5telux5audio15AudioStreamImplD0Ev=so_stub_for_libtelux_audio
-Wl,--defsym=_ZThn4_N5telux5audio15AudioStreamImplD1Ev=so_stub_for_libtelux_audio
-Wl,--defsym=_ZThn4_N5telux5audio16AudioManagerImpl23onLoadSubsystemResponseEP33audio_load_subsystem_resp_msg_v01iPv=so_stub_for_libtelux_audio
-Wl,--defsym=_ZThn4_N5telux5audio16AudioManagerImplD0Ev=so_stub_for_libtelux_audio
-Wl,--defsym=_ZThn4_N5telux5audio16AudioManagerImplD1Ev=so_stub_for_libtelux_audio
-Wl,--defsym=_ZThn4_N5telux5audio16StreamBufferImplD0Ev=so_stub_for_libtelux_audio
-Wl,--defsym=_ZThn4_N5telux5audio16StreamBufferImplD1Ev=so_stub_for_libtelux_audio
-Wl,--defsym=_ZThn4_N5telux5audio19AudioPlayStreamImplD0Ev=so_stub_for_libtelux_audio
-Wl,--defsym=_ZThn4_N5telux5audio19AudioPlayStreamImplD1Ev=so_stub_for_libtelux_audio
-Wl,--defsym=_ZThn4_N5telux5audio20AudioVoiceStreamImplD0Ev=so_stub_for_libtelux_audio
-Wl,--defsym=_ZThn4_N5telux5audio20AudioVoiceStreamImplD1Ev=so_stub_for_libtelux_audio
-Wl,--defsym=_ZThn4_N5telux5audio22AudioCaptureStreamImplD0Ev=so_stub_for_libtelux_audio
-Wl,--defsym=_ZThn4_N5telux5audio22AudioCaptureStreamImplD1Ev=so_stub_for_libtelux_audio
-Wl,--defsym=_ZThn4_N5telux5audio23AudioLoopbackStreamImplD0Ev=so_stub_for_libtelux_audio
-Wl,--defsym=_ZThn4_N5telux5audio23AudioLoopbackStreamImplD1Ev=so_stub_for_libtelux_audio
-Wl,--defsym=_ZThn4_N5telux5audio28AudioToneGeneratorStreamImplD0Ev=so_stub_for_libtelux_audio
-Wl,--defsym=_ZThn4_N5telux5audio28AudioToneGeneratorStreamImplD1Ev=so_stub_for_libtelux_audio
-Wl,--defsym=_ZThn8_N5telux5audio14TranscoderImpl21onStreamWriteResponseEP31audio_stream_write_resp_msg_v01iPv=so_stub_for_libtelux_audio
-Wl,--defsym=_ZThn8_N5telux5audio14TranscoderImplD0Ev=so_stub_for_libtelux_audio
-Wl,--defsym=_ZThn8_N5telux5audio14TranscoderImplD1Ev=so_stub_for_libtelux_audio
-Wl,--defsym=_ZThn8_N5telux5audio15AudioStreamImpl25onStreamSetVolumeResponseEP36audio_stream_set_volume_resp_msg_v01iPv=so_stub_for_libtelux_audio
-Wl,--defsym=_ZThn8_N5telux5audio15AudioStreamImplD0Ev=so_stub_for_libtelux_audio
-Wl,--defsym=_ZThn8_N5telux5audio15AudioStreamImplD1Ev=so_stub_for_libtelux_audio
-Wl,--defsym=_ZThn8_N5telux5audio16AudioManagerImpl29onGetSupportedDevicesResponseEP40audio_get_supported_devices_resp_msg_v01iPv=so_stub_for_libtelux_audio
-Wl,--defsym=_ZThn8_N5telux5audio16AudioManagerImplD0Ev=so_stub_for_libtelux_audio
-Wl,--defsym=_ZThn8_N5telux5audio16AudioManagerImplD1Ev=so_stub_for_libtelux_audio
-Wl,--defsym=_ZThn8_N5telux5audio19AudioPlayStreamImplD0Ev=so_stub_for_libtelux_audio
-Wl,--defsym=_ZThn8_N5telux5audio19AudioPlayStreamImplD1Ev=so_stub_for_libtelux_audio
-Wl,--defsym=_ZThn8_N5telux5audio20AudioVoiceStreamImplD0Ev=so_stub_for_libtelux_audio
-Wl,--defsym=_ZThn8_N5telux5audio20AudioVoiceStreamImplD1Ev=so_stub_for_libtelux_audio
-Wl,--defsym=_ZThn8_N5telux5audio22AudioCaptureStreamImplD0Ev=so_stub_for_libtelux_audio
-Wl,--defsym=_ZThn8_N5telux5audio22AudioCaptureStreamImplD1Ev=so_stub_for_libtelux_audio
-Wl,--defsym=_ZThn8_N5telux5audio23AudioLoopbackStreamImplD0Ev=so_stub_for_libtelux_audio
-Wl,--defsym=_ZThn8_N5telux5audio23AudioLoopbackStreamImplD1Ev=so_stub_for_libtelux_audio
-Wl,--defsym=_ZThn8_N5telux5audio28AudioToneGeneratorStreamImplD0Ev=so_stub_for_libtelux_audio
-Wl,--defsym=_ZThn8_N5telux5audio28AudioToneGeneratorStreamImplD1Ev=so_stub_for_libtelux_audio
-Wl,--defsym=_ZTIN5telux3qmi12IQmiListenerE=so_stub_for_libtelux_audio
-Wl,--defsym=_ZTIN5telux3qmi19IQmiToneGenCallbackE=so_stub_for_libtelux_audio
-Wl,--defsym=_ZTIN5telux3qmi20IQmiDtmfToneCallbackE=so_stub_for_libtelux_audio
-Wl,--defsym=_ZTIN5telux3qmi20IQmiLoopbackCallbackE=so_stub_for_libtelux_audio
-Wl,--defsym=_ZTIN5telux3qmi21IQmiAudioPlayListenerE=so_stub_for_libtelux_audio
-Wl,--defsym=_ZTIN5telux3qmi22IQmiAudioVoiceListenerE=so_stub_for_libtelux_audio
-Wl,--defsym=_ZTIN5telux3qmi22IQmiStreamReadCallbackE=so_stub_for_libtelux_audio
-Wl,--defsym=_ZTIN5telux3qmi22IQmiStreamStopCallbackE=so_stub_for_libtelux_audio
-Wl,--defsym=_ZTIN5telux3qmi23IQmiStreamStartCallbackE=so_stub_for_libtelux_audio
-Wl,--defsym=_ZTIN5telux3qmi23IQmiStreamWriteCallbackE=so_stub_for_libtelux_audio
-Wl,--defsym=_ZTIN5telux3qmi24IQmiAudioServiceListenerE=so_stub_for_libtelux_audio
-Wl,--defsym=_ZTIN5telux3qmi24IQmiCreateStreamCallbackE=so_stub_for_libtelux_audio
-Wl,--defsym=_ZTIN5telux3qmi24IQmiDeleteStreamCallbackE=so_stub_for_libtelux_audio
-Wl,--defsym=_ZTIN5telux3qmi25IQmiLoadSubsystemCallbackE=so_stub_for_libtelux_audio
-Wl,--defsym=_ZTIN5telux3qmi25IQmiRegisterEventCallbackE=so_stub_for_libtelux_audio
-Wl,--defsym=_ZTIN5telux3qmi25IQmiStreamGetMuteCallbackE=so_stub_for_libtelux_audio
-Wl,--defsym=_ZTIN5telux3qmi25IQmiStreamSetMuteCallbackE=so_stub_for_libtelux_audio
-Wl,--defsym=_ZTIN5telux3qmi27IQmiPlayStreamDrainCallbackE=so_stub_for_libtelux_audio
-Wl,--defsym=_ZTIN5telux3qmi27IQmiPlayStreamFlushCallbackE=so_stub_for_libtelux_audio
-Wl,--defsym=_ZTIN5telux3qmi27IQmiStreamGetDeviceCallbackE=so_stub_for_libtelux_audio
-Wl,--defsym=_ZTIN5telux3qmi27IQmiStreamGetVolumeCallbackE=so_stub_for_libtelux_audio
-Wl,--defsym=_ZTIN5telux3qmi27IQmiStreamSetDeviceCallbackE=so_stub_for_libtelux_audio
-Wl,--defsym=_ZTIN5telux3qmi27IQmiStreamSetVolumeCallbackE=so_stub_for_libtelux_audio
-Wl,--defsym=_ZTIN5telux3qmi28IQmiCreateTranscoderCallbackE=so_stub_for_libtelux_audio
-Wl,--defsym=_ZTIN5telux3qmi30IQmiTranscoderTeardownCallbackE=so_stub_for_libtelux_audio
-Wl,--defsym=_ZTIN5telux3qmi31IQmiGetSupportedDevicesCallbackE=so_stub_for_libtelux_audio
-Wl,--defsym=_ZTIN5telux3qmi31IQmiGetSupportedStreamsCallbackE=so_stub_for_libtelux_audio
-Wl,--defsym=_ZTIN5telux5audio11ITranscoderE=so_stub_for_libtelux_audio
-Wl,--defsym=_ZTIN5telux5audio12IAudioBufferE=so_stub_for_libtelux_audio
-Wl,--defsym=_ZTIN5telux5audio12IAudioDeviceE=so_stub_for_libtelux_audio
-Wl,--defsym=_ZTIN5telux5audio12IAudioStreamE=so_stub_for_libtelux_audio
-Wl,--defsym=_ZTIN5telux5audio13IAudioManagerE=so_stub_for_libtelux_audio
-Wl,--defsym=_ZTIN5telux5audio13IStreamBufferE=so_stub_for_libtelux_audio
-Wl,--defsym=_ZTIN5telux5audio14TranscoderImplE=so_stub_for_libtelux_audio
-Wl,--defsym=_ZTIN5telux5audio15AudioBufferImplE=so_stub_for_libtelux_audio
-Wl,--defsym=_ZTIN5telux5audio15AudioDeviceImplE=so_stub_for_libtelux_audio
-Wl,--defsym=_ZTIN5telux5audio15AudioStreamImplE=so_stub_for_libtelux_audio
-Wl,--defsym=_ZTIN5telux5audio16AudioManagerImplE=so_stub_for_libtelux_audio
-Wl,--defsym=_ZTIN5telux5audio16IAudioPlayStreamE=so_stub_for_libtelux_audio
-Wl,--defsym=_ZTIN5telux5audio16StreamBufferImplE=so_stub_for_libtelux_audio
-Wl,--defsym=_ZTIN5telux5audio17IAudioVoiceStreamE=so_stub_for_libtelux_audio
-Wl,--defsym=_ZTIN5telux5audio19AudioPlayStreamImplE=so_stub_for_libtelux_audio
-Wl,--defsym=_ZTIN5telux5audio19IAudioCaptureStreamE=so_stub_for_libtelux_audio
-Wl,--defsym=_ZTIN5telux5audio20AudioVoiceStreamImplE=so_stub_for_libtelux_audio
-Wl,--defsym=_ZTIN5telux5audio20IAudioLoopbackStreamE=so_stub_for_libtelux_audio
-Wl,--defsym=_ZTIN5telux5audio22AudioCaptureStreamImplE=so_stub_for_libtelux_audio
-Wl,--defsym=_ZTIN5telux5audio23AudioLoopbackStreamImplE=so_stub_for_libtelux_audio
-Wl,--defsym=_ZTIN5telux5audio25IAudioToneGeneratorStreamE=so_stub_for_libtelux_audio
-Wl,--defsym=_ZTIN5telux5audio28AudioToneGeneratorStreamImplE=so_stub_for_libtelux_audio
-Wl,--defsym=_ZTIN5telux6common14SharedFromThisE=so_stub_for_libtelux_audio
-Wl,--defsym=_ZTIN5telux6common16ICommandCallbackE=so_stub_for_libtelux_audio
-Wl,--defsym=_ZTIN5telux6common18FunctionalCallbackIJNS0_9ErrorCodeEEEE=so_stub_for_libtelux_audio
-Wl,--defsym=_ZTIN5telux6common18FunctionalCallbackIJNS_5audio10StreamMuteENS0_9ErrorCodeEEEE=so_stub_for_libtelux_audio
-Wl,--defsym=_ZTIN5telux6common18FunctionalCallbackIJNS_5audio12StreamVolumeENS0_9ErrorCodeEEEE=so_stub_for_libtelux_audio
-Wl,--defsym=_ZTIN5telux6common18FunctionalCallbackIJRSt10shared_ptrINS_5audio11ITranscoderEENS0_9ErrorCodeEEEE=so_stub_for_libtelux_audio
-Wl,--defsym=_ZTIN5telux6common18FunctionalCallbackIJRSt10shared_ptrINS_5audio12IAudioStreamEENS0_9ErrorCodeEEEE=so_stub_for_libtelux_audio
-Wl,--defsym=_ZTIN5telux6common18FunctionalCallbackIJSt10shared_ptrINS_5audio12IAudioBufferEEjNS0_9ErrorCodeEEEE=so_stub_for_libtelux_audio
-Wl,--defsym=_ZTIN5telux6common18FunctionalCallbackIJSt10shared_ptrINS_5audio13IStreamBufferEEjNS0_9ErrorCodeEEEE=so_stub_for_libtelux_audio
-Wl,--defsym=_ZTIN5telux6common18FunctionalCallbackIJSt10shared_ptrINS_5audio13IStreamBufferEENS0_9ErrorCodeEEEE=so_stub_for_libtelux_audio
-Wl,--defsym=_ZTIN5telux6common18FunctionalCallbackIJSt6vectorINS_5audio10DeviceTypeESaIS4_EENS0_9ErrorCodeEEEE=so_stub_for_libtelux_audio
-Wl,--defsym=_ZTIN5telux6common18FunctionalCallbackIJSt6vectorINS_5audio10StreamTypeESaIS4_EENS0_9ErrorCodeEEEE=so_stub_for_libtelux_audio
-Wl,--defsym=_ZTIN5telux6common18FunctionalCallbackIJSt6vectorISt10shared_ptrINS_5audio12IAudioDeviceEESaIS6_EENS0_9ErrorCodeEEEE=so_stub_for_libtelux_audio
-Wl,--defsym=_ZTIN5telux6common35enable_inheritable_shared_from_thisINS_5audio15AudioStreamImplEEE=so_stub_for_libtelux_audio
-Wl,--defsym=_ZTINSt13__future_base13_State_baseV2E=so_stub_for_libtelux_audio
-Wl,--defsym=_ZTINSt13__future_base21_Async_state_commonV2E=so_stub_for_libtelux_audio
-Wl,--defsym=_ZTINSt13__future_base7_ResultIbEE=so_stub_for_libtelux_audio
-Wl,--defsym=_ZTINSt13__future_base7_ResultIvEE=so_stub_for_libtelux_audio
-Wl,--defsym=_ZTISt11_Mutex_baseILN9__gnu_cxx12_Lock_policyE2EE=so_stub_for_libtelux_audio
-Wl,--defsym=_ZTISt16_Sp_counted_baseILN9__gnu_cxx12_Lock_policyE2EE=so_stub_for_libtelux_audio
-Wl,--defsym=_ZTISt19_Sp_make_shared_tag=so_stub_for_libtelux_audio
-Wl,--defsym=_ZTISt23enable_shared_from_thisIN5telux5audio14TranscoderImplEE=so_stub_for_libtelux_audio
-Wl,--defsym=_ZTISt23enable_shared_from_thisIN5telux5audio15AudioDeviceImplEE=so_stub_for_libtelux_audio
-Wl,--defsym=_ZTISt23enable_shared_from_thisIN5telux5audio16AudioManagerImplEE=so_stub_for_libtelux_audio
-Wl,--defsym=_ZTISt23enable_shared_from_thisIN5telux6common14SharedFromThisEE=so_stub_for_libtelux_audio
-Wl,--defsym=_ZTISt23_Sp_counted_ptr_inplaceIN5telux5audio14TranscoderImplESaIS2_ELN9__gnu_cxx12_Lock_policyE2EE=so_stub_for_libtelux_audio
-Wl,--defsym=_ZTISt23_Sp_counted_ptr_inplaceIN5telux5audio15AudioBufferImplESaIS2_ELN9__gnu_cxx12_Lock_policyE2EE=so_stub_for_libtelux_audio
-Wl,--defsym=_ZTISt23_Sp_counted_ptr_inplaceIN5telux5audio15AudioDeviceImplESaIS2_ELN9__gnu_cxx12_Lock_policyE2EE=so_stub_for_libtelux_audio
-Wl,--defsym=_ZTISt23_Sp_counted_ptr_inplaceIN5telux5audio16AudioManagerImplESaIS2_ELN9__gnu_cxx12_Lock_policyE2EE=so_stub_for_libtelux_audio
-Wl,--defsym=_ZTISt23_Sp_counted_ptr_inplaceIN5telux5audio16StreamBufferImplESaIS2_ELN9__gnu_cxx12_Lock_policyE2EE=so_stub_for_libtelux_audio
-Wl,--defsym=_ZTISt23_Sp_counted_ptr_inplaceIN5telux5audio19AudioPlayStreamImplESaIS2_ELN9__gnu_cxx12_Lock_policyE2EE=so_stub_for_libtelux_audio
-Wl,--defsym=_ZTISt23_Sp_counted_ptr_inplaceIN5telux5audio20AudioVoiceStreamImplESaIS2_ELN9__gnu_cxx12_Lock_policyE2EE=so_stub_for_libtelux_audio
-Wl,--defsym=_ZTISt23_Sp_counted_ptr_inplaceIN5telux5audio22AudioCaptureStreamImplESaIS2_ELN9__gnu_cxx12_Lock_policyE2EE=so_stub_for_libtelux_audio
-Wl,--defsym=_ZTISt23_Sp_counted_ptr_inplaceIN5telux5audio23AudioLoopbackStreamImplESaIS2_ELN9__gnu_cxx12_Lock_policyE2EE=so_stub_for_libtelux_audio
-Wl,--defsym=_ZTISt23_Sp_counted_ptr_inplaceIN5telux5audio28AudioToneGeneratorStreamImplESaIS2_ELN9__gnu_cxx12_Lock_policyE2EE=so_stub_for_libtelux_audio
-Wl,--defsym=_ZTISt23_Sp_counted_ptr_inplaceIN5telux6common15ListenerManagerINS0_5audio13IPlayListenerEEESaIS5_ELN9__gnu_cxx12_Lock_policyE2EE=so_stub_for_libtelux_audio
-Wl,--defsym=_ZTISt23_Sp_counted_ptr_inplaceIN5telux6common15ListenerManagerINS0_5audio14IAudioListenerEEESaIS5_ELN9__gnu_cxx12_Lock_policyE2EE=so_stub_for_libtelux_audio
-Wl,--defsym=_ZTISt23_Sp_counted_ptr_inplaceIN5telux6common15ListenerManagerINS0_5audio14IVoiceListenerEEESaIS5_ELN9__gnu_cxx12_Lock_policyE2EE=so_stub_for_libtelux_audio
-Wl,--defsym=_ZTISt23_Sp_counted_ptr_inplaceIN5telux6common15ListenerManagerINS0_5audio18ITranscodeListenerEEESaIS5_ELN9__gnu_cxx12_Lock_policyE2EE=so_stub_for_libtelux_audio
-Wl,--defsym=_ZTISt23_Sp_counted_ptr_inplaceIN5telux6common18FunctionalCallbackIJNS0_5audio10StreamMuteENS1_9ErrorCodeEEEESaIS6_ELN9__gnu_cxx12_Lock_policyE2EE=so_stub_for_libtelux_audio
-Wl,--defsym=_ZTISt23_Sp_counted_ptr_inplaceIN5telux6common18FunctionalCallbackIJNS0_5audio12StreamVolumeENS1_9ErrorCodeEEEESaIS6_ELN9__gnu_cxx12_Lock_policyE2EE=so_stub_for_libtelux_audio
-Wl,--defsym=_ZTISt23_Sp_counted_ptr_inplaceIN5telux6common18FunctionalCallbackIJNS1_9ErrorCodeEEEESaIS4_ELN9__gnu_cxx12_Lock_policyE2EE=so_stub_for_libtelux_audio
-Wl,--defsym=_ZTISt23_Sp_counted_ptr_inplaceIN5telux6common18FunctionalCallbackIJRSt10shared_ptrINS0_5audio11ITranscoderEENS1_9ErrorCodeEEEESaIS9_ELN9__gnu_cxx12_Lock_policyE2EE=so_stub_for_libtelux_audio
-Wl,--defsym=_ZTISt23_Sp_counted_ptr_inplaceIN5telux6common18FunctionalCallbackIJRSt10shared_ptrINS0_5audio12IAudioStreamEENS1_9ErrorCodeEEEESaIS9_ELN9__gnu_cxx12_Lock_policyE2EE=so_stub_for_libtelux_audio
-Wl,--defsym=_ZTISt23_Sp_counted_ptr_inplaceIN5telux6common18FunctionalCallbackIJSt10shared_ptrINS0_5audio12IAudioBufferEEjNS1_9ErrorCodeEEEESaIS8_ELN9__gnu_cxx12_Lock_policyE2EE=so_stub_for_libtelux_audio
-Wl,--defsym=_ZTISt23_Sp_counted_ptr_inplaceIN5telux6common18FunctionalCallbackIJSt10shared_ptrINS0_5audio13IStreamBufferEEjNS1_9ErrorCodeEEEESaIS8_ELN9__gnu_cxx12_Lock_policyE2EE=so_stub_for_libtelux_audio
-Wl,--defsym=_ZTISt23_Sp_counted_ptr_inplaceIN5telux6common18FunctionalCallbackIJSt10shared_ptrINS0_5audio13IStreamBufferEENS1_9ErrorCodeEEEESaIS8_ELN9__gnu_cxx12_Lock_policyE2EE=so_stub_for_libtelux_audio
-Wl,--defsym=_ZTISt23_Sp_counted_ptr_inplaceIN5telux6common18FunctionalCallbackIJSt6vectorINS0_5audio10DeviceTypeESaIS5_EENS1_9ErrorCodeEEEESaIS9_ELN9__gnu_cxx12_Lock_policyE2EE=so_stub_for_libtelux_audio
-Wl,--defsym=_ZTISt23_Sp_counted_ptr_inplaceIN5telux6common18FunctionalCallbackIJSt6vectorINS0_5audio10StreamTypeESaIS5_EENS1_9ErrorCodeEEEESaIS9_ELN9__gnu_cxx12_Lock_policyE2EE=so_stub_for_libtelux_audio
-Wl,--defsym=_ZTISt23_Sp_counted_ptr_inplaceIN5telux6common18FunctionalCallbackIJSt6vectorISt10shared_ptrINS0_5audio12IAudioDeviceEESaIS7_EENS1_9ErrorCodeEEEESaISB_ELN9__gnu_cxx12_Lock_policyE2EE=so_stub_for_libtelux_audio
-Wl,--defsym=_ZTSN5telux3qmi12IQmiListenerE=so_stub_for_libtelux_audio
-Wl,--defsym=_ZTSN5telux3qmi19IQmiToneGenCallbackE=so_stub_for_libtelux_audio
-Wl,--defsym=_ZTSN5telux3qmi20IQmiDtmfToneCallbackE=so_stub_for_libtelux_audio
-Wl,--defsym=_ZTSN5telux3qmi20IQmiLoopbackCallbackE=so_stub_for_libtelux_audio
-Wl,--defsym=_ZTSN5telux3qmi21IQmiAudioPlayListenerE=so_stub_for_libtelux_audio
-Wl,--defsym=_ZTSN5telux3qmi22IQmiAudioVoiceListenerE=so_stub_for_libtelux_audio
-Wl,--defsym=_ZTSN5telux3qmi22IQmiStreamReadCallbackE=so_stub_for_libtelux_audio
-Wl,--defsym=_ZTSN5telux3qmi22IQmiStreamStopCallbackE=so_stub_for_libtelux_audio
-Wl,--defsym=_ZTSN5telux3qmi23IQmiStreamStartCallbackE=so_stub_for_libtelux_audio
-Wl,--defsym=_ZTSN5telux3qmi23IQmiStreamWriteCallbackE=so_stub_for_libtelux_audio
-Wl,--defsym=_ZTSN5telux3qmi24IQmiAudioServiceListenerE=so_stub_for_libtelux_audio
-Wl,--defsym=_ZTSN5telux3qmi24IQmiCreateStreamCallbackE=so_stub_for_libtelux_audio
-Wl,--defsym=_ZTSN5telux3qmi24IQmiDeleteStreamCallbackE=so_stub_for_libtelux_audio
-Wl,--defsym=_ZTSN5telux3qmi25IQmiLoadSubsystemCallbackE=so_stub_for_libtelux_audio
-Wl,--defsym=_ZTSN5telux3qmi25IQmiRegisterEventCallbackE=so_stub_for_libtelux_audio
-Wl,--defsym=_ZTSN5telux3qmi25IQmiStreamGetMuteCallbackE=so_stub_for_libtelux_audio
-Wl,--defsym=_ZTSN5telux3qmi25IQmiStreamSetMuteCallbackE=so_stub_for_libtelux_audio
-Wl,--defsym=_ZTSN5telux3qmi27IQmiPlayStreamDrainCallbackE=so_stub_for_libtelux_audio
-Wl,--defsym=_ZTSN5telux3qmi27IQmiPlayStreamFlushCallbackE=so_stub_for_libtelux_audio
-Wl,--defsym=_ZTSN5telux3qmi27IQmiStreamGetDeviceCallbackE=so_stub_for_libtelux_audio
-Wl,--defsym=_ZTSN5telux3qmi27IQmiStreamGetVolumeCallbackE=so_stub_for_libtelux_audio
-Wl,--defsym=_ZTSN5telux3qmi27IQmiStreamSetDeviceCallbackE=so_stub_for_libtelux_audio
-Wl,--defsym=_ZTSN5telux3qmi27IQmiStreamSetVolumeCallbackE=so_stub_for_libtelux_audio
-Wl,--defsym=_ZTSN5telux3qmi28IQmiCreateTranscoderCallbackE=so_stub_for_libtelux_audio
-Wl,--defsym=_ZTSN5telux3qmi30IQmiTranscoderTeardownCallbackE=so_stub_for_libtelux_audio
-Wl,--defsym=_ZTSN5telux3qmi31IQmiGetSupportedDevicesCallbackE=so_stub_for_libtelux_audio
-Wl,--defsym=_ZTSN5telux3qmi31IQmiGetSupportedStreamsCallbackE=so_stub_for_libtelux_audio
-Wl,--defsym=_ZTSN5telux5audio11ITranscoderE=so_stub_for_libtelux_audio
-Wl,--defsym=_ZTSN5telux5audio12IAudioBufferE=so_stub_for_libtelux_audio
-Wl,--defsym=_ZTSN5telux5audio12IAudioDeviceE=so_stub_for_libtelux_audio
-Wl,--defsym=_ZTSN5telux5audio12IAudioStreamE=so_stub_for_libtelux_audio
-Wl,--defsym=_ZTSN5telux5audio13IAudioManagerE=so_stub_for_libtelux_audio
-Wl,--defsym=_ZTSN5telux5audio13IStreamBufferE=so_stub_for_libtelux_audio
-Wl,--defsym=_ZTSN5telux5audio14TranscoderImplE=so_stub_for_libtelux_audio
-Wl,--defsym=_ZTSN5telux5audio15AudioBufferImplE=so_stub_for_libtelux_audio
-Wl,--defsym=_ZTSN5telux5audio15AudioDeviceImplE=so_stub_for_libtelux_audio
-Wl,--defsym=_ZTSN5telux5audio15AudioStreamImplE=so_stub_for_libtelux_audio
-Wl,--defsym=_ZTSN5telux5audio16AudioManagerImplE=so_stub_for_libtelux_audio
-Wl,--defsym=_ZTSN5telux5audio16IAudioPlayStreamE=so_stub_for_libtelux_audio
-Wl,--defsym=_ZTSN5telux5audio16StreamBufferImplE=so_stub_for_libtelux_audio
-Wl,--defsym=_ZTSN5telux5audio17IAudioVoiceStreamE=so_stub_for_libtelux_audio
-Wl,--defsym=_ZTSN5telux5audio19AudioPlayStreamImplE=so_stub_for_libtelux_audio
-Wl,--defsym=_ZTSN5telux5audio19IAudioCaptureStreamE=so_stub_for_libtelux_audio
-Wl,--defsym=_ZTSN5telux5audio20AudioVoiceStreamImplE=so_stub_for_libtelux_audio
-Wl,--defsym=_ZTSN5telux5audio20IAudioLoopbackStreamE=so_stub_for_libtelux_audio
-Wl,--defsym=_ZTSN5telux5audio22AudioCaptureStreamImplE=so_stub_for_libtelux_audio
-Wl,--defsym=_ZTSN5telux5audio23AudioLoopbackStreamImplE=so_stub_for_libtelux_audio
-Wl,--defsym=_ZTSN5telux5audio25IAudioToneGeneratorStreamE=so_stub_for_libtelux_audio
-Wl,--defsym=_ZTSN5telux5audio28AudioToneGeneratorStreamImplE=so_stub_for_libtelux_audio
-Wl,--defsym=_ZTSN5telux6common14SharedFromThisE=so_stub_for_libtelux_audio
-Wl,--defsym=_ZTSN5telux6common16ICommandCallbackE=so_stub_for_libtelux_audio
-Wl,--defsym=_ZTSN5telux6common18FunctionalCallbackIJNS0_9ErrorCodeEEEE=so_stub_for_libtelux_audio
-Wl,--defsym=_ZTSN5telux6common18FunctionalCallbackIJNS_5audio10StreamMuteENS0_9ErrorCodeEEEE=so_stub_for_libtelux_audio
-Wl,--defsym=_ZTSN5telux6common18FunctionalCallbackIJNS_5audio12StreamVolumeENS0_9ErrorCodeEEEE=so_stub_for_libtelux_audio
-Wl,--defsym=_ZTSN5telux6common18FunctionalCallbackIJRSt10shared_ptrINS_5audio11ITranscoderEENS0_9ErrorCodeEEEE=so_stub_for_libtelux_audio
-Wl,--defsym=_ZTSN5telux6common18FunctionalCallbackIJRSt10shared_ptrINS_5audio12IAudioStreamEENS0_9ErrorCodeEEEE=so_stub_for_libtelux_audio
-Wl,--defsym=_ZTSN5telux6common18FunctionalCallbackIJSt10shared_ptrINS_5audio12IAudioBufferEEjNS0_9ErrorCodeEEEE=so_stub_for_libtelux_audio
-Wl,--defsym=_ZTSN5telux6common18FunctionalCallbackIJSt10shared_ptrINS_5audio13IStreamBufferEEjNS0_9ErrorCodeEEEE=so_stub_for_libtelux_audio
-Wl,--defsym=_ZTSN5telux6common18FunctionalCallbackIJSt10shared_ptrINS_5audio13IStreamBufferEENS0_9ErrorCodeEEEE=so_stub_for_libtelux_audio
-Wl,--defsym=_ZTSN5telux6common18FunctionalCallbackIJSt6vectorINS_5audio10DeviceTypeESaIS4_EENS0_9ErrorCodeEEEE=so_stub_for_libtelux_audio
-Wl,--defsym=_ZTSN5telux6common18FunctionalCallbackIJSt6vectorINS_5audio10StreamTypeESaIS4_EENS0_9ErrorCodeEEEE=so_stub_for_libtelux_audio
-Wl,--defsym=_ZTSN5telux6common18FunctionalCallbackIJSt6vectorISt10shared_ptrINS_5audio12IAudioDeviceEESaIS6_EENS0_9ErrorCodeEEEE=so_stub_for_libtelux_audio
-Wl,--defsym=_ZTSN5telux6common35enable_inheritable_shared_from_thisINS_5audio15AudioStreamImplEEE=so_stub_for_libtelux_audio
-Wl,--defsym=_ZTSNSt13__future_base13_State_baseV2E=so_stub_for_libtelux_audio
-Wl,--defsym=_ZTSNSt13__future_base21_Async_state_commonV2E=so_stub_for_libtelux_audio
-Wl,--defsym=_ZTSNSt13__future_base7_ResultIbEE=so_stub_for_libtelux_audio
-Wl,--defsym=_ZTSNSt13__future_base7_ResultIvEE=so_stub_for_libtelux_audio
-Wl,--defsym=_ZTSSt11_Mutex_baseILN9__gnu_cxx12_Lock_policyE2EE=so_stub_for_libtelux_audio
-Wl,--defsym=_ZTSSt16_Sp_counted_baseILN9__gnu_cxx12_Lock_policyE2EE=so_stub_for_libtelux_audio
-Wl,--defsym=_ZTSSt19_Sp_make_shared_tag=so_stub_for_libtelux_audio
-Wl,--defsym=_ZTSSt23enable_shared_from_thisIN5telux5audio14TranscoderImplEE=so_stub_for_libtelux_audio
-Wl,--defsym=_ZTSSt23enable_shared_from_thisIN5telux5audio15AudioDeviceImplEE=so_stub_for_libtelux_audio
-Wl,--defsym=_ZTSSt23enable_shared_from_thisIN5telux5audio16AudioManagerImplEE=so_stub_for_libtelux_audio
-Wl,--defsym=_ZTSSt23enable_shared_from_thisIN5telux6common14SharedFromThisEE=so_stub_for_libtelux_audio
-Wl,--defsym=_ZTSSt23_Sp_counted_ptr_inplaceIN5telux5audio14TranscoderImplESaIS2_ELN9__gnu_cxx12_Lock_policyE2EE=so_stub_for_libtelux_audio
-Wl,--defsym=_ZTSSt23_Sp_counted_ptr_inplaceIN5telux5audio15AudioBufferImplESaIS2_ELN9__gnu_cxx12_Lock_policyE2EE=so_stub_for_libtelux_audio
-Wl,--defsym=_ZTSSt23_Sp_counted_ptr_inplaceIN5telux5audio15AudioDeviceImplESaIS2_ELN9__gnu_cxx12_Lock_policyE2EE=so_stub_for_libtelux_audio
-Wl,--defsym=_ZTSSt23_Sp_counted_ptr_inplaceIN5telux5audio16AudioManagerImplESaIS2_ELN9__gnu_cxx12_Lock_policyE2EE=so_stub_for_libtelux_audio
-Wl,--defsym=_ZTSSt23_Sp_counted_ptr_inplaceIN5telux5audio16StreamBufferImplESaIS2_ELN9__gnu_cxx12_Lock_policyE2EE=so_stub_for_libtelux_audio
-Wl,--defsym=_ZTSSt23_Sp_counted_ptr_inplaceIN5telux5audio19AudioPlayStreamImplESaIS2_ELN9__gnu_cxx12_Lock_policyE2EE=so_stub_for_libtelux_audio
-Wl,--defsym=_ZTSSt23_Sp_counted_ptr_inplaceIN5telux5audio20AudioVoiceStreamImplESaIS2_ELN9__gnu_cxx12_Lock_policyE2EE=so_stub_for_libtelux_audio
-Wl,--defsym=_ZTSSt23_Sp_counted_ptr_inplaceIN5telux5audio22AudioCaptureStreamImplESaIS2_ELN9__gnu_cxx12_Lock_policyE2EE=so_stub_for_libtelux_audio
-Wl,--defsym=_ZTSSt23_Sp_counted_ptr_inplaceIN5telux5audio23AudioLoopbackStreamImplESaIS2_ELN9__gnu_cxx12_Lock_policyE2EE=so_stub_for_libtelux_audio
-Wl,--defsym=_ZTSSt23_Sp_counted_ptr_inplaceIN5telux5audio28AudioToneGeneratorStreamImplESaIS2_ELN9__gnu_cxx12_Lock_policyE2EE=so_stub_for_libtelux_audio
-Wl,--defsym=_ZTSSt23_Sp_counted_ptr_inplaceIN5telux6common15ListenerManagerINS0_5audio13IPlayListenerEEESaIS5_ELN9__gnu_cxx12_Lock_policyE2EE=so_stub_for_libtelux_audio
-Wl,--defsym=_ZTSSt23_Sp_counted_ptr_inplaceIN5telux6common15ListenerManagerINS0_5audio14IAudioListenerEEESaIS5_ELN9__gnu_cxx12_Lock_policyE2EE=so_stub_for_libtelux_audio
-Wl,--defsym=_ZTSSt23_Sp_counted_ptr_inplaceIN5telux6common15ListenerManagerINS0_5audio14IVoiceListenerEEESaIS5_ELN9__gnu_cxx12_Lock_policyE2EE=so_stub_for_libtelux_audio
-Wl,--defsym=_ZTSSt23_Sp_counted_ptr_inplaceIN5telux6common15ListenerManagerINS0_5audio18ITranscodeListenerEEESaIS5_ELN9__gnu_cxx12_Lock_policyE2EE=so_stub_for_libtelux_audio
-Wl,--defsym=_ZTSSt23_Sp_counted_ptr_inplaceIN5telux6common18FunctionalCallbackIJNS0_5audio10StreamMuteENS1_9ErrorCodeEEEESaIS6_ELN9__gnu_cxx12_Lock_policyE2EE=so_stub_for_libtelux_audio
-Wl,--defsym=_ZTSSt23_Sp_counted_ptr_inplaceIN5telux6common18FunctionalCallbackIJNS0_5audio12StreamVolumeENS1_9ErrorCodeEEEESaIS6_ELN9__gnu_cxx12_Lock_policyE2EE=so_stub_for_libtelux_audio
-Wl,--defsym=_ZTSSt23_Sp_counted_ptr_inplaceIN5telux6common18FunctionalCallbackIJNS1_9ErrorCodeEEEESaIS4_ELN9__gnu_cxx12_Lock_policyE2EE=so_stub_for_libtelux_audio
-Wl,--defsym=_ZTSSt23_Sp_counted_ptr_inplaceIN5telux6common18FunctionalCallbackIJRSt10shared_ptrINS0_5audio11ITranscoderEENS1_9ErrorCodeEEEESaIS9_ELN9__gnu_cxx12_Lock_policyE2EE=so_stub_for_libtelux_audio
-Wl,--defsym=_ZTSSt23_Sp_counted_ptr_inplaceIN5telux6common18FunctionalCallbackIJRSt10shared_ptrINS0_5audio12IAudioStreamEENS1_9ErrorCodeEEEESaIS9_ELN9__gnu_cxx12_Lock_policyE2EE=so_stub_for_libtelux_audio
-Wl,--defsym=_ZTSSt23_Sp_counted_ptr_inplaceIN5telux6common18FunctionalCallbackIJSt10shared_ptrINS0_5audio12IAudioBufferEEjNS1_9ErrorCodeEEEESaIS8_ELN9__gnu_cxx12_Lock_policyE2EE=so_stub_for_libtelux_audio
-Wl,--defsym=_ZTSSt23_Sp_counted_ptr_inplaceIN5telux6common18FunctionalCallbackIJSt10shared_ptrINS0_5audio13IStreamBufferEEjNS1_9ErrorCodeEEEESaIS8_ELN9__gnu_cxx12_Lock_policyE2EE=so_stub_for_libtelux_audio
-Wl,--defsym=_ZTSSt23_Sp_counted_ptr_inplaceIN5telux6common18FunctionalCallbackIJSt10shared_ptrINS0_5audio13IStreamBufferEENS1_9ErrorCodeEEEESaIS8_ELN9__gnu_cxx12_Lock_policyE2EE=so_stub_for_libtelux_audio
-Wl,--defsym=_ZTSSt23_Sp_counted_ptr_inplaceIN5telux6common18FunctionalCallbackIJSt6vectorINS0_5audio10DeviceTypeESaIS5_EENS1_9ErrorCodeEEEESaIS9_ELN9__gnu_cxx12_Lock_policyE2EE=so_stub_for_libtelux_audio
-Wl,--defsym=_ZTSSt23_Sp_counted_ptr_inplaceIN5telux6common18FunctionalCallbackIJSt6vectorINS0_5audio10StreamTypeESaIS5_EENS1_9ErrorCodeEEEESaIS9_ELN9__gnu_cxx12_Lock_policyE2EE=so_stub_for_libtelux_audio
-Wl,--defsym=_ZTSSt23_Sp_counted_ptr_inplaceIN5telux6common18FunctionalCallbackIJSt6vectorISt10shared_ptrINS0_5audio12IAudioDeviceEESaIS7_EENS1_9ErrorCodeEEEESaISB_ELN9__gnu_cxx12_Lock_policyE2EE=so_stub_for_libtelux_audio
-Wl,--defsym=_ZTTN5telux5audio15AudioBufferImplE=so_stub_for_libtelux_audio
-Wl,--defsym=_ZTTN5telux5audio15AudioStreamImplE=so_stub_for_libtelux_audio
-Wl,--defsym=_ZTTN5telux5audio16StreamBufferImplE=so_stub_for_libtelux_audio
-Wl,--defsym=_ZTTN5telux5audio19AudioPlayStreamImplE=so_stub_for_libtelux_audio
-Wl,--defsym=_ZTTN5telux5audio20AudioVoiceStreamImplE=so_stub_for_libtelux_audio
-Wl,--defsym=_ZTTN5telux5audio22AudioCaptureStreamImplE=so_stub_for_libtelux_audio
-Wl,--defsym=_ZTTN5telux5audio23AudioLoopbackStreamImplE=so_stub_for_libtelux_audio
-Wl,--defsym=_ZTTN5telux5audio28AudioToneGeneratorStreamImplE=so_stub_for_libtelux_audio
-Wl,--defsym=_ZTv0_n12_N5telux5audio15AudioBufferImpl10getMinSizeEv=so_stub_for_libtelux_audio
-Wl,--defsym=_ZTv0_n12_N5telux5audio15AudioStreamImpl7getTypeEv=so_stub_for_libtelux_audio
-Wl,--defsym=_ZTv0_n12_N5telux5audio15AudioStreamImplD0Ev=so_stub_for_libtelux_audio
-Wl,--defsym=_ZTv0_n12_N5telux5audio15AudioStreamImplD1Ev=so_stub_for_libtelux_audio
-Wl,--defsym=_ZTv0_n12_N5telux5audio19AudioPlayStreamImplD0Ev=so_stub_for_libtelux_audio
-Wl,--defsym=_ZTv0_n12_N5telux5audio19AudioPlayStreamImplD1Ev=so_stub_for_libtelux_audio
-Wl,--defsym=_ZTv0_n12_N5telux5audio20AudioVoiceStreamImplD0Ev=so_stub_for_libtelux_audio
-Wl,--defsym=_ZTv0_n12_N5telux5audio20AudioVoiceStreamImplD1Ev=so_stub_for_libtelux_audio
-Wl,--defsym=_ZTv0_n12_N5telux5audio22AudioCaptureStreamImplD0Ev=so_stub_for_libtelux_audio
-Wl,--defsym=_ZTv0_n12_N5telux5audio22AudioCaptureStreamImplD1Ev=so_stub_for_libtelux_audio
-Wl,--defsym=_ZTv0_n12_N5telux5audio23AudioLoopbackStreamImplD0Ev=so_stub_for_libtelux_audio
-Wl,--defsym=_ZTv0_n12_N5telux5audio23AudioLoopbackStreamImplD1Ev=so_stub_for_libtelux_audio
-Wl,--defsym=_ZTv0_n12_N5telux5audio28AudioToneGeneratorStreamImplD0Ev=so_stub_for_libtelux_audio
-Wl,--defsym=_ZTv0_n12_N5telux5audio28AudioToneGeneratorStreamImplD1Ev=so_stub_for_libtelux_audio
-Wl,--defsym=_ZTv0_n16_N5telux5audio15AudioBufferImpl10getMaxSizeEv=so_stub_for_libtelux_audio
-Wl,--defsym=_ZTv0_n16_N5telux5audio15AudioStreamImpl9setDeviceESt6vectorINS0_10DeviceTypeESaIS3_EESt8functionIFvNS_6common9ErrorCodeEEE=so_stub_for_libtelux_audio
-Wl,--defsym=_ZTv0_n20_N5telux5audio15AudioBufferImpl12getRawBufferEv=so_stub_for_libtelux_audio
-Wl,--defsym=_ZTv0_n20_N5telux5audio15AudioStreamImpl9getDeviceESt8functionIFvSt6vectorINS0_10DeviceTypeESaIS4_EENS_6common9ErrorCodeEEE=so_stub_for_libtelux_audio
-Wl,--defsym=_ZTv0_n24_N5telux5audio15AudioBufferImpl11getDataSizeEv=so_stub_for_libtelux_audio
-Wl,--defsym=_ZTv0_n24_N5telux5audio15AudioStreamImpl9setVolumeENS0_12StreamVolumeESt8functionIFvNS_6common9ErrorCodeEEE=so_stub_for_libtelux_audio
-Wl,--defsym=_ZTv0_n28_N5telux5audio15AudioBufferImpl11setDataSizeEj=so_stub_for_libtelux_audio
-Wl,--defsym=_ZTv0_n28_N5telux5audio15AudioStreamImpl9getVolumeENS0_15StreamDirectionESt8functionIFvNS0_12StreamVolumeENS_6common9ErrorCodeEEE=so_stub_for_libtelux_audio
-Wl,--defsym=_ZTv0_n32_N5telux5audio15AudioBufferImpl5resetEv=so_stub_for_libtelux_audio
-Wl,--defsym=_ZTv0_n32_N5telux5audio15AudioStreamImpl7setMuteENS0_10StreamMuteESt8functionIFvNS_6common9ErrorCodeEEE=so_stub_for_libtelux_audio
-Wl,--defsym=_ZTv0_n36_N5telux5audio15AudioBufferImplD0Ev=so_stub_for_libtelux_audio
-Wl,--defsym=_ZTv0_n36_N5telux5audio15AudioBufferImplD1Ev=so_stub_for_libtelux_audio
-Wl,--defsym=_ZTv0_n36_N5telux5audio15AudioStreamImpl7getMuteENS0_15StreamDirectionESt8functionIFvNS0_10StreamMuteENS_6common9ErrorCodeEEE=so_stub_for_libtelux_audio
-Wl,--defsym=_ZTv0_n36_N5telux5audio16StreamBufferImplD0Ev=so_stub_for_libtelux_audio
-Wl,--defsym=_ZTv0_n36_N5telux5audio16StreamBufferImplD1Ev=so_stub_for_libtelux_audio
-Wl,--defsym=_ZTVN5telux3qmi19IQmiToneGenCallbackE=so_stub_for_libtelux_audio
-Wl,--defsym=_ZTVN5telux3qmi20IQmiDtmfToneCallbackE=so_stub_for_libtelux_audio
-Wl,--defsym=_ZTVN5telux3qmi20IQmiLoopbackCallbackE=so_stub_for_libtelux_audio
-Wl,--defsym=_ZTVN5telux3qmi21IQmiAudioPlayListenerE=so_stub_for_libtelux_audio
-Wl,--defsym=_ZTVN5telux3qmi22IQmiAudioVoiceListenerE=so_stub_for_libtelux_audio
-Wl,--defsym=_ZTVN5telux3qmi22IQmiStreamReadCallbackE=so_stub_for_libtelux_audio
-Wl,--defsym=_ZTVN5telux3qmi22IQmiStreamStopCallbackE=so_stub_for_libtelux_audio
-Wl,--defsym=_ZTVN5telux3qmi23IQmiStreamStartCallbackE=so_stub_for_libtelux_audio
-Wl,--defsym=_ZTVN5telux3qmi23IQmiStreamWriteCallbackE=so_stub_for_libtelux_audio
-Wl,--defsym=_ZTVN5telux3qmi25IQmiRegisterEventCallbackE=so_stub_for_libtelux_audio
-Wl,--defsym=_ZTVN5telux3qmi25IQmiStreamGetMuteCallbackE=so_stub_for_libtelux_audio
-Wl,--defsym=_ZTVN5telux3qmi25IQmiStreamSetMuteCallbackE=so_stub_for_libtelux_audio
-Wl,--defsym=_ZTVN5telux3qmi27IQmiPlayStreamDrainCallbackE=so_stub_for_libtelux_audio
-Wl,--defsym=_ZTVN5telux3qmi27IQmiPlayStreamFlushCallbackE=so_stub_for_libtelux_audio
-Wl,--defsym=_ZTVN5telux3qmi27IQmiStreamGetDeviceCallbackE=so_stub_for_libtelux_audio
-Wl,--defsym=_ZTVN5telux3qmi27IQmiStreamGetVolumeCallbackE=so_stub_for_libtelux_audio
-Wl,--defsym=_ZTVN5telux3qmi27IQmiStreamSetDeviceCallbackE=so_stub_for_libtelux_audio
-Wl,--defsym=_ZTVN5telux3qmi27IQmiStreamSetVolumeCallbackE=so_stub_for_libtelux_audio
-Wl,--defsym=_ZTVN5telux5audio14TranscoderImplE=so_stub_for_libtelux_audio
-Wl,--defsym=_ZTVN5telux5audio15AudioBufferImplE=so_stub_for_libtelux_audio
-Wl,--defsym=_ZTVN5telux5audio15AudioDeviceImplE=so_stub_for_libtelux_audio
-Wl,--defsym=_ZTVN5telux5audio15AudioStreamImplE=so_stub_for_libtelux_audio
-Wl,--defsym=_ZTVN5telux5audio16AudioManagerImplE=so_stub_for_libtelux_audio
-Wl,--defsym=_ZTVN5telux5audio16StreamBufferImplE=so_stub_for_libtelux_audio
-Wl,--defsym=_ZTVN5telux5audio19AudioPlayStreamImplE=so_stub_for_libtelux_audio
-Wl,--defsym=_ZTVN5telux5audio20AudioVoiceStreamImplE=so_stub_for_libtelux_audio
-Wl,--defsym=_ZTVN5telux5audio22AudioCaptureStreamImplE=so_stub_for_libtelux_audio
-Wl,--defsym=_ZTVN5telux5audio23AudioLoopbackStreamImplE=so_stub_for_libtelux_audio
-Wl,--defsym=_ZTVN5telux5audio28AudioToneGeneratorStreamImplE=so_stub_for_libtelux_audio
-Wl,--defsym=_ZTVN5telux6common14SharedFromThisE=so_stub_for_libtelux_audio
-Wl,--defsym=_ZTVN5telux6common18FunctionalCallbackIJNS0_9ErrorCodeEEEE=so_stub_for_libtelux_audio
-Wl,--defsym=_ZTVN5telux6common18FunctionalCallbackIJNS_5audio10StreamMuteENS0_9ErrorCodeEEEE=so_stub_for_libtelux_audio
-Wl,--defsym=_ZTVN5telux6common18FunctionalCallbackIJNS_5audio12StreamVolumeENS0_9ErrorCodeEEEE=so_stub_for_libtelux_audio
-Wl,--defsym=_ZTVN5telux6common18FunctionalCallbackIJRSt10shared_ptrINS_5audio11ITranscoderEENS0_9ErrorCodeEEEE=so_stub_for_libtelux_audio
-Wl,--defsym=_ZTVN5telux6common18FunctionalCallbackIJRSt10shared_ptrINS_5audio12IAudioStreamEENS0_9ErrorCodeEEEE=so_stub_for_libtelux_audio
-Wl,--defsym=_ZTVN5telux6common18FunctionalCallbackIJSt10shared_ptrINS_5audio12IAudioBufferEEjNS0_9ErrorCodeEEEE=so_stub_for_libtelux_audio
-Wl,--defsym=_ZTVN5telux6common18FunctionalCallbackIJSt10shared_ptrINS_5audio13IStreamBufferEEjNS0_9ErrorCodeEEEE=so_stub_for_libtelux_audio
-Wl,--defsym=_ZTVN5telux6common18FunctionalCallbackIJSt10shared_ptrINS_5audio13IStreamBufferEENS0_9ErrorCodeEEEE=so_stub_for_libtelux_audio
-Wl,--defsym=_ZTVN5telux6common18FunctionalCallbackIJSt6vectorINS_5audio10DeviceTypeESaIS4_EENS0_9ErrorCodeEEEE=so_stub_for_libtelux_audio
-Wl,--defsym=_ZTVN5telux6common18FunctionalCallbackIJSt6vectorINS_5audio10StreamTypeESaIS4_EENS0_9ErrorCodeEEEE=so_stub_for_libtelux_audio
-Wl,--defsym=_ZTVN5telux6common18FunctionalCallbackIJSt6vectorISt10shared_ptrINS_5audio12IAudioDeviceEESaIS6_EENS0_9ErrorCodeEEEE=so_stub_for_libtelux_audio
-Wl,--defsym=_ZTVNSt13__future_base13_State_baseV2E=so_stub_for_libtelux_audio
-Wl,--defsym=_ZTVNSt13__future_base21_Async_state_commonV2E=so_stub_for_libtelux_audio
-Wl,--defsym=_ZTVNSt13__future_base7_ResultIbEE=so_stub_for_libtelux_audio
-Wl,--defsym=_ZTVNSt13__future_base7_ResultIvEE=so_stub_for_libtelux_audio
-Wl,--defsym=_ZTVSt23_Sp_counted_ptr_inplaceIN5telux5audio14TranscoderImplESaIS2_ELN9__gnu_cxx12_Lock_policyE2EE=so_stub_for_libtelux_audio
-Wl,--defsym=_ZTVSt23_Sp_counted_ptr_inplaceIN5telux5audio15AudioBufferImplESaIS2_ELN9__gnu_cxx12_Lock_policyE2EE=so_stub_for_libtelux_audio
-Wl,--defsym=_ZTVSt23_Sp_counted_ptr_inplaceIN5telux5audio15AudioDeviceImplESaIS2_ELN9__gnu_cxx12_Lock_policyE2EE=so_stub_for_libtelux_audio
-Wl,--defsym=_ZTVSt23_Sp_counted_ptr_inplaceIN5telux5audio16AudioManagerImplESaIS2_ELN9__gnu_cxx12_Lock_policyE2EE=so_stub_for_libtelux_audio
-Wl,--defsym=_ZTVSt23_Sp_counted_ptr_inplaceIN5telux5audio16StreamBufferImplESaIS2_ELN9__gnu_cxx12_Lock_policyE2EE=so_stub_for_libtelux_audio
-Wl,--defsym=_ZTVSt23_Sp_counted_ptr_inplaceIN5telux5audio19AudioPlayStreamImplESaIS2_ELN9__gnu_cxx12_Lock_policyE2EE=so_stub_for_libtelux_audio
-Wl,--defsym=_ZTVSt23_Sp_counted_ptr_inplaceIN5telux5audio20AudioVoiceStreamImplESaIS2_ELN9__gnu_cxx12_Lock_policyE2EE=so_stub_for_libtelux_audio
-Wl,--defsym=_ZTVSt23_Sp_counted_ptr_inplaceIN5telux5audio22AudioCaptureStreamImplESaIS2_ELN9__gnu_cxx12_Lock_policyE2EE=so_stub_for_libtelux_audio
-Wl,--defsym=_ZTVSt23_Sp_counted_ptr_inplaceIN5telux5audio23AudioLoopbackStreamImplESaIS2_ELN9__gnu_cxx12_Lock_policyE2EE=so_stub_for_libtelux_audio
-Wl,--defsym=_ZTVSt23_Sp_counted_ptr_inplaceIN5telux5audio28AudioToneGeneratorStreamImplESaIS2_ELN9__gnu_cxx12_Lock_policyE2EE=so_stub_for_libtelux_audio
-Wl,--defsym=_ZTVSt23_Sp_counted_ptr_inplaceIN5telux6common15ListenerManagerINS0_5audio13IPlayListenerEEESaIS5_ELN9__gnu_cxx12_Lock_policyE2EE=so_stub_for_libtelux_audio
-Wl,--defsym=_ZTVSt23_Sp_counted_ptr_inplaceIN5telux6common15ListenerManagerINS0_5audio14IAudioListenerEEESaIS5_ELN9__gnu_cxx12_Lock_policyE2EE=so_stub_for_libtelux_audio
-Wl,--defsym=_ZTVSt23_Sp_counted_ptr_inplaceIN5telux6common15ListenerManagerINS0_5audio14IVoiceListenerEEESaIS5_ELN9__gnu_cxx12_Lock_policyE2EE=so_stub_for_libtelux_audio
-Wl,--defsym=_ZTVSt23_Sp_counted_ptr_inplaceIN5telux6common15ListenerManagerINS0_5audio18ITranscodeListenerEEESaIS5_ELN9__gnu_cxx12_Lock_policyE2EE=so_stub_for_libtelux_audio
-Wl,--defsym=_ZTVSt23_Sp_counted_ptr_inplaceIN5telux6common18FunctionalCallbackIJNS0_5audio10StreamMuteENS1_9ErrorCodeEEEESaIS6_ELN9__gnu_cxx12_Lock_policyE2EE=so_stub_for_libtelux_audio
-Wl,--defsym=_ZTVSt23_Sp_counted_ptr_inplaceIN5telux6common18FunctionalCallbackIJNS0_5audio12StreamVolumeENS1_9ErrorCodeEEEESaIS6_ELN9__gnu_cxx12_Lock_policyE2EE=so_stub_for_libtelux_audio
-Wl,--defsym=_ZTVSt23_Sp_counted_ptr_inplaceIN5telux6common18FunctionalCallbackIJNS1_9ErrorCodeEEEESaIS4_ELN9__gnu_cxx12_Lock_policyE2EE=so_stub_for_libtelux_audio
-Wl,--defsym=_ZTVSt23_Sp_counted_ptr_inplaceIN5telux6common18FunctionalCallbackIJRSt10shared_ptrINS0_5audio11ITranscoderEENS1_9ErrorCodeEEEESaIS9_ELN9__gnu_cxx12_Lock_policyE2EE=so_stub_for_libtelux_audio
-Wl,--defsym=_ZTVSt23_Sp_counted_ptr_inplaceIN5telux6common18FunctionalCallbackIJRSt10shared_ptrINS0_5audio12IAudioStreamEENS1_9ErrorCodeEEEESaIS9_ELN9__gnu_cxx12_Lock_policyE2EE=so_stub_for_libtelux_audio
-Wl,--defsym=_ZTVSt23_Sp_counted_ptr_inplaceIN5telux6common18FunctionalCallbackIJSt10shared_ptrINS0_5audio12IAudioBufferEEjNS1_9ErrorCodeEEEESaIS8_ELN9__gnu_cxx12_Lock_policyE2EE=so_stub_for_libtelux_audio
-Wl,--defsym=_ZTVSt23_Sp_counted_ptr_inplaceIN5telux6common18FunctionalCallbackIJSt10shared_ptrINS0_5audio13IStreamBufferEEjNS1_9ErrorCodeEEEESaIS8_ELN9__gnu_cxx12_Lock_policyE2EE=so_stub_for_libtelux_audio
-Wl,--defsym=_ZTVSt23_Sp_counted_ptr_inplaceIN5telux6common18FunctionalCallbackIJSt10shared_ptrINS0_5audio13IStreamBufferEENS1_9ErrorCodeEEEESaIS8_ELN9__gnu_cxx12_Lock_policyE2EE=so_stub_for_libtelux_audio
-Wl,--defsym=_ZTVSt23_Sp_counted_ptr_inplaceIN5telux6common18FunctionalCallbackIJSt6vectorINS0_5audio10DeviceTypeESaIS5_EENS1_9ErrorCodeEEEESaIS9_ELN9__gnu_cxx12_Lock_policyE2EE=so_stub_for_libtelux_audio
-Wl,--defsym=_ZTVSt23_Sp_counted_ptr_inplaceIN5telux6common18FunctionalCallbackIJSt6vectorINS0_5audio10StreamTypeESaIS5_EENS1_9ErrorCodeEEEESaIS9_ELN9__gnu_cxx12_Lock_policyE2EE=so_stub_for_libtelux_audio
-Wl,--defsym=_ZTVSt23_Sp_counted_ptr_inplaceIN5telux6common18FunctionalCallbackIJSt6vectorISt10shared_ptrINS0_5audio12IAudioDeviceEESaIS7_EENS1_9ErrorCodeEEEESaISB_ELN9__gnu_cxx12_Lock_policyE2EE=so_stub_for_libtelux_audio
-Wl,--defsym=_ZZSt9call_onceIMNSt13__future_base13_State_baseV2EFvPSt8functionIFSt10unique_ptrINS0_12_Result_baseENS4_8_DeleterEEvEEPbEJPS1_S9_SA_EEvRSt9once_flagOT_DpOT0_ENKUlvE0_clEv=so_stub_for_libtelux_audio
-Wl,--defsym=_ZZSt9call_onceIMNSt13__future_base13_State_baseV2EFvPSt8functionIFSt10unique_ptrINS0_12_Result_baseENS4_8_DeleterEEvEEPbEJPS1_S9_SA_EEvRSt9once_flagOT_DpOT0_ENUlvE0_4_FUNEv=so_stub_for_libtelux_audio
-Wl,--defsym=_ZZSt9call_onceIMSt6threadFvvEJPS0_EEvRSt9once_flagOT_DpOT0_ENKUlvE0_clEv=so_stub_for_libtelux_audio
-Wl,--defsym=_ZZSt9call_onceIMSt6threadFvvEJPS0_EEvRSt9once_flagOT_DpOT0_ENUlvE0_4_FUNEv=so_stub_for_libtelux_audio
