-Wl,--defsym=__gcov_error_file=so_stub_for_libtelux_data
-Wl,--defsym=__gcov_master=so_stub_for_libtelux_data
-Wl,--defsym=__gcov_sort_n_vals=so_stub_for_libtelux_data
-Wl,--defsym=__gcov_var=so_stub_for_libtelux_data
-Wl,--defsym=_ZN5telux3qmi15IQmiWdsListener15onProfileUpdateEP31wds_profile_changed_ind_msg_v01=so_stub_for_libtelux_data
-Wl,--defsym=_ZN5telux3qmi15IQmiWdsListener17onV2xSrcL2InfoIndERK31wds_v2x_src_l2_info_ind_msg_v01=so_stub_for_libtelux_data
-Wl,--defsym=_ZN5telux3qmi15IQmiWdsListener18onPktSrvcStatusIndERK31wds_pkt_srvc_status_ind_msg_v01=so_stub_for_libtelux_data
-Wl,--defsym=_ZN5telux3qmi15IQmiWdsListener20onV2xConfigChangeIndERK34wds_v2x_config_changed_ind_msg_v01=so_stub_for_libtelux_data
-Wl,--defsym=_ZN5telux3qmi15IQmiWdsListener22onV2xCapabilityInfoIndERK35wds_v2x_capability_info_ind_msg_v01=so_stub_for_libtelux_data
-Wl,--defsym=_ZN5telux3qmi15IQmiWdsListener22onV2xSendConfigFileIndERK43wds_v2x_send_config_file_result_ind_msg_v01=so_stub_for_libtelux_data
-Wl,--defsym=_ZN5telux3qmi15IQmiWdsListener24onV2xGetConfigurationIndERK31wds_v2x_config_file_ind_msg_v01=so_stub_for_libtelux_data
-Wl,--defsym=_ZN5telux3qmi15IQmiWdsListener24onV2xSpsFlowRegResultIndERK39wds_v2x_sps_flow_reg_result_ind_msg_v01=so_stub_for_libtelux_data
-Wl,--defsym=_ZN5telux3qmi15IQmiWdsListener24onWdsServiceStatusChangeENS_6common13ServiceStatusE=so_stub_for_libtelux_data
-Wl,--defsym=_ZN5telux3qmi15IQmiWdsListener25onV2xSpsSchedulingInfoIndERK39wds_v2x_sps_scheduling_info_ind_msg_v01=so_stub_for_libtelux_data
-Wl,--defsym=_ZN5telux3qmi15IQmiWdsListener26onV2xSpsFlowDeregResultIndERK41wds_v2x_sps_flow_dereg_result_ind_msg_v01=so_stub_for_libtelux_data
-Wl,--defsym=_ZN5telux3qmi15IQmiWdsListener27onV2xSpsFlowUpdateResultIndERK42wds_v2x_sps_flow_update_result_ind_msg_v01=so_stub_for_libtelux_data
-Wl,--defsym=_ZN5telux3qmi15IQmiWdsListener30onV2xServiceSubscribeResultIndERK44wds_v2x_service_subscribe_result_ind_msg_v01=so_stub_for_libtelux_data
-Wl,--defsym=_ZN5telux3qmi16QmiProfileParamsD1Ev=so_stub_for_libtelux_data
-Wl,--defsym=_ZN5telux3qmi16QmiProfileParamsD2Ev=so_stub_for_libtelux_data
-Wl,--defsym=_ZN5telux4data10DataHelper14convertAddressERKNSt7__cxx1112basic_stringIcSt11char_traitsIcESaIcEEEPh=so_stub_for_libtelux_data
-Wl,--defsym=_ZN5telux4data10DataHelper18converAddrToStringEiPjPc=so_stub_for_libtelux_data
-Wl,--defsym=_ZN5telux4data10DataHelper18isValidIpv4AddressERKNSt7__cxx1112basic_stringIcSt11char_traitsIcESaIcEEE=so_stub_for_libtelux_data
-Wl,--defsym=_ZN5telux4data10DataHelper18isValidIpv6AddressERKNSt7__cxx1112basic_stringIcSt11char_traitsIcESaIcEEE=so_stub_for_libtelux_data
-Wl,--defsym=_ZN5telux4data10DataHelper18logDataCallDetailsENS0_14DataCallStatusEi6SlotIdNS0_17DataCallEndReasonENSt7__cxx1112basic_stringIcSt11char_traitsIcESaIcEEENS5_4listINS0_10IpAddrInfoESaISC_EEENS0_20DataBearerTechnologyE=so_stub_for_libtelux_data
-Wl,--defsym=_ZN5telux4data10DataHelper22qmiToDataCallEndReasonEii=so_stub_for_libtelux_data
-Wl,--defsym=_ZN5telux4data10DataHelper25callEndReasonTypeToStringB5cxx11ENS0_13EndReasonTypeE=so_stub_for_libtelux_data
-Wl,--defsym=_ZN5telux4data10IpAddrInfoaSERKS1_=so_stub_for_libtelux_data
-Wl,--defsym=_ZN5telux4data10IpAddrInfoC1ERKS1_=so_stub_for_libtelux_data
-Wl,--defsym=_ZN5telux4data10IpAddrInfoC2ERKS1_=so_stub_for_libtelux_data
-Wl,--defsym=_ZN5telux4data10IpAddrInfoD1Ev=so_stub_for_libtelux_data
-Wl,--defsym=_ZN5telux4data10IpAddrInfoD2Ev=so_stub_for_libtelux_data
-Wl,--defsym=_ZN5telux4data11DataFactory11getInstanceEv=so_stub_for_libtelux_data
-Wl,--defsym=_ZN5telux4data11DataFactory13getNatManagerENS0_13OperationTypeE=so_stub_for_libtelux_data
-Wl,--defsym=_ZN5telux4data11DataFactory14getL2tpManagerEv=so_stub_for_libtelux_data
-Wl,--defsym=_ZN5telux4data11DataFactory14getNewIpFilterEh=so_stub_for_libtelux_data
-Wl,--defsym=_ZN5telux4data11DataFactory14getVlanManagerENS0_13OperationTypeE=so_stub_for_libtelux_data
-Wl,--defsym=_ZN5telux4data11DataFactory15getSocksManagerENS0_13OperationTypeE=so_stub_for_libtelux_data
-Wl,--defsym=_ZN5telux4data11DataFactory16getBridgeManagerEv=so_stub_for_libtelux_data
-Wl,--defsym=_ZN5telux4data11DataFactory18getFirewallManagerENS0_13OperationTypeE=so_stub_for_libtelux_data
-Wl,--defsym=_ZN5telux4data11DataFactory19getNewFirewallEntryEhNS0_9DirectionENS0_12IpFamilyTypeE=so_stub_for_libtelux_data
-Wl,--defsym=_ZN5telux4data11DataFactory20getDataFilterManagerEi=so_stub_for_libtelux_data
-Wl,--defsym=_ZN5telux4data11DataFactory21getDataProfileManagerE6SlotId=so_stub_for_libtelux_data
-Wl,--defsym=_ZN5telux4data11DataFactory24getDataConnectionManagerE6SlotId=so_stub_for_libtelux_data
-Wl,--defsym=_ZN5telux4data11DataFactoryC1Ev=so_stub_for_libtelux_data
-Wl,--defsym=_ZN5telux4data11DataFactoryC2Ev=so_stub_for_libtelux_data
-Wl,--defsym=_ZN5telux4data11DataFactoryD1Ev=so_stub_for_libtelux_data
-Wl,--defsym=_ZN5telux4data11DataFactoryD2Ev=so_stub_for_libtelux_data
-Wl,--defsym=_ZN5telux4data11DataProfile11getPasswordB5cxx11Ev=so_stub_for_libtelux_data
-Wl,--defsym=_ZN5telux4data11DataProfile11getUserNameB5cxx11Ev=so_stub_for_libtelux_data
-Wl,--defsym=_ZN5telux4data11DataProfile15getIpFamilyTypeEv=so_stub_for_libtelux_data
-Wl,--defsym=_ZN5telux4data11DataProfile17getTechPreferenceEv=so_stub_for_libtelux_data
-Wl,--defsym=_ZN5telux4data11DataProfile19getAuthProtocolTypeEv=so_stub_for_libtelux_data
-Wl,--defsym=_ZN5telux4data11DataProfile5getIdEv=so_stub_for_libtelux_data
-Wl,--defsym=_ZN5telux4data11DataProfile6getApnB5cxx11Ev=so_stub_for_libtelux_data
-Wl,--defsym=_ZN5telux4data11DataProfile7getNameB5cxx11Ev=so_stub_for_libtelux_data
-Wl,--defsym=_ZN5telux4data11DataProfile8toStringB5cxx11Ev=so_stub_for_libtelux_data
-Wl,--defsym=_ZN5telux4data11DataProfileC1EiRKNSt7__cxx1112basic_stringIcSt11char_traitsIcESaIcEEES9_S9_S9_NS0_12IpFamilyTypeENS0_14TechPreferenceENS0_16AuthProtocolTypeE=so_stub_for_libtelux_data
-Wl,--defsym=_ZN5telux4data11DataProfileC2EiRKNSt7__cxx1112basic_stringIcSt11char_traitsIcESaIcEEES9_S9_S9_NS0_12IpFamilyTypeENS0_14TechPreferenceENS0_16AuthProtocolTypeE=so_stub_for_libtelux_data
-Wl,--defsym=_ZN5telux4data11DataProfileD1Ev=so_stub_for_libtelux_data
-Wl,--defsym=_ZN5telux4data11DataProfileD2Ev=so_stub_for_libtelux_data
-Wl,--defsym=_ZN5telux4data12DataCallImpl11getIpv4InfoEv=so_stub_for_libtelux_data
-Wl,--defsym=_ZN5telux4data12DataCallImpl11getIpv6InfoEv=so_stub_for_libtelux_data
-Wl,--defsym=_ZN5telux4data12DataCallImpl12getProfileIdEv=so_stub_for_libtelux_data
-Wl,--defsym=_ZN5telux4data12DataCallImpl12setProfileIdEi=so_stub_for_libtelux_data
-Wl,--defsym=_ZN5telux4data12DataCallImpl13setIpAddrListENSt7__cxx114listINS0_10IpAddrInfoESaIS4_EEE=so_stub_for_libtelux_data
-Wl,--defsym=_ZN5telux4data12DataCallImpl15getIpFamilyTypeEv=so_stub_for_libtelux_data
-Wl,--defsym=_ZN5telux4data12DataCallImpl15setIpFamilyTypeENS0_12IpFamilyTypeE=so_stub_for_libtelux_data
-Wl,--defsym=_ZN5telux4data12DataCallImpl16getInterfaceNameB5cxx11Ev=so_stub_for_libtelux_data
-Wl,--defsym=_ZN5telux4data12DataCallImpl16getIpAddressInfoB5cxx11Ev=so_stub_for_libtelux_data
-Wl,--defsym=_ZN5telux4data12DataCallImpl16getOperationTypeEv=so_stub_for_libtelux_data
-Wl,--defsym=_ZN5telux4data12DataCallImpl16getQcmapCallTypeEv=so_stub_for_libtelux_data
-Wl,--defsym=_ZN5telux4data12DataCallImpl16setInterfaceNameENSt7__cxx1112basic_stringIcSt11char_traitsIcESaIcEEE=so_stub_for_libtelux_data
-Wl,--defsym=_ZN5telux4data12DataCallImpl16setOperationTypeENS0_13OperationTypeE=so_stub_for_libtelux_data
-Wl,--defsym=_ZN5telux4data12DataCallImpl16setQcmapCallTypeE29qcmap_msgr_wwan_call_type_v01=so_stub_for_libtelux_data
-Wl,--defsym=_ZN5telux4data12DataCallImpl17getDataCallStatusEv=so_stub_for_libtelux_data
-Wl,--defsym=_ZN5telux4data12DataCallImpl17getTechPreferenceEv=so_stub_for_libtelux_data
-Wl,--defsym=_ZN5telux4data12DataCallImpl17setDataCallStatusENS0_14DataCallStatusE=so_stub_for_libtelux_data
-Wl,--defsym=_ZN5telux4data12DataCallImpl17setDataCallStatusENS0_14DataCallStatusENS0_12IpFamilyTypeE=so_stub_for_libtelux_data
-Wl,--defsym=_ZN5telux4data12DataCallImpl17setTechPreferenceENS0_14TechPreferenceE=so_stub_for_libtelux_data
-Wl,--defsym=_ZN5telux4data12DataCallImpl20getCurrentBearerTechEv=so_stub_for_libtelux_data
-Wl,--defsym=_ZN5telux4data12DataCallImpl20getDataCallEndReasonEv=so_stub_for_libtelux_data
-Wl,--defsym=_ZN5telux4data12DataCallImpl20setDataCallEndReasonENS0_17DataCallEndReasonE=so_stub_for_libtelux_data
-Wl,--defsym=_ZN5telux4data12DataCallImpl21getQcmapProfileHandleEv=so_stub_for_libtelux_data
-Wl,--defsym=_ZN5telux4data12DataCallImpl21setQcmapProfileHandleEj=so_stub_for_libtelux_data
-Wl,--defsym=_ZN5telux4data12DataCallImpl23resetDataCallStatisticsESt8functionIFvNS_6common9ErrorCodeEEE=so_stub_for_libtelux_data
-Wl,--defsym=_ZN5telux4data12DataCallImpl23setDataBearerTechnologyENS0_20DataBearerTechnologyE=so_stub_for_libtelux_data
-Wl,--defsym=_ZN5telux4data12DataCallImpl25requestDataCallStatisticsESt8functionIFvNS0_13DataCallStatsENS_6common9ErrorCodeEEE=so_stub_for_libtelux_data
-Wl,--defsym=_ZN5telux4data12DataCallImpl9getSlotIdEv=so_stub_for_libtelux_data
-Wl,--defsym=_ZN5telux4data12DataCallImpl9setSlotIdE6SlotId=so_stub_for_libtelux_data
-Wl,--defsym=_ZN5telux4data12DataCallImplC1Ev=so_stub_for_libtelux_data
-Wl,--defsym=_ZN5telux4data12DataCallImplC2Ev=so_stub_for_libtelux_data
-Wl,--defsym=_ZN5telux4data12DataCallImplD0Ev=so_stub_for_libtelux_data
-Wl,--defsym=_ZN5telux4data12DataCallImplD1Ev=so_stub_for_libtelux_data
-Wl,--defsym=_ZN5telux4data12DataCallImplD2Ev=so_stub_for_libtelux_data
-Wl,--defsym=_ZN5telux4data12EventHandler14eventProcessorEv=so_stub_for_libtelux_data
-Wl,--defsym=_ZN5telux4data12EventHandler4postESt10shared_ptrINS0_13EventInfoBaseEE=so_stub_for_libtelux_data
-Wl,--defsym=_ZN5telux4data12EventHandler4stopEv=so_stub_for_libtelux_data
-Wl,--defsym=_ZN5telux4data12EventHandler5startEv=so_stub_for_libtelux_data
-Wl,--defsym=_ZN5telux4data12IpFilterImpl11getIPv4InfoEv=so_stub_for_libtelux_data
-Wl,--defsym=_ZN5telux4data12IpFilterImpl11getIPv6InfoEv=so_stub_for_libtelux_data
-Wl,--defsym=_ZN5telux4data12IpFilterImpl11setIPv4InfoERKNS0_8IPv4InfoE=so_stub_for_libtelux_data
-Wl,--defsym=_ZN5telux4data12IpFilterImpl11setIPv6InfoERKNS0_8IPv6InfoE=so_stub_for_libtelux_data
-Wl,--defsym=_ZN5telux4data12IpFilterImpl13getIpProtocolEv=so_stub_for_libtelux_data
-Wl,--defsym=_ZN5telux4data12IpFilterImpl15getFilterHandleEv=so_stub_for_libtelux_data
-Wl,--defsym=_ZN5telux4data12IpFilterImpl15setFilterHandleEj=so_stub_for_libtelux_data
-Wl,--defsym=_ZN5telux4data12IpFilterImplC1Eh=so_stub_for_libtelux_data
-Wl,--defsym=_ZN5telux4data12IpFilterImplC2Eh=so_stub_for_libtelux_data
-Wl,--defsym=_ZN5telux4data12IpFilterImplD0Ev=so_stub_for_libtelux_data
-Wl,--defsym=_ZN5telux4data12IpFilterImplD1Ev=so_stub_for_libtelux_data
-Wl,--defsym=_ZN5telux4data12IpFilterImplD2Ev=so_stub_for_libtelux_data
-Wl,--defsym=_ZN5telux4data13EspFilterImpl10getEspInfoEv=so_stub_for_libtelux_data
-Wl,--defsym=_ZN5telux4data13EspFilterImpl10setEspInfoERKNS0_7EspInfoE=so_stub_for_libtelux_data
-Wl,--defsym=_ZN5telux4data13EspFilterImplC1Eh=so_stub_for_libtelux_data
-Wl,--defsym=_ZN5telux4data13EspFilterImplC2Eh=so_stub_for_libtelux_data
-Wl,--defsym=_ZN5telux4data13EspFilterImplD0Ev=so_stub_for_libtelux_data
-Wl,--defsym=_ZN5telux4data13EspFilterImplD1Ev=so_stub_for_libtelux_data
-Wl,--defsym=_ZN5telux4data13EspFilterImplD2Ev=so_stub_for_libtelux_data
-Wl,--defsym=_ZN5telux4data13TcpFilterImpl10getTcpInfoEv=so_stub_for_libtelux_data
-Wl,--defsym=_ZN5telux4data13TcpFilterImpl10setTcpInfoERKNS0_7TcpInfoE=so_stub_for_libtelux_data
-Wl,--defsym=_ZN5telux4data13TcpFilterImplC1Eh=so_stub_for_libtelux_data
-Wl,--defsym=_ZN5telux4data13TcpFilterImplC2Eh=so_stub_for_libtelux_data
-Wl,--defsym=_ZN5telux4data13TcpFilterImplD0Ev=so_stub_for_libtelux_data
-Wl,--defsym=_ZN5telux4data13TcpFilterImplD1Ev=so_stub_for_libtelux_data
-Wl,--defsym=_ZN5telux4data13TcpFilterImplD2Ev=so_stub_for_libtelux_data
-Wl,--defsym=_ZN5telux4data13UdpFilterImpl10getUdpInfoEv=so_stub_for_libtelux_data
-Wl,--defsym=_ZN5telux4data13UdpFilterImpl10setUdpInfoERKNS0_7UdpInfoE=so_stub_for_libtelux_data
-Wl,--defsym=_ZN5telux4data13UdpFilterImplC1Eh=so_stub_for_libtelux_data
-Wl,--defsym=_ZN5telux4data13UdpFilterImplC2Eh=so_stub_for_libtelux_data
-Wl,--defsym=_ZN5telux4data13UdpFilterImplD0Ev=so_stub_for_libtelux_data
-Wl,--defsym=_ZN5telux4data13UdpFilterImplD1Ev=so_stub_for_libtelux_data
-Wl,--defsym=_ZN5telux4data13UdpFilterImplD2Ev=so_stub_for_libtelux_data
-Wl,--defsym=_ZN5telux4data14IcmpFilterImpl11getIcmpInfoEv=so_stub_for_libtelux_data
-Wl,--defsym=_ZN5telux4data14IcmpFilterImpl11setIcmpInfoERKNS0_8IcmpInfoE=so_stub_for_libtelux_data
-Wl,--defsym=_ZN5telux4data14IcmpFilterImplC1Eh=so_stub_for_libtelux_data
-Wl,--defsym=_ZN5telux4data14IcmpFilterImplC2Eh=so_stub_for_libtelux_data
-Wl,--defsym=_ZN5telux4data14IcmpFilterImplD0Ev=so_stub_for_libtelux_data
-Wl,--defsym=_ZN5telux4data14IcmpFilterImplD1Ev=so_stub_for_libtelux_data
-Wl,--defsym=_ZN5telux4data14IcmpFilterImplD2Ev=so_stub_for_libtelux_data
-Wl,--defsym=_ZN5telux4data15onDsiIndicationEPvS1_13dsi_net_evt_tP20dsi_evt_payload_ex_t=so_stub_for_libtelux_data
-Wl,--defsym=_ZN5telux4data16ProfileRetriever12queryProfileERKNS0_13ProfileParamsESt10shared_ptrINS0_24IDataProfileListCallbackEE=so_stub_for_libtelux_data
-Wl,--defsym=_ZN5telux4data16ProfileRetriever14filterProfilesEPNS0_15ProfileUserDataERSt6vectorISt10shared_ptrINS0_11DataProfileEESaIS7_EE=so_stub_for_libtelux_data
-Wl,--defsym=_ZN5telux4data16ProfileRetriever14requestProfileEhNS0_14TechPreferenceESt10shared_ptrINS0_20IDataProfileCallbackEE=so_stub_for_libtelux_data
-Wl,--defsym=_ZN5telux4data16ProfileRetriever16cleanProfileListEPNS0_15ProfileUserDataE=so_stub_for_libtelux_data
-Wl,--defsym=_ZN5telux4data16ProfileRetriever17copyProfileParamsERKNS0_13ProfileParamsEPS2_=so_stub_for_libtelux_data
-Wl,--defsym=_ZN5telux4data16ProfileRetriever18requestProfileListENS0_14TechPreferenceESt10shared_ptrINS0_24IDataProfileListCallbackEE=so_stub_for_libtelux_data
-Wl,--defsym=_ZN5telux4data16ProfileRetriever19profileListResponseEiiRKSt6vectorINS_3qmi15ProfileListInfoESaIS4_EEPv=so_stub_for_libtelux_data
-Wl,--defsym=_ZN5telux4data16ProfileRetriever20sendEmptyProfileListEiNS_6common9ErrorCodeE=so_stub_for_libtelux_data
-Wl,--defsym=_ZN5telux4data16ProfileRetriever21mallocAndInitUserDataENS0_18ProfileRequestTypeESt10shared_ptrINS_6common16ICommandCallbackEE=so_stub_for_libtelux_data
-Wl,--defsym=_ZN5telux4data16ProfileRetriever21techPrefToWdsProfTypeENS0_14TechPreferenceE=so_stub_for_libtelux_data
-Wl,--defsym=_ZN5telux4data16ProfileRetriever22makeDataProfileFromQmiERKNS_3qmi19ProfileSettingsRespE=so_stub_for_libtelux_data
-Wl,--defsym=_ZN5telux4data16ProfileRetriever22responseForProfileByIdENS_6common9ErrorCodeERKNS_3qmi19ProfileSettingsRespEPNS0_15ProfileUserDataE=so_stub_for_libtelux_data
-Wl,--defsym=_ZN5telux4data16ProfileRetriever22responseForProfileListENS_6common9ErrorCodeERKNS_3qmi19ProfileSettingsRespEPNS0_15ProfileUserDataE=so_stub_for_libtelux_data
-Wl,--defsym=_ZN5telux4data16ProfileRetriever23profileSettingsResponseEiiRKNS_3qmi19ProfileSettingsRespEPv=so_stub_for_libtelux_data
-Wl,--defsym=_ZN5telux4data16ProfileRetriever23responseForQueryProfileENS_6common9ErrorCodeERKNS_3qmi19ProfileSettingsRespEPNS0_15ProfileUserDataE=so_stub_for_libtelux_data
-Wl,--defsym=_ZN5telux4data16ProfileRetriever24notifyDataProfileManagerEv=so_stub_for_libtelux_data
-Wl,--defsym=_ZN5telux4data16ProfileRetriever24wdsPdpTypeToIpFamilyTypeEi=so_stub_for_libtelux_data
-Wl,--defsym=_ZN5telux4data16ProfileRetrieverC1ESt10shared_ptrINS0_25IProfileRetrieverCallbackEES2_INS_3qmi12WdsQmiClientEE=so_stub_for_libtelux_data
-Wl,--defsym=_ZN5telux4data16ProfileRetrieverC2ESt10shared_ptrINS0_25IProfileRetrieverCallbackEES2_INS_3qmi12WdsQmiClientEE=so_stub_for_libtelux_data
-Wl,--defsym=_ZN5telux4data16ProfileRetrieverD0Ev=so_stub_for_libtelux_data
-Wl,--defsym=_ZN5telux4data16ProfileRetrieverD1Ev=so_stub_for_libtelux_data
-Wl,--defsym=_ZN5telux4data16ProfileRetrieverD2Ev=so_stub_for_libtelux_data
-Wl,--defsym=_ZN5telux4data18DsiEventDispatcher9postEventERKSt10shared_ptrINS0_21DsiStatusCallbackDataEE=so_stub_for_libtelux_data
-Wl,--defsym=_ZN5telux4data18DsiEventDispatcherC1Ev=so_stub_for_libtelux_data
-Wl,--defsym=_ZN5telux4data18DsiEventDispatcherC2Ev=so_stub_for_libtelux_data
-Wl,--defsym=_ZN5telux4data18DsiEventDispatcherD1Ev=so_stub_for_libtelux_data
-Wl,--defsym=_ZN5telux4data18DsiEventDispatcherD2Ev=so_stub_for_libtelux_data
-Wl,--defsym=_ZN5telux4data18DsiRequestResponse18indicationCallbackEPvS2_13dsi_net_evt_tP20dsi_evt_payload_ex_t=so_stub_for_libtelux_data
-Wl,--defsym=_ZN5telux4data20IDataProfileCallback10onResponseERKSt10shared_ptrINS0_11DataProfileEENS_6common9ErrorCodeE=so_stub_for_libtelux_data
-Wl,--defsym=_ZN5telux4data20IDataProfileListener15onProfileUpdateEiNS0_14TechPreferenceENS0_18ProfileChangeEventE=so_stub_for_libtelux_data
-Wl,--defsym=_ZN5telux4data20logSdkVersionDetailsEv=so_stub_for_libtelux_data
-Wl,--defsym=_ZN5telux4data21DataFilterManagerImpl13setReadyStateEb=so_stub_for_libtelux_data
-Wl,--defsym=_ZN5telux4data21DataFilterManagerImpl16registerListenerESt8weak_ptrINS0_19IDataFilterListenerEE=so_stub_for_libtelux_data
-Wl,--defsym=_ZN5telux4data21DataFilterManagerImpl18deregisterListenerESt8weak_ptrINS0_19IDataFilterListenerEE=so_stub_for_libtelux_data
-Wl,--defsym=_ZN5telux4data21DataFilterManagerImpl19setDataRestrictModeENS0_16DataRestrictModeESt8functionIFvNS_6common9ErrorCodeEEEiNS0_12IpFamilyTypeE=so_stub_for_libtelux_data
-Wl,--defsym=_ZN5telux4data21DataFilterManagerImpl21addDataRestrictFilterERSt10shared_ptrINS0_9IIpFilterEESt8functionIFvNS_6common9ErrorCodeEEEiNS0_12IpFamilyTypeE=so_stub_for_libtelux_data
-Wl,--defsym=_ZN5telux4data21DataFilterManagerImpl21getAvailableListenersERSt6vectorISt10shared_ptrINS0_19IDataFilterListenerEESaIS5_EE=so_stub_for_libtelux_data
-Wl,--defsym=_ZN5telux4data21DataFilterManagerImpl21waitForInitializationEv=so_stub_for_libtelux_data
-Wl,--defsym=_ZN5telux4data21DataFilterManagerImpl23requestDataRestrictModeENSt7__cxx1112basic_stringIcSt11char_traitsIcESaIcEEESt8functionIFvNS0_16DataRestrictModeENS_6common9ErrorCodeEEE=so_stub_for_libtelux_data
-Wl,--defsym=_ZN5telux4data21DataFilterManagerImpl24onDataRestrictModeChangeENS0_16DataRestrictModeE=so_stub_for_libtelux_data
-Wl,--defsym=_ZN5telux4data21DataFilterManagerImpl28removeAllDataRestrictFiltersESt8functionIFvNS_6common9ErrorCodeEEEiNS0_12IpFamilyTypeE=so_stub_for_libtelux_data
-Wl,--defsym=_ZN5telux4data21DataFilterManagerImpl4initEv=so_stub_for_libtelux_data
-Wl,--defsym=_ZN5telux4data21DataFilterManagerImpl7cleanupEv=so_stub_for_libtelux_data
-Wl,--defsym=_ZN5telux4data21DataFilterManagerImpl7isReadyEv=so_stub_for_libtelux_data
-Wl,--defsym=_ZN5telux4data21DataFilterManagerImpl7onReadyEv=so_stub_for_libtelux_data
-Wl,--defsym=_ZN5telux4data21DataFilterManagerImpl9getSlotIdEv=so_stub_for_libtelux_data
-Wl,--defsym=_ZN5telux4data21DataFilterManagerImplC1Ei=so_stub_for_libtelux_data
-Wl,--defsym=_ZN5telux4data21DataFilterManagerImplC2Ei=so_stub_for_libtelux_data
-Wl,--defsym=_ZN5telux4data21DataFilterManagerImplD0Ev=so_stub_for_libtelux_data
-Wl,--defsym=_ZN5telux4data21DataFilterManagerImplD1Ev=so_stub_for_libtelux_data
-Wl,--defsym=_ZN5telux4data21DataFilterManagerImplD2Ev=so_stub_for_libtelux_data
-Wl,--defsym=_ZN5telux4data22DataProfileManagerImpl11updateReadyEv=so_stub_for_libtelux_data
-Wl,--defsym=_ZN5telux4data22DataProfileManagerImpl11validateAPNENSt7__cxx1112basic_stringIcSt11char_traitsIcESaIcEEE=so_stub_for_libtelux_data
-Wl,--defsym=_ZN5telux4data22DataProfileManagerImpl12queryProfileERKNS0_13ProfileParamsESt10shared_ptrINS0_24IDataProfileListCallbackEE=so_stub_for_libtelux_data
-Wl,--defsym=_ZN5telux4data22DataProfileManagerImpl13createProfileERKNS0_13ProfileParamsESt10shared_ptrINS0_26IDataCreateProfileCallbackEE=so_stub_for_libtelux_data
-Wl,--defsym=_ZN5telux4data22DataProfileManagerImpl13deleteProfileEhNS0_14TechPreferenceESt10shared_ptrINS_6common24ICommandResponseCallbackEE=so_stub_for_libtelux_data
-Wl,--defsym=_ZN5telux4data22DataProfileManagerImpl13modifyProfileEhRKNS0_13ProfileParamsESt10shared_ptrINS_6common24ICommandResponseCallbackEE=so_stub_for_libtelux_data
-Wl,--defsym=_ZN5telux4data22DataProfileManagerImpl14requestProfileEhNS0_14TechPreferenceESt10shared_ptrINS0_20IDataProfileCallbackEE=so_stub_for_libtelux_data
-Wl,--defsym=_ZN5telux4data22DataProfileManagerImpl15commandResponseEiiPv=so_stub_for_libtelux_data
-Wl,--defsym=_ZN5telux4data22DataProfileManagerImpl15onProfileUpdateEP31wds_profile_changed_ind_msg_v01=so_stub_for_libtelux_data
-Wl,--defsym=_ZN5telux4data22DataProfileManagerImpl16isSubsystemReadyEv=so_stub_for_libtelux_data
-Wl,--defsym=_ZN5telux4data22DataProfileManagerImpl16onSubsystemReadyEv=so_stub_for_libtelux_data
-Wl,--defsym=_ZN5telux4data22DataProfileManagerImpl16registerListenerESt8weak_ptrINS0_20IDataProfileListenerEE=so_stub_for_libtelux_data
-Wl,--defsym=_ZN5telux4data22DataProfileManagerImpl17handleCommandRespENS_6common9ErrorCodeEPNS0_15ProfileUserDataE=so_stub_for_libtelux_data
-Wl,--defsym=_ZN5telux4data22DataProfileManagerImpl17setSubsystemReadyEb=so_stub_for_libtelux_data
-Wl,--defsym=_ZN5telux4data22DataProfileManagerImpl18deregisterListenerESt8weak_ptrINS0_20IDataProfileListenerEE=so_stub_for_libtelux_data
-Wl,--defsym=_ZN5telux4data22DataProfileManagerImpl18onProfileRetrievedESt10shared_ptrINS0_16ProfileRetrieverEE=so_stub_for_libtelux_data
-Wl,--defsym=_ZN5telux4data22DataProfileManagerImpl18requestProfileListESt10shared_ptrINS0_24IDataProfileListCallbackEE=so_stub_for_libtelux_data
-Wl,--defsym=_ZN5telux4data22DataProfileManagerImpl21createProfileResponseEiiiPv=so_stub_for_libtelux_data
-Wl,--defsym=_ZN5telux4data22DataProfileManagerImpl21getAvailableListenersERSt6vectorISt10shared_ptrINS0_20IDataProfileListenerEESaIS5_EE=so_stub_for_libtelux_data
-Wl,--defsym=_ZN5telux4data22DataProfileManagerImpl21waitForInitializationEv=so_stub_for_libtelux_data
-Wl,--defsym=_ZN5telux4data22DataProfileManagerImpl22removeProfileRetrieverESt10shared_ptrINS0_16ProfileRetrieverEE=so_stub_for_libtelux_data
-Wl,--defsym=_ZN5telux4data22DataProfileManagerImpl24onWdsServiceStatusChangeENS_6common13ServiceStatusE=so_stub_for_libtelux_data
-Wl,--defsym=_ZN5telux4data22DataProfileManagerImpl26copyDataProfileParamsToQmiERKNS0_13ProfileParamsEPNS_3qmi16QmiProfileParamsE=so_stub_for_libtelux_data
-Wl,--defsym=_ZN5telux4data22DataProfileManagerImpl4initEv=so_stub_for_libtelux_data
-Wl,--defsym=_ZN5telux4data22DataProfileManagerImpl7cleanupEv=so_stub_for_libtelux_data
-Wl,--defsym=_ZN5telux4data22DataProfileManagerImpl8initSyncEv=so_stub_for_libtelux_data
-Wl,--defsym=_ZN5telux4data22DataProfileManagerImpl9getSlotIdEv=so_stub_for_libtelux_data
-Wl,--defsym=_ZN5telux4data22DataProfileManagerImplC1E6SlotId=so_stub_for_libtelux_data
-Wl,--defsym=_ZN5telux4data22DataProfileManagerImplC2E6SlotId=so_stub_for_libtelux_data
-Wl,--defsym=_ZN5telux4data22DataProfileManagerImplD0Ev=so_stub_for_libtelux_data
-Wl,--defsym=_ZN5telux4data22DataProfileManagerImplD1Ev=so_stub_for_libtelux_data
-Wl,--defsym=_ZN5telux4data22DataProfileManagerImplD2Ev=so_stub_for_libtelux_data
-Wl,--defsym=_ZN5telux4data22requestResponseWrapperEPvS1_13dsi_net_evt_tP20dsi_evt_payload_ex_t=so_stub_for_libtelux_data
-Wl,--defsym=_ZN5telux4data23IDataConnectionListener21onDataCallInfoChangedERKSt10shared_ptrINS0_9IDataCallEE=so_stub_for_libtelux_data
-Wl,--defsym=_ZN5telux4data24IDataProfileListCallback21onProfileListResponseERKSt6vectorISt10shared_ptrINS0_11DataProfileEESaIS5_EENS_6common9ErrorCodeE=so_stub_for_libtelux_data
-Wl,--defsym=_ZN5telux4data25DataConnectionManagerImpl12stopDataCallEiNS0_12IpFamilyTypeESt8functionIFvRKSt10shared_ptrINS0_9IDataCallEENS_6common9ErrorCodeEEENS0_13OperationTypeENSt7__cxx1112basic_stringIcSt11char_traitsIcESaIcEEE=so_stub_for_libtelux_data
-Wl,--defsym=_ZN5telux4data25DataConnectionManagerImpl13startDataCallEiNS0_12IpFamilyTypeESt8functionIFvRKSt10shared_ptrINS0_9IDataCallEENS_6common9ErrorCodeEEENS0_13OperationTypeENSt7__cxx1112basic_stringIcSt11char_traitsIcESaIcEEE=so_stub_for_libtelux_data
-Wl,--defsym=_ZN5telux4data25DataConnectionManagerImpl16isSubsystemReadyEv=so_stub_for_libtelux_data
-Wl,--defsym=_ZN5telux4data25DataConnectionManagerImpl16onSubsystemReadyEv=so_stub_for_libtelux_data
-Wl,--defsym=_ZN5telux4data25DataConnectionManagerImpl16registerListenerESt8weak_ptrINS0_23IDataConnectionListenerEE=so_stub_for_libtelux_data
-Wl,--defsym=_ZN5telux4data25DataConnectionManagerImpl17getDefaultProfileENS0_13OperationTypeESt8functionIFvi6SlotIdNS_6common9ErrorCodeEEE=so_stub_for_libtelux_data
-Wl,--defsym=_ZN5telux4data25DataConnectionManagerImpl17setDefaultProfileENS0_13OperationTypeEhSt8functionIFvNS_6common9ErrorCodeEEE=so_stub_for_libtelux_data
-Wl,--defsym=_ZN5telux4data25DataConnectionManagerImpl17setSubsystemReadyEb=so_stub_for_libtelux_data
-Wl,--defsym=_ZN5telux4data25DataConnectionManagerImpl18deregisterListenerESt8weak_ptrINS0_23IDataConnectionListenerEE=so_stub_for_libtelux_data
-Wl,--defsym=_ZN5telux4data25DataConnectionManagerImpl19requestDataCallListENS0_13OperationTypeESt8functionIFvRKSt6vectorISt10shared_ptrINS0_9IDataCallEESaIS7_EENS_6common9ErrorCodeEEE=so_stub_for_libtelux_data
-Wl,--defsym=_ZN5telux4data25DataConnectionManagerImpl21getAvailableListenersERSt6vectorISt10shared_ptrINS0_23IDataConnectionListenerEESaIS5_EE=so_stub_for_libtelux_data
-Wl,--defsym=_ZN5telux4data25DataConnectionManagerImpl21onDataCallInfoChangedERKSt10shared_ptrINS0_9IDataCallEE=so_stub_for_libtelux_data
-Wl,--defsym=_ZN5telux4data25DataConnectionManagerImpl21onServiceStatusChangeENS_6common13ServiceStatusE=so_stub_for_libtelux_data
-Wl,--defsym=_ZN5telux4data25DataConnectionManagerImpl21waitForInitializationEv=so_stub_for_libtelux_data
-Wl,--defsym=_ZN5telux4data25DataConnectionManagerImpl4initEv=so_stub_for_libtelux_data
-Wl,--defsym=_ZN5telux4data25DataConnectionManagerImpl7cleanupEv=so_stub_for_libtelux_data
-Wl,--defsym=_ZN5telux4data25DataConnectionManagerImpl8initSyncEb=so_stub_for_libtelux_data
-Wl,--defsym=_ZN5telux4data25DataConnectionManagerImpl9getSlotIdEv=so_stub_for_libtelux_data
-Wl,--defsym=_ZN5telux4data25DataConnectionManagerImplC1E6SlotId=so_stub_for_libtelux_data
-Wl,--defsym=_ZN5telux4data25DataConnectionManagerImplC1E6SlotIdSt10shared_ptrINS0_9QcmClientEE=so_stub_for_libtelux_data
-Wl,--defsym=_ZN5telux4data25DataConnectionManagerImplC2E6SlotId=so_stub_for_libtelux_data
-Wl,--defsym=_ZN5telux4data25DataConnectionManagerImplC2E6SlotIdSt10shared_ptrINS0_9QcmClientEE=so_stub_for_libtelux_data
-Wl,--defsym=_ZN5telux4data25DataConnectionManagerImplD0Ev=so_stub_for_libtelux_data
-Wl,--defsym=_ZN5telux4data25DataConnectionManagerImplD1Ev=so_stub_for_libtelux_data
-Wl,--defsym=_ZN5telux4data25DataConnectionManagerImplD2Ev=so_stub_for_libtelux_data
-Wl,--defsym=_ZN5telux4data26IDataCreateProfileCallback10onResponseEiNS_6common9ErrorCodeE=so_stub_for_libtelux_data
-Wl,--defsym=_ZN5telux4data3net12INatListener21onServiceStatusChangeENS_6common13ServiceStatusE=so_stub_for_libtelux_data
-Wl,--defsym=_ZN5telux4data3net13IL2tpListener21onServiceStatusChangeENS_6common13ServiceStatusE=so_stub_for_libtelux_data
-Wl,--defsym=_ZN5telux4data3net13IVlanListener21onServiceStatusChangeENS_6common13ServiceStatusE=so_stub_for_libtelux_data
-Wl,--defsym=_ZN5telux4data3net14ISocksListener21onServiceStatusChangeENS_6common13ServiceStatusE=so_stub_for_libtelux_data
-Wl,--defsym=_ZN5telux4data3net14NatManagerImpl16getOperationTypeEv=so_stub_for_libtelux_data
-Wl,--defsym=_ZN5telux4data3net14NatManagerImpl16isSubsystemReadyEv=so_stub_for_libtelux_data
-Wl,--defsym=_ZN5telux4data3net14NatManagerImpl16onSubsystemReadyEv=so_stub_for_libtelux_data
-Wl,--defsym=_ZN5telux4data3net14NatManagerImpl16registerListenerESt8weak_ptrINS1_12INatListenerEE=so_stub_for_libtelux_data
-Wl,--defsym=_ZN5telux4data3net14NatManagerImpl17addStaticNatEntryEiRKNS1_9NatConfigESt8functionIFvNS_6common9ErrorCodeEEE6SlotId=so_stub_for_libtelux_data
-Wl,--defsym=_ZN5telux4data3net14NatManagerImpl17setSubsystemReadyEb=so_stub_for_libtelux_data
-Wl,--defsym=_ZN5telux4data3net14NatManagerImpl18deregisterListenerESt8weak_ptrINS1_12INatListenerEE=so_stub_for_libtelux_data
-Wl,--defsym=_ZN5telux4data3net14NatManagerImpl20removeStaticNatEntryEiRKNS1_9NatConfigESt8functionIFvNS_6common9ErrorCodeEEE6SlotId=so_stub_for_libtelux_data
-Wl,--defsym=_ZN5telux4data3net14NatManagerImpl21onServiceStatusChangeENS_6common13ServiceStatusE=so_stub_for_libtelux_data
-Wl,--defsym=_ZN5telux4data3net14NatManagerImpl21waitForInitializationEv=so_stub_for_libtelux_data
-Wl,--defsym=_ZN5telux4data3net14NatManagerImpl23requestStaticNatEntriesEiSt8functionIFvRKSt6vectorINS1_9NatConfigESaIS5_EENS_6common9ErrorCodeEEE6SlotId=so_stub_for_libtelux_data
-Wl,--defsym=_ZN5telux4data3net14NatManagerImpl4initEv=so_stub_for_libtelux_data
-Wl,--defsym=_ZN5telux4data3net14NatManagerImpl7cleanupEv=so_stub_for_libtelux_data
-Wl,--defsym=_ZN5telux4data3net14NatManagerImpl8initSyncEv=so_stub_for_libtelux_data
-Wl,--defsym=_ZN5telux4data3net14NatManagerImplC1ENS0_13OperationTypeESt10shared_ptrINS0_9QcmClientEE=so_stub_for_libtelux_data
-Wl,--defsym=_ZN5telux4data3net14NatManagerImplC2ENS0_13OperationTypeESt10shared_ptrINS0_9QcmClientEE=so_stub_for_libtelux_data
-Wl,--defsym=_ZN5telux4data3net14NatManagerImplD0Ev=so_stub_for_libtelux_data
-Wl,--defsym=_ZN5telux4data3net14NatManagerImplD1Ev=so_stub_for_libtelux_data
-Wl,--defsym=_ZN5telux4data3net14NatManagerImplD2Ev=so_stub_for_libtelux_data
-Wl,--defsym=_ZN5telux4data3net15IBridgeListener21onServiceStatusChangeENS_6common13ServiceStatusE=so_stub_for_libtelux_data
-Wl,--defsym=_ZN5telux4data3net15L2tpManagerImpl12removeTunnelEjSt8functionIFvNS_6common9ErrorCodeEEE=so_stub_for_libtelux_data
-Wl,--defsym=_ZN5telux4data3net15L2tpManagerImpl13addTunnelSyncERKNS1_16L2tpTunnelConfigESt8functionIFvNS_6common9ErrorCodeEEE=so_stub_for_libtelux_data
-Wl,--defsym=_ZN5telux4data3net15L2tpManagerImpl13requestConfigESt8functionIFvRKNS1_13L2tpSysConfigENS_6common9ErrorCodeEEE=so_stub_for_libtelux_data
-Wl,--defsym=_ZN5telux4data3net15L2tpManagerImpl13setConfigSyncEbbbjSt8functionIFvNS_6common9ErrorCodeEEE=so_stub_for_libtelux_data
-Wl,--defsym=_ZN5telux4data3net15L2tpManagerImpl16isSubsystemReadyEv=so_stub_for_libtelux_data
-Wl,--defsym=_ZN5telux4data3net15L2tpManagerImpl16onSubsystemReadyEv=so_stub_for_libtelux_data
-Wl,--defsym=_ZN5telux4data3net15L2tpManagerImpl16registerListenerESt8weak_ptrINS1_13IL2tpListenerEE=so_stub_for_libtelux_data
-Wl,--defsym=_ZN5telux4data3net15L2tpManagerImpl16removeTunnelSyncEjSt8functionIFvNS_6common9ErrorCodeEEE=so_stub_for_libtelux_data
-Wl,--defsym=_ZN5telux4data3net15L2tpManagerImpl17requestConfigSyncESt8functionIFvRKNS1_13L2tpSysConfigENS_6common9ErrorCodeEEE=so_stub_for_libtelux_data
-Wl,--defsym=_ZN5telux4data3net15L2tpManagerImpl17setSubsystemReadyEb=so_stub_for_libtelux_data
-Wl,--defsym=_ZN5telux4data3net15L2tpManagerImpl18deregisterListenerESt8weak_ptrINS1_13IL2tpListenerEE=so_stub_for_libtelux_data
-Wl,--defsym=_ZN5telux4data3net15L2tpManagerImpl21onServiceStatusChangeENS_6common13ServiceStatusE=so_stub_for_libtelux_data
-Wl,--defsym=_ZN5telux4data3net15L2tpManagerImpl21waitForInitializationEv=so_stub_for_libtelux_data
-Wl,--defsym=_ZN5telux4data3net15L2tpManagerImpl4initEv=so_stub_for_libtelux_data
-Wl,--defsym=_ZN5telux4data3net15L2tpManagerImpl7cleanupEv=so_stub_for_libtelux_data
-Wl,--defsym=_ZN5telux4data3net15L2tpManagerImpl8initSyncEv=so_stub_for_libtelux_data
-Wl,--defsym=_ZN5telux4data3net15L2tpManagerImpl9addTunnelERKNS1_16L2tpTunnelConfigESt8functionIFvNS_6common9ErrorCodeEEE=so_stub_for_libtelux_data
-Wl,--defsym=_ZN5telux4data3net15L2tpManagerImpl9setConfigEbbbSt8functionIFvNS_6common9ErrorCodeEEEj=so_stub_for_libtelux_data
-Wl,--defsym=_ZN5telux4data3net15L2tpManagerImplC1ESt10shared_ptrINS0_9QcmClientEE=so_stub_for_libtelux_data
-Wl,--defsym=_ZN5telux4data3net15L2tpManagerImplC2ESt10shared_ptrINS0_9QcmClientEE=so_stub_for_libtelux_data
-Wl,--defsym=_ZN5telux4data3net15L2tpManagerImplD0Ev=so_stub_for_libtelux_data
-Wl,--defsym=_ZN5telux4data3net15L2tpManagerImplD1Ev=so_stub_for_libtelux_data
-Wl,--defsym=_ZN5telux4data3net15L2tpManagerImplD2Ev=so_stub_for_libtelux_data
-Wl,--defsym=_ZN5telux4data3net15VlanManagerImpl10createVlanERKNS0_10VlanConfigESt8functionIFvbNS_6common9ErrorCodeEEE=so_stub_for_libtelux_data
-Wl,--defsym=_ZN5telux4data3net15VlanManagerImpl10removeVlanEsNS0_13InterfaceTypeESt8functionIFvNS_6common9ErrorCodeEEE=so_stub_for_libtelux_data
-Wl,--defsym=_ZN5telux4data3net15VlanManagerImpl13queryVlanInfoESt8functionIFvRKSt6vectorINS0_10VlanConfigESaIS5_EENS_6common9ErrorCodeEEE=so_stub_for_libtelux_data
-Wl,--defsym=_ZN5telux4data3net15VlanManagerImpl15bindWithProfileEiiSt8functionIFvNS_6common9ErrorCodeEEE6SlotId=so_stub_for_libtelux_data
-Wl,--defsym=_ZN5telux4data3net15VlanManagerImpl16getOperationTypeEv=so_stub_for_libtelux_data
-Wl,--defsym=_ZN5telux4data3net15VlanManagerImpl16isSubsystemReadyEv=so_stub_for_libtelux_data
-Wl,--defsym=_ZN5telux4data3net15VlanManagerImpl16onSubsystemReadyEv=so_stub_for_libtelux_data
-Wl,--defsym=_ZN5telux4data3net15VlanManagerImpl16registerListenerESt8weak_ptrINS1_13IVlanListenerEE=so_stub_for_libtelux_data
-Wl,--defsym=_ZN5telux4data3net15VlanManagerImpl17setSubsystemReadyEb=so_stub_for_libtelux_data
-Wl,--defsym=_ZN5telux4data3net15VlanManagerImpl17unbindFromProfileEiiSt8functionIFvNS_6common9ErrorCodeEEE6SlotId=so_stub_for_libtelux_data
-Wl,--defsym=_ZN5telux4data3net15VlanManagerImpl18deregisterListenerESt8weak_ptrINS1_13IVlanListenerEE=so_stub_for_libtelux_data
-Wl,--defsym=_ZN5telux4data3net15VlanManagerImpl20queryVlanMappingListESt8functionIFvRKNSt7__cxx114listISt4pairIiiESaIS7_EEENS_6common9ErrorCodeEEE6SlotId=so_stub_for_libtelux_data
-Wl,--defsym=_ZN5telux4data3net15VlanManagerImpl21onServiceStatusChangeENS_6common13ServiceStatusE=so_stub_for_libtelux_data
-Wl,--defsym=_ZN5telux4data3net15VlanManagerImpl21waitForInitializationEv=so_stub_for_libtelux_data
-Wl,--defsym=_ZN5telux4data3net15VlanManagerImpl4initEv=so_stub_for_libtelux_data
-Wl,--defsym=_ZN5telux4data3net15VlanManagerImpl7cleanupEv=so_stub_for_libtelux_data
-Wl,--defsym=_ZN5telux4data3net15VlanManagerImpl8initSyncEv=so_stub_for_libtelux_data
-Wl,--defsym=_ZN5telux4data3net15VlanManagerImplC1ENS0_13OperationTypeESt10shared_ptrINS0_9QcmClientEE=so_stub_for_libtelux_data
-Wl,--defsym=_ZN5telux4data3net15VlanManagerImplC2ENS0_13OperationTypeESt10shared_ptrINS0_9QcmClientEE=so_stub_for_libtelux_data
-Wl,--defsym=_ZN5telux4data3net15VlanManagerImplD0Ev=so_stub_for_libtelux_data
-Wl,--defsym=_ZN5telux4data3net15VlanManagerImplD1Ev=so_stub_for_libtelux_data
-Wl,--defsym=_ZN5telux4data3net15VlanManagerImplD2Ev=so_stub_for_libtelux_data
-Wl,--defsym=_ZN5telux4data3net16L2tpTunnelConfigC1EOS2_=so_stub_for_libtelux_data
-Wl,--defsym=_ZN5telux4data3net16L2tpTunnelConfigC1ERKS2_=so_stub_for_libtelux_data
-Wl,--defsym=_ZN5telux4data3net16L2tpTunnelConfigC2EOS2_=so_stub_for_libtelux_data
-Wl,--defsym=_ZN5telux4data3net16L2tpTunnelConfigC2ERKS2_=so_stub_for_libtelux_data
-Wl,--defsym=_ZN5telux4data3net16L2tpTunnelConfigD1Ev=so_stub_for_libtelux_data
-Wl,--defsym=_ZN5telux4data3net16L2tpTunnelConfigD2Ev=so_stub_for_libtelux_data
-Wl,--defsym=_ZN5telux4data3net16SocksManagerImpl11enableSocksEbSt8functionIFvNS_6common9ErrorCodeEEE=so_stub_for_libtelux_data
-Wl,--defsym=_ZN5telux4data3net16SocksManagerImpl16getOperationTypeEv=so_stub_for_libtelux_data
-Wl,--defsym=_ZN5telux4data3net16SocksManagerImpl16isSubsystemReadyEv=so_stub_for_libtelux_data
-Wl,--defsym=_ZN5telux4data3net16SocksManagerImpl16onSubsystemReadyEv=so_stub_for_libtelux_data
-Wl,--defsym=_ZN5telux4data3net16SocksManagerImpl16registerListenerESt8weak_ptrINS1_14ISocksListenerEE=so_stub_for_libtelux_data
-Wl,--defsym=_ZN5telux4data3net16SocksManagerImpl17setSubsystemReadyEb=so_stub_for_libtelux_data
-Wl,--defsym=_ZN5telux4data3net16SocksManagerImpl18deregisterListenerESt8weak_ptrINS1_14ISocksListenerEE=so_stub_for_libtelux_data
-Wl,--defsym=_ZN5telux4data3net16SocksManagerImpl21onServiceStatusChangeENS_6common13ServiceStatusE=so_stub_for_libtelux_data
-Wl,--defsym=_ZN5telux4data3net16SocksManagerImpl21waitForInitializationEv=so_stub_for_libtelux_data
-Wl,--defsym=_ZN5telux4data3net16SocksManagerImpl4initEv=so_stub_for_libtelux_data
-Wl,--defsym=_ZN5telux4data3net16SocksManagerImpl7cleanupEv=so_stub_for_libtelux_data
-Wl,--defsym=_ZN5telux4data3net16SocksManagerImpl8initSyncEv=so_stub_for_libtelux_data
-Wl,--defsym=_ZN5telux4data3net16SocksManagerImplC1ENS0_13OperationTypeESt10shared_ptrINS0_9QcmClientEE=so_stub_for_libtelux_data
-Wl,--defsym=_ZN5telux4data3net16SocksManagerImplC2ENS0_13OperationTypeESt10shared_ptrINS0_9QcmClientEE=so_stub_for_libtelux_data
-Wl,--defsym=_ZN5telux4data3net16SocksManagerImplD0Ev=so_stub_for_libtelux_data
-Wl,--defsym=_ZN5telux4data3net16SocksManagerImplD1Ev=so_stub_for_libtelux_data
-Wl,--defsym=_ZN5telux4data3net16SocksManagerImplD2Ev=so_stub_for_libtelux_data
-Wl,--defsym=_ZN5telux4data3net17BridgeManagerImpl12enableBridgeEbSt8functionIFvNS_6common9ErrorCodeEEE=so_stub_for_libtelux_data
-Wl,--defsym=_ZN5telux4data3net17BridgeManagerImpl12removeBridgeENSt7__cxx1112basic_stringIcSt11char_traitsIcESaIcEEESt8functionIFvNS_6common9ErrorCodeEEE=so_stub_for_libtelux_data
-Wl,--defsym=_ZN5telux4data3net17BridgeManagerImpl16isSubsystemReadyEv=so_stub_for_libtelux_data
-Wl,--defsym=_ZN5telux4data3net17BridgeManagerImpl16onSubsystemReadyEv=so_stub_for_libtelux_data
-Wl,--defsym=_ZN5telux4data3net17BridgeManagerImpl16registerListenerESt8weak_ptrINS1_15IBridgeListenerEE=so_stub_for_libtelux_data
-Wl,--defsym=_ZN5telux4data3net17BridgeManagerImpl17requestBridgeInfoESt8functionIFvRKSt6vectorINS1_10BridgeInfoESaIS5_EENS_6common9ErrorCodeEEE=so_stub_for_libtelux_data
-Wl,--defsym=_ZN5telux4data3net17BridgeManagerImpl17setSubsystemReadyEb=so_stub_for_libtelux_data
-Wl,--defsym=_ZN5telux4data3net17BridgeManagerImpl18deregisterListenerESt8weak_ptrINS1_15IBridgeListenerEE=so_stub_for_libtelux_data
-Wl,--defsym=_ZN5telux4data3net17BridgeManagerImpl21onServiceStatusChangeENS_6common13ServiceStatusE=so_stub_for_libtelux_data
-Wl,--defsym=_ZN5telux4data3net17BridgeManagerImpl21waitForInitializationEv=so_stub_for_libtelux_data
-Wl,--defsym=_ZN5telux4data3net17BridgeManagerImpl4initEv=so_stub_for_libtelux_data
-Wl,--defsym=_ZN5telux4data3net17BridgeManagerImpl8initSyncEv=so_stub_for_libtelux_data
-Wl,--defsym=_ZN5telux4data3net17BridgeManagerImpl9addBridgeENS1_10BridgeInfoESt8functionIFvNS_6common9ErrorCodeEEE=so_stub_for_libtelux_data
-Wl,--defsym=_ZN5telux4data3net17BridgeManagerImplC1ESt10shared_ptrINS0_9QcmClientEE=so_stub_for_libtelux_data
-Wl,--defsym=_ZN5telux4data3net17BridgeManagerImplC2ESt10shared_ptrINS0_9QcmClientEE=so_stub_for_libtelux_data
-Wl,--defsym=_ZN5telux4data3net17BridgeManagerImplD0Ev=so_stub_for_libtelux_data
-Wl,--defsym=_ZN5telux4data3net17BridgeManagerImplD1Ev=so_stub_for_libtelux_data
-Wl,--defsym=_ZN5telux4data3net17BridgeManagerImplD2Ev=so_stub_for_libtelux_data
-Wl,--defsym=_ZN5telux4data3net17FirewallEntryImpl12getDirectionEv=so_stub_for_libtelux_data
-Wl,--defsym=_ZN5telux4data3net17FirewallEntryImpl15getIpFamilyTypeEv=so_stub_for_libtelux_data
-Wl,--defsym=_ZN5telux4data3net17FirewallEntryImpl18getIProtocolFilterEv=so_stub_for_libtelux_data
-Wl,--defsym=_ZN5telux4data3net17FirewallEntryImpl9getHandleEv=so_stub_for_libtelux_data
-Wl,--defsym=_ZN5telux4data3net17FirewallEntryImpl9setHandleEj=so_stub_for_libtelux_data
-Wl,--defsym=_ZN5telux4data3net17FirewallEntryImplC1ESt10shared_ptrINS0_9IIpFilterEENS0_9DirectionENS0_12IpFamilyTypeE=so_stub_for_libtelux_data
-Wl,--defsym=_ZN5telux4data3net17FirewallEntryImplC2ESt10shared_ptrINS0_9IIpFilterEENS0_9DirectionENS0_12IpFamilyTypeE=so_stub_for_libtelux_data
-Wl,--defsym=_ZN5telux4data3net17FirewallEntryImplD0Ev=so_stub_for_libtelux_data
-Wl,--defsym=_ZN5telux4data3net17FirewallEntryImplD1Ev=so_stub_for_libtelux_data
-Wl,--defsym=_ZN5telux4data3net17FirewallEntryImplD2Ev=so_stub_for_libtelux_data
-Wl,--defsym=_ZN5telux4data3net17IFirewallListener21onServiceStatusChangeENS_6common13ServiceStatusE=so_stub_for_libtelux_data
-Wl,--defsym=_ZN5telux4data3net19FirewallManagerImpl10disableDmzEiNS0_12IpFamilyTypeESt8functionIFvNS_6common9ErrorCodeEEE6SlotId=so_stub_for_libtelux_data
-Wl,--defsym=_ZN5telux4data3net19FirewallManagerImpl11setFirewallEibbSt8functionIFvNS_6common9ErrorCodeEEE6SlotId=so_stub_for_libtelux_data
-Wl,--defsym=_ZN5telux4data3net19FirewallManagerImpl15requestDmzEntryEiSt8functionIFvSt6vectorINSt7__cxx1112basic_stringIcSt11char_traitsIcESaIcEEESaISA_EENS_6common9ErrorCodeEEE6SlotId=so_stub_for_libtelux_data
-Wl,--defsym=_ZN5telux4data3net19FirewallManagerImpl16addFirewallEntryEiSt10shared_ptrINS1_14IFirewallEntryEESt8functionIFvNS_6common9ErrorCodeEEE6SlotId=so_stub_for_libtelux_data
-Wl,--defsym=_ZN5telux4data3net19FirewallManagerImpl16getOperationTypeEv=so_stub_for_libtelux_data
-Wl,--defsym=_ZN5telux4data3net19FirewallManagerImpl16isSubsystemReadyEv=so_stub_for_libtelux_data
-Wl,--defsym=_ZN5telux4data3net19FirewallManagerImpl16onSubsystemReadyEv=so_stub_for_libtelux_data
-Wl,--defsym=_ZN5telux4data3net19FirewallManagerImpl16registerListenerESt8weak_ptrINS1_17IFirewallListenerEE=so_stub_for_libtelux_data
-Wl,--defsym=_ZN5telux4data3net19FirewallManagerImpl17setSubsystemReadyEb=so_stub_for_libtelux_data
-Wl,--defsym=_ZN5telux4data3net19FirewallManagerImpl18deregisterListenerESt8weak_ptrINS1_17IFirewallListenerEE=so_stub_for_libtelux_data
-Wl,--defsym=_ZN5telux4data3net19FirewallManagerImpl19removeFirewallEntryEijSt8functionIFvNS_6common9ErrorCodeEEE6SlotId=so_stub_for_libtelux_data
-Wl,--defsym=_ZN5telux4data3net19FirewallManagerImpl21onServiceStatusChangeENS_6common13ServiceStatusE=so_stub_for_libtelux_data
-Wl,--defsym=_ZN5telux4data3net19FirewallManagerImpl21requestFirewallStatusEiSt8functionIFvbbNS_6common9ErrorCodeEEE6SlotId=so_stub_for_libtelux_data
-Wl,--defsym=_ZN5telux4data3net19FirewallManagerImpl21waitForInitializationEv=so_stub_for_libtelux_data
-Wl,--defsym=_ZN5telux4data3net19FirewallManagerImpl22requestFirewallEntriesEiSt8functionIFvSt6vectorISt10shared_ptrINS1_14IFirewallEntryEESaIS7_EENS_6common9ErrorCodeEEE6SlotId=so_stub_for_libtelux_data
-Wl,--defsym=_ZN5telux4data3net19FirewallManagerImpl4initEv=so_stub_for_libtelux_data
-Wl,--defsym=_ZN5telux4data3net19FirewallManagerImpl7cleanupEv=so_stub_for_libtelux_data
-Wl,--defsym=_ZN5telux4data3net19FirewallManagerImpl8initSyncEv=so_stub_for_libtelux_data
-Wl,--defsym=_ZN5telux4data3net19FirewallManagerImpl9enableDmzEiNSt7__cxx1112basic_stringIcSt11char_traitsIcESaIcEEESt8functionIFvNS_6common9ErrorCodeEEE6SlotId=so_stub_for_libtelux_data
-Wl,--defsym=_ZN5telux4data3net19FirewallManagerImplC1ENS0_13OperationTypeESt10shared_ptrINS0_9QcmClientEE=so_stub_for_libtelux_data
-Wl,--defsym=_ZN5telux4data3net19FirewallManagerImplC2ENS0_13OperationTypeESt10shared_ptrINS0_9QcmClientEE=so_stub_for_libtelux_data
-Wl,--defsym=_ZN5telux4data3net19FirewallManagerImplD0Ev=so_stub_for_libtelux_data
-Wl,--defsym=_ZN5telux4data3net19FirewallManagerImplD1Ev=so_stub_for_libtelux_data
-Wl,--defsym=_ZN5telux4data3net19FirewallManagerImplD2Ev=so_stub_for_libtelux_data
-Wl,--defsym=_ZN5telux4data8IPv4InfoaSEOS1_=so_stub_for_libtelux_data
-Wl,--defsym=_ZN5telux4data8IPv4InfoC1ERKS1_=so_stub_for_libtelux_data
-Wl,--defsym=_ZN5telux4data8IPv4InfoC2ERKS1_=so_stub_for_libtelux_data
-Wl,--defsym=_ZN5telux4data8IPv4InfoD1Ev=so_stub_for_libtelux_data
-Wl,--defsym=_ZN5telux4data8IPv4InfoD2Ev=so_stub_for_libtelux_data
-Wl,--defsym=_ZN5telux4data8IPv6InfoD1Ev=so_stub_for_libtelux_data
-Wl,--defsym=_ZN5telux4data8IPv6InfoD2Ev=so_stub_for_libtelux_data
-Wl,--defsym=_ZN5telux4data9DsiClient11getDataCallEii=so_stub_for_libtelux_data
-Wl,--defsym=_ZN5telux4data9DsiClient11getDataCallENSt7__cxx1112basic_stringIcSt11char_traitsIcESaIcEEE=so_stub_for_libtelux_data
-Wl,--defsym=_ZN5telux4data9DsiClient12getDsiClientEv=so_stub_for_libtelux_data
-Wl,--defsym=_ZN5telux4data9DsiClient13addDataFilterEiiRSt10shared_ptrINS0_9IIpFilterEESt8functionIFvNS_6common9ErrorCodeEEE=so_stub_for_libtelux_data
-Wl,--defsym=_ZN5telux4data9DsiClient14updateDataCallEPv13dsi_net_evt_tRSt10shared_ptrINS0_12DataCallImplEE=so_stub_for_libtelux_data
-Wl,--defsym=_ZN5telux4data9DsiClient15dsiInitCallbackEtPv=so_stub_for_libtelux_data
-Wl,--defsym=_ZN5telux4data9DsiClient15getDataSrvcHndlEPFvPvS2_13dsi_net_evt_tP20dsi_evt_payload_ex_tES2_t=so_stub_for_libtelux_data
-Wl,--defsym=_ZN5telux4data9DsiClient15getDataSrvcHndlEPFvPvS2_13dsi_net_evt_tP20dsi_evt_payload_ex_tEtNSt7__cxx1112basic_stringIcSt11char_traitsIcESaIcEEES2_=so_stub_for_libtelux_data
-Wl,--defsym=_ZN5telux4data9DsiClient15getMuxidByIfaceENSt7__cxx1112basic_stringIcSt11char_traitsIcESaIcEEE=so_stub_for_libtelux_data
-Wl,--defsym=_ZN5telux4data9DsiClient16formatSocketAddrEP16sockaddr_storagejbPcib=so_stub_for_libtelux_data
-Wl,--defsym=_ZN5telux4data9DsiClient16registerListenerESt8weak_ptrINS0_23IDataConnectionListenerEE=so_stub_for_libtelux_data
-Wl,--defsym=_ZN5telux4data9DsiClient16releaseDsiHandleEPv=so_stub_for_libtelux_data
-Wl,--defsym=_ZN5telux4data9DsiClient16updateIpAddrInfoEP15dsi_addr_info_siRSt10shared_ptrINS0_12DataCallImplEE=so_stub_for_libtelux_data
-Wl,--defsym=_ZN5telux4data9DsiClient17getDataFilterModeENSt7__cxx1112basic_stringIcSt11char_traitsIcESaIcEEESt8functionIFvNS0_16DataRestrictModeENS_6common9ErrorCodeEEE=so_stub_for_libtelux_data
-Wl,--defsym=_ZN5telux4data9DsiClient17initServiceSubReqER36dsi_v2x_service_subscribe_req_info_tjtSt10shared_ptrISt6vectorIjSaIjEEE33dsi_v2x_service_sub_action_type_t=so_stub_for_libtelux_data
-Wl,--defsym=_ZN5telux4data9DsiClient17setDataCallParamsERKPvii=so_stub_for_libtelux_data
-Wl,--defsym=_ZN5telux4data9DsiClient17setDataFilterModeEiihhSt8functionIFvNS_6common9ErrorCodeEEE=so_stub_for_libtelux_data
-Wl,--defsym=_ZN5telux4data9DsiClient17updateSpsFlowSyncEjNSt7__cxx1112basic_stringIcSt11char_traitsIcESaIcEEESt10shared_ptrINS_4cv2x11ICv2xTxFlowEERKNS9_11SpsFlowInfoE=so_stub_for_libtelux_data
-Wl,--defsym=_ZN5telux4data9DsiClient18deregisterListenerESt8weak_ptrINS0_23IDataConnectionListenerEE=so_stub_for_libtelux_data
-Wl,--defsym=_ZN5telux4data9DsiClient19dsiToDataCallStatusE13dsi_net_evt_t=so_stub_for_libtelux_data
-Wl,--defsym=_ZN5telux4data9DsiClient19periodicityToUint32ENS_4cv2x11PeriodicityE=so_stub_for_libtelux_data
-Wl,--defsym=_ZN5telux4data9DsiClient19registerSpsFlowSyncEjjRKNS_4cv2x11SpsFlowInfoEtbtNSt7__cxx1112basic_stringIcSt11char_traitsIcESaIcEEERh=so_stub_for_libtelux_data
-Wl,--defsym=_ZN5telux4data9DsiClient19removeAllDataFilterEiiSt8functionIFvNS_6common9ErrorCodeEEE=so_stub_for_libtelux_data
-Wl,--defsym=_ZN5telux4data9DsiClient19uint32ToPeriodicityEj=so_stub_for_libtelux_data
-Wl,--defsym=_ZN5telux4data9DsiClient20convertRespToSpsInfoERK32dsi_v2x_sps_flow_get_info_resp_tRNS_4cv2x11SpsFlowInfoE=so_stub_for_libtelux_data
-Wl,--defsym=_ZN5telux4data9DsiClient20initSpsFlowRegReqMsgER31dsi_v2x_sps_flow_reg_req_info_tjjRKNS_4cv2x11SpsFlowInfoEtbt=so_stub_for_libtelux_data
-Wl,--defsym=_ZN5telux4data9DsiClient21deregisterSpsFlowSyncEjNSt7__cxx1112basic_stringIcSt11char_traitsIcESaIcEEEj=so_stub_for_libtelux_data
-Wl,--defsym=_ZN5telux4data9DsiClient21getAvailableListenersERSt6vectorISt10shared_ptrINS0_23IDataConnectionListenerEESaIS5_EE=so_stub_for_libtelux_data
-Wl,--defsym=_ZN5telux4data9DsiClient22registerNonSpsFlowSyncEjNSt7__cxx1112basic_stringIcSt11char_traitsIcESaIcEEEjRKNS_4cv2x13EventFlowInfoEt19dsi_protocol_type_t=so_stub_for_libtelux_data
-Wl,--defsym=_ZN5telux4data9DsiClient22requestRuntimeSettingsERKNSt7__cxx1112basic_stringIcSt11char_traitsIcESaIcEEERSt6vectorINS_4cv2x19DataSessionSettingsESaISC_EE=so_stub_for_libtelux_data
-Wl,--defsym=_ZN5telux4data9DsiClient22requestSpsFlowInfoSyncEjNSt7__cxx1112basic_stringIcSt11char_traitsIcESaIcEEEhRNS_4cv2x11SpsFlowInfoE=so_stub_for_libtelux_data
-Wl,--defsym=_ZN5telux4data9DsiClient23handleDsiStatusCallbackERKSt10shared_ptrINS0_21DsiStatusCallbackDataEE=so_stub_for_libtelux_data
-Wl,--defsym=_ZN5telux4data9DsiClient23initNonSpsFlowRegReqMsgER35dsi_v2x_non_sps_flow_reg_req_info_tjjRKNS_4cv2x13EventFlowInfoEt19dsi_protocol_type_t=so_stub_for_libtelux_data
-Wl,--defsym=_ZN5telux4data9DsiClient23initSpsFlowUpdateReqMsgER34dsi_v2x_sps_flow_update_req_info_tjSt10shared_ptrINS_4cv2x11ICv2xTxFlowEERKNS5_11SpsFlowInfoE=so_stub_for_libtelux_data
-Wl,--defsym=_ZN5telux4data9DsiClient24deregisterNonSpsFlowSyncEjNSt7__cxx1112basic_stringIcSt11char_traitsIcESaIcEEEjt=so_stub_for_libtelux_data
-Wl,--defsym=_ZN5telux4data9DsiClient24deregisterNonSpsFlowSyncEjNSt7__cxx1112basic_stringIcSt11char_traitsIcESaIcEEERSt6vectorISt10shared_ptrINS_4cv2x11ICv2xTxFlowEESaISC_EE=so_stub_for_libtelux_data
-Wl,--defsym=_ZN5telux4data9DsiClient24spsFlowRegReqMsgToStringB5cxx11ERK31dsi_v2x_sps_flow_reg_req_info_t=so_stub_for_libtelux_data
-Wl,--defsym=_ZN5telux4data9DsiClient25getAvailableDataListenersERSt6vectorISt10shared_ptrINS0_19IDataFilterListenerEESaIS5_EE=so_stub_for_libtelux_data
-Wl,--defsym=_ZN5telux4data9DsiClient25initNonSpsFlowDeregReqMsgER37dsi_v2x_non_sps_flow_dereg_req_info_tjjt=so_stub_for_libtelux_data
-Wl,--defsym=_ZN5telux4data9DsiClient25initNonSpsFlowDeregReqMsgER37dsi_v2x_non_sps_flow_dereg_req_info_tjRKSt6vectorISt10shared_ptrINS_4cv2x11ICv2xTxFlowEESaIS8_EE=so_stub_for_libtelux_data
-Wl,--defsym=_ZN5telux4data9DsiClient25notifyDataCallInfoChangedERKSt10shared_ptrINS0_9IDataCallEE=so_stub_for_libtelux_data
-Wl,--defsym=_ZN5telux4data9DsiClient26addServiceSubscriptionSyncEjtNSt7__cxx1112basic_stringIcSt11char_traitsIcESaIcEEESt10shared_ptrISt6vectorIjSaIjEEE=so_stub_for_libtelux_data
-Wl,--defsym=_ZN5telux4data9DsiClient26registerDataFilterListenerESt8weak_ptrINS0_19IDataFilterListenerEE=so_stub_for_libtelux_data
-Wl,--defsym=_ZN5telux4data9DsiClient27notifyDataFilterModeChangedEP10evt_info_s=so_stub_for_libtelux_data
-Wl,--defsym=_ZN5telux4data9DsiClient27spsFlowUpdateReqMsgToStringB5cxx11ERK34dsi_v2x_sps_flow_update_req_info_t=so_stub_for_libtelux_data
-Wl,--defsym=_ZN5telux4data9DsiClient28deregisterDataFilterListenerESt8weak_ptrINS0_19IDataFilterListenerEE=so_stub_for_libtelux_data
-Wl,--defsym=_ZN5telux4data9DsiClient29removeServiceSubscriptionSyncEjNSt7__cxx1112basic_stringIcSt11char_traitsIcESaIcEEESt10shared_ptrISt6vectorIjSaIjEEE=so_stub_for_libtelux_data
-Wl,--defsym=_ZN5telux4data9DsiClient4initEv=so_stub_for_libtelux_data
-Wl,--defsym=_ZN5telux4data9DsiClient7cleanupEv=so_stub_for_libtelux_data
-Wl,--defsym=_ZN5telux4data9DsiClient9postEventEtPv=so_stub_for_libtelux_data
-Wl,--defsym=_ZN5telux4data9DsiClientC1Ev=so_stub_for_libtelux_data
-Wl,--defsym=_ZN5telux4data9DsiClientC2Ev=so_stub_for_libtelux_data
-Wl,--defsym=_ZN5telux4data9DsiClientD1Ev=so_stub_for_libtelux_data
-Wl,--defsym=_ZN5telux4data9DsiClientD2Ev=so_stub_for_libtelux_data
-Wl,--defsym=_ZN5telux4data9DsiHelper14logDsiNetEventE13dsi_net_evt_t=so_stub_for_libtelux_data
-Wl,--defsym=_ZN5telux4data9DsiHelper15dsiNetEventMap_B5cxx11E=so_stub_for_libtelux_data
-Wl,--defsym=_ZN5telux4data9EventInfoINS0_21DsiStatusCallbackDataEE7processEv=so_stub_for_libtelux_data
-Wl,--defsym=_ZN5telux4data9EventInfoINS0_21DsiStatusCallbackDataEEC1ERKSt10shared_ptrIS2_ESt8functionIFvS7_EE=so_stub_for_libtelux_data
-Wl,--defsym=_ZN5telux4data9EventInfoINS0_21DsiStatusCallbackDataEEC2ERKSt10shared_ptrIS2_ESt8functionIFvS7_EE=so_stub_for_libtelux_data
-Wl,--defsym=_ZN5telux4data9QcmClient10createVlanENS0_13OperationTypeERKNS0_10VlanConfigESt8functionIFvbNS_6common9ErrorCodeEEE=so_stub_for_libtelux_data
-Wl,--defsym=_ZN5telux4data9QcmClient10disableDmzENS0_13OperationTypeE6SlotIdiNS0_12IpFamilyTypeESt8functionIFvNS_6common9ErrorCodeEEE=so_stub_for_libtelux_data
-Wl,--defsym=_ZN5telux4data9QcmClient10removeVlanENS0_13OperationTypeEsNS0_13InterfaceTypeESt8functionIFvNS_6common9ErrorCodeEEE=so_stub_for_libtelux_data
-Wl,--defsym=_ZN5telux4data9QcmClient11enableSocksEbNS0_13OperationTypeESt8functionIFvNS_6common9ErrorCodeEEE=so_stub_for_libtelux_data
-Wl,--defsym=_ZN5telux4data9QcmClient11getDataCallEiNS0_13OperationTypeE=so_stub_for_libtelux_data
-Wl,--defsym=_ZN5telux4data9QcmClient11getDataCallEj=so_stub_for_libtelux_data
-Wl,--defsym=_ZN5telux4data9QcmClient11setFirewallENS0_13OperationTypeE6SlotIdibbSt8functionIFvNS_6common9ErrorCodeEEE=so_stub_for_libtelux_data
-Wl,--defsym=_ZN5telux4data9QcmClient12enableBridgeENS0_13OperationTypeEbSt8functionIFvNS_6common9ErrorCodeEEE=so_stub_for_libtelux_data
-Wl,--defsym=_ZN5telux4data9QcmClient12getProfileIdERK40qcmap_msgr_wwan_policy_list_resp_msg_v01j=so_stub_for_libtelux_data
-Wl,--defsym=_ZN5telux4data9QcmClient12removeBridgeENS0_13OperationTypeENSt7__cxx1112basic_stringIcSt11char_traitsIcESaIcEEESt8functionIFvNS_6common9ErrorCodeEEE=so_stub_for_libtelux_data
-Wl,--defsym=_ZN5telux4data9QcmClient12stopDataCallEii6SlotIdSt8functionIFvRKSt10shared_ptrINS0_9IDataCallEENS_6common9ErrorCodeEEENS0_13OperationTypeE=so_stub_for_libtelux_data
-Wl,--defsym=_ZN5telux4data9QcmClient13addBridgeSyncENS0_13OperationTypeENS0_3net10BridgeInfoESt8functionIFvNS_6common9ErrorCodeEEE=so_stub_for_libtelux_data
-Wl,--defsym=_ZN5telux4data9QcmClient13enableDmzSyncENS0_13OperationTypeEiNSt7__cxx1112basic_stringIcSt11char_traitsIcESaIcEEESt8functionIFvNS_6common9ErrorCodeEEE=so_stub_for_libtelux_data
-Wl,--defsym=_ZN5telux4data9QcmClient13queryVlanInfoENS0_13OperationTypeESt8functionIFvRKSt6vectorINS0_10VlanConfigESaIS5_EENS_6common9ErrorCodeEEE=so_stub_for_libtelux_data
-Wl,--defsym=_ZN5telux4data9QcmClient13startDataCallEii6SlotIdSt8functionIFvRKSt10shared_ptrINS0_9IDataCallEENS_6common9ErrorCodeEEENS0_13OperationTypeE=so_stub_for_libtelux_data
-Wl,--defsym=_ZN5telux4data9QcmClient14createVlanSyncENS0_13OperationTypeERKNS0_10VlanConfigESt8functionIFvbNS_6common9ErrorCodeEEE=so_stub_for_libtelux_data
-Wl,--defsym=_ZN5telux4data9QcmClient14disableDmzSyncENS0_13OperationTypeEiNS0_12IpFamilyTypeESt8functionIFvNS_6common9ErrorCodeEEE=so_stub_for_libtelux_data
-Wl,--defsym=_ZN5telux4data9QcmClient14enableMobileAPEv=so_stub_for_libtelux_data
-Wl,--defsym=_ZN5telux4data9QcmClient14getQcmapClientEv=so_stub_for_libtelux_data
-Wl,--defsym=_ZN5telux4data9QcmClient14isDataSubSysUpEv=so_stub_for_libtelux_data
-Wl,--defsym=_ZN5telux4data9QcmClient14removeVlanSyncENS0_13OperationTypeEsNS0_13InterfaceTypeESt8functionIFvNS_6common9ErrorCodeEEE=so_stub_for_libtelux_data
-Wl,--defsym=_ZN5telux4data9QcmClient15bindWithProfileENS0_13OperationTypeE6SlotIdiiSt8functionIFvNS_6common9ErrorCodeEEE=so_stub_for_libtelux_data
-Wl,--defsym=_ZN5telux4data9QcmClient15enableSocksSyncEbNS0_13OperationTypeESt8functionIFvNS_6common9ErrorCodeEEE=so_stub_for_libtelux_data
-Wl,--defsym=_ZN5telux4data9QcmClient15requestDmzEntryENS0_13OperationTypeE6SlotIdiSt8functionIFvSt6vectorINSt7__cxx1112basic_stringIcSt11char_traitsIcESaIcEEESaISB_EENS_6common9ErrorCodeEEE=so_stub_for_libtelux_data
-Wl,--defsym=_ZN5telux4data9QcmClient15setClientConfigENS0_13OperationTypeER18qmi_error_type_v01=so_stub_for_libtelux_data
-Wl,--defsym=_ZN5telux4data9QcmClient15setFirewallSyncENS0_13OperationTypeEibbSt8functionIFvNS_6common9ErrorCodeEEE=so_stub_for_libtelux_data
-Wl,--defsym=_ZN5telux4data9QcmClient16addFirewallEntryENS0_13OperationTypeE6SlotIdiSt10shared_ptrINS0_3net14IFirewallEntryEESt8functionIFvNS_6common9ErrorCodeEEE=so_stub_for_libtelux_data
-Wl,--defsym=_ZN5telux4data9QcmClient16enableBridgeSyncENS0_13OperationTypeEbSt8functionIFvNS_6common9ErrorCodeEEE=so_stub_for_libtelux_data
-Wl,--defsym=_ZN5telux4data9QcmClient16getCallEndReasonE35qcmap_msgr_wwan_call_end_reason_v01RiS3_=so_stub_for_libtelux_data
-Wl,--defsym=_ZN5telux4data9QcmClient16getProfileHandleERK40qcmap_msgr_wwan_policy_list_resp_msg_v01ii=so_stub_for_libtelux_data
-Wl,--defsym=_ZN5telux4data9QcmClient16handleBringupIndEP17qmi_client_structjPvjj=so_stub_for_libtelux_data
-Wl,--defsym=_ZN5telux4data9QcmClient16registerListenerESt8weak_ptrINS0_23IDataConnectionListenerEE=so_stub_for_libtelux_data
-Wl,--defsym=_ZN5telux4data9QcmClient16removeBridgeSyncENS0_13OperationTypeENSt7__cxx1112basic_stringIcSt11char_traitsIcESaIcEEESt8functionIFvNS_6common9ErrorCodeEEE=so_stub_for_libtelux_data
-Wl,--defsym=_ZN5telux4data9QcmClient16stopDataCallSyncEiiSt8functionIFvRKSt10shared_ptrINS0_9IDataCallEENS_6common9ErrorCodeEEENS0_13OperationTypeE=so_stub_for_libtelux_data
-Wl,--defsym=_ZN5telux4data9QcmClient17addL2tpTunnelSyncENS0_13OperationTypeERKNS0_3net16L2tpTunnelConfigESt8functionIFvNS_6common9ErrorCodeEEE=so_stub_for_libtelux_data
-Wl,--defsym=_ZN5telux4data9QcmClient17addStaticNatEntryENS0_13OperationTypeE6SlotIdiRKNS0_3net9NatConfigESt8functionIFvNS_6common9ErrorCodeEEE=so_stub_for_libtelux_data
-Wl,--defsym=_ZN5telux4data9QcmClient17getBearerTechSyncESt10shared_ptrINS0_12DataCallImplEE=so_stub_for_libtelux_data
-Wl,--defsym=_ZN5telux4data9QcmClient17getDefaultProfileENS0_13OperationTypeESt8functionIFvi6SlotIdNS_6common9ErrorCodeEEE=so_stub_for_libtelux_data
-Wl,--defsym=_ZN5telux4data9QcmClient17getMobileApHandleEv=so_stub_for_libtelux_data
-Wl,--defsym=_ZN5telux4data9QcmClient17handleTeardownIndEP17qmi_client_structjPvjj=so_stub_for_libtelux_data
-Wl,--defsym=_ZN5telux4data9QcmClient17queryVlanInfoSyncENS0_13OperationTypeESt8functionIFvRKSt6vectorINS0_10VlanConfigESaIS5_EENS_6common9ErrorCodeEEE=so_stub_for_libtelux_data
-Wl,--defsym=_ZN5telux4data9QcmClient17requestBridgeInfoENS0_13OperationTypeESt8functionIFvRKSt6vectorINS0_3net10BridgeInfoESaIS6_EENS_6common9ErrorCodeEEE=so_stub_for_libtelux_data
-Wl,--defsym=_ZN5telux4data9QcmClient17setDefaultProfileENS0_13OperationTypeEh6SlotIdSt8functionIFvNS_6common9ErrorCodeEEE=so_stub_for_libtelux_data
-Wl,--defsym=_ZN5telux4data9QcmClient17setL2tpConfigSyncENS0_13OperationTypeEbbbjSt8functionIFvNS_6common9ErrorCodeEEE=so_stub_for_libtelux_data
-Wl,--defsym=_ZN5telux4data9QcmClient17startDataCallSyncEiiSt8functionIFvRKSt10shared_ptrINS0_9IDataCallEENS_6common9ErrorCodeEEENS0_13OperationTypeE=so_stub_for_libtelux_data
-Wl,--defsym=_ZN5telux4data9QcmClient17unbindFromProfileENS0_13OperationTypeE6SlotIdiiSt8functionIFvNS_6common9ErrorCodeEEE=so_stub_for_libtelux_data
-Wl,--defsym=_ZN5telux4data9QcmClient18deregisterListenerESt8weak_ptrINS0_23IDataConnectionListenerEE=so_stub_for_libtelux_data
-Wl,--defsym=_ZN5telux4data9QcmClient18getAllConnectedPDNENS0_13OperationTypeERhP27qcmap_msgr_wwan_info_ex_v01R18qmi_error_type_v01=so_stub_for_libtelux_data
-Wl,--defsym=_ZN5telux4data9QcmClient18logQcmapWwanStatusEj31qcmap_msgr_wwan_status_enum_v01=so_stub_for_libtelux_data
-Wl,--defsym=_ZN5telux4data9QcmClient19bindWithProfileSyncENS0_13OperationTypeEiiSt8functionIFvNS_6common9ErrorCodeEEE=so_stub_for_libtelux_data
-Wl,--defsym=_ZN5telux4data9QcmClient19handleWwanStatusIndEP17qmi_client_structjPvjj=so_stub_for_libtelux_data
-Wl,--defsym=_ZN5telux4data9QcmClient19qcmapMsgrIndicationEP17qmi_client_structjPvjS4_=so_stub_for_libtelux_data
-Wl,--defsym=_ZN5telux4data9QcmClient19qcmToDataCallStatusEj31qcmap_msgr_wwan_status_enum_v01RNS0_14DataCallStatusERNS0_12IpFamilyTypeE=so_stub_for_libtelux_data
-Wl,--defsym=_ZN5telux4data9QcmClient19qcmWwanInfoToIpAddrE24qcmap_msgr_wwan_info_v01RNSt7__cxx1112basic_stringIcSt11char_traitsIcESaIcEEERNS3_4listINS0_10IpAddrInfoESaISB_EEE=so_stub_for_libtelux_data
-Wl,--defsym=_ZN5telux4data9QcmClient19qcmWwanInfoToIpAddrE27qcmap_msgr_wwan_info_ex_v01RNSt7__cxx1112basic_stringIcSt11char_traitsIcESaIcEEERNS3_4listINS0_10IpAddrInfoESaISB_EEERNS0_12IpFamilyTypeE=so_stub_for_libtelux_data
-Wl,--defsym=_ZN5telux4data9QcmClient19removeFirewallEntryENS0_13OperationTypeE6SlotIdijSt8functionIFvNS_6common9ErrorCodeEEE=so_stub_for_libtelux_data
-Wl,--defsym=_ZN5telux4data9QcmClient19requestDmzEntrySyncENS0_13OperationTypeEiSt8functionIFvSt6vectorINSt7__cxx1112basic_stringIcSt11char_traitsIcESaIcEEESaISA_EENS_6common9ErrorCodeEEE=so_stub_for_libtelux_data
-Wl,--defsym=_ZN5telux4data9QcmClient20addFirewallEntrySyncENS0_13OperationTypeEiSt10shared_ptrINS0_3net14IFirewallEntryEESt8functionIFvNS_6common9ErrorCodeEEE=so_stub_for_libtelux_data
-Wl,--defsym=_ZN5telux4data9QcmClient20queryVlanMappingListENS0_13OperationTypeE6SlotIdSt8functionIFvRKNSt7__cxx114listISt4pairIiiESaIS8_EEENS_6common9ErrorCodeEEE=so_stub_for_libtelux_data
-Wl,--defsym=_ZN5telux4data9QcmClient20removeL2tpTunnelSyncENS0_13OperationTypeEjSt8functionIFvNS_6common9ErrorCodeEEE=so_stub_for_libtelux_data
-Wl,--defsym=_ZN5telux4data9QcmClient20removeStaticNatEntryENS0_13OperationTypeE6SlotIdiRKNS0_3net9NatConfigESt8functionIFvNS_6common9ErrorCodeEEE=so_stub_for_libtelux_data
-Wl,--defsym=_ZN5telux4data9QcmClient20setQcmapConfigLockedENS0_13OperationTypeEiR18qmi_error_type_v01b=so_stub_for_libtelux_data
-Wl,--defsym=_ZN5telux4data9QcmClient20subSysRestartCleanupEv=so_stub_for_libtelux_data
-Wl,--defsym=_ZN5telux4data9QcmClient20subSysRestartRecoverEv=so_stub_for_libtelux_data
-Wl,--defsym=_ZN5telux4data9QcmClient21addStaticNatEntrySyncENS0_13OperationTypeEiRKNS0_3net9NatConfigESt8functionIFvNS_6common9ErrorCodeEEE=so_stub_for_libtelux_data
-Wl,--defsym=_ZN5telux4data9QcmClient21getDefaultProfileSyncENS0_13OperationTypeESt8functionIFvi6SlotIdNS_6common9ErrorCodeEEE=so_stub_for_libtelux_data
-Wl,--defsym=_ZN5telux4data9QcmClient21requestBridgeInfoSyncENS0_13OperationTypeESt8functionIFvRKSt6vectorINS0_3net10BridgeInfoESaIS6_EENS_6common9ErrorCodeEEE=so_stub_for_libtelux_data
-Wl,--defsym=_ZN5telux4data9QcmClient21requestFirewallStatusENS0_13OperationTypeE6SlotIdiSt8functionIFvbbNS_6common9ErrorCodeEEE=so_stub_for_libtelux_data
-Wl,--defsym=_ZN5telux4data9QcmClient21requestL2tpConfigSyncENS0_13OperationTypeESt8functionIFvRKNS0_3net13L2tpSysConfigENS_6common9ErrorCodeEEE=so_stub_for_libtelux_data
-Wl,--defsym=_ZN5telux4data9QcmClient21setDefaultProfileSyncENS0_13OperationTypeEhSt8functionIFvNS_6common9ErrorCodeEEE=so_stub_for_libtelux_data
-Wl,--defsym=_ZN5telux4data9QcmClient21unbindFromProfileSyncENS0_13OperationTypeEiiSt8functionIFvNS_6common9ErrorCodeEEE=so_stub_for_libtelux_data
-Wl,--defsym=_ZN5telux4data9QcmClient22handleSubSysRestartIndEP17qmi_client_structjPvjj=so_stub_for_libtelux_data
-Wl,--defsym=_ZN5telux4data9QcmClient22registerForIndicationsEv=so_stub_for_libtelux_data
-Wl,--defsym=_ZN5telux4data9QcmClient22requestFirewallEntriesENS0_13OperationTypeE6SlotIdiSt8functionIFvSt6vectorISt10shared_ptrINS0_3net14IFirewallEntryEESaIS9_EENS_6common9ErrorCodeEEE=so_stub_for_libtelux_data
-Wl,--defsym=_ZN5telux4data9QcmClient23createAndUpdateDataCallEiiRSt10shared_ptrINS0_12DataCallImplEENS0_13OperationTypeE=so_stub_for_libtelux_data
-Wl,--defsym=_ZN5telux4data9QcmClient23qmiCallTypeFromIpFamilyE29qcmap_msgr_ip_family_enum_v01=so_stub_for_libtelux_data
-Wl,--defsym=_ZN5telux4data9QcmClient23removeFirewallEntrySyncENS0_13OperationTypeEijSt8functionIFvNS_6common9ErrorCodeEEE=so_stub_for_libtelux_data
-Wl,--defsym=_ZN5telux4data9QcmClient23requestStaticNatEntriesENS0_13OperationTypeE6SlotIdiSt8functionIFvRKSt6vectorINS0_3net9NatConfigESaIS7_EENS_6common9ErrorCodeEEE=so_stub_for_libtelux_data
-Wl,--defsym=_ZN5telux4data9QcmClient23resetDataCallStatisticsEii6SlotIdSt8functionIFvNS_6common9ErrorCodeEEE=so_stub_for_libtelux_data
-Wl,--defsym=_ZN5telux4data9QcmClient24queryVlanMappingListSyncENS0_13OperationTypeESt8functionIFvRKNSt7__cxx114listISt4pairIiiESaIS7_EEENS_6common9ErrorCodeEEE=so_stub_for_libtelux_data
-Wl,--defsym=_ZN5telux4data9QcmClient24removeStaticNatEntrySyncENS0_13OperationTypeEiRKNS0_3net9NatConfigESt8functionIFvNS_6common9ErrorCodeEEE=so_stub_for_libtelux_data
-Wl,--defsym=_ZN5telux4data9QcmClient25notifyDataCallInfoChangedESt10shared_ptrINS0_9IDataCallEE=so_stub_for_libtelux_data
-Wl,--defsym=_ZN5telux4data9QcmClient25requestDataCallStatisticsEii6SlotIdSt8functionIFvNS0_13DataCallStatsENS_6common9ErrorCodeEEE=so_stub_for_libtelux_data
-Wl,--defsym=_ZN5telux4data9QcmClient25requestFirewallStatusSyncENS0_13OperationTypeEiSt8functionIFvbbNS_6common9ErrorCodeEEE=so_stub_for_libtelux_data
-Wl,--defsym=_ZN5telux4data9QcmClient26requestFirewallEntriesSyncENS0_13OperationTypeEiSt8functionIFvSt6vectorISt10shared_ptrINS0_3net14IFirewallEntryEESaIS8_EENS_6common9ErrorCodeEEE=so_stub_for_libtelux_data
-Wl,--defsym=_ZN5telux4data9QcmClient27getEntriesFromQcmHandleListEi26qcmap_msgr_firewall_conf_tRSt6vectorISt10shared_ptrINS0_3net14IFirewallEntryEESaIS7_EE=so_stub_for_libtelux_data
-Wl,--defsym=_ZN5telux4data9QcmClient27requestStaticNatEntriesSyncENS0_13OperationTypeEiSt8functionIFvRKSt6vectorINS0_3net9NatConfigESaIS6_EENS_6common9ErrorCodeEEE=so_stub_for_libtelux_data
-Wl,--defsym=_ZN5telux4data9QcmClient27resetDataCallStatisticsSyncEiiSt8functionIFvNS_6common9ErrorCodeEEE=so_stub_for_libtelux_data
-Wl,--defsym=_ZN5telux4data9QcmClient28requestConnectedDataCallListENS0_13OperationTypeE6SlotIdSt8functionIFvRKSt6vectorISt10shared_ptrINS0_9IDataCallEESaIS8_EENS_6common9ErrorCodeEEE=so_stub_for_libtelux_data
-Wl,--defsym=_ZN5telux4data9QcmClient29requestDataCallStatisticsSyncEiiSt8functionIFvNS0_13DataCallStatsENS_6common9ErrorCodeEEE=so_stub_for_libtelux_data
-Wl,--defsym=_ZN5telux4data9QcmClient30getProfileIdFromWwanPolicyListEjP18qmi_error_type_v01=so_stub_for_libtelux_data
-Wl,--defsym=_ZN5telux4data9QcmClient30getWwanPolicyFromProfileHandleER42qcmap_msgr_net_profile_and_policy_info_v01jNS0_13OperationTypeE=so_stub_for_libtelux_data
-Wl,--defsym=_ZN5telux4data9QcmClient30notifyDataSysHealthChangedSyncEjhhh=so_stub_for_libtelux_data
-Wl,--defsym=_ZN5telux4data9QcmClient32getDataCallInfoFromProfileHandleERiS2_RNS0_13OperationTypeEj=so_stub_for_libtelux_data
-Wl,--defsym=_ZN5telux4data9QcmClient32requestConnectedDataCallListSyncENS0_13OperationTypeESt8functionIFvRKSt6vectorISt10shared_ptrINS0_9IDataCallEESaIS7_EENS_6common9ErrorCodeEEE=so_stub_for_libtelux_data
-Wl,--defsym=_ZN5telux4data9QcmClient34getProfileHandleFromWwanPolicyListEiiP18qmi_error_type_v01=so_stub_for_libtelux_data
-Wl,--defsym=_ZN5telux4data9QcmClient37updateAndNotifyDataConnectionListenerENS0_14IndicationTypeENS0_14DataCallStatusEiiNSt7__cxx1112basic_stringIcSt11char_traitsIcESaIcEEENS4_4listINS0_10IpAddrInfoESaISB_EEEjNS0_12IpFamilyTypeE=so_stub_for_libtelux_data
-Wl,--defsym=_ZN5telux4data9QcmClient41getConnectedDataCallListWithOperationTypeERSt6vectorISt10shared_ptrINS0_9IDataCallEESaIS5_EENS0_13OperationTypeER18qmi_error_type_v01=so_stub_for_libtelux_data
-Wl,--defsym=_ZN5telux4data9QcmClient41updateAndNotifyDataConnectionListenerSyncENS0_14IndicationTypeENS0_14DataCallStatusEiiNSt7__cxx1112basic_stringIcSt11char_traitsIcESaIcEEENS4_4listINS0_10IpAddrInfoESaISB_EEEjNS0_12IpFamilyTypeE=so_stub_for_libtelux_data
-Wl,--defsym=_ZN5telux4data9QcmClient4initEv=so_stub_for_libtelux_data
-Wl,--defsym=_ZN5telux4data9QcmClient7cleanupEv=so_stub_for_libtelux_data
-Wl,--defsym=_ZN5telux4data9QcmClient9addBridgeENS0_13OperationTypeENS0_3net10BridgeInfoESt8functionIFvNS_6common9ErrorCodeEEE=so_stub_for_libtelux_data
-Wl,--defsym=_ZN5telux4data9QcmClient9enableDmzENS0_13OperationTypeE6SlotIdiNSt7__cxx1112basic_stringIcSt11char_traitsIcESaIcEEESt8functionIFvNS_6common9ErrorCodeEEE=so_stub_for_libtelux_data
-Wl,--defsym=_ZN5telux4data9QcmClientC1Ev=so_stub_for_libtelux_data
-Wl,--defsym=_ZN5telux4data9QcmClientC2Ev=so_stub_for_libtelux_data
-Wl,--defsym=_ZN5telux4data9QcmClientD1Ev=so_stub_for_libtelux_data
-Wl,--defsym=_ZN5telux4data9QcmClientD2Ev=so_stub_for_libtelux_data
-Wl,--defsym=_ZN5telux6common14AsyncTaskQueueIvE14purgeCompletedEv=so_stub_for_libtelux_data
-Wl,--defsym=_ZN5telux6common15ListenerManagerINS_4data23IDataConnectionListenerEE16registerListenerESt8weak_ptrIS3_E=so_stub_for_libtelux_data
-Wl,--defsym=_ZN5telux6common15ListenerManagerINS_4data23IDataConnectionListenerEE18deRegisterListenerESt8weak_ptrIS3_E=so_stub_for_libtelux_data
-Wl,--defsym=_ZN5telux6common15ListenerManagerINS_4data23IDataConnectionListenerEE21getAvailableListenersERSt6vectorISt8weak_ptrIS3_ESaIS7_EE=so_stub_for_libtelux_data
-Wl,--defsym=_ZN5telux6common15ListenerManagerINS_4data3net12INatListenerEE16registerListenerESt8weak_ptrIS4_E=so_stub_for_libtelux_data
-Wl,--defsym=_ZN5telux6common15ListenerManagerINS_4data3net12INatListenerEE18deRegisterListenerESt8weak_ptrIS4_E=so_stub_for_libtelux_data
-Wl,--defsym=_ZN5telux6common15ListenerManagerINS_4data3net12INatListenerEE21getAvailableListenersERSt6vectorISt8weak_ptrIS4_ESaIS8_EE=so_stub_for_libtelux_data
-Wl,--defsym=_ZN5telux6common15ListenerManagerINS_4data3net13IL2tpListenerEE16registerListenerESt8weak_ptrIS4_E=so_stub_for_libtelux_data
-Wl,--defsym=_ZN5telux6common15ListenerManagerINS_4data3net13IL2tpListenerEE18deRegisterListenerESt8weak_ptrIS4_E=so_stub_for_libtelux_data
-Wl,--defsym=_ZN5telux6common15ListenerManagerINS_4data3net13IL2tpListenerEE21getAvailableListenersERSt6vectorISt8weak_ptrIS4_ESaIS8_EE=so_stub_for_libtelux_data
-Wl,--defsym=_ZN5telux6common15ListenerManagerINS_4data3net13IVlanListenerEE16registerListenerESt8weak_ptrIS4_E=so_stub_for_libtelux_data
-Wl,--defsym=_ZN5telux6common15ListenerManagerINS_4data3net13IVlanListenerEE18deRegisterListenerESt8weak_ptrIS4_E=so_stub_for_libtelux_data
-Wl,--defsym=_ZN5telux6common15ListenerManagerINS_4data3net13IVlanListenerEE21getAvailableListenersERSt6vectorISt8weak_ptrIS4_ESaIS8_EE=so_stub_for_libtelux_data
-Wl,--defsym=_ZN5telux6common15ListenerManagerINS_4data3net14ISocksListenerEE16registerListenerESt8weak_ptrIS4_E=so_stub_for_libtelux_data
-Wl,--defsym=_ZN5telux6common15ListenerManagerINS_4data3net14ISocksListenerEE18deRegisterListenerESt8weak_ptrIS4_E=so_stub_for_libtelux_data
-Wl,--defsym=_ZN5telux6common15ListenerManagerINS_4data3net14ISocksListenerEE21getAvailableListenersERSt6vectorISt8weak_ptrIS4_ESaIS8_EE=so_stub_for_libtelux_data
-Wl,--defsym=_ZN5telux6common15ListenerManagerINS_4data3net15IBridgeListenerEE16registerListenerESt8weak_ptrIS4_E=so_stub_for_libtelux_data
-Wl,--defsym=_ZN5telux6common15ListenerManagerINS_4data3net15IBridgeListenerEE18deRegisterListenerESt8weak_ptrIS4_E=so_stub_for_libtelux_data
-Wl,--defsym=_ZN5telux6common15ListenerManagerINS_4data3net15IBridgeListenerEE21getAvailableListenersERSt6vectorISt8weak_ptrIS4_ESaIS8_EE=so_stub_for_libtelux_data
-Wl,--defsym=_ZN5telux6common15ListenerManagerINS_4data3net17IFirewallListenerEE16registerListenerESt8weak_ptrIS4_E=so_stub_for_libtelux_data
-Wl,--defsym=_ZN5telux6common15ListenerManagerINS_4data3net17IFirewallListenerEE18deRegisterListenerESt8weak_ptrIS4_E=so_stub_for_libtelux_data
-Wl,--defsym=_ZN5telux6common15ListenerManagerINS_4data3net17IFirewallListenerEE21getAvailableListenersERSt6vectorISt8weak_ptrIS4_ESaIS8_EE=so_stub_for_libtelux_data
-Wl,--defsym=_ZN5telux6common22IServiceStatusListener21onServiceStatusChangeENS0_13ServiceStatusE=so_stub_for_libtelux_data
-Wl,--defsym=_ZN5telux6common3Log10logMessageIJPKc13dsi_net_evt_tEEEvNS0_8LogLevelERKNSt7__cxx1112basic_stringIcSt11char_traitsIcESaIcEEESE_RKiDpT_=so_stub_for_libtelux_data
-Wl,--defsym=_ZN5telux6common3Log10logMessageIJPKc13dsi_net_evt_tS4_EEEvNS0_8LogLevelERKNSt7__cxx1112basic_stringIcSt11char_traitsIcESaIcEEESE_RKiDpT_=so_stub_for_libtelux_data
-Wl,--defsym=_ZN5telux6common3Log10logMessageIJPKc18qmi_error_type_v01EEEvNS0_8LogLevelERKNSt7__cxx1112basic_stringIcSt11char_traitsIcESaIcEEESE_RKiDpT_=so_stub_for_libtelux_data
-Wl,--defsym=_ZN5telux6common3Log10logMessageIJPKc31qcmap_msgr_wwan_status_enum_v01EEEvNS0_8LogLevelERKNSt7__cxx1112basic_stringIcSt11char_traitsIcESaIcEEESE_RKiDpT_=so_stub_for_libtelux_data
-Wl,--defsym=_ZN5telux6common3Log10logMessageIJPKc6SlotIdEEEvNS0_8LogLevelERKNSt7__cxx1112basic_stringIcSt11char_traitsIcESaIcEEESE_RKiDpT_=so_stub_for_libtelux_data
-Wl,--defsym=_ZN5telux6common3Log10logMessageIJPKcbS4_bS4_bS4_bEEEvNS0_8LogLevelERKNSt7__cxx1112basic_stringIcSt11char_traitsIcESaIcEEESD_RKiDpT_=so_stub_for_libtelux_data
-Wl,--defsym=_ZN5telux6common3Log10logMessageIJPKcEEEvNS0_8LogLevelERKNSt7__cxx1112basic_stringIcSt11char_traitsIcESaIcEEESD_RKiDpT_=so_stub_for_libtelux_data
-Wl,--defsym=_ZN5telux6common3Log10logMessageIJPKchEEEvNS0_8LogLevelERKNSt7__cxx1112basic_stringIcSt11char_traitsIcESaIcEEESD_RKiDpT_=so_stub_for_libtelux_data
-Wl,--defsym=_ZN5telux6common3Log10logMessageIJPKciEEEvNS0_8LogLevelERKNSt7__cxx1112basic_stringIcSt11char_traitsIcESaIcEEESD_RKiDpT_=so_stub_for_libtelux_data
-Wl,--defsym=_ZN5telux6common3Log10logMessageIJPKciS4_iEEEvNS0_8LogLevelERKNSt7__cxx1112basic_stringIcSt11char_traitsIcESaIcEEESD_RKiDpT_=so_stub_for_libtelux_data
-Wl,--defsym=_ZN5telux6common3Log10logMessageIJPKciS4_iS4_iEEEvNS0_8LogLevelERKNSt7__cxx1112basic_stringIcSt11char_traitsIcESaIcEEESD_RKiDpT_=so_stub_for_libtelux_data
-Wl,--defsym=_ZN5telux6common3Log10logMessageIJPKciS4_iS4_NSt7__cxx1112basic_stringIcSt11char_traitsIcESaIcEEES4_SA_S4_iEEEvNS0_8LogLevelERKSA_SD_RKiDpT_=so_stub_for_libtelux_data
-Wl,--defsym=_ZN5telux6common3Log10logMessageIJPKciS4_sS4_hEEEvNS0_8LogLevelERKNSt7__cxx1112basic_stringIcSt11char_traitsIcESaIcEEESD_RKiDpT_=so_stub_for_libtelux_data
-Wl,--defsym=_ZN5telux6common3Log10logMessageIJPKcjEEEvNS0_8LogLevelERKNSt7__cxx1112basic_stringIcSt11char_traitsIcESaIcEEESD_RKiDpT_=so_stub_for_libtelux_data
-Wl,--defsym=_ZN5telux6common3Log10logMessageIJPKcjS4_iEEEvNS0_8LogLevelERKNSt7__cxx1112basic_stringIcSt11char_traitsIcESaIcEEESD_RKiDpT_=so_stub_for_libtelux_data
-Wl,--defsym=_ZN5telux6common3Log10logMessageIJPKcjS4_iS4_iEEEvNS0_8LogLevelERKNSt7__cxx1112basic_stringIcSt11char_traitsIcESaIcEEESD_RKiDpT_=so_stub_for_libtelux_data
-Wl,--defsym=_ZN5telux6common3Log10logMessageIJPKcjS4_jEEEvNS0_8LogLevelERKNSt7__cxx1112basic_stringIcSt11char_traitsIcESaIcEEESD_RKiDpT_=so_stub_for_libtelux_data
-Wl,--defsym=_ZN5telux6common3Log10logMessageIJPKcjS4_sEEEvNS0_8LogLevelERKNSt7__cxx1112basic_stringIcSt11char_traitsIcESaIcEEESD_RKiDpT_=so_stub_for_libtelux_data
-Wl,--defsym=_ZN5telux6common3Log10logMessageIJPKcNSt7__cxx1112basic_stringIcSt11char_traitsIcESaIcEEEEEEvNS0_8LogLevelERKSA_SD_RKiDpT_=so_stub_for_libtelux_data
-Wl,--defsym=_ZN5telux6common3Log10logMessageIJPKcNSt7__cxx1112basic_stringIcSt11char_traitsIcESaIcEEES4_iS4_iS4_iEEEvNS0_8LogLevelERKSA_SD_RKiDpT_=so_stub_for_libtelux_data
-Wl,--defsym=_ZN5telux6common3Log10logMessageIJPKcNSt7__cxx1112basic_stringIcSt11char_traitsIcESaIcEEES4_SA_S4_SA_EEEvNS0_8LogLevelERKSA_SD_RKiDpT_=so_stub_for_libtelux_data
-Wl,--defsym=_ZN5telux6common3Log10logMessageIJPKcPcEEEvNS0_8LogLevelERKNSt7__cxx1112basic_stringIcSt11char_traitsIcESaIcEEESE_RKiDpT_=so_stub_for_libtelux_data
-Wl,--defsym=_ZN5telux6common3Log10logMessageIJPKcPcS4_tS4_tS4_iEEEvNS0_8LogLevelERKNSt7__cxx1112basic_stringIcSt11char_traitsIcESaIcEEESE_RKiDpT_=so_stub_for_libtelux_data
-Wl,--defsym=_ZN5telux6common3Log10logMessageIJPKcPhEEEvNS0_8LogLevelERKNSt7__cxx1112basic_stringIcSt11char_traitsIcESaIcEEESE_RKiDpT_=so_stub_for_libtelux_data
-Wl,--defsym=_ZN5telux6common3Log10logMessageIJPKcS4_13dsi_net_evt_tEEEvNS0_8LogLevelERKNSt7__cxx1112basic_stringIcSt11char_traitsIcESaIcEEESE_RKiDpT_=so_stub_for_libtelux_data
-Wl,--defsym=_ZN5telux6common3Log10logMessageIJPKcS4_29qcmap_msgr_wwan_call_type_v01EEEvNS0_8LogLevelERKNSt7__cxx1112basic_stringIcSt11char_traitsIcESaIcEEESE_RKiDpT_=so_stub_for_libtelux_data
-Wl,--defsym=_ZN5telux6common3Log10logMessageIJPKcS4_6SlotIdEEEvNS0_8LogLevelERKNSt7__cxx1112basic_stringIcSt11char_traitsIcESaIcEEESE_RKiDpT_=so_stub_for_libtelux_data
-Wl,--defsym=_ZN5telux6common3Log10logMessageIJPKcS4_6SlotIdS4_iS4_NSt7__cxx1112basic_stringIcSt11char_traitsIcESaIcEEES4_iS4_iS4_iEEEvNS0_8LogLevelERKSB_SE_RKiDpT_=so_stub_for_libtelux_data
-Wl,--defsym=_ZN5telux6common3Log10logMessageIJPKcS4_bEEEvNS0_8LogLevelERKNSt7__cxx1112basic_stringIcSt11char_traitsIcESaIcEEESD_RKiDpT_=so_stub_for_libtelux_data
-Wl,--defsym=_ZN5telux6common3Log10logMessageIJPKcS4_bS4_bS4_bEEEvNS0_8LogLevelERKNSt7__cxx1112basic_stringIcSt11char_traitsIcESaIcEEESD_RKiDpT_=so_stub_for_libtelux_data
-Wl,--defsym=_ZN5telux6common3Log10logMessageIJPKcS4_bS4_NSt7__cxx1112basic_stringIcSt11char_traitsIcESaIcEEEEEEvNS0_8LogLevelERKSA_SD_RKiDpT_=so_stub_for_libtelux_data
-Wl,--defsym=_ZN5telux6common3Log10logMessageIJPKcS4_EEEvNS0_8LogLevelERKNSt7__cxx1112basic_stringIcSt11char_traitsIcESaIcEEESD_RKiDpT_=so_stub_for_libtelux_data
-Wl,--defsym=_ZN5telux6common3Log10logMessageIJPKcS4_hEEEvNS0_8LogLevelERKNSt7__cxx1112basic_stringIcSt11char_traitsIcESaIcEEESD_RKiDpT_=so_stub_for_libtelux_data
-Wl,--defsym=_ZN5telux6common3Log10logMessageIJPKcS4_hS4_EEEvNS0_8LogLevelERKNSt7__cxx1112basic_stringIcSt11char_traitsIcESaIcEEESD_RKiDpT_=so_stub_for_libtelux_data
-Wl,--defsym=_ZN5telux6common3Log10logMessageIJPKcS4_hS4_iEEEvNS0_8LogLevelERKNSt7__cxx1112basic_stringIcSt11char_traitsIcESaIcEEESD_RKiDpT_=so_stub_for_libtelux_data
-Wl,--defsym=_ZN5telux6common3Log10logMessageIJPKcS4_iEEEvNS0_8LogLevelERKNSt7__cxx1112basic_stringIcSt11char_traitsIcESaIcEEESD_RKiDpT_=so_stub_for_libtelux_data
-Wl,--defsym=_ZN5telux6common3Log10logMessageIJPKcS4_iS4_EEEvNS0_8LogLevelERKNSt7__cxx1112basic_stringIcSt11char_traitsIcESaIcEEESD_RKiDpT_=so_stub_for_libtelux_data
-Wl,--defsym=_ZN5telux6common3Log10logMessageIJPKcS4_iS4_iEEEvNS0_8LogLevelERKNSt7__cxx1112basic_stringIcSt11char_traitsIcESaIcEEESD_RKiDpT_=so_stub_for_libtelux_data
-Wl,--defsym=_ZN5telux6common3Log10logMessageIJPKcS4_iS4_iS4_hS4_hEEEvNS0_8LogLevelERKNSt7__cxx1112basic_stringIcSt11char_traitsIcESaIcEEESD_RKiDpT_=so_stub_for_libtelux_data
-Wl,--defsym=_ZN5telux6common3Log10logMessageIJPKcS4_iS4_iS4_iEEEvNS0_8LogLevelERKNSt7__cxx1112basic_stringIcSt11char_traitsIcESaIcEEESD_RKiDpT_=so_stub_for_libtelux_data
-Wl,--defsym=_ZN5telux6common3Log10logMessageIJPKcS4_jEEEvNS0_8LogLevelERKNSt7__cxx1112basic_stringIcSt11char_traitsIcESaIcEEESD_RKiDpT_=so_stub_for_libtelux_data
-Wl,--defsym=_ZN5telux6common3Log10logMessageIJPKcS4_jS4_EEEvNS0_8LogLevelERKNSt7__cxx1112basic_stringIcSt11char_traitsIcESaIcEEESD_RKiDpT_=so_stub_for_libtelux_data
-Wl,--defsym=_ZN5telux6common3Log10logMessageIJPKcS4_jS4_S4_EEEvNS0_8LogLevelERKNSt7__cxx1112basic_stringIcSt11char_traitsIcESaIcEEESD_RKiDpT_=so_stub_for_libtelux_data
-Wl,--defsym=_ZN5telux6common3Log10logMessageIJPKcS4_jS4_tS4_NSt7__cxx1112basic_stringIcSt11char_traitsIcESaIcEEEEEEvNS0_8LogLevelERKSA_SD_RKiDpT_=so_stub_for_libtelux_data
-Wl,--defsym=_ZN5telux6common3Log10logMessageIJPKcS4_NSt7__cxx1112basic_stringIcSt11char_traitsIcESaIcEEEEEEvNS0_8LogLevelERKSA_SD_RKiDpT_=so_stub_for_libtelux_data
-Wl,--defsym=_ZN5telux6common3Log10logMessageIJPKcS4_NSt7__cxx1112basic_stringIcSt11char_traitsIcESaIcEEES4_EEEvNS0_8LogLevelERKSA_SD_RKiDpT_=so_stub_for_libtelux_data
-Wl,--defsym=_ZN5telux6common3Log10logMessageIJPKcS4_NSt7__cxx1112basic_stringIcSt11char_traitsIcESaIcEEES4_SA_S4_SA_S4_SA_EEEvNS0_8LogLevelERKSA_SD_RKiDpT_=so_stub_for_libtelux_data
-Wl,--defsym=_ZN5telux6common3Log10logMessageIJPKcS4_P17qmi_client_structS4_jS4_jEEEvNS0_8LogLevelERKNSt7__cxx1112basic_stringIcSt11char_traitsIcESaIcEEESF_RKiDpT_=so_stub_for_libtelux_data
-Wl,--defsym=_ZN5telux6common3Log10logMessageIJPKcS4_PvS4_iEEEvNS0_8LogLevelERKNSt7__cxx1112basic_stringIcSt11char_traitsIcESaIcEEESE_RKiDpT_=so_stub_for_libtelux_data
-Wl,--defsym=_ZN5telux6common3Log10logMessageIJPKcS4_S4_EEEvNS0_8LogLevelERKNSt7__cxx1112basic_stringIcSt11char_traitsIcESaIcEEESD_RKiDpT_=so_stub_for_libtelux_data
-Wl,--defsym=_ZN5telux6common3Log10logMessageIJPKcS4_St10shared_ptrINS_4data9IDataCallEEEEEvNS0_8LogLevelERKNSt7__cxx1112basic_stringIcSt11char_traitsIcESaIcEEESH_RKiDpT_=so_stub_for_libtelux_data
-Wl,--defsym=_ZN5telux6common3Log10logMessageIJPKcS4_tEEEvNS0_8LogLevelERKNSt7__cxx1112basic_stringIcSt11char_traitsIcESaIcEEESD_RKiDpT_=so_stub_for_libtelux_data
-Wl,--defsym=_ZN5telux6common3Log10logMessageIJPKctEEEvNS0_8LogLevelERKNSt7__cxx1112basic_stringIcSt11char_traitsIcESaIcEEESD_RKiDpT_=so_stub_for_libtelux_data
-Wl,--defsym=_ZN5telux6common3Log16constructMessageINSt7__cxx1119basic_ostringstreamIcSt11char_traitsIcESaIcEEEbJPKcbSA_bSA_bEEEvRT_T0_DpT1_=so_stub_for_libtelux_data
-Wl,--defsym=_ZN5telux6common3Log16constructMessageINSt7__cxx1119basic_ostringstreamIcSt11char_traitsIcESaIcEEEbJPKcNS3_12basic_stringIcS6_S7_EEEEEvRT_T0_DpT1_=so_stub_for_libtelux_data
-Wl,--defsym=_ZN5telux6common3Log16constructMessageINSt7__cxx1119basic_ostringstreamIcSt11char_traitsIcESaIcEEEiJPKchSA_hEEEvRT_T0_DpT1_=so_stub_for_libtelux_data
-Wl,--defsym=_ZN5telux6common3Log16constructMessageINSt7__cxx1119basic_ostringstreamIcSt11char_traitsIcESaIcEEEiJPKciEEEvRT_T0_DpT1_=so_stub_for_libtelux_data
-Wl,--defsym=_ZN5telux6common3Log16constructMessageINSt7__cxx1119basic_ostringstreamIcSt11char_traitsIcESaIcEEEiJPKciSA_NS3_12basic_stringIcS6_S7_EESA_SC_SA_iEEEvRT_T0_DpT1_=so_stub_for_libtelux_data
-Wl,--defsym=_ZN5telux6common3Log16constructMessageINSt7__cxx1119basic_ostringstreamIcSt11char_traitsIcESaIcEEEiJPKcNS3_12basic_stringIcS6_S7_EESA_iSA_iSA_iEEEvRT_T0_DpT1_=so_stub_for_libtelux_data
-Wl,--defsym=_ZN5telux6common3Log16constructMessageINSt7__cxx1119basic_ostringstreamIcSt11char_traitsIcESaIcEEEiJPKcNS3_12basic_stringIcS6_S7_EESA_SC_SA_iEEEvRT_T0_DpT1_=so_stub_for_libtelux_data
-Wl,--defsym=_ZN5telux6common3Log16constructMessageINSt7__cxx1119basic_ostringstreamIcSt11char_traitsIcESaIcEEEiJPKcsSA_hEEEvRT_T0_DpT1_=so_stub_for_libtelux_data
-Wl,--defsym=_ZN5telux6common3Log16constructMessageINSt7__cxx1119basic_ostringstreamIcSt11char_traitsIcESaIcEEEjJPKctSA_NS3_12basic_stringIcS6_S7_EEEEEvRT_T0_DpT1_=so_stub_for_libtelux_data
-Wl,--defsym=_ZN5telux6common3Log16constructMessageINSt7__cxx1119basic_ostringstreamIcSt11char_traitsIcESaIcEEENS3_12basic_stringIcS6_S7_EEJPKciSC_iSC_iEEEvRT_T0_DpT1_=so_stub_for_libtelux_data
-Wl,--defsym=_ZN5telux6common3Log16constructMessageINSt7__cxx1119basic_ostringstreamIcSt11char_traitsIcESaIcEEENS3_12basic_stringIcS6_S7_EEJPKcSA_EEEvRT_T0_DpT1_=so_stub_for_libtelux_data
-Wl,--defsym=_ZN5telux6common3Log16constructMessageINSt7__cxx1119basic_ostringstreamIcSt11char_traitsIcESaIcEEENS3_12basic_stringIcS6_S7_EEJPKcSA_SC_iEEEvRT_T0_DpT1_=so_stub_for_libtelux_data
-Wl,--defsym=_ZN5telux6common3Log16constructMessageINSt7__cxx1119basic_ostringstreamIcSt11char_traitsIcESaIcEEENS3_12basic_stringIcS6_S7_EEJPKcSA_SC_SA_EEEvRT_T0_DpT1_=so_stub_for_libtelux_data
-Wl,--defsym=_ZN5telux6common3Log16constructMessageINSt7__cxx1119basic_ostringstreamIcSt11char_traitsIcESaIcEEENS3_12basic_stringIcS6_S7_EEJPKcSA_SC_SA_SC_SA_EEEvRT_T0_DpT1_=so_stub_for_libtelux_data
-Wl,--defsym=_ZN5telux6common3Log16constructMessageINSt7__cxx1119basic_ostringstreamIcSt11char_traitsIcESaIcEEEPcJPKctSB_tSB_iEEEvRT_T0_DpT1_=so_stub_for_libtelux_data
-Wl,--defsym=_ZN5telux6common3Log16constructMessageINSt7__cxx1119basic_ostringstreamIcSt11char_traitsIcESaIcEEEPKcJ6SlotIdSA_iSA_NS3_12basic_stringIcS6_S7_EESA_iSA_iSA_iEEEvRT_T0_DpT1_=so_stub_for_libtelux_data
-Wl,--defsym=_ZN5telux6common3Log16constructMessageINSt7__cxx1119basic_ostringstreamIcSt11char_traitsIcESaIcEEEPKcJbSA_NS3_12basic_stringIcS6_S7_EEEEEvRT_T0_DpT1_=so_stub_for_libtelux_data
-Wl,--defsym=_ZN5telux6common3Log16constructMessageINSt7__cxx1119basic_ostringstreamIcSt11char_traitsIcESaIcEEEPKcJiSA_iSA_NS3_12basic_stringIcS6_S7_EESA_SC_SA_iEEEvRT_T0_DpT1_=so_stub_for_libtelux_data
-Wl,--defsym=_ZN5telux6common3Log16constructMessageINSt7__cxx1119basic_ostringstreamIcSt11char_traitsIcESaIcEEEPKcJiSA_NS3_12basic_stringIcS6_S7_EESA_iSA_iSA_iEEEvRT_T0_DpT1_=so_stub_for_libtelux_data
-Wl,--defsym=_ZN5telux6common3Log16constructMessageINSt7__cxx1119basic_ostringstreamIcSt11char_traitsIcESaIcEEEPKcJiSA_NS3_12basic_stringIcS6_S7_EESA_SC_SA_iEEEvRT_T0_DpT1_=so_stub_for_libtelux_data
-Wl,--defsym=_ZN5telux6common3Log16constructMessageINSt7__cxx1119basic_ostringstreamIcSt11char_traitsIcESaIcEEEPKcJjSA_tSA_NS3_12basic_stringIcS6_S7_EEEEEvRT_T0_DpT1_=so_stub_for_libtelux_data
-Wl,--defsym=_ZN5telux6common3Log16constructMessageINSt7__cxx1119basic_ostringstreamIcSt11char_traitsIcESaIcEEEPKcJNS3_12basic_stringIcS6_S7_EEEEEvRT_T0_DpT1_=so_stub_for_libtelux_data
-Wl,--defsym=_ZN5telux6common3Log16constructMessageINSt7__cxx1119basic_ostringstreamIcSt11char_traitsIcESaIcEEEPKcJNS3_12basic_stringIcS6_S7_EESA_EEEvRT_T0_DpT1_=so_stub_for_libtelux_data
-Wl,--defsym=_ZN5telux6common3Log16constructMessageINSt7__cxx1119basic_ostringstreamIcSt11char_traitsIcESaIcEEEPKcJNS3_12basic_stringIcS6_S7_EESA_iEEEvRT_T0_DpT1_=so_stub_for_libtelux_data
-Wl,--defsym=_ZN5telux6common3Log16constructMessageINSt7__cxx1119basic_ostringstreamIcSt11char_traitsIcESaIcEEEPKcJNS3_12basic_stringIcS6_S7_EESA_iSA_iSA_iEEEvRT_T0_DpT1_=so_stub_for_libtelux_data
-Wl,--defsym=_ZN5telux6common3Log16constructMessageINSt7__cxx1119basic_ostringstreamIcSt11char_traitsIcESaIcEEEPKcJNS3_12basic_stringIcS6_S7_EESA_SC_EEEvRT_T0_DpT1_=so_stub_for_libtelux_data
-Wl,--defsym=_ZN5telux6common3Log16constructMessageINSt7__cxx1119basic_ostringstreamIcSt11char_traitsIcESaIcEEEPKcJNS3_12basic_stringIcS6_S7_EESA_SC_SA_iEEEvRT_T0_DpT1_=so_stub_for_libtelux_data
-Wl,--defsym=_ZN5telux6common3Log16constructMessageINSt7__cxx1119basic_ostringstreamIcSt11char_traitsIcESaIcEEEPKcJNS3_12basic_stringIcS6_S7_EESA_SC_SA_SC_EEEvRT_T0_DpT1_=so_stub_for_libtelux_data
-Wl,--defsym=_ZN5telux6common3Log16constructMessageINSt7__cxx1119basic_ostringstreamIcSt11char_traitsIcESaIcEEEPKcJNS3_12basic_stringIcS6_S7_EESA_SC_SA_SC_SA_SC_EEEvRT_T0_DpT1_=so_stub_for_libtelux_data
-Wl,--defsym=_ZN5telux6common3Log16constructMessageINSt7__cxx1119basic_ostringstreamIcSt11char_traitsIcESaIcEEEPKcJSA_6SlotIdSA_iSA_NS3_12basic_stringIcS6_S7_EESA_iSA_iSA_iEEEvRT_T0_DpT1_=so_stub_for_libtelux_data
-Wl,--defsym=_ZN5telux6common3Log16constructMessageINSt7__cxx1119basic_ostringstreamIcSt11char_traitsIcESaIcEEEPKcJSA_bSA_bSA_bEEEvRT_T0_DpT1_=so_stub_for_libtelux_data
-Wl,--defsym=_ZN5telux6common3Log16constructMessageINSt7__cxx1119basic_ostringstreamIcSt11char_traitsIcESaIcEEEPKcJSA_bSA_NS3_12basic_stringIcS6_S7_EEEEEvRT_T0_DpT1_=so_stub_for_libtelux_data
-Wl,--defsym=_ZN5telux6common3Log16constructMessageINSt7__cxx1119basic_ostringstreamIcSt11char_traitsIcESaIcEEEPKcJSA_hSA_iEEEvRT_T0_DpT1_=so_stub_for_libtelux_data
-Wl,--defsym=_ZN5telux6common3Log16constructMessageINSt7__cxx1119basic_ostringstreamIcSt11char_traitsIcESaIcEEEPKcJSA_iSA_iEEEvRT_T0_DpT1_=so_stub_for_libtelux_data
-Wl,--defsym=_ZN5telux6common3Log16constructMessageINSt7__cxx1119basic_ostringstreamIcSt11char_traitsIcESaIcEEEPKcJSA_iSA_iSA_hSA_hEEEvRT_T0_DpT1_=so_stub_for_libtelux_data
-Wl,--defsym=_ZN5telux6common3Log16constructMessageINSt7__cxx1119basic_ostringstreamIcSt11char_traitsIcESaIcEEEPKcJSA_iSA_iSA_iEEEvRT_T0_DpT1_=so_stub_for_libtelux_data
-Wl,--defsym=_ZN5telux6common3Log16constructMessageINSt7__cxx1119basic_ostringstreamIcSt11char_traitsIcESaIcEEEPKcJSA_jSA_SA_EEEvRT_T0_DpT1_=so_stub_for_libtelux_data
-Wl,--defsym=_ZN5telux6common3Log16constructMessageINSt7__cxx1119basic_ostringstreamIcSt11char_traitsIcESaIcEEEPKcJSA_jSA_tSA_NS3_12basic_stringIcS6_S7_EEEEEvRT_T0_DpT1_=so_stub_for_libtelux_data
-Wl,--defsym=_ZN5telux6common3Log16constructMessageINSt7__cxx1119basic_ostringstreamIcSt11char_traitsIcESaIcEEEPKcJSA_NS3_12basic_stringIcS6_S7_EEEEEvRT_T0_DpT1_=so_stub_for_libtelux_data
-Wl,--defsym=_ZN5telux6common3Log16constructMessageINSt7__cxx1119basic_ostringstreamIcSt11char_traitsIcESaIcEEEPKcJSA_NS3_12basic_stringIcS6_S7_EESA_EEEvRT_T0_DpT1_=so_stub_for_libtelux_data
-Wl,--defsym=_ZN5telux6common3Log16constructMessageINSt7__cxx1119basic_ostringstreamIcSt11char_traitsIcESaIcEEEPKcJSA_NS3_12basic_stringIcS6_S7_EESA_SC_SA_SC_SA_SC_EEEvRT_T0_DpT1_=so_stub_for_libtelux_data
-Wl,--defsym=_ZN5telux6common3Log16constructMessageINSt7__cxx1119basic_ostringstreamIcSt11char_traitsIcESaIcEEEPKcJSA_P17qmi_client_structSA_jSA_jEEEvRT_T0_DpT1_=so_stub_for_libtelux_data
-Wl,--defsym=_ZN5telux6common3Log16constructMessageINSt7__cxx1119basic_ostringstreamIcSt11char_traitsIcESaIcEEEPKcJSA_PvSA_iEEEvRT_T0_DpT1_=so_stub_for_libtelux_data
-Wl,--defsym=_ZN5telux6common3Log16constructMessageINSt7__cxx1119basic_ostringstreamIcSt11char_traitsIcESaIcEEEPKcJSA_St10shared_ptrINS_4data9IDataCallEEEEEvRT_T0_DpT1_=so_stub_for_libtelux_data
-Wl,--defsym=_ZN5telux6common3Log16constructMessageINSt7__cxx1119basic_ostringstreamIcSt11char_traitsIcESaIcEEEPKcJSt10shared_ptrINS_4data9IDataCallEEEEEvRT_T0_DpT1_=so_stub_for_libtelux_data
-Wl,--defsym=_ZN5telux6common3Log16constructMessageINSt7__cxx1119basic_ostringstreamIcSt11char_traitsIcESaIcEEEPKcJtSA_NS3_12basic_stringIcS6_S7_EEEEEvRT_T0_DpT1_=so_stub_for_libtelux_data
-Wl,--defsym=_ZN5telux6common3Log16constructMessageINSt7__cxx1119basic_ostringstreamIcSt11char_traitsIcESaIcEEEtJPKcNS3_12basic_stringIcS6_S7_EEEEEvRT_T0_DpT1_=so_stub_for_libtelux_data
-Wl,--defsym=_ZN9__gnu_cxx13new_allocatorIN5telux4data16ProfileRetrieverEE9constructIS3_JSt10shared_ptrINS2_22DataProfileManagerImplEERS6_INS1_3qmi12WdsQmiClientEEEEEvPT_DpOT0_=so_stub_for_libtelux_data
-Wl,--defsym=_ZN9__gnu_cxx5__ops10_Iter_predIZN5telux6common15ListenerManagerINS2_4data23IDataConnectionListenerEE16registerListenerESt8weak_ptrIS6_EEUlS9_E_EclINS_17__normal_iteratorIPS9_St6vectorIS9_SaIS9_EEEEEEbT_=so_stub_for_libtelux_data
-Wl,--defsym=_ZN9__gnu_cxx5__ops10_Iter_predIZN5telux6common15ListenerManagerINS2_4data3net12INatListenerEE16registerListenerESt8weak_ptrIS7_EEUlSA_E_EclINS_17__normal_iteratorIPSA_St6vectorISA_SaISA_EEEEEEbT_=so_stub_for_libtelux_data
-Wl,--defsym=_ZN9__gnu_cxx5__ops10_Iter_predIZN5telux6common15ListenerManagerINS2_4data3net13IL2tpListenerEE16registerListenerESt8weak_ptrIS7_EEUlSA_E_EclINS_17__normal_iteratorIPSA_St6vectorISA_SaISA_EEEEEEbT_=so_stub_for_libtelux_data
-Wl,--defsym=_ZN9__gnu_cxx5__ops10_Iter_predIZN5telux6common15ListenerManagerINS2_4data3net13IVlanListenerEE16registerListenerESt8weak_ptrIS7_EEUlSA_E_EclINS_17__normal_iteratorIPSA_St6vectorISA_SaISA_EEEEEEbT_=so_stub_for_libtelux_data
-Wl,--defsym=_ZN9__gnu_cxx5__ops10_Iter_predIZN5telux6common15ListenerManagerINS2_4data3net14ISocksListenerEE16registerListenerESt8weak_ptrIS7_EEUlSA_E_EclINS_17__normal_iteratorIPSA_St6vectorISA_SaISA_EEEEEEbT_=so_stub_for_libtelux_data
-Wl,--defsym=_ZN9__gnu_cxx5__ops10_Iter_predIZN5telux6common15ListenerManagerINS2_4data3net15IBridgeListenerEE16registerListenerESt8weak_ptrIS7_EEUlSA_E_EclINS_17__normal_iteratorIPSA_St6vectorISA_SaISA_EEEEEEbT_=so_stub_for_libtelux_data
-Wl,--defsym=_ZN9__gnu_cxx5__ops10_Iter_predIZN5telux6common15ListenerManagerINS2_4data3net17IFirewallListenerEE16registerListenerESt8weak_ptrIS7_EEUlSA_E_EclINS_17__normal_iteratorIPSA_St6vectorISA_SaISA_EEEEEEbT_=so_stub_for_libtelux_data
-Wl,--defsym=_ZNK5telux4data12DataCallImpl17getDataCallStatusERNS0_14DataCallStatusES3_=so_stub_for_libtelux_data
-Wl,--defsym=_ZNKSt13__future_base13_State_baseV221_M_is_deferred_futureEv=so_stub_for_libtelux_data
-Wl,--defsym=_ZNKSt14__basic_futureI18dsi_v2x_ind_info_tE13_M_get_resultEv=so_stub_for_libtelux_data
-Wl,--defsym=_ZNKSt14__basic_futureIbE13_M_get_resultEv=so_stub_for_libtelux_data
-Wl,--defsym=_ZNKSt6vectorISt10shared_ptrIN5telux4data11DataProfileEESaIS4_EE12_M_check_lenEjPKc=so_stub_for_libtelux_data
-Wl,--defsym=_ZNKSt6vectorISt10shared_ptrIN5telux4data12DataCallImplEESaIS4_EE12_M_check_lenEjPKc=so_stub_for_libtelux_data
-Wl,--defsym=_ZNKSt6vectorISt8weak_ptrIN5telux4data23IDataConnectionListenerEESaIS4_EE12_M_check_lenEjPKc=so_stub_for_libtelux_data
-Wl,--defsym=_ZNKSt6vectorISt8weak_ptrIN5telux4data3net12INatListenerEESaIS5_EE12_M_check_lenEjPKc=so_stub_for_libtelux_data
-Wl,--defsym=_ZNKSt6vectorISt8weak_ptrIN5telux4data3net13IL2tpListenerEESaIS5_EE12_M_check_lenEjPKc=so_stub_for_libtelux_data
-Wl,--defsym=_ZNKSt6vectorISt8weak_ptrIN5telux4data3net13IVlanListenerEESaIS5_EE12_M_check_lenEjPKc=so_stub_for_libtelux_data
-Wl,--defsym=_ZNKSt6vectorISt8weak_ptrIN5telux4data3net14ISocksListenerEESaIS5_EE12_M_check_lenEjPKc=so_stub_for_libtelux_data
-Wl,--defsym=_ZNKSt6vectorISt8weak_ptrIN5telux4data3net15IBridgeListenerEESaIS5_EE12_M_check_lenEjPKc=so_stub_for_libtelux_data
-Wl,--defsym=_ZNKSt6vectorISt8weak_ptrIN5telux4data3net17IFirewallListenerEESaIS5_EE12_M_check_lenEjPKc=so_stub_for_libtelux_data
-Wl,--defsym=_ZNSt10shared_ptrIN5telux4data9DsiClientEED1Ev=so_stub_for_libtelux_data
-Wl,--defsym=_ZNSt10shared_ptrIN5telux4data9DsiClientEED2Ev=so_stub_for_libtelux_data
-Wl,--defsym=_ZNSt10shared_ptrIN5telux4data9QcmClientEED1Ev=so_stub_for_libtelux_data
-Wl,--defsym=_ZNSt10shared_ptrIN5telux4data9QcmClientEED2Ev=so_stub_for_libtelux_data
-Wl,--defsym=_ZNSt11__copy_moveILb1ELb0ESt26random_access_iterator_tagE8__copy_mIPSt10shared_ptrIN5telux4data12DataCallImplEES8_EET0_T_SA_S9_=so_stub_for_libtelux_data
-Wl,--defsym=_ZNSt11__copy_moveILb1ELb0ESt26random_access_iterator_tagE8__copy_mIPSt13shared_futureIvES5_EET0_T_S7_S6_=so_stub_for_libtelux_data
-Wl,--defsym=_ZNSt11__copy_moveILb1ELb0ESt26random_access_iterator_tagE8__copy_mIPSt8weak_ptrIN5telux4data19IDataFilterListenerEES8_EET0_T_SA_S9_=so_stub_for_libtelux_data
-Wl,--defsym=_ZNSt11__copy_moveILb1ELb0ESt26random_access_iterator_tagE8__copy_mIPSt8weak_ptrIN5telux4data20IDataProfileListenerEES8_EET0_T_SA_S9_=so_stub_for_libtelux_data
-Wl,--defsym=_ZNSt11__copy_moveILb1ELb0ESt26random_access_iterator_tagE8__copy_mIPSt8weak_ptrIN5telux4data23IDataConnectionListenerEES8_EET0_T_SA_S9_=so_stub_for_libtelux_data
-Wl,--defsym=_ZNSt11__copy_moveILb1ELb0ESt26random_access_iterator_tagE8__copy_mIPSt8weak_ptrIN5telux4data3net12INatListenerEES9_EET0_T_SB_SA_=so_stub_for_libtelux_data
-Wl,--defsym=_ZNSt11__copy_moveILb1ELb0ESt26random_access_iterator_tagE8__copy_mIPSt8weak_ptrIN5telux4data3net13IL2tpListenerEES9_EET0_T_SB_SA_=so_stub_for_libtelux_data
-Wl,--defsym=_ZNSt11__copy_moveILb1ELb0ESt26random_access_iterator_tagE8__copy_mIPSt8weak_ptrIN5telux4data3net13IVlanListenerEES9_EET0_T_SB_SA_=so_stub_for_libtelux_data
-Wl,--defsym=_ZNSt11__copy_moveILb1ELb0ESt26random_access_iterator_tagE8__copy_mIPSt8weak_ptrIN5telux4data3net14ISocksListenerEES9_EET0_T_SB_SA_=so_stub_for_libtelux_data
-Wl,--defsym=_ZNSt11__copy_moveILb1ELb0ESt26random_access_iterator_tagE8__copy_mIPSt8weak_ptrIN5telux4data3net15IBridgeListenerEES9_EET0_T_SB_SA_=so_stub_for_libtelux_data
-Wl,--defsym=_ZNSt11__copy_moveILb1ELb0ESt26random_access_iterator_tagE8__copy_mIPSt8weak_ptrIN5telux4data3net17IFirewallListenerEES9_EET0_T_SB_SA_=so_stub_for_libtelux_data
-Wl,--defsym=_ZNSt11_Deque_baseISt13shared_futureIvESaIS1_EE15_M_create_nodesEPPS1_S5_=so_stub_for_libtelux_data
-Wl,--defsym=_ZNSt11_Deque_baseISt13shared_futureIvESaIS1_EE17_M_initialize_mapEj=so_stub_for_libtelux_data
-Wl,--defsym=_ZNSt11_Deque_baseISt13shared_futureIvESaIS1_EED1Ev=so_stub_for_libtelux_data
-Wl,--defsym=_ZNSt11_Deque_baseISt13shared_futureIvESaIS1_EED2Ev=so_stub_for_libtelux_data
-Wl,--defsym=_ZNSt12future_errorC1ESt10error_code=so_stub_for_libtelux_data
-Wl,--defsym=_ZNSt12future_errorC2ESt10error_code=so_stub_for_libtelux_data
-Wl,--defsym=_ZNSt12__shared_ptrI12QCMAP_ClientLN9__gnu_cxx12_Lock_policyE2EEC1ISaIS0_EJRFvP17qmi_client_structjPvjS8_ER29qcmap_msgr_arch_type_enum_v01EEESt19_Sp_make_shared_tagRKT_DpOT0_=so_stub_for_libtelux_data
-Wl,--defsym=_ZNSt12__shared_ptrI12QCMAP_ClientLN9__gnu_cxx12_Lock_policyE2EEC2ISaIS0_EJRFvP17qmi_client_structjPvjS8_ER29qcmap_msgr_arch_type_enum_v01EEESt19_Sp_make_shared_tagRKT_DpOT0_=so_stub_for_libtelux_data
-Wl,--defsym=_ZNSt12__shared_ptrIN5telux4data12DataCallImplELN9__gnu_cxx12_Lock_policyE2EEC1ISaIS2_EJEEESt19_Sp_make_shared_tagRKT_DpOT0_=so_stub_for_libtelux_data
-Wl,--defsym=_ZNSt12__shared_ptrIN5telux4data12DataCallImplELN9__gnu_cxx12_Lock_policyE2EEC2ISaIS2_EJEEESt19_Sp_make_shared_tagRKT_DpOT0_=so_stub_for_libtelux_data
-Wl,--defsym=_ZNSt12__shared_ptrIN5telux4data12EventHandlerELN9__gnu_cxx12_Lock_policyE2EEC1ISaIS2_EJEEESt19_Sp_make_shared_tagRKT_DpOT0_=so_stub_for_libtelux_data
-Wl,--defsym=_ZNSt12__shared_ptrIN5telux4data12EventHandlerELN9__gnu_cxx12_Lock_policyE2EEC2ISaIS2_EJEEESt19_Sp_make_shared_tagRKT_DpOT0_=so_stub_for_libtelux_data
-Wl,--defsym=_ZNSt12__shared_ptrIN5telux4data13EspFilterImplELN9__gnu_cxx12_Lock_policyE2EEC1ISaIS2_EJRhEEESt19_Sp_make_shared_tagRKT_DpOT0_=so_stub_for_libtelux_data
-Wl,--defsym=_ZNSt12__shared_ptrIN5telux4data13EspFilterImplELN9__gnu_cxx12_Lock_policyE2EEC2ISaIS2_EJRhEEESt19_Sp_make_shared_tagRKT_DpOT0_=so_stub_for_libtelux_data
-Wl,--defsym=_ZNSt12__shared_ptrIN5telux4data13TcpFilterImplELN9__gnu_cxx12_Lock_policyE2EEC1ISaIS2_EJRhEEESt19_Sp_make_shared_tagRKT_DpOT0_=so_stub_for_libtelux_data
-Wl,--defsym=_ZNSt12__shared_ptrIN5telux4data13TcpFilterImplELN9__gnu_cxx12_Lock_policyE2EEC2ISaIS2_EJRhEEESt19_Sp_make_shared_tagRKT_DpOT0_=so_stub_for_libtelux_data
-Wl,--defsym=_ZNSt12__shared_ptrIN5telux4data13UdpFilterImplELN9__gnu_cxx12_Lock_policyE2EEC1ISaIS2_EJRhEEESt19_Sp_make_shared_tagRKT_DpOT0_=so_stub_for_libtelux_data
-Wl,--defsym=_ZNSt12__shared_ptrIN5telux4data13UdpFilterImplELN9__gnu_cxx12_Lock_policyE2EEC2ISaIS2_EJRhEEESt19_Sp_make_shared_tagRKT_DpOT0_=so_stub_for_libtelux_data
-Wl,--defsym=_ZNSt12__shared_ptrIN5telux4data14IcmpFilterImplELN9__gnu_cxx12_Lock_policyE2EEC1ISaIS2_EJRhEEESt19_Sp_make_shared_tagRKT_DpOT0_=so_stub_for_libtelux_data
-Wl,--defsym=_ZNSt12__shared_ptrIN5telux4data14IcmpFilterImplELN9__gnu_cxx12_Lock_policyE2EEC2ISaIS2_EJRhEEESt19_Sp_make_shared_tagRKT_DpOT0_=so_stub_for_libtelux_data
-Wl,--defsym=_ZNSt12__shared_ptrIN5telux4data16ProfileRetrieverELN9__gnu_cxx12_Lock_policyE2EEC1ISaIS2_EJSt10shared_ptrINS1_22DataProfileManagerImplEERS8_INS0_3qmi12WdsQmiClientEEEEESt19_Sp_make_shared_tagRKT_DpOT0_=so_stub_for_libtelux_data
-Wl,--defsym=_ZNSt12__shared_ptrIN5telux4data16ProfileRetrieverELN9__gnu_cxx12_Lock_policyE2EEC2ISaIS2_EJSt10shared_ptrINS1_22DataProfileManagerImplEERS8_INS0_3qmi12WdsQmiClientEEEEESt19_Sp_make_shared_tagRKT_DpOT0_=so_stub_for_libtelux_data
-Wl,--defsym=_ZNSt12__shared_ptrIN5telux4data19IDataFilterListenerELN9__gnu_cxx12_Lock_policyE2EEC1ERKSt10__weak_ptrIS2_LS4_2EESt9nothrow_t=so_stub_for_libtelux_data
-Wl,--defsym=_ZNSt12__shared_ptrIN5telux4data19IDataFilterListenerELN9__gnu_cxx12_Lock_policyE2EEC2ERKSt10__weak_ptrIS2_LS4_2EESt9nothrow_t=so_stub_for_libtelux_data
-Wl,--defsym=_ZNSt12__shared_ptrIN5telux4data20IDataProfileListenerELN9__gnu_cxx12_Lock_policyE2EEC1ERKSt10__weak_ptrIS2_LS4_2EESt9nothrow_t=so_stub_for_libtelux_data
-Wl,--defsym=_ZNSt12__shared_ptrIN5telux4data20IDataProfileListenerELN9__gnu_cxx12_Lock_policyE2EEC2ERKSt10__weak_ptrIS2_LS4_2EESt9nothrow_t=so_stub_for_libtelux_data
-Wl,--defsym=_ZNSt12__shared_ptrIN5telux4data22DataProfileManagerImplELN9__gnu_cxx12_Lock_policyE2EEC1ISaIS2_EJR6SlotIdEEESt19_Sp_make_shared_tagRKT_DpOT0_=so_stub_for_libtelux_data
-Wl,--defsym=_ZNSt12__shared_ptrIN5telux4data22DataProfileManagerImplELN9__gnu_cxx12_Lock_policyE2EEC2ISaIS2_EJR6SlotIdEEESt19_Sp_make_shared_tagRKT_DpOT0_=so_stub_for_libtelux_data
-Wl,--defsym=_ZNSt12__shared_ptrIN5telux4data23IDataConnectionListenerELN9__gnu_cxx12_Lock_policyE2EEC1ERKSt10__weak_ptrIS2_LS4_2EESt9nothrow_t=so_stub_for_libtelux_data
-Wl,--defsym=_ZNSt12__shared_ptrIN5telux4data23IDataConnectionListenerELN9__gnu_cxx12_Lock_policyE2EEC2ERKSt10__weak_ptrIS2_LS4_2EESt9nothrow_t=so_stub_for_libtelux_data
-Wl,--defsym=_ZNSt12__shared_ptrIN5telux4data25DataConnectionManagerImplELN9__gnu_cxx12_Lock_policyE2EEC1ISaIS2_EJR6SlotIdKSt10shared_ptrINS1_9QcmClientEEEEESt19_Sp_make_shared_tagRKT_DpOT0_=so_stub_for_libtelux_data
-Wl,--defsym=_ZNSt12__shared_ptrIN5telux4data25DataConnectionManagerImplELN9__gnu_cxx12_Lock_policyE2EEC2ISaIS2_EJR6SlotIdKSt10shared_ptrINS1_9QcmClientEEEEESt19_Sp_make_shared_tagRKT_DpOT0_=so_stub_for_libtelux_data
-Wl,--defsym=_ZNSt12__shared_ptrIN5telux4data3net12INatListenerELN9__gnu_cxx12_Lock_policyE2EEC1ERKSt10__weak_ptrIS3_LS5_2EESt9nothrow_t=so_stub_for_libtelux_data
-Wl,--defsym=_ZNSt12__shared_ptrIN5telux4data3net12INatListenerELN9__gnu_cxx12_Lock_policyE2EEC2ERKSt10__weak_ptrIS3_LS5_2EESt9nothrow_t=so_stub_for_libtelux_data
-Wl,--defsym=_ZNSt12__shared_ptrIN5telux4data3net13IL2tpListenerELN9__gnu_cxx12_Lock_policyE2EEC1ERKSt10__weak_ptrIS3_LS5_2EESt9nothrow_t=so_stub_for_libtelux_data
-Wl,--defsym=_ZNSt12__shared_ptrIN5telux4data3net13IL2tpListenerELN9__gnu_cxx12_Lock_policyE2EEC2ERKSt10__weak_ptrIS3_LS5_2EESt9nothrow_t=so_stub_for_libtelux_data
-Wl,--defsym=_ZNSt12__shared_ptrIN5telux4data3net13IVlanListenerELN9__gnu_cxx12_Lock_policyE2EEC1ERKSt10__weak_ptrIS3_LS5_2EESt9nothrow_t=so_stub_for_libtelux_data
-Wl,--defsym=_ZNSt12__shared_ptrIN5telux4data3net13IVlanListenerELN9__gnu_cxx12_Lock_policyE2EEC2ERKSt10__weak_ptrIS3_LS5_2EESt9nothrow_t=so_stub_for_libtelux_data
-Wl,--defsym=_ZNSt12__shared_ptrIN5telux4data3net14ISocksListenerELN9__gnu_cxx12_Lock_policyE2EEC1ERKSt10__weak_ptrIS3_LS5_2EESt9nothrow_t=so_stub_for_libtelux_data
-Wl,--defsym=_ZNSt12__shared_ptrIN5telux4data3net14ISocksListenerELN9__gnu_cxx12_Lock_policyE2EEC2ERKSt10__weak_ptrIS3_LS5_2EESt9nothrow_t=so_stub_for_libtelux_data
-Wl,--defsym=_ZNSt12__shared_ptrIN5telux4data3net14NatManagerImplELN9__gnu_cxx12_Lock_policyE2EEC1ISaIS3_EJRNS1_13OperationTypeEKSt10shared_ptrINS1_9QcmClientEEEEESt19_Sp_make_shared_tagRKT_DpOT0_=so_stub_for_libtelux_data
-Wl,--defsym=_ZNSt12__shared_ptrIN5telux4data3net14NatManagerImplELN9__gnu_cxx12_Lock_policyE2EEC2ISaIS3_EJRNS1_13OperationTypeEKSt10shared_ptrINS1_9QcmClientEEEEESt19_Sp_make_shared_tagRKT_DpOT0_=so_stub_for_libtelux_data
-Wl,--defsym=_ZNSt12__shared_ptrIN5telux4data3net15IBridgeListenerELN9__gnu_cxx12_Lock_policyE2EEC1ERKSt10__weak_ptrIS3_LS5_2EESt9nothrow_t=so_stub_for_libtelux_data
-Wl,--defsym=_ZNSt12__shared_ptrIN5telux4data3net15IBridgeListenerELN9__gnu_cxx12_Lock_policyE2EEC2ERKSt10__weak_ptrIS3_LS5_2EESt9nothrow_t=so_stub_for_libtelux_data
-Wl,--defsym=_ZNSt12__shared_ptrIN5telux4data3net15L2tpManagerImplELN9__gnu_cxx12_Lock_policyE2EEC1ISaIS3_EJKSt10shared_ptrINS1_9QcmClientEEEEESt19_Sp_make_shared_tagRKT_DpOT0_=so_stub_for_libtelux_data
-Wl,--defsym=_ZNSt12__shared_ptrIN5telux4data3net15L2tpManagerImplELN9__gnu_cxx12_Lock_policyE2EEC2ISaIS3_EJKSt10shared_ptrINS1_9QcmClientEEEEESt19_Sp_make_shared_tagRKT_DpOT0_=so_stub_for_libtelux_data
-Wl,--defsym=_ZNSt12__shared_ptrIN5telux4data3net15VlanManagerImplELN9__gnu_cxx12_Lock_policyE2EEC1ISaIS3_EJRNS1_13OperationTypeEKSt10shared_ptrINS1_9QcmClientEEEEESt19_Sp_make_shared_tagRKT_DpOT0_=so_stub_for_libtelux_data
-Wl,--defsym=_ZNSt12__shared_ptrIN5telux4data3net15VlanManagerImplELN9__gnu_cxx12_Lock_policyE2EEC2ISaIS3_EJRNS1_13OperationTypeEKSt10shared_ptrINS1_9QcmClientEEEEESt19_Sp_make_shared_tagRKT_DpOT0_=so_stub_for_libtelux_data
-Wl,--defsym=_ZNSt12__shared_ptrIN5telux4data3net16SocksManagerImplELN9__gnu_cxx12_Lock_policyE2EEC1ISaIS3_EJRNS1_13OperationTypeEKSt10shared_ptrINS1_9QcmClientEEEEESt19_Sp_make_shared_tagRKT_DpOT0_=so_stub_for_libtelux_data
-Wl,--defsym=_ZNSt12__shared_ptrIN5telux4data3net16SocksManagerImplELN9__gnu_cxx12_Lock_policyE2EEC2ISaIS3_EJRNS1_13OperationTypeEKSt10shared_ptrINS1_9QcmClientEEEEESt19_Sp_make_shared_tagRKT_DpOT0_=so_stub_for_libtelux_data
-Wl,--defsym=_ZNSt12__shared_ptrIN5telux4data3net17BridgeManagerImplELN9__gnu_cxx12_Lock_policyE2EEC1ISaIS3_EJKSt10shared_ptrINS1_9QcmClientEEEEESt19_Sp_make_shared_tagRKT_DpOT0_=so_stub_for_libtelux_data
-Wl,--defsym=_ZNSt12__shared_ptrIN5telux4data3net17BridgeManagerImplELN9__gnu_cxx12_Lock_policyE2EEC2ISaIS3_EJKSt10shared_ptrINS1_9QcmClientEEEEESt19_Sp_make_shared_tagRKT_DpOT0_=so_stub_for_libtelux_data
-Wl,--defsym=_ZNSt12__shared_ptrIN5telux4data3net17FirewallEntryImplELN9__gnu_cxx12_Lock_policyE2EEC1ISaIS3_EJRSt10shared_ptrINS1_9IIpFilterEERNS1_9DirectionERNS1_12IpFamilyTypeEEEESt19_Sp_make_shared_tagRKT_DpOT0_=so_stub_for_libtelux_data
-Wl,--defsym=_ZNSt12__shared_ptrIN5telux4data3net17FirewallEntryImplELN9__gnu_cxx12_Lock_policyE2EEC2ISaIS3_EJRSt10shared_ptrINS1_9IIpFilterEERNS1_9DirectionERNS1_12IpFamilyTypeEEEESt19_Sp_make_shared_tagRKT_DpOT0_=so_stub_for_libtelux_data
-Wl,--defsym=_ZNSt12__shared_ptrIN5telux4data3net17IFirewallListenerELN9__gnu_cxx12_Lock_policyE2EEC1ERKSt10__weak_ptrIS3_LS5_2EESt9nothrow_t=so_stub_for_libtelux_data
-Wl,--defsym=_ZNSt12__shared_ptrIN5telux4data3net17IFirewallListenerELN9__gnu_cxx12_Lock_policyE2EEC2ERKSt10__weak_ptrIS3_LS5_2EESt9nothrow_t=so_stub_for_libtelux_data
-Wl,--defsym=_ZNSt12__shared_ptrIN5telux4data3net19FirewallManagerImplELN9__gnu_cxx12_Lock_policyE2EEC1ISaIS3_EJRNS1_13OperationTypeEKSt10shared_ptrINS1_9QcmClientEEEEESt19_Sp_make_shared_tagRKT_DpOT0_=so_stub_for_libtelux_data
-Wl,--defsym=_ZNSt12__shared_ptrIN5telux4data3net19FirewallManagerImplELN9__gnu_cxx12_Lock_policyE2EEC2ISaIS3_EJRNS1_13OperationTypeEKSt10shared_ptrINS1_9QcmClientEEEEESt19_Sp_make_shared_tagRKT_DpOT0_=so_stub_for_libtelux_data
-Wl,--defsym=_ZNSt12__shared_ptrIN5telux6common15ListenerManagerINS0_4data23IDataConnectionListenerEEELN9__gnu_cxx12_Lock_policyE2EEC1ISaIS5_EJEEESt19_Sp_make_shared_tagRKT_DpOT0_=so_stub_for_libtelux_data
-Wl,--defsym=_ZNSt12__shared_ptrIN5telux6common15ListenerManagerINS0_4data23IDataConnectionListenerEEELN9__gnu_cxx12_Lock_policyE2EEC2ISaIS5_EJEEESt19_Sp_make_shared_tagRKT_DpOT0_=so_stub_for_libtelux_data
-Wl,--defsym=_ZNSt12__shared_ptrIN5telux6common15ListenerManagerINS0_4data3net12INatListenerEEELN9__gnu_cxx12_Lock_policyE2EEC1ISaIS6_EJEEESt19_Sp_make_shared_tagRKT_DpOT0_=so_stub_for_libtelux_data
-Wl,--defsym=_ZNSt12__shared_ptrIN5telux6common15ListenerManagerINS0_4data3net12INatListenerEEELN9__gnu_cxx12_Lock_policyE2EEC2ISaIS6_EJEEESt19_Sp_make_shared_tagRKT_DpOT0_=so_stub_for_libtelux_data
-Wl,--defsym=_ZNSt12__shared_ptrIN5telux6common15ListenerManagerINS0_4data3net13IL2tpListenerEEELN9__gnu_cxx12_Lock_policyE2EEC1ISaIS6_EJEEESt19_Sp_make_shared_tagRKT_DpOT0_=so_stub_for_libtelux_data
-Wl,--defsym=_ZNSt12__shared_ptrIN5telux6common15ListenerManagerINS0_4data3net13IL2tpListenerEEELN9__gnu_cxx12_Lock_policyE2EEC2ISaIS6_EJEEESt19_Sp_make_shared_tagRKT_DpOT0_=so_stub_for_libtelux_data
-Wl,--defsym=_ZNSt12__shared_ptrIN5telux6common15ListenerManagerINS0_4data3net13IVlanListenerEEELN9__gnu_cxx12_Lock_policyE2EEC1ISaIS6_EJEEESt19_Sp_make_shared_tagRKT_DpOT0_=so_stub_for_libtelux_data
-Wl,--defsym=_ZNSt12__shared_ptrIN5telux6common15ListenerManagerINS0_4data3net13IVlanListenerEEELN9__gnu_cxx12_Lock_policyE2EEC2ISaIS6_EJEEESt19_Sp_make_shared_tagRKT_DpOT0_=so_stub_for_libtelux_data
-Wl,--defsym=_ZNSt12__shared_ptrIN5telux6common15ListenerManagerINS0_4data3net14ISocksListenerEEELN9__gnu_cxx12_Lock_policyE2EEC1ISaIS6_EJEEESt19_Sp_make_shared_tagRKT_DpOT0_=so_stub_for_libtelux_data
-Wl,--defsym=_ZNSt12__shared_ptrIN5telux6common15ListenerManagerINS0_4data3net14ISocksListenerEEELN9__gnu_cxx12_Lock_policyE2EEC2ISaIS6_EJEEESt19_Sp_make_shared_tagRKT_DpOT0_=so_stub_for_libtelux_data
-Wl,--defsym=_ZNSt12__shared_ptrIN5telux6common15ListenerManagerINS0_4data3net15IBridgeListenerEEELN9__gnu_cxx12_Lock_policyE2EEC1ISaIS6_EJEEESt19_Sp_make_shared_tagRKT_DpOT0_=so_stub_for_libtelux_data
-Wl,--defsym=_ZNSt12__shared_ptrIN5telux6common15ListenerManagerINS0_4data3net15IBridgeListenerEEELN9__gnu_cxx12_Lock_policyE2EEC2ISaIS6_EJEEESt19_Sp_make_shared_tagRKT_DpOT0_=so_stub_for_libtelux_data
-Wl,--defsym=_ZNSt12__shared_ptrIN5telux6common15ListenerManagerINS0_4data3net17IFirewallListenerEEELN9__gnu_cxx12_Lock_policyE2EEC1ISaIS6_EJEEESt19_Sp_make_shared_tagRKT_DpOT0_=so_stub_for_libtelux_data
-Wl,--defsym=_ZNSt12__shared_ptrIN5telux6common15ListenerManagerINS0_4data3net17IFirewallListenerEEELN9__gnu_cxx12_Lock_policyE2EEC2ISaIS6_EJEEESt19_Sp_make_shared_tagRKT_DpOT0_=so_stub_for_libtelux_data
-Wl,--defsym=_ZNSt13__future_base13_State_baseV210wait_untilINSt6chrono3_V212system_clockENS2_8durationIxSt5ratioILx1ELx1000000000EEEEEESt13future_statusRKNS2_10time_pointIT_T0_EE=so_stub_for_libtelux_data
-Wl,--defsym=_ZNSt13__future_base13_State_baseV213_M_set_resultESt8functionIFSt10unique_ptrINS_12_Result_baseENS3_8_DeleterEEvEEb=so_stub_for_libtelux_data
-Wl,--defsym=_ZNSt13__future_base13_State_baseV216_M_break_promiseESt10unique_ptrINS_12_Result_baseENS2_8_DeleterEE=so_stub_for_libtelux_data
-Wl,--defsym=_ZNSt13__future_base13_State_baseV217_M_complete_asyncEv=so_stub_for_libtelux_data
-Wl,--defsym=_ZNSt13__future_base13_State_baseV24waitEv=so_stub_for_libtelux_data
-Wl,--defsym=_ZNSt13__future_base13_State_baseV29_M_do_setEPSt8functionIFSt10unique_ptrINS_12_Result_baseENS3_8_DeleterEEvEEPb=so_stub_for_libtelux_data
-Wl,--defsym=_ZNSt13__future_base13_State_baseV2D0Ev=so_stub_for_libtelux_data
-Wl,--defsym=_ZNSt13__future_base13_State_baseV2D1Ev=so_stub_for_libtelux_data
-Wl,--defsym=_ZNSt13__future_base13_State_baseV2D2Ev=so_stub_for_libtelux_data
-Wl,--defsym=_ZNSt13__future_base21_Async_state_commonV217_M_complete_asyncEv=so_stub_for_libtelux_data
-Wl,--defsym=_ZNSt13__future_base21_Async_state_commonV2D0Ev=so_stub_for_libtelux_data
-Wl,--defsym=_ZNSt13__future_base21_Async_state_commonV2D1Ev=so_stub_for_libtelux_data
-Wl,--defsym=_ZNSt13__future_base21_Async_state_commonV2D2Ev=so_stub_for_libtelux_data
-Wl,--defsym=_ZNSt13__future_base7_ResultI18dsi_v2x_ind_info_tE10_M_destroyEv=so_stub_for_libtelux_data
-Wl,--defsym=_ZNSt13__future_base7_ResultI18dsi_v2x_ind_info_tED0Ev=so_stub_for_libtelux_data
-Wl,--defsym=_ZNSt13__future_base7_ResultI18dsi_v2x_ind_info_tED1Ev=so_stub_for_libtelux_data
-Wl,--defsym=_ZNSt13__future_base7_ResultI18dsi_v2x_ind_info_tED2Ev=so_stub_for_libtelux_data
-Wl,--defsym=_ZNSt13__future_base7_ResultIbE10_M_destroyEv=so_stub_for_libtelux_data
-Wl,--defsym=_ZNSt13__future_base7_ResultIbED0Ev=so_stub_for_libtelux_data
-Wl,--defsym=_ZNSt13__future_base7_ResultIbED1Ev=so_stub_for_libtelux_data
-Wl,--defsym=_ZNSt13__future_base7_ResultIbED2Ev=so_stub_for_libtelux_data
-Wl,--defsym=_ZNSt13__future_base7_ResultIvE10_M_destroyEv=so_stub_for_libtelux_data
-Wl,--defsym=_ZNSt13__future_base7_ResultIvED0Ev=so_stub_for_libtelux_data
-Wl,--defsym=_ZNSt13__future_base7_ResultIvED1Ev=so_stub_for_libtelux_data
-Wl,--defsym=_ZNSt13__future_base7_ResultIvED2Ev=so_stub_for_libtelux_data
-Wl,--defsym=_ZNSt14__basic_futureI18dsi_v2x_ind_info_tEC1ERKSt10shared_ptrINSt13__future_base13_State_baseV2EE=so_stub_for_libtelux_data
-Wl,--defsym=_ZNSt14__basic_futureI18dsi_v2x_ind_info_tEC2ERKSt10shared_ptrINSt13__future_base13_State_baseV2EE=so_stub_for_libtelux_data
-Wl,--defsym=_ZNSt14__basic_futureIbEC1ERKSt10shared_ptrINSt13__future_base13_State_baseV2EE=so_stub_for_libtelux_data
-Wl,--defsym=_ZNSt14__basic_futureIbEC2ERKSt10shared_ptrINSt13__future_base13_State_baseV2EE=so_stub_for_libtelux_data
-Wl,--defsym=_ZNSt14__basic_futureIvEC1ERKSt10shared_ptrINSt13__future_base13_State_baseV2EE=so_stub_for_libtelux_data
-Wl,--defsym=_ZNSt14__basic_futureIvEC2ERKSt10shared_ptrINSt13__future_base13_State_baseV2EE=so_stub_for_libtelux_data
-Wl,--defsym=_ZNSt14_Function_base13_Base_managerINSt13__future_base13_State_baseV27_SetterI18dsi_v2x_ind_info_tRKS4_EEE10_M_managerERSt9_Any_dataRKS9_St18_Manager_operation=so_stub_for_libtelux_data
-Wl,--defsym=_ZNSt14_Function_base13_Base_managerISt5_BindIFMN5telux4data9DsiClientEFvRKSt10shared_ptrINS3_21DsiStatusCallbackDataEEEPS4_St12_PlaceholderILi1EEEEE10_M_managerERSt9_Any_dataRKSI_St18_Manager_operation=so_stub_for_libtelux_data
-Wl,--defsym=_ZNSt14_Function_base13_Base_managerISt8functionIFvRKSt10shared_ptrIN5telux4data21DsiStatusCallbackDataEEEEE10_M_managerERSt9_Any_dataRKSC_St18_Manager_operation=so_stub_for_libtelux_data
-Wl,--defsym=_ZNSt14__shared_countILN9__gnu_cxx12_Lock_policyE2EEC1IN5telux4data12DataCallImplESaIS6_EJEEESt19_Sp_make_shared_tagPT_RKT0_DpOT1_=so_stub_for_libtelux_data
-Wl,--defsym=_ZNSt14__shared_countILN9__gnu_cxx12_Lock_policyE2EEC1IN5telux4data18DsiEventDispatcherESaIS6_EJEEESt19_Sp_make_shared_tagPT_RKT0_DpOT1_=so_stub_for_libtelux_data
-Wl,--defsym=_ZNSt14__shared_countILN9__gnu_cxx12_Lock_policyE2EEC1IN5telux4data25DataConnectionManagerImplESaIS6_EJR6SlotIdKSt10shared_ptrINS5_9QcmClientEEEEESt19_Sp_make_shared_tagPT_RKT0_DpOT1_=so_stub_for_libtelux_data
-Wl,--defsym=_ZNSt14__shared_countILN9__gnu_cxx12_Lock_policyE2EEC1IN5telux4data3net14NatManagerImplESaIS7_EJRNS5_13OperationTypeEKSt10shared_ptrINS5_9QcmClientEEEEESt19_Sp_make_shared_tagPT_RKT0_DpOT1_=so_stub_for_libtelux_data
-Wl,--defsym=_ZNSt14__shared_countILN9__gnu_cxx12_Lock_policyE2EEC1IN5telux4data3net15L2tpManagerImplESaIS7_EJKSt10shared_ptrINS5_9QcmClientEEEEESt19_Sp_make_shared_tagPT_RKT0_DpOT1_=so_stub_for_libtelux_data
-Wl,--defsym=_ZNSt14__shared_countILN9__gnu_cxx12_Lock_policyE2EEC1IN5telux4data3net15VlanManagerImplESaIS7_EJRNS5_13OperationTypeEKSt10shared_ptrINS5_9QcmClientEEEEESt19_Sp_make_shared_tagPT_RKT0_DpOT1_=so_stub_for_libtelux_data
-Wl,--defsym=_ZNSt14__shared_countILN9__gnu_cxx12_Lock_policyE2EEC1IN5telux4data3net16SocksManagerImplESaIS7_EJRNS5_13OperationTypeEKSt10shared_ptrINS5_9QcmClientEEEEESt19_Sp_make_shared_tagPT_RKT0_DpOT1_=so_stub_for_libtelux_data
-Wl,--defsym=_ZNSt14__shared_countILN9__gnu_cxx12_Lock_policyE2EEC1IN5telux4data3net17BridgeManagerImplESaIS7_EJKSt10shared_ptrINS5_9QcmClientEEEEESt19_Sp_make_shared_tagPT_RKT0_DpOT1_=so_stub_for_libtelux_data
-Wl,--defsym=_ZNSt14__shared_countILN9__gnu_cxx12_Lock_policyE2EEC1IN5telux4data3net19FirewallManagerImplESaIS7_EJRNS5_13OperationTypeEKSt10shared_ptrINS5_9QcmClientEEEEESt19_Sp_make_shared_tagPT_RKT0_DpOT1_=so_stub_for_libtelux_data
-Wl,--defsym=_ZNSt14__shared_countILN9__gnu_cxx12_Lock_policyE2EEC1IN5telux4data9EventInfoINS5_21DsiStatusCallbackDataEEESaIS8_EJRKSt10shared_ptrIS7_ERSt8functionIFvSD_EEEEESt19_Sp_make_shared_tagPT_RKT0_DpOT1_=so_stub_for_libtelux_data
-Wl,--defsym=_ZNSt14__shared_countILN9__gnu_cxx12_Lock_policyE2EEC1IPN5telux4data9DsiClientEEET_=so_stub_for_libtelux_data
-Wl,--defsym=_ZNSt14__shared_countILN9__gnu_cxx12_Lock_policyE2EEC1IPN5telux4data9QcmClientEEET_=so_stub_for_libtelux_data
-Wl,--defsym=_ZNSt14__shared_countILN9__gnu_cxx12_Lock_policyE2EEC2IN5telux4data12DataCallImplESaIS6_EJEEESt19_Sp_make_shared_tagPT_RKT0_DpOT1_=so_stub_for_libtelux_data
-Wl,--defsym=_ZNSt14__shared_countILN9__gnu_cxx12_Lock_policyE2EEC2IN5telux4data18DsiEventDispatcherESaIS6_EJEEESt19_Sp_make_shared_tagPT_RKT0_DpOT1_=so_stub_for_libtelux_data
-Wl,--defsym=_ZNSt14__shared_countILN9__gnu_cxx12_Lock_policyE2EEC2IN5telux4data25DataConnectionManagerImplESaIS6_EJR6SlotIdKSt10shared_ptrINS5_9QcmClientEEEEESt19_Sp_make_shared_tagPT_RKT0_DpOT1_=so_stub_for_libtelux_data
-Wl,--defsym=_ZNSt14__shared_countILN9__gnu_cxx12_Lock_policyE2EEC2IN5telux4data3net14NatManagerImplESaIS7_EJRNS5_13OperationTypeEKSt10shared_ptrINS5_9QcmClientEEEEESt19_Sp_make_shared_tagPT_RKT0_DpOT1_=so_stub_for_libtelux_data
-Wl,--defsym=_ZNSt14__shared_countILN9__gnu_cxx12_Lock_policyE2EEC2IN5telux4data3net15L2tpManagerImplESaIS7_EJKSt10shared_ptrINS5_9QcmClientEEEEESt19_Sp_make_shared_tagPT_RKT0_DpOT1_=so_stub_for_libtelux_data
-Wl,--defsym=_ZNSt14__shared_countILN9__gnu_cxx12_Lock_policyE2EEC2IN5telux4data3net15VlanManagerImplESaIS7_EJRNS5_13OperationTypeEKSt10shared_ptrINS5_9QcmClientEEEEESt19_Sp_make_shared_tagPT_RKT0_DpOT1_=so_stub_for_libtelux_data
-Wl,--defsym=_ZNSt14__shared_countILN9__gnu_cxx12_Lock_policyE2EEC2IN5telux4data3net16SocksManagerImplESaIS7_EJRNS5_13OperationTypeEKSt10shared_ptrINS5_9QcmClientEEEEESt19_Sp_make_shared_tagPT_RKT0_DpOT1_=so_stub_for_libtelux_data
-Wl,--defsym=_ZNSt14__shared_countILN9__gnu_cxx12_Lock_policyE2EEC2IN5telux4data3net17BridgeManagerImplESaIS7_EJKSt10shared_ptrINS5_9QcmClientEEEEESt19_Sp_make_shared_tagPT_RKT0_DpOT1_=so_stub_for_libtelux_data
-Wl,--defsym=_ZNSt14__shared_countILN9__gnu_cxx12_Lock_policyE2EEC2IN5telux4data3net19FirewallManagerImplESaIS7_EJRNS5_13OperationTypeEKSt10shared_ptrINS5_9QcmClientEEEEESt19_Sp_make_shared_tagPT_RKT0_DpOT1_=so_stub_for_libtelux_data
-Wl,--defsym=_ZNSt14__shared_countILN9__gnu_cxx12_Lock_policyE2EEC2IN5telux4data9EventInfoINS5_21DsiStatusCallbackDataEEESaIS8_EJRKSt10shared_ptrIS7_ERSt8functionIFvSD_EEEEESt19_Sp_make_shared_tagPT_RKT0_DpOT1_=so_stub_for_libtelux_data
-Wl,--defsym=_ZNSt14__shared_countILN9__gnu_cxx12_Lock_policyE2EEC2IPN5telux4data9DsiClientEEET_=so_stub_for_libtelux_data
-Wl,--defsym=_ZNSt14__shared_countILN9__gnu_cxx12_Lock_policyE2EEC2IPN5telux4data9QcmClientEEET_=so_stub_for_libtelux_data
-Wl,--defsym=_ZNSt15_Deque_iteratorISt13shared_futureIvERS1_PS1_EpLEi=so_stub_for_libtelux_data
-Wl,--defsym=_ZNSt15__exception_ptr12__dest_thunkISt12future_errorEEvPv=so_stub_for_libtelux_data
-Wl,--defsym=_ZNSt15_Sp_counted_ptrIPN5telux4data9DsiClientELN9__gnu_cxx12_Lock_policyE2EE10_M_destroyEv=so_stub_for_libtelux_data
-Wl,--defsym=_ZNSt15_Sp_counted_ptrIPN5telux4data9DsiClientELN9__gnu_cxx12_Lock_policyE2EE10_M_disposeEv=so_stub_for_libtelux_data
-Wl,--defsym=_ZNSt15_Sp_counted_ptrIPN5telux4data9DsiClientELN9__gnu_cxx12_Lock_policyE2EE14_M_get_deleterERKSt9type_info=so_stub_for_libtelux_data
-Wl,--defsym=_ZNSt15_Sp_counted_ptrIPN5telux4data9DsiClientELN9__gnu_cxx12_Lock_policyE2EED0Ev=so_stub_for_libtelux_data
-Wl,--defsym=_ZNSt15_Sp_counted_ptrIPN5telux4data9DsiClientELN9__gnu_cxx12_Lock_policyE2EED1Ev=so_stub_for_libtelux_data
-Wl,--defsym=_ZNSt15_Sp_counted_ptrIPN5telux4data9DsiClientELN9__gnu_cxx12_Lock_policyE2EED2Ev=so_stub_for_libtelux_data
-Wl,--defsym=_ZNSt15_Sp_counted_ptrIPN5telux4data9QcmClientELN9__gnu_cxx12_Lock_policyE2EE10_M_destroyEv=so_stub_for_libtelux_data
-Wl,--defsym=_ZNSt15_Sp_counted_ptrIPN5telux4data9QcmClientELN9__gnu_cxx12_Lock_policyE2EE10_M_disposeEv=so_stub_for_libtelux_data
-Wl,--defsym=_ZNSt15_Sp_counted_ptrIPN5telux4data9QcmClientELN9__gnu_cxx12_Lock_policyE2EE14_M_get_deleterERKSt9type_info=so_stub_for_libtelux_data
-Wl,--defsym=_ZNSt15_Sp_counted_ptrIPN5telux4data9QcmClientELN9__gnu_cxx12_Lock_policyE2EED0Ev=so_stub_for_libtelux_data
-Wl,--defsym=_ZNSt15_Sp_counted_ptrIPN5telux4data9QcmClientELN9__gnu_cxx12_Lock_policyE2EED1Ev=so_stub_for_libtelux_data
-Wl,--defsym=_ZNSt15_Sp_counted_ptrIPN5telux4data9QcmClientELN9__gnu_cxx12_Lock_policyE2EED2Ev=so_stub_for_libtelux_data
-Wl,--defsym=_ZNSt16_Sp_counted_baseILN9__gnu_cxx12_Lock_policyE2EE10_M_releaseEv=so_stub_for_libtelux_data
-Wl,--defsym=_ZNSt16_Sp_counted_baseILN9__gnu_cxx12_Lock_policyE2EE15_M_weak_releaseEv=so_stub_for_libtelux_data
-Wl,--defsym=_ZNSt17_Function_handlerIFSt10unique_ptrINSt13__future_base12_Result_baseENS2_8_DeleterEEvENS1_13_State_baseV27_SetterI18dsi_v2x_ind_info_tRKS8_EEE9_M_invokeERKSt9_Any_data=so_stub_for_libtelux_data
-Wl,--defsym=_ZNSt17_Function_handlerIFvRKSt10shared_ptrIN5telux4data21DsiStatusCallbackDataEEESt5_BindIFMNS2_9DsiClientEFvS6_EPS9_St12_PlaceholderILi1EEEEE9_M_invokeERKSt9_Any_dataS6_=so_stub_for_libtelux_data
-Wl,--defsym=_ZNSt17_Function_handlerIFvSt10shared_ptrIN5telux4data21DsiStatusCallbackDataEEESt8functionIFvRKS4_EEE9_M_invokeERKSt9_Any_dataOS4_=so_stub_for_libtelux_data
-Wl,--defsym=_ZNSt20__copy_move_backwardILb1ELb0ESt26random_access_iterator_tagE13__copy_move_bIPSt10shared_ptrIN5telux4data11DataProfileEES8_EET0_T_SA_S9_=so_stub_for_libtelux_data
-Wl,--defsym=_ZNSt20__copy_move_backwardILb1ELb0ESt26random_access_iterator_tagE13__copy_move_bIPSt13shared_futureIvES5_EET0_T_S7_S6_=so_stub_for_libtelux_data
-Wl,--defsym=_ZNSt20__uninitialized_copyILb0EE13__uninit_copyIN9__gnu_cxx17__normal_iteratorIPKNSt7__cxx1112basic_stringIcSt11char_traitsIcESaIcEEESt6vectorIS9_SaIS9_EEEEPS9_EET0_T_SI_SH_=so_stub_for_libtelux_data
-Wl,--defsym=_ZNSt20__uninitialized_copyILb0EE13__uninit_copyISt13move_iteratorIPN5telux4data3net9NatConfigEES7_EET0_T_SA_S9_=so_stub_for_libtelux_data
-Wl,--defsym=_ZNSt23__atomic_futex_unsignedILj2147483648EE22_M_load_and_test_untilEjjbSt12memory_orderbNSt6chrono8durationIxSt5ratioILx1ELx1EEEENS3_IxS4_ILx1ELx1000000000EEEE=so_stub_for_libtelux_data
-Wl,--defsym=_ZNSt23_Sp_counted_ptr_inplaceI12QCMAP_ClientSaIS0_ELN9__gnu_cxx12_Lock_policyE2EE10_M_destroyEv=so_stub_for_libtelux_data
-Wl,--defsym=_ZNSt23_Sp_counted_ptr_inplaceI12QCMAP_ClientSaIS0_ELN9__gnu_cxx12_Lock_policyE2EE10_M_disposeEv=so_stub_for_libtelux_data
-Wl,--defsym=_ZNSt23_Sp_counted_ptr_inplaceI12QCMAP_ClientSaIS0_ELN9__gnu_cxx12_Lock_policyE2EE14_M_get_deleterERKSt9type_info=so_stub_for_libtelux_data
-Wl,--defsym=_ZNSt23_Sp_counted_ptr_inplaceI12QCMAP_ClientSaIS0_ELN9__gnu_cxx12_Lock_policyE2EED0Ev=so_stub_for_libtelux_data
-Wl,--defsym=_ZNSt23_Sp_counted_ptr_inplaceI12QCMAP_ClientSaIS0_ELN9__gnu_cxx12_Lock_policyE2EED1Ev=so_stub_for_libtelux_data
-Wl,--defsym=_ZNSt23_Sp_counted_ptr_inplaceI12QCMAP_ClientSaIS0_ELN9__gnu_cxx12_Lock_policyE2EED2Ev=so_stub_for_libtelux_data
-Wl,--defsym=_ZNSt23_Sp_counted_ptr_inplaceIN5telux4data11DataProfileESaIS2_ELN9__gnu_cxx12_Lock_policyE2EE10_M_destroyEv=so_stub_for_libtelux_data
-Wl,--defsym=_ZNSt23_Sp_counted_ptr_inplaceIN5telux4data11DataProfileESaIS2_ELN9__gnu_cxx12_Lock_policyE2EE10_M_disposeEv=so_stub_for_libtelux_data
-Wl,--defsym=_ZNSt23_Sp_counted_ptr_inplaceIN5telux4data11DataProfileESaIS2_ELN9__gnu_cxx12_Lock_policyE2EE14_M_get_deleterERKSt9type_info=so_stub_for_libtelux_data
-Wl,--defsym=_ZNSt23_Sp_counted_ptr_inplaceIN5telux4data11DataProfileESaIS2_ELN9__gnu_cxx12_Lock_policyE2EED0Ev=so_stub_for_libtelux_data
-Wl,--defsym=_ZNSt23_Sp_counted_ptr_inplaceIN5telux4data11DataProfileESaIS2_ELN9__gnu_cxx12_Lock_policyE2EED1Ev=so_stub_for_libtelux_data
-Wl,--defsym=_ZNSt23_Sp_counted_ptr_inplaceIN5telux4data11DataProfileESaIS2_ELN9__gnu_cxx12_Lock_policyE2EED2Ev=so_stub_for_libtelux_data
-Wl,--defsym=_ZNSt23_Sp_counted_ptr_inplaceIN5telux4data12DataCallImplESaIS2_ELN9__gnu_cxx12_Lock_policyE2EE10_M_destroyEv=so_stub_for_libtelux_data
-Wl,--defsym=_ZNSt23_Sp_counted_ptr_inplaceIN5telux4data12DataCallImplESaIS2_ELN9__gnu_cxx12_Lock_policyE2EE10_M_disposeEv=so_stub_for_libtelux_data
-Wl,--defsym=_ZNSt23_Sp_counted_ptr_inplaceIN5telux4data12DataCallImplESaIS2_ELN9__gnu_cxx12_Lock_policyE2EE14_M_get_deleterERKSt9type_info=so_stub_for_libtelux_data
-Wl,--defsym=_ZNSt23_Sp_counted_ptr_inplaceIN5telux4data12DataCallImplESaIS2_ELN9__gnu_cxx12_Lock_policyE2EED0Ev=so_stub_for_libtelux_data
-Wl,--defsym=_ZNSt23_Sp_counted_ptr_inplaceIN5telux4data12DataCallImplESaIS2_ELN9__gnu_cxx12_Lock_policyE2EED1Ev=so_stub_for_libtelux_data
-Wl,--defsym=_ZNSt23_Sp_counted_ptr_inplaceIN5telux4data12DataCallImplESaIS2_ELN9__gnu_cxx12_Lock_policyE2EED2Ev=so_stub_for_libtelux_data
-Wl,--defsym=_ZNSt23_Sp_counted_ptr_inplaceIN5telux4data12EventHandlerESaIS2_ELN9__gnu_cxx12_Lock_policyE2EE10_M_destroyEv=so_stub_for_libtelux_data
-Wl,--defsym=_ZNSt23_Sp_counted_ptr_inplaceIN5telux4data12EventHandlerESaIS2_ELN9__gnu_cxx12_Lock_policyE2EE10_M_disposeEv=so_stub_for_libtelux_data
-Wl,--defsym=_ZNSt23_Sp_counted_ptr_inplaceIN5telux4data12EventHandlerESaIS2_ELN9__gnu_cxx12_Lock_policyE2EE14_M_get_deleterERKSt9type_info=so_stub_for_libtelux_data
-Wl,--defsym=_ZNSt23_Sp_counted_ptr_inplaceIN5telux4data12EventHandlerESaIS2_ELN9__gnu_cxx12_Lock_policyE2EED0Ev=so_stub_for_libtelux_data
-Wl,--defsym=_ZNSt23_Sp_counted_ptr_inplaceIN5telux4data12EventHandlerESaIS2_ELN9__gnu_cxx12_Lock_policyE2EED1Ev=so_stub_for_libtelux_data
-Wl,--defsym=_ZNSt23_Sp_counted_ptr_inplaceIN5telux4data12EventHandlerESaIS2_ELN9__gnu_cxx12_Lock_policyE2EED2Ev=so_stub_for_libtelux_data
-Wl,--defsym=_ZNSt23_Sp_counted_ptr_inplaceIN5telux4data13EspFilterImplESaIS2_ELN9__gnu_cxx12_Lock_policyE2EE10_M_destroyEv=so_stub_for_libtelux_data
-Wl,--defsym=_ZNSt23_Sp_counted_ptr_inplaceIN5telux4data13EspFilterImplESaIS2_ELN9__gnu_cxx12_Lock_policyE2EE10_M_disposeEv=so_stub_for_libtelux_data
-Wl,--defsym=_ZNSt23_Sp_counted_ptr_inplaceIN5telux4data13EspFilterImplESaIS2_ELN9__gnu_cxx12_Lock_policyE2EE14_M_get_deleterERKSt9type_info=so_stub_for_libtelux_data
-Wl,--defsym=_ZNSt23_Sp_counted_ptr_inplaceIN5telux4data13EspFilterImplESaIS2_ELN9__gnu_cxx12_Lock_policyE2EED0Ev=so_stub_for_libtelux_data
-Wl,--defsym=_ZNSt23_Sp_counted_ptr_inplaceIN5telux4data13EspFilterImplESaIS2_ELN9__gnu_cxx12_Lock_policyE2EED1Ev=so_stub_for_libtelux_data
-Wl,--defsym=_ZNSt23_Sp_counted_ptr_inplaceIN5telux4data13EspFilterImplESaIS2_ELN9__gnu_cxx12_Lock_policyE2EED2Ev=so_stub_for_libtelux_data
-Wl,--defsym=_ZNSt23_Sp_counted_ptr_inplaceIN5telux4data13TcpFilterImplESaIS2_ELN9__gnu_cxx12_Lock_policyE2EE10_M_destroyEv=so_stub_for_libtelux_data
-Wl,--defsym=_ZNSt23_Sp_counted_ptr_inplaceIN5telux4data13TcpFilterImplESaIS2_ELN9__gnu_cxx12_Lock_policyE2EE10_M_disposeEv=so_stub_for_libtelux_data
-Wl,--defsym=_ZNSt23_Sp_counted_ptr_inplaceIN5telux4data13TcpFilterImplESaIS2_ELN9__gnu_cxx12_Lock_policyE2EE14_M_get_deleterERKSt9type_info=so_stub_for_libtelux_data
-Wl,--defsym=_ZNSt23_Sp_counted_ptr_inplaceIN5telux4data13TcpFilterImplESaIS2_ELN9__gnu_cxx12_Lock_policyE2EED0Ev=so_stub_for_libtelux_data
-Wl,--defsym=_ZNSt23_Sp_counted_ptr_inplaceIN5telux4data13TcpFilterImplESaIS2_ELN9__gnu_cxx12_Lock_policyE2EED1Ev=so_stub_for_libtelux_data
-Wl,--defsym=_ZNSt23_Sp_counted_ptr_inplaceIN5telux4data13TcpFilterImplESaIS2_ELN9__gnu_cxx12_Lock_policyE2EED2Ev=so_stub_for_libtelux_data
-Wl,--defsym=_ZNSt23_Sp_counted_ptr_inplaceIN5telux4data13UdpFilterImplESaIS2_ELN9__gnu_cxx12_Lock_policyE2EE10_M_destroyEv=so_stub_for_libtelux_data
-Wl,--defsym=_ZNSt23_Sp_counted_ptr_inplaceIN5telux4data13UdpFilterImplESaIS2_ELN9__gnu_cxx12_Lock_policyE2EE10_M_disposeEv=so_stub_for_libtelux_data
-Wl,--defsym=_ZNSt23_Sp_counted_ptr_inplaceIN5telux4data13UdpFilterImplESaIS2_ELN9__gnu_cxx12_Lock_policyE2EE14_M_get_deleterERKSt9type_info=so_stub_for_libtelux_data
-Wl,--defsym=_ZNSt23_Sp_counted_ptr_inplaceIN5telux4data13UdpFilterImplESaIS2_ELN9__gnu_cxx12_Lock_policyE2EED0Ev=so_stub_for_libtelux_data
-Wl,--defsym=_ZNSt23_Sp_counted_ptr_inplaceIN5telux4data13UdpFilterImplESaIS2_ELN9__gnu_cxx12_Lock_policyE2EED1Ev=so_stub_for_libtelux_data
-Wl,--defsym=_ZNSt23_Sp_counted_ptr_inplaceIN5telux4data13UdpFilterImplESaIS2_ELN9__gnu_cxx12_Lock_policyE2EED2Ev=so_stub_for_libtelux_data
-Wl,--defsym=_ZNSt23_Sp_counted_ptr_inplaceIN5telux4data14IcmpFilterImplESaIS2_ELN9__gnu_cxx12_Lock_policyE2EE10_M_destroyEv=so_stub_for_libtelux_data
-Wl,--defsym=_ZNSt23_Sp_counted_ptr_inplaceIN5telux4data14IcmpFilterImplESaIS2_ELN9__gnu_cxx12_Lock_policyE2EE10_M_disposeEv=so_stub_for_libtelux_data
-Wl,--defsym=_ZNSt23_Sp_counted_ptr_inplaceIN5telux4data14IcmpFilterImplESaIS2_ELN9__gnu_cxx12_Lock_policyE2EE14_M_get_deleterERKSt9type_info=so_stub_for_libtelux_data
-Wl,--defsym=_ZNSt23_Sp_counted_ptr_inplaceIN5telux4data14IcmpFilterImplESaIS2_ELN9__gnu_cxx12_Lock_policyE2EED0Ev=so_stub_for_libtelux_data
-Wl,--defsym=_ZNSt23_Sp_counted_ptr_inplaceIN5telux4data14IcmpFilterImplESaIS2_ELN9__gnu_cxx12_Lock_policyE2EED1Ev=so_stub_for_libtelux_data
-Wl,--defsym=_ZNSt23_Sp_counted_ptr_inplaceIN5telux4data14IcmpFilterImplESaIS2_ELN9__gnu_cxx12_Lock_policyE2EED2Ev=so_stub_for_libtelux_data
-Wl,--defsym=_ZNSt23_Sp_counted_ptr_inplaceIN5telux4data16ProfileRetrieverESaIS2_ELN9__gnu_cxx12_Lock_policyE2EE10_M_destroyEv=so_stub_for_libtelux_data
-Wl,--defsym=_ZNSt23_Sp_counted_ptr_inplaceIN5telux4data16ProfileRetrieverESaIS2_ELN9__gnu_cxx12_Lock_policyE2EE10_M_disposeEv=so_stub_for_libtelux_data
-Wl,--defsym=_ZNSt23_Sp_counted_ptr_inplaceIN5telux4data16ProfileRetrieverESaIS2_ELN9__gnu_cxx12_Lock_policyE2EE14_M_get_deleterERKSt9type_info=so_stub_for_libtelux_data
-Wl,--defsym=_ZNSt23_Sp_counted_ptr_inplaceIN5telux4data16ProfileRetrieverESaIS2_ELN9__gnu_cxx12_Lock_policyE2EED0Ev=so_stub_for_libtelux_data
-Wl,--defsym=_ZNSt23_Sp_counted_ptr_inplaceIN5telux4data16ProfileRetrieverESaIS2_ELN9__gnu_cxx12_Lock_policyE2EED1Ev=so_stub_for_libtelux_data
-Wl,--defsym=_ZNSt23_Sp_counted_ptr_inplaceIN5telux4data16ProfileRetrieverESaIS2_ELN9__gnu_cxx12_Lock_policyE2EED2Ev=so_stub_for_libtelux_data
-Wl,--defsym=_ZNSt23_Sp_counted_ptr_inplaceIN5telux4data18DsiEventDispatcherESaIS2_ELN9__gnu_cxx12_Lock_policyE2EE10_M_destroyEv=so_stub_for_libtelux_data
-Wl,--defsym=_ZNSt23_Sp_counted_ptr_inplaceIN5telux4data18DsiEventDispatcherESaIS2_ELN9__gnu_cxx12_Lock_policyE2EE10_M_disposeEv=so_stub_for_libtelux_data
-Wl,--defsym=_ZNSt23_Sp_counted_ptr_inplaceIN5telux4data18DsiEventDispatcherESaIS2_ELN9__gnu_cxx12_Lock_policyE2EE14_M_get_deleterERKSt9type_info=so_stub_for_libtelux_data
-Wl,--defsym=_ZNSt23_Sp_counted_ptr_inplaceIN5telux4data18DsiEventDispatcherESaIS2_ELN9__gnu_cxx12_Lock_policyE2EED0Ev=so_stub_for_libtelux_data
-Wl,--defsym=_ZNSt23_Sp_counted_ptr_inplaceIN5telux4data18DsiEventDispatcherESaIS2_ELN9__gnu_cxx12_Lock_policyE2EED1Ev=so_stub_for_libtelux_data
-Wl,--defsym=_ZNSt23_Sp_counted_ptr_inplaceIN5telux4data18DsiEventDispatcherESaIS2_ELN9__gnu_cxx12_Lock_policyE2EED2Ev=so_stub_for_libtelux_data
-Wl,--defsym=_ZNSt23_Sp_counted_ptr_inplaceIN5telux4data21DsiStatusCallbackDataESaIS2_ELN9__gnu_cxx12_Lock_policyE2EE10_M_destroyEv=so_stub_for_libtelux_data
-Wl,--defsym=_ZNSt23_Sp_counted_ptr_inplaceIN5telux4data21DsiStatusCallbackDataESaIS2_ELN9__gnu_cxx12_Lock_policyE2EE10_M_disposeEv=so_stub_for_libtelux_data
-Wl,--defsym=_ZNSt23_Sp_counted_ptr_inplaceIN5telux4data21DsiStatusCallbackDataESaIS2_ELN9__gnu_cxx12_Lock_policyE2EE14_M_get_deleterERKSt9type_info=so_stub_for_libtelux_data
-Wl,--defsym=_ZNSt23_Sp_counted_ptr_inplaceIN5telux4data21DsiStatusCallbackDataESaIS2_ELN9__gnu_cxx12_Lock_policyE2EED0Ev=so_stub_for_libtelux_data
-Wl,--defsym=_ZNSt23_Sp_counted_ptr_inplaceIN5telux4data21DsiStatusCallbackDataESaIS2_ELN9__gnu_cxx12_Lock_policyE2EED1Ev=so_stub_for_libtelux_data
-Wl,--defsym=_ZNSt23_Sp_counted_ptr_inplaceIN5telux4data21DsiStatusCallbackDataESaIS2_ELN9__gnu_cxx12_Lock_policyE2EED2Ev=so_stub_for_libtelux_data
-Wl,--defsym=_ZNSt23_Sp_counted_ptr_inplaceIN5telux4data22DataProfileManagerImplESaIS2_ELN9__gnu_cxx12_Lock_policyE2EE10_M_destroyEv=so_stub_for_libtelux_data
-Wl,--defsym=_ZNSt23_Sp_counted_ptr_inplaceIN5telux4data22DataProfileManagerImplESaIS2_ELN9__gnu_cxx12_Lock_policyE2EE10_M_disposeEv=so_stub_for_libtelux_data
-Wl,--defsym=_ZNSt23_Sp_counted_ptr_inplaceIN5telux4data22DataProfileManagerImplESaIS2_ELN9__gnu_cxx12_Lock_policyE2EE14_M_get_deleterERKSt9type_info=so_stub_for_libtelux_data
-Wl,--defsym=_ZNSt23_Sp_counted_ptr_inplaceIN5telux4data22DataProfileManagerImplESaIS2_ELN9__gnu_cxx12_Lock_policyE2EED0Ev=so_stub_for_libtelux_data
-Wl,--defsym=_ZNSt23_Sp_counted_ptr_inplaceIN5telux4data22DataProfileManagerImplESaIS2_ELN9__gnu_cxx12_Lock_policyE2EED1Ev=so_stub_for_libtelux_data
-Wl,--defsym=_ZNSt23_Sp_counted_ptr_inplaceIN5telux4data22DataProfileManagerImplESaIS2_ELN9__gnu_cxx12_Lock_policyE2EED2Ev=so_stub_for_libtelux_data
-Wl,--defsym=_ZNSt23_Sp_counted_ptr_inplaceIN5telux4data25DataConnectionManagerImplESaIS2_ELN9__gnu_cxx12_Lock_policyE2EE10_M_destroyEv=so_stub_for_libtelux_data
-Wl,--defsym=_ZNSt23_Sp_counted_ptr_inplaceIN5telux4data25DataConnectionManagerImplESaIS2_ELN9__gnu_cxx12_Lock_policyE2EE10_M_disposeEv=so_stub_for_libtelux_data
-Wl,--defsym=_ZNSt23_Sp_counted_ptr_inplaceIN5telux4data25DataConnectionManagerImplESaIS2_ELN9__gnu_cxx12_Lock_policyE2EE14_M_get_deleterERKSt9type_info=so_stub_for_libtelux_data
-Wl,--defsym=_ZNSt23_Sp_counted_ptr_inplaceIN5telux4data25DataConnectionManagerImplESaIS2_ELN9__gnu_cxx12_Lock_policyE2EED0Ev=so_stub_for_libtelux_data
-Wl,--defsym=_ZNSt23_Sp_counted_ptr_inplaceIN5telux4data25DataConnectionManagerImplESaIS2_ELN9__gnu_cxx12_Lock_policyE2EED1Ev=so_stub_for_libtelux_data
-Wl,--defsym=_ZNSt23_Sp_counted_ptr_inplaceIN5telux4data25DataConnectionManagerImplESaIS2_ELN9__gnu_cxx12_Lock_policyE2EED2Ev=so_stub_for_libtelux_data
-Wl,--defsym=_ZNSt23_Sp_counted_ptr_inplaceIN5telux4data3net14NatManagerImplESaIS3_ELN9__gnu_cxx12_Lock_policyE2EE10_M_destroyEv=so_stub_for_libtelux_data
-Wl,--defsym=_ZNSt23_Sp_counted_ptr_inplaceIN5telux4data3net14NatManagerImplESaIS3_ELN9__gnu_cxx12_Lock_policyE2EE10_M_disposeEv=so_stub_for_libtelux_data
-Wl,--defsym=_ZNSt23_Sp_counted_ptr_inplaceIN5telux4data3net14NatManagerImplESaIS3_ELN9__gnu_cxx12_Lock_policyE2EE14_M_get_deleterERKSt9type_info=so_stub_for_libtelux_data
-Wl,--defsym=_ZNSt23_Sp_counted_ptr_inplaceIN5telux4data3net14NatManagerImplESaIS3_ELN9__gnu_cxx12_Lock_policyE2EED0Ev=so_stub_for_libtelux_data
-Wl,--defsym=_ZNSt23_Sp_counted_ptr_inplaceIN5telux4data3net14NatManagerImplESaIS3_ELN9__gnu_cxx12_Lock_policyE2EED1Ev=so_stub_for_libtelux_data
-Wl,--defsym=_ZNSt23_Sp_counted_ptr_inplaceIN5telux4data3net14NatManagerImplESaIS3_ELN9__gnu_cxx12_Lock_policyE2EED2Ev=so_stub_for_libtelux_data
-Wl,--defsym=_ZNSt23_Sp_counted_ptr_inplaceIN5telux4data3net15L2tpManagerImplESaIS3_ELN9__gnu_cxx12_Lock_policyE2EE10_M_destroyEv=so_stub_for_libtelux_data
-Wl,--defsym=_ZNSt23_Sp_counted_ptr_inplaceIN5telux4data3net15L2tpManagerImplESaIS3_ELN9__gnu_cxx12_Lock_policyE2EE10_M_disposeEv=so_stub_for_libtelux_data
-Wl,--defsym=_ZNSt23_Sp_counted_ptr_inplaceIN5telux4data3net15L2tpManagerImplESaIS3_ELN9__gnu_cxx12_Lock_policyE2EE14_M_get_deleterERKSt9type_info=so_stub_for_libtelux_data
-Wl,--defsym=_ZNSt23_Sp_counted_ptr_inplaceIN5telux4data3net15L2tpManagerImplESaIS3_ELN9__gnu_cxx12_Lock_policyE2EED0Ev=so_stub_for_libtelux_data
-Wl,--defsym=_ZNSt23_Sp_counted_ptr_inplaceIN5telux4data3net15L2tpManagerImplESaIS3_ELN9__gnu_cxx12_Lock_policyE2EED1Ev=so_stub_for_libtelux_data
-Wl,--defsym=_ZNSt23_Sp_counted_ptr_inplaceIN5telux4data3net15L2tpManagerImplESaIS3_ELN9__gnu_cxx12_Lock_policyE2EED2Ev=so_stub_for_libtelux_data
-Wl,--defsym=_ZNSt23_Sp_counted_ptr_inplaceIN5telux4data3net15VlanManagerImplESaIS3_ELN9__gnu_cxx12_Lock_policyE2EE10_M_destroyEv=so_stub_for_libtelux_data
-Wl,--defsym=_ZNSt23_Sp_counted_ptr_inplaceIN5telux4data3net15VlanManagerImplESaIS3_ELN9__gnu_cxx12_Lock_policyE2EE10_M_disposeEv=so_stub_for_libtelux_data
-Wl,--defsym=_ZNSt23_Sp_counted_ptr_inplaceIN5telux4data3net15VlanManagerImplESaIS3_ELN9__gnu_cxx12_Lock_policyE2EE14_M_get_deleterERKSt9type_info=so_stub_for_libtelux_data
-Wl,--defsym=_ZNSt23_Sp_counted_ptr_inplaceIN5telux4data3net15VlanManagerImplESaIS3_ELN9__gnu_cxx12_Lock_policyE2EED0Ev=so_stub_for_libtelux_data
-Wl,--defsym=_ZNSt23_Sp_counted_ptr_inplaceIN5telux4data3net15VlanManagerImplESaIS3_ELN9__gnu_cxx12_Lock_policyE2EED1Ev=so_stub_for_libtelux_data
-Wl,--defsym=_ZNSt23_Sp_counted_ptr_inplaceIN5telux4data3net15VlanManagerImplESaIS3_ELN9__gnu_cxx12_Lock_policyE2EED2Ev=so_stub_for_libtelux_data
-Wl,--defsym=_ZNSt23_Sp_counted_ptr_inplaceIN5telux4data3net16SocksManagerImplESaIS3_ELN9__gnu_cxx12_Lock_policyE2EE10_M_destroyEv=so_stub_for_libtelux_data
-Wl,--defsym=_ZNSt23_Sp_counted_ptr_inplaceIN5telux4data3net16SocksManagerImplESaIS3_ELN9__gnu_cxx12_Lock_policyE2EE10_M_disposeEv=so_stub_for_libtelux_data
-Wl,--defsym=_ZNSt23_Sp_counted_ptr_inplaceIN5telux4data3net16SocksManagerImplESaIS3_ELN9__gnu_cxx12_Lock_policyE2EE14_M_get_deleterERKSt9type_info=so_stub_for_libtelux_data
-Wl,--defsym=_ZNSt23_Sp_counted_ptr_inplaceIN5telux4data3net16SocksManagerImplESaIS3_ELN9__gnu_cxx12_Lock_policyE2EED0Ev=so_stub_for_libtelux_data
-Wl,--defsym=_ZNSt23_Sp_counted_ptr_inplaceIN5telux4data3net16SocksManagerImplESaIS3_ELN9__gnu_cxx12_Lock_policyE2EED1Ev=so_stub_for_libtelux_data
-Wl,--defsym=_ZNSt23_Sp_counted_ptr_inplaceIN5telux4data3net16SocksManagerImplESaIS3_ELN9__gnu_cxx12_Lock_policyE2EED2Ev=so_stub_for_libtelux_data
-Wl,--defsym=_ZNSt23_Sp_counted_ptr_inplaceIN5telux4data3net17BridgeManagerImplESaIS3_ELN9__gnu_cxx12_Lock_policyE2EE10_M_destroyEv=so_stub_for_libtelux_data
-Wl,--defsym=_ZNSt23_Sp_counted_ptr_inplaceIN5telux4data3net17BridgeManagerImplESaIS3_ELN9__gnu_cxx12_Lock_policyE2EE10_M_disposeEv=so_stub_for_libtelux_data
-Wl,--defsym=_ZNSt23_Sp_counted_ptr_inplaceIN5telux4data3net17BridgeManagerImplESaIS3_ELN9__gnu_cxx12_Lock_policyE2EE14_M_get_deleterERKSt9type_info=so_stub_for_libtelux_data
-Wl,--defsym=_ZNSt23_Sp_counted_ptr_inplaceIN5telux4data3net17BridgeManagerImplESaIS3_ELN9__gnu_cxx12_Lock_policyE2EED0Ev=so_stub_for_libtelux_data
-Wl,--defsym=_ZNSt23_Sp_counted_ptr_inplaceIN5telux4data3net17BridgeManagerImplESaIS3_ELN9__gnu_cxx12_Lock_policyE2EED1Ev=so_stub_for_libtelux_data
-Wl,--defsym=_ZNSt23_Sp_counted_ptr_inplaceIN5telux4data3net17BridgeManagerImplESaIS3_ELN9__gnu_cxx12_Lock_policyE2EED2Ev=so_stub_for_libtelux_data
-Wl,--defsym=_ZNSt23_Sp_counted_ptr_inplaceIN5telux4data3net17FirewallEntryImplESaIS3_ELN9__gnu_cxx12_Lock_policyE2EE10_M_destroyEv=so_stub_for_libtelux_data
-Wl,--defsym=_ZNSt23_Sp_counted_ptr_inplaceIN5telux4data3net17FirewallEntryImplESaIS3_ELN9__gnu_cxx12_Lock_policyE2EE10_M_disposeEv=so_stub_for_libtelux_data
-Wl,--defsym=_ZNSt23_Sp_counted_ptr_inplaceIN5telux4data3net17FirewallEntryImplESaIS3_ELN9__gnu_cxx12_Lock_policyE2EE14_M_get_deleterERKSt9type_info=so_stub_for_libtelux_data
-Wl,--defsym=_ZNSt23_Sp_counted_ptr_inplaceIN5telux4data3net17FirewallEntryImplESaIS3_ELN9__gnu_cxx12_Lock_policyE2EED0Ev=so_stub_for_libtelux_data
-Wl,--defsym=_ZNSt23_Sp_counted_ptr_inplaceIN5telux4data3net17FirewallEntryImplESaIS3_ELN9__gnu_cxx12_Lock_policyE2EED1Ev=so_stub_for_libtelux_data
-Wl,--defsym=_ZNSt23_Sp_counted_ptr_inplaceIN5telux4data3net17FirewallEntryImplESaIS3_ELN9__gnu_cxx12_Lock_policyE2EED2Ev=so_stub_for_libtelux_data
-Wl,--defsym=_ZNSt23_Sp_counted_ptr_inplaceIN5telux4data3net19FirewallManagerImplESaIS3_ELN9__gnu_cxx12_Lock_policyE2EE10_M_destroyEv=so_stub_for_libtelux_data
-Wl,--defsym=_ZNSt23_Sp_counted_ptr_inplaceIN5telux4data3net19FirewallManagerImplESaIS3_ELN9__gnu_cxx12_Lock_policyE2EE10_M_disposeEv=so_stub_for_libtelux_data
-Wl,--defsym=_ZNSt23_Sp_counted_ptr_inplaceIN5telux4data3net19FirewallManagerImplESaIS3_ELN9__gnu_cxx12_Lock_policyE2EE14_M_get_deleterERKSt9type_info=so_stub_for_libtelux_data
-Wl,--defsym=_ZNSt23_Sp_counted_ptr_inplaceIN5telux4data3net19FirewallManagerImplESaIS3_ELN9__gnu_cxx12_Lock_policyE2EED0Ev=so_stub_for_libtelux_data
-Wl,--defsym=_ZNSt23_Sp_counted_ptr_inplaceIN5telux4data3net19FirewallManagerImplESaIS3_ELN9__gnu_cxx12_Lock_policyE2EED1Ev=so_stub_for_libtelux_data
-Wl,--defsym=_ZNSt23_Sp_counted_ptr_inplaceIN5telux4data3net19FirewallManagerImplESaIS3_ELN9__gnu_cxx12_Lock_policyE2EED2Ev=so_stub_for_libtelux_data
-Wl,--defsym=_ZNSt23_Sp_counted_ptr_inplaceIN5telux4data9EventInfoINS1_21DsiStatusCallbackDataEEESaIS4_ELN9__gnu_cxx12_Lock_policyE2EE10_M_destroyEv=so_stub_for_libtelux_data
-Wl,--defsym=_ZNSt23_Sp_counted_ptr_inplaceIN5telux4data9EventInfoINS1_21DsiStatusCallbackDataEEESaIS4_ELN9__gnu_cxx12_Lock_policyE2EE10_M_disposeEv=so_stub_for_libtelux_data
-Wl,--defsym=_ZNSt23_Sp_counted_ptr_inplaceIN5telux4data9EventInfoINS1_21DsiStatusCallbackDataEEESaIS4_ELN9__gnu_cxx12_Lock_policyE2EE14_M_get_deleterERKSt9type_info=so_stub_for_libtelux_data
-Wl,--defsym=_ZNSt23_Sp_counted_ptr_inplaceIN5telux4data9EventInfoINS1_21DsiStatusCallbackDataEEESaIS4_ELN9__gnu_cxx12_Lock_policyE2EED0Ev=so_stub_for_libtelux_data
-Wl,--defsym=_ZNSt23_Sp_counted_ptr_inplaceIN5telux4data9EventInfoINS1_21DsiStatusCallbackDataEEESaIS4_ELN9__gnu_cxx12_Lock_policyE2EED1Ev=so_stub_for_libtelux_data
-Wl,--defsym=_ZNSt23_Sp_counted_ptr_inplaceIN5telux4data9EventInfoINS1_21DsiStatusCallbackDataEEESaIS4_ELN9__gnu_cxx12_Lock_policyE2EED2Ev=so_stub_for_libtelux_data
-Wl,--defsym=_ZNSt23_Sp_counted_ptr_inplaceIN5telux6common15ListenerManagerINS0_4data23IDataConnectionListenerEEESaIS5_ELN9__gnu_cxx12_Lock_policyE2EE10_M_destroyEv=so_stub_for_libtelux_data
-Wl,--defsym=_ZNSt23_Sp_counted_ptr_inplaceIN5telux6common15ListenerManagerINS0_4data23IDataConnectionListenerEEESaIS5_ELN9__gnu_cxx12_Lock_policyE2EE10_M_disposeEv=so_stub_for_libtelux_data
-Wl,--defsym=_ZNSt23_Sp_counted_ptr_inplaceIN5telux6common15ListenerManagerINS0_4data23IDataConnectionListenerEEESaIS5_ELN9__gnu_cxx12_Lock_policyE2EE14_M_get_deleterERKSt9type_info=so_stub_for_libtelux_data
-Wl,--defsym=_ZNSt23_Sp_counted_ptr_inplaceIN5telux6common15ListenerManagerINS0_4data23IDataConnectionListenerEEESaIS5_ELN9__gnu_cxx12_Lock_policyE2EED0Ev=so_stub_for_libtelux_data
-Wl,--defsym=_ZNSt23_Sp_counted_ptr_inplaceIN5telux6common15ListenerManagerINS0_4data23IDataConnectionListenerEEESaIS5_ELN9__gnu_cxx12_Lock_policyE2EED1Ev=so_stub_for_libtelux_data
-Wl,--defsym=_ZNSt23_Sp_counted_ptr_inplaceIN5telux6common15ListenerManagerINS0_4data23IDataConnectionListenerEEESaIS5_ELN9__gnu_cxx12_Lock_policyE2EED2Ev=so_stub_for_libtelux_data
-Wl,--defsym=_ZNSt23_Sp_counted_ptr_inplaceIN5telux6common15ListenerManagerINS0_4data3net12INatListenerEEESaIS6_ELN9__gnu_cxx12_Lock_policyE2EE10_M_destroyEv=so_stub_for_libtelux_data
-Wl,--defsym=_ZNSt23_Sp_counted_ptr_inplaceIN5telux6common15ListenerManagerINS0_4data3net12INatListenerEEESaIS6_ELN9__gnu_cxx12_Lock_policyE2EE10_M_disposeEv=so_stub_for_libtelux_data
-Wl,--defsym=_ZNSt23_Sp_counted_ptr_inplaceIN5telux6common15ListenerManagerINS0_4data3net12INatListenerEEESaIS6_ELN9__gnu_cxx12_Lock_policyE2EE14_M_get_deleterERKSt9type_info=so_stub_for_libtelux_data
-Wl,--defsym=_ZNSt23_Sp_counted_ptr_inplaceIN5telux6common15ListenerManagerINS0_4data3net12INatListenerEEESaIS6_ELN9__gnu_cxx12_Lock_policyE2EED0Ev=so_stub_for_libtelux_data
-Wl,--defsym=_ZNSt23_Sp_counted_ptr_inplaceIN5telux6common15ListenerManagerINS0_4data3net12INatListenerEEESaIS6_ELN9__gnu_cxx12_Lock_policyE2EED1Ev=so_stub_for_libtelux_data
-Wl,--defsym=_ZNSt23_Sp_counted_ptr_inplaceIN5telux6common15ListenerManagerINS0_4data3net12INatListenerEEESaIS6_ELN9__gnu_cxx12_Lock_policyE2EED2Ev=so_stub_for_libtelux_data
-Wl,--defsym=_ZNSt23_Sp_counted_ptr_inplaceIN5telux6common15ListenerManagerINS0_4data3net13IL2tpListenerEEESaIS6_ELN9__gnu_cxx12_Lock_policyE2EE10_M_destroyEv=so_stub_for_libtelux_data
-Wl,--defsym=_ZNSt23_Sp_counted_ptr_inplaceIN5telux6common15ListenerManagerINS0_4data3net13IL2tpListenerEEESaIS6_ELN9__gnu_cxx12_Lock_policyE2EE10_M_disposeEv=so_stub_for_libtelux_data
-Wl,--defsym=_ZNSt23_Sp_counted_ptr_inplaceIN5telux6common15ListenerManagerINS0_4data3net13IL2tpListenerEEESaIS6_ELN9__gnu_cxx12_Lock_policyE2EE14_M_get_deleterERKSt9type_info=so_stub_for_libtelux_data
-Wl,--defsym=_ZNSt23_Sp_counted_ptr_inplaceIN5telux6common15ListenerManagerINS0_4data3net13IL2tpListenerEEESaIS6_ELN9__gnu_cxx12_Lock_policyE2EED0Ev=so_stub_for_libtelux_data
-Wl,--defsym=_ZNSt23_Sp_counted_ptr_inplaceIN5telux6common15ListenerManagerINS0_4data3net13IL2tpListenerEEESaIS6_ELN9__gnu_cxx12_Lock_policyE2EED1Ev=so_stub_for_libtelux_data
-Wl,--defsym=_ZNSt23_Sp_counted_ptr_inplaceIN5telux6common15ListenerManagerINS0_4data3net13IL2tpListenerEEESaIS6_ELN9__gnu_cxx12_Lock_policyE2EED2Ev=so_stub_for_libtelux_data
-Wl,--defsym=_ZNSt23_Sp_counted_ptr_inplaceIN5telux6common15ListenerManagerINS0_4data3net13IVlanListenerEEESaIS6_ELN9__gnu_cxx12_Lock_policyE2EE10_M_destroyEv=so_stub_for_libtelux_data
-Wl,--defsym=_ZNSt23_Sp_counted_ptr_inplaceIN5telux6common15ListenerManagerINS0_4data3net13IVlanListenerEEESaIS6_ELN9__gnu_cxx12_Lock_policyE2EE10_M_disposeEv=so_stub_for_libtelux_data
-Wl,--defsym=_ZNSt23_Sp_counted_ptr_inplaceIN5telux6common15ListenerManagerINS0_4data3net13IVlanListenerEEESaIS6_ELN9__gnu_cxx12_Lock_policyE2EE14_M_get_deleterERKSt9type_info=so_stub_for_libtelux_data
-Wl,--defsym=_ZNSt23_Sp_counted_ptr_inplaceIN5telux6common15ListenerManagerINS0_4data3net13IVlanListenerEEESaIS6_ELN9__gnu_cxx12_Lock_policyE2EED0Ev=so_stub_for_libtelux_data
-Wl,--defsym=_ZNSt23_Sp_counted_ptr_inplaceIN5telux6common15ListenerManagerINS0_4data3net13IVlanListenerEEESaIS6_ELN9__gnu_cxx12_Lock_policyE2EED1Ev=so_stub_for_libtelux_data
-Wl,--defsym=_ZNSt23_Sp_counted_ptr_inplaceIN5telux6common15ListenerManagerINS0_4data3net13IVlanListenerEEESaIS6_ELN9__gnu_cxx12_Lock_policyE2EED2Ev=so_stub_for_libtelux_data
-Wl,--defsym=_ZNSt23_Sp_counted_ptr_inplaceIN5telux6common15ListenerManagerINS0_4data3net14ISocksListenerEEESaIS6_ELN9__gnu_cxx12_Lock_policyE2EE10_M_destroyEv=so_stub_for_libtelux_data
-Wl,--defsym=_ZNSt23_Sp_counted_ptr_inplaceIN5telux6common15ListenerManagerINS0_4data3net14ISocksListenerEEESaIS6_ELN9__gnu_cxx12_Lock_policyE2EE10_M_disposeEv=so_stub_for_libtelux_data
-Wl,--defsym=_ZNSt23_Sp_counted_ptr_inplaceIN5telux6common15ListenerManagerINS0_4data3net14ISocksListenerEEESaIS6_ELN9__gnu_cxx12_Lock_policyE2EE14_M_get_deleterERKSt9type_info=so_stub_for_libtelux_data
-Wl,--defsym=_ZNSt23_Sp_counted_ptr_inplaceIN5telux6common15ListenerManagerINS0_4data3net14ISocksListenerEEESaIS6_ELN9__gnu_cxx12_Lock_policyE2EED0Ev=so_stub_for_libtelux_data
-Wl,--defsym=_ZNSt23_Sp_counted_ptr_inplaceIN5telux6common15ListenerManagerINS0_4data3net14ISocksListenerEEESaIS6_ELN9__gnu_cxx12_Lock_policyE2EED1Ev=so_stub_for_libtelux_data
-Wl,--defsym=_ZNSt23_Sp_counted_ptr_inplaceIN5telux6common15ListenerManagerINS0_4data3net14ISocksListenerEEESaIS6_ELN9__gnu_cxx12_Lock_policyE2EED2Ev=so_stub_for_libtelux_data
-Wl,--defsym=_ZNSt23_Sp_counted_ptr_inplaceIN5telux6common15ListenerManagerINS0_4data3net15IBridgeListenerEEESaIS6_ELN9__gnu_cxx12_Lock_policyE2EE10_M_destroyEv=so_stub_for_libtelux_data
-Wl,--defsym=_ZNSt23_Sp_counted_ptr_inplaceIN5telux6common15ListenerManagerINS0_4data3net15IBridgeListenerEEESaIS6_ELN9__gnu_cxx12_Lock_policyE2EE10_M_disposeEv=so_stub_for_libtelux_data
-Wl,--defsym=_ZNSt23_Sp_counted_ptr_inplaceIN5telux6common15ListenerManagerINS0_4data3net15IBridgeListenerEEESaIS6_ELN9__gnu_cxx12_Lock_policyE2EE14_M_get_deleterERKSt9type_info=so_stub_for_libtelux_data
-Wl,--defsym=_ZNSt23_Sp_counted_ptr_inplaceIN5telux6common15ListenerManagerINS0_4data3net15IBridgeListenerEEESaIS6_ELN9__gnu_cxx12_Lock_policyE2EED0Ev=so_stub_for_libtelux_data
-Wl,--defsym=_ZNSt23_Sp_counted_ptr_inplaceIN5telux6common15ListenerManagerINS0_4data3net15IBridgeListenerEEESaIS6_ELN9__gnu_cxx12_Lock_policyE2EED1Ev=so_stub_for_libtelux_data
-Wl,--defsym=_ZNSt23_Sp_counted_ptr_inplaceIN5telux6common15ListenerManagerINS0_4data3net15IBridgeListenerEEESaIS6_ELN9__gnu_cxx12_Lock_policyE2EED2Ev=so_stub_for_libtelux_data
-Wl,--defsym=_ZNSt23_Sp_counted_ptr_inplaceIN5telux6common15ListenerManagerINS0_4data3net17IFirewallListenerEEESaIS6_ELN9__gnu_cxx12_Lock_policyE2EE10_M_destroyEv=so_stub_for_libtelux_data
-Wl,--defsym=_ZNSt23_Sp_counted_ptr_inplaceIN5telux6common15ListenerManagerINS0_4data3net17IFirewallListenerEEESaIS6_ELN9__gnu_cxx12_Lock_policyE2EE10_M_disposeEv=so_stub_for_libtelux_data
-Wl,--defsym=_ZNSt23_Sp_counted_ptr_inplaceIN5telux6common15ListenerManagerINS0_4data3net17IFirewallListenerEEESaIS6_ELN9__gnu_cxx12_Lock_policyE2EE14_M_get_deleterERKSt9type_info=so_stub_for_libtelux_data
-Wl,--defsym=_ZNSt23_Sp_counted_ptr_inplaceIN5telux6common15ListenerManagerINS0_4data3net17IFirewallListenerEEESaIS6_ELN9__gnu_cxx12_Lock_policyE2EED0Ev=so_stub_for_libtelux_data
-Wl,--defsym=_ZNSt23_Sp_counted_ptr_inplaceIN5telux6common15ListenerManagerINS0_4data3net17IFirewallListenerEEESaIS6_ELN9__gnu_cxx12_Lock_policyE2EED1Ev=so_stub_for_libtelux_data
-Wl,--defsym=_ZNSt23_Sp_counted_ptr_inplaceIN5telux6common15ListenerManagerINS0_4data3net17IFirewallListenerEEESaIS6_ELN9__gnu_cxx12_Lock_policyE2EED2Ev=so_stub_for_libtelux_data
-Wl,--defsym=_ZNSt23_Sp_counted_ptr_inplaceINSt13__future_base13_State_baseV2ESaIS1_ELN9__gnu_cxx12_Lock_policyE2EE10_M_destroyEv=so_stub_for_libtelux_data
-Wl,--defsym=_ZNSt23_Sp_counted_ptr_inplaceINSt13__future_base13_State_baseV2ESaIS1_ELN9__gnu_cxx12_Lock_policyE2EE10_M_disposeEv=so_stub_for_libtelux_data
-Wl,--defsym=_ZNSt23_Sp_counted_ptr_inplaceINSt13__future_base13_State_baseV2ESaIS1_ELN9__gnu_cxx12_Lock_policyE2EE14_M_get_deleterERKSt9type_info=so_stub_for_libtelux_data
-Wl,--defsym=_ZNSt23_Sp_counted_ptr_inplaceINSt13__future_base13_State_baseV2ESaIS1_ELN9__gnu_cxx12_Lock_policyE2EED0Ev=so_stub_for_libtelux_data
-Wl,--defsym=_ZNSt23_Sp_counted_ptr_inplaceINSt13__future_base13_State_baseV2ESaIS1_ELN9__gnu_cxx12_Lock_policyE2EED1Ev=so_stub_for_libtelux_data
-Wl,--defsym=_ZNSt23_Sp_counted_ptr_inplaceINSt13__future_base13_State_baseV2ESaIS1_ELN9__gnu_cxx12_Lock_policyE2EED2Ev=so_stub_for_libtelux_data
-Wl,--defsym=_ZNSt23_Sp_counted_ptr_inplaceISt6threadSaIS0_ELN9__gnu_cxx12_Lock_policyE2EE10_M_destroyEv=so_stub_for_libtelux_data
-Wl,--defsym=_ZNSt23_Sp_counted_ptr_inplaceISt6threadSaIS0_ELN9__gnu_cxx12_Lock_policyE2EE10_M_disposeEv=so_stub_for_libtelux_data
-Wl,--defsym=_ZNSt23_Sp_counted_ptr_inplaceISt6threadSaIS0_ELN9__gnu_cxx12_Lock_policyE2EE14_M_get_deleterERKSt9type_info=so_stub_for_libtelux_data
-Wl,--defsym=_ZNSt23_Sp_counted_ptr_inplaceISt6threadSaIS0_ELN9__gnu_cxx12_Lock_policyE2EED0Ev=so_stub_for_libtelux_data
-Wl,--defsym=_ZNSt23_Sp_counted_ptr_inplaceISt6threadSaIS0_ELN9__gnu_cxx12_Lock_policyE2EED1Ev=so_stub_for_libtelux_data
-Wl,--defsym=_ZNSt23_Sp_counted_ptr_inplaceISt6threadSaIS0_ELN9__gnu_cxx12_Lock_policyE2EED2Ev=so_stub_for_libtelux_data
-Wl,--defsym=_ZNSt3mapI13dsi_net_evt_tNSt7__cxx1112basic_stringIcSt11char_traitsIcESaIcEEESt4lessIS0_ESaISt4pairIKS0_S6_EEED1Ev=so_stub_for_libtelux_data
-Wl,--defsym=_ZNSt3mapI13dsi_net_evt_tNSt7__cxx1112basic_stringIcSt11char_traitsIcESaIcEEESt4lessIS0_ESaISt4pairIKS0_S6_EEED2Ev=so_stub_for_libtelux_data
-Wl,--defsym=_ZNSt3mapI13dsi_net_evt_tNSt7__cxx1112basic_stringIcSt11char_traitsIcESaIcEEESt4lessIS0_ESaISt4pairIKS0_S6_EEEixEOS0_=so_stub_for_libtelux_data
-Wl,--defsym=_ZNSt3mapI13dsi_net_evt_tNSt7__cxx1112basic_stringIcSt11char_traitsIcESaIcEEESt4lessIS0_ESaISt4pairIKS0_S6_EEEixERSA_=so_stub_for_libtelux_data
-Wl,--defsym=_ZNSt3mapI29qcmap_msgr_ip_family_enum_v0129qcmap_msgr_wwan_call_type_v01St4lessIS0_ESaISt4pairIKS0_S1_EEEixEOS0_=so_stub_for_libtelux_data
-Wl,--defsym=_ZNSt3mapI29qcmap_msgr_ip_family_enum_v0129qcmap_msgr_wwan_call_type_v01St4lessIS0_ESaISt4pairIKS0_S1_EEEixERS5_=so_stub_for_libtelux_data
-Wl,--defsym=_ZNSt3mapI6SlotIdSt10shared_ptrIN5telux4data19IDataProfileManagerEESt4lessIS0_ESaISt4pairIKS0_S5_EEEixERS9_=so_stub_for_libtelux_data
-Wl,--defsym=_ZNSt3mapI6SlotIdSt10shared_ptrIN5telux4data22IDataConnectionManagerEESt4lessIS0_ESaISt4pairIKS0_S5_EEEixERS9_=so_stub_for_libtelux_data
-Wl,--defsym=_ZNSt3mapIN5telux4data13OperationTypeESt10shared_ptrINS1_3net11INatManagerEESt4lessIS2_ESaISt4pairIKS2_S6_EEEixERSA_=so_stub_for_libtelux_data
-Wl,--defsym=_ZNSt3mapIN5telux4data13OperationTypeESt10shared_ptrINS1_3net12IVlanManagerEESt4lessIS2_ESaISt4pairIKS2_S6_EEEixERSA_=so_stub_for_libtelux_data
-Wl,--defsym=_ZNSt3mapIN5telux4data13OperationTypeESt10shared_ptrINS1_3net13ISocksManagerEESt4lessIS2_ESaISt4pairIKS2_S6_EEEixERSA_=so_stub_for_libtelux_data
-Wl,--defsym=_ZNSt3mapIN5telux4data13OperationTypeESt10shared_ptrINS1_3net16IFirewallManagerEESt4lessIS2_ESaISt4pairIKS2_S6_EEEixERSA_=so_stub_for_libtelux_data
-Wl,--defsym=_ZNSt5dequeISt13shared_futureIvESaIS1_EE16_M_push_back_auxIJRKS1_EEEvDpOT_=so_stub_for_libtelux_data
-Wl,--defsym=_ZNSt5dequeISt13shared_futureIvESaIS1_EE19_M_destroy_data_auxESt15_Deque_iteratorIS1_RS1_PS1_ES7_=so_stub_for_libtelux_data
-Wl,--defsym=_ZNSt5dequeISt13shared_futureIvESaIS1_EE8_M_eraseESt15_Deque_iteratorIS1_RS1_PS1_E=so_stub_for_libtelux_data
-Wl,--defsym=_ZNSt5dequeISt13shared_futureIvESaIS1_EE8pop_backEv=so_stub_for_libtelux_data
-Wl,--defsym=_ZNSt5dequeISt13shared_futureIvESaIS1_EE9pop_frontEv=so_stub_for_libtelux_data
-Wl,--defsym=_ZNSt5dequeISt13shared_futureIvESaIS1_EE9push_backERKS1_=so_stub_for_libtelux_data
-Wl,--defsym=_ZNSt5dequeISt13shared_futureIvESaIS1_EED1Ev=so_stub_for_libtelux_data
-Wl,--defsym=_ZNSt5dequeISt13shared_futureIvESaIS1_EED2Ev=so_stub_for_libtelux_data
-Wl,--defsym=_ZNSt6futureI18dsi_v2x_ind_info_tE3getEv=so_stub_for_libtelux_data
-Wl,--defsym=_ZNSt6futureIbE3getEv=so_stub_for_libtelux_data
-Wl,--defsym=_ZNSt6vectorIN5telux4data10VlanConfigESaIS2_EE17_M_realloc_insertIJRS2_EEEvN9__gnu_cxx17__normal_iteratorIPS2_S4_EEDpOT_=so_stub_for_libtelux_data
-Wl,--defsym=_ZNSt6vectorIN5telux4data3net10BridgeInfoESaIS3_EE17_M_realloc_insertIJRS3_EEEvN9__gnu_cxx17__normal_iteratorIPS3_S5_EEDpOT_=so_stub_for_libtelux_data
-Wl,--defsym=_ZNSt6vectorIN5telux4data3net10BridgeInfoESaIS3_EED1Ev=so_stub_for_libtelux_data
-Wl,--defsym=_ZNSt6vectorIN5telux4data3net10BridgeInfoESaIS3_EED2Ev=so_stub_for_libtelux_data
-Wl,--defsym=_ZNSt6vectorIN5telux4data3net16L2tpTunnelConfigESaIS3_EE17_M_realloc_insertIJRS3_EEEvN9__gnu_cxx17__normal_iteratorIPS3_S5_EEDpOT_=so_stub_for_libtelux_data
-Wl,--defsym=_ZNSt6vectorIN5telux4data3net16L2tpTunnelConfigESaIS3_EED1Ev=so_stub_for_libtelux_data
-Wl,--defsym=_ZNSt6vectorIN5telux4data3net16L2tpTunnelConfigESaIS3_EED2Ev=so_stub_for_libtelux_data
-Wl,--defsym=_ZNSt6vectorIN5telux4data3net17L2tpSessionConfigESaIS3_EE17_M_realloc_insertIJRS3_EEEvN9__gnu_cxx17__normal_iteratorIPS3_S5_EEDpOT_=so_stub_for_libtelux_data
-Wl,--defsym=_ZNSt6vectorIN5telux4data3net17L2tpSessionConfigESaIS3_EEC1ERKS5_=so_stub_for_libtelux_data
-Wl,--defsym=_ZNSt6vectorIN5telux4data3net17L2tpSessionConfigESaIS3_EEC2ERKS5_=so_stub_for_libtelux_data
-Wl,--defsym=_ZNSt6vectorIN5telux4data3net9NatConfigESaIS3_EE12emplace_backIJRS3_EEEvDpOT_=so_stub_for_libtelux_data
-Wl,--defsym=_ZNSt6vectorIN5telux4data3net9NatConfigESaIS3_EE17_M_realloc_insertIJRS3_EEEvN9__gnu_cxx17__normal_iteratorIPS3_S5_EEDpOT_=so_stub_for_libtelux_data
-Wl,--defsym=_ZNSt6vectorIN5telux4data3net9NatConfigESaIS3_EED1Ev=so_stub_for_libtelux_data
-Wl,--defsym=_ZNSt6vectorIN5telux4data3net9NatConfigESaIS3_EED2Ev=so_stub_for_libtelux_data
-Wl,--defsym=_ZNSt6vectorINSt7__cxx1112basic_stringIcSt11char_traitsIcESaIcEEESaIS5_EE12emplace_backIJRS5_EEEvDpOT_=so_stub_for_libtelux_data
-Wl,--defsym=_ZNSt6vectorINSt7__cxx1112basic_stringIcSt11char_traitsIcESaIcEEESaIS5_EE17_M_realloc_insertIJRS5_EEEvN9__gnu_cxx17__normal_iteratorIPS5_S7_EEDpOT_=so_stub_for_libtelux_data
-Wl,--defsym=_ZNSt6vectorINSt7__cxx1112basic_stringIcSt11char_traitsIcESaIcEEESaIS5_EEC1ERKS7_=so_stub_for_libtelux_data
-Wl,--defsym=_ZNSt6vectorINSt7__cxx1112basic_stringIcSt11char_traitsIcESaIcEEESaIS5_EEC2ERKS7_=so_stub_for_libtelux_data
-Wl,--defsym=_ZNSt6vectorINSt7__cxx1112basic_stringIcSt11char_traitsIcESaIcEEESaIS5_EED1Ev=so_stub_for_libtelux_data
-Wl,--defsym=_ZNSt6vectorINSt7__cxx1112basic_stringIcSt11char_traitsIcESaIcEEESaIS5_EED2Ev=so_stub_for_libtelux_data
-Wl,--defsym=_ZNSt6vectorISt10shared_ptrIN5telux4data11DataProfileEESaIS4_EE12emplace_backIJRS4_EEEvDpOT_=so_stub_for_libtelux_data
-Wl,--defsym=_ZNSt6vectorISt10shared_ptrIN5telux4data11DataProfileEESaIS4_EE17_M_realloc_insertIJRKS4_EEEvN9__gnu_cxx17__normal_iteratorIPS4_S6_EEDpOT_=so_stub_for_libtelux_data
-Wl,--defsym=_ZNSt6vectorISt10shared_ptrIN5telux4data11DataProfileEESaIS4_EE17_M_realloc_insertIJRS4_EEEvN9__gnu_cxx17__normal_iteratorIPS4_S6_EEDpOT_=so_stub_for_libtelux_data
-Wl,--defsym=_ZNSt6vectorISt10shared_ptrIN5telux4data11DataProfileEESaIS4_EED1Ev=so_stub_for_libtelux_data
-Wl,--defsym=_ZNSt6vectorISt10shared_ptrIN5telux4data11DataProfileEESaIS4_EED2Ev=so_stub_for_libtelux_data
-Wl,--defsym=_ZNSt6vectorISt10shared_ptrIN5telux4data12DataCallImplEESaIS4_EE17_M_realloc_insertIJRS4_EEEvN9__gnu_cxx17__normal_iteratorIPS4_S6_EEDpOT_=so_stub_for_libtelux_data
-Wl,--defsym=_ZNSt6vectorISt10shared_ptrIN5telux4data12DataCallImplEESaIS4_EE17_M_realloc_insertIJS4_EEEvN9__gnu_cxx17__normal_iteratorIPS4_S6_EEDpOT_=so_stub_for_libtelux_data
-Wl,--defsym=_ZNSt6vectorISt10shared_ptrIN5telux4data12DataCallImplEESaIS4_EED1Ev=so_stub_for_libtelux_data
-Wl,--defsym=_ZNSt6vectorISt10shared_ptrIN5telux4data12DataCallImplEESaIS4_EED2Ev=so_stub_for_libtelux_data
-Wl,--defsym=_ZNSt6vectorISt10shared_ptrIN5telux4data19IDataFilterListenerEESaIS4_EE17_M_realloc_insertIJRS4_EEEvN9__gnu_cxx17__normal_iteratorIPS4_S6_EEDpOT_=so_stub_for_libtelux_data
-Wl,--defsym=_ZNSt6vectorISt10shared_ptrIN5telux4data20IDataProfileListenerEESaIS4_EE17_M_realloc_insertIJRS4_EEEvN9__gnu_cxx17__normal_iteratorIPS4_S6_EEDpOT_=so_stub_for_libtelux_data
-Wl,--defsym=_ZNSt6vectorISt10shared_ptrIN5telux4data20IDataProfileListenerEESaIS4_EED1Ev=so_stub_for_libtelux_data
-Wl,--defsym=_ZNSt6vectorISt10shared_ptrIN5telux4data20IDataProfileListenerEESaIS4_EED2Ev=so_stub_for_libtelux_data
-Wl,--defsym=_ZNSt6vectorISt10shared_ptrIN5telux4data23IDataConnectionListenerEESaIS4_EE17_M_realloc_insertIJRS4_EEEvN9__gnu_cxx17__normal_iteratorIPS4_S6_EEDpOT_=so_stub_for_libtelux_data
-Wl,--defsym=_ZNSt6vectorISt10shared_ptrIN5telux4data23IDataConnectionListenerEESaIS4_EED1Ev=so_stub_for_libtelux_data
-Wl,--defsym=_ZNSt6vectorISt10shared_ptrIN5telux4data23IDataConnectionListenerEESaIS4_EED2Ev=so_stub_for_libtelux_data
-Wl,--defsym=_ZNSt6vectorISt10shared_ptrIN5telux4data3net14IFirewallEntryEESaIS5_EE17_M_realloc_insertIJRS5_EEEvN9__gnu_cxx17__normal_iteratorIPS5_S7_EEDpOT_=so_stub_for_libtelux_data
-Wl,--defsym=_ZNSt6vectorISt10shared_ptrIN5telux4data3net14IFirewallEntryEESaIS5_EEC1ERKS7_=so_stub_for_libtelux_data
-Wl,--defsym=_ZNSt6vectorISt10shared_ptrIN5telux4data3net14IFirewallEntryEESaIS5_EEC2ERKS7_=so_stub_for_libtelux_data
-Wl,--defsym=_ZNSt6vectorISt10shared_ptrIN5telux4data3net14IFirewallEntryEESaIS5_EED1Ev=so_stub_for_libtelux_data
-Wl,--defsym=_ZNSt6vectorISt10shared_ptrIN5telux4data3net14IFirewallEntryEESaIS5_EED2Ev=so_stub_for_libtelux_data
-Wl,--defsym=_ZNSt6vectorISt10shared_ptrIN5telux4data9IDataCallEESaIS4_EE17_M_realloc_insertIJRS0_INS2_12DataCallImplEEEEEvN9__gnu_cxx17__normal_iteratorIPS4_S6_EEDpOT_=so_stub_for_libtelux_data
-Wl,--defsym=_ZNSt6vectorISt10shared_ptrIN5telux4data9IDataCallEESaIS4_EED1Ev=so_stub_for_libtelux_data
-Wl,--defsym=_ZNSt6vectorISt10shared_ptrIN5telux4data9IDataCallEESaIS4_EED2Ev=so_stub_for_libtelux_data
-Wl,--defsym=_ZNSt6vectorISt8weak_ptrIN5telux4data19IDataFilterListenerEESaIS4_EE17_M_realloc_insertIJRS4_EEEvN9__gnu_cxx17__normal_iteratorIPS4_S6_EEDpOT_=so_stub_for_libtelux_data
-Wl,--defsym=_ZNSt6vectorISt8weak_ptrIN5telux4data19IDataFilterListenerEESaIS4_EE8_M_eraseEN9__gnu_cxx17__normal_iteratorIPS4_S6_EE=so_stub_for_libtelux_data
-Wl,--defsym=_ZNSt6vectorISt8weak_ptrIN5telux4data19IDataFilterListenerEESaIS4_EED1Ev=so_stub_for_libtelux_data
-Wl,--defsym=_ZNSt6vectorISt8weak_ptrIN5telux4data19IDataFilterListenerEESaIS4_EED2Ev=so_stub_for_libtelux_data
-Wl,--defsym=_ZNSt6vectorISt8weak_ptrIN5telux4data20IDataProfileListenerEESaIS4_EE17_M_realloc_insertIJRS4_EEEvN9__gnu_cxx17__normal_iteratorIPS4_S6_EEDpOT_=so_stub_for_libtelux_data
-Wl,--defsym=_ZNSt6vectorISt8weak_ptrIN5telux4data20IDataProfileListenerEESaIS4_EE8_M_eraseEN9__gnu_cxx17__normal_iteratorIPS4_S6_EE=so_stub_for_libtelux_data
-Wl,--defsym=_ZNSt6vectorISt8weak_ptrIN5telux4data20IDataProfileListenerEESaIS4_EED1Ev=so_stub_for_libtelux_data
-Wl,--defsym=_ZNSt6vectorISt8weak_ptrIN5telux4data20IDataProfileListenerEESaIS4_EED2Ev=so_stub_for_libtelux_data
-Wl,--defsym=_ZNSt6vectorISt8weak_ptrIN5telux4data23IDataConnectionListenerEESaIS4_EE17_M_realloc_insertIJRS4_EEEvN9__gnu_cxx17__normal_iteratorIPS4_S6_EEDpOT_=so_stub_for_libtelux_data
-Wl,--defsym=_ZNSt6vectorISt8weak_ptrIN5telux4data23IDataConnectionListenerEESaIS4_EE17_M_realloc_insertIJRSt10shared_ptrIS3_EEEEvN9__gnu_cxx17__normal_iteratorIPS4_S6_EEDpOT_=so_stub_for_libtelux_data
-Wl,--defsym=_ZNSt6vectorISt8weak_ptrIN5telux4data23IDataConnectionListenerEESaIS4_EE8_M_eraseEN9__gnu_cxx17__normal_iteratorIPS4_S6_EE=so_stub_for_libtelux_data
-Wl,--defsym=_ZNSt6vectorISt8weak_ptrIN5telux4data23IDataConnectionListenerEESaIS4_EED1Ev=so_stub_for_libtelux_data
-Wl,--defsym=_ZNSt6vectorISt8weak_ptrIN5telux4data23IDataConnectionListenerEESaIS4_EED2Ev=so_stub_for_libtelux_data
-Wl,--defsym=_ZNSt6vectorISt8weak_ptrIN5telux4data3net12INatListenerEESaIS5_EE17_M_realloc_insertIJRS5_EEEvN9__gnu_cxx17__normal_iteratorIPS5_S7_EEDpOT_=so_stub_for_libtelux_data
-Wl,--defsym=_ZNSt6vectorISt8weak_ptrIN5telux4data3net12INatListenerEESaIS5_EE17_M_realloc_insertIJRSt10shared_ptrIS4_EEEEvN9__gnu_cxx17__normal_iteratorIPS5_S7_EEDpOT_=so_stub_for_libtelux_data
-Wl,--defsym=_ZNSt6vectorISt8weak_ptrIN5telux4data3net12INatListenerEESaIS5_EE8_M_eraseEN9__gnu_cxx17__normal_iteratorIPS5_S7_EE=so_stub_for_libtelux_data
-Wl,--defsym=_ZNSt6vectorISt8weak_ptrIN5telux4data3net12INatListenerEESaIS5_EED1Ev=so_stub_for_libtelux_data
-Wl,--defsym=_ZNSt6vectorISt8weak_ptrIN5telux4data3net12INatListenerEESaIS5_EED2Ev=so_stub_for_libtelux_data
-Wl,--defsym=_ZNSt6vectorISt8weak_ptrIN5telux4data3net13IL2tpListenerEESaIS5_EE17_M_realloc_insertIJRS5_EEEvN9__gnu_cxx17__normal_iteratorIPS5_S7_EEDpOT_=so_stub_for_libtelux_data
-Wl,--defsym=_ZNSt6vectorISt8weak_ptrIN5telux4data3net13IL2tpListenerEESaIS5_EE17_M_realloc_insertIJRSt10shared_ptrIS4_EEEEvN9__gnu_cxx17__normal_iteratorIPS5_S7_EEDpOT_=so_stub_for_libtelux_data
-Wl,--defsym=_ZNSt6vectorISt8weak_ptrIN5telux4data3net13IL2tpListenerEESaIS5_EE8_M_eraseEN9__gnu_cxx17__normal_iteratorIPS5_S7_EE=so_stub_for_libtelux_data
-Wl,--defsym=_ZNSt6vectorISt8weak_ptrIN5telux4data3net13IL2tpListenerEESaIS5_EED1Ev=so_stub_for_libtelux_data
-Wl,--defsym=_ZNSt6vectorISt8weak_ptrIN5telux4data3net13IL2tpListenerEESaIS5_EED2Ev=so_stub_for_libtelux_data
-Wl,--defsym=_ZNSt6vectorISt8weak_ptrIN5telux4data3net13IVlanListenerEESaIS5_EE17_M_realloc_insertIJRS5_EEEvN9__gnu_cxx17__normal_iteratorIPS5_S7_EEDpOT_=so_stub_for_libtelux_data
-Wl,--defsym=_ZNSt6vectorISt8weak_ptrIN5telux4data3net13IVlanListenerEESaIS5_EE17_M_realloc_insertIJRSt10shared_ptrIS4_EEEEvN9__gnu_cxx17__normal_iteratorIPS5_S7_EEDpOT_=so_stub_for_libtelux_data
-Wl,--defsym=_ZNSt6vectorISt8weak_ptrIN5telux4data3net13IVlanListenerEESaIS5_EE8_M_eraseEN9__gnu_cxx17__normal_iteratorIPS5_S7_EE=so_stub_for_libtelux_data
-Wl,--defsym=_ZNSt6vectorISt8weak_ptrIN5telux4data3net13IVlanListenerEESaIS5_EED1Ev=so_stub_for_libtelux_data
-Wl,--defsym=_ZNSt6vectorISt8weak_ptrIN5telux4data3net13IVlanListenerEESaIS5_EED2Ev=so_stub_for_libtelux_data
-Wl,--defsym=_ZNSt6vectorISt8weak_ptrIN5telux4data3net14ISocksListenerEESaIS5_EE17_M_realloc_insertIJRS5_EEEvN9__gnu_cxx17__normal_iteratorIPS5_S7_EEDpOT_=so_stub_for_libtelux_data
-Wl,--defsym=_ZNSt6vectorISt8weak_ptrIN5telux4data3net14ISocksListenerEESaIS5_EE17_M_realloc_insertIJRSt10shared_ptrIS4_EEEEvN9__gnu_cxx17__normal_iteratorIPS5_S7_EEDpOT_=so_stub_for_libtelux_data
-Wl,--defsym=_ZNSt6vectorISt8weak_ptrIN5telux4data3net14ISocksListenerEESaIS5_EE8_M_eraseEN9__gnu_cxx17__normal_iteratorIPS5_S7_EE=so_stub_for_libtelux_data
-Wl,--defsym=_ZNSt6vectorISt8weak_ptrIN5telux4data3net14ISocksListenerEESaIS5_EED1Ev=so_stub_for_libtelux_data
-Wl,--defsym=_ZNSt6vectorISt8weak_ptrIN5telux4data3net14ISocksListenerEESaIS5_EED2Ev=so_stub_for_libtelux_data
-Wl,--defsym=_ZNSt6vectorISt8weak_ptrIN5telux4data3net15IBridgeListenerEESaIS5_EE17_M_realloc_insertIJRS5_EEEvN9__gnu_cxx17__normal_iteratorIPS5_S7_EEDpOT_=so_stub_for_libtelux_data
-Wl,--defsym=_ZNSt6vectorISt8weak_ptrIN5telux4data3net15IBridgeListenerEESaIS5_EE17_M_realloc_insertIJRSt10shared_ptrIS4_EEEEvN9__gnu_cxx17__normal_iteratorIPS5_S7_EEDpOT_=so_stub_for_libtelux_data
-Wl,--defsym=_ZNSt6vectorISt8weak_ptrIN5telux4data3net15IBridgeListenerEESaIS5_EE8_M_eraseEN9__gnu_cxx17__normal_iteratorIPS5_S7_EE=so_stub_for_libtelux_data
-Wl,--defsym=_ZNSt6vectorISt8weak_ptrIN5telux4data3net15IBridgeListenerEESaIS5_EED1Ev=so_stub_for_libtelux_data
-Wl,--defsym=_ZNSt6vectorISt8weak_ptrIN5telux4data3net15IBridgeListenerEESaIS5_EED2Ev=so_stub_for_libtelux_data
-Wl,--defsym=_ZNSt6vectorISt8weak_ptrIN5telux4data3net17IFirewallListenerEESaIS5_EE17_M_realloc_insertIJRS5_EEEvN9__gnu_cxx17__normal_iteratorIPS5_S7_EEDpOT_=so_stub_for_libtelux_data
-Wl,--defsym=_ZNSt6vectorISt8weak_ptrIN5telux4data3net17IFirewallListenerEESaIS5_EE17_M_realloc_insertIJRSt10shared_ptrIS4_EEEEvN9__gnu_cxx17__normal_iteratorIPS5_S7_EEDpOT_=so_stub_for_libtelux_data
-Wl,--defsym=_ZNSt6vectorISt8weak_ptrIN5telux4data3net17IFirewallListenerEESaIS5_EE8_M_eraseEN9__gnu_cxx17__normal_iteratorIPS5_S7_EE=so_stub_for_libtelux_data
-Wl,--defsym=_ZNSt6vectorISt8weak_ptrIN5telux4data3net17IFirewallListenerEESaIS5_EED1Ev=so_stub_for_libtelux_data
-Wl,--defsym=_ZNSt6vectorISt8weak_ptrIN5telux4data3net17IFirewallListenerEESaIS5_EED2Ev=so_stub_for_libtelux_data
-Wl,--defsym=_ZNSt7__cxx1110_List_baseIN5telux4data10IpAddrInfoESaIS3_EE8_M_clearEv=so_stub_for_libtelux_data
-Wl,--defsym=_ZNSt7__cxx1110_List_baseISt10shared_ptrIN5telux4data13EventInfoBaseEESaIS5_EE8_M_clearEv=so_stub_for_libtelux_data
-Wl,--defsym=_ZNSt7__cxx1110_List_baseISt10shared_ptrIN5telux4data16ProfileRetrieverEESaIS5_EE8_M_clearEv=so_stub_for_libtelux_data
-Wl,--defsym=_ZNSt7__cxx1112basic_stringIcSt11char_traitsIcESaIcEE12_M_constructIPcEEvT_S7_St20forward_iterator_tag=so_stub_for_libtelux_data
-Wl,--defsym=_ZNSt7__cxx1112basic_stringIcSt11char_traitsIcESaIcEE12_M_constructIPKcEEvT_S8_St20forward_iterator_tag=so_stub_for_libtelux_data
-Wl,--defsym=_ZNSt7__cxx114listIN5telux4data10IpAddrInfoESaIS3_EE18_M_assign_dispatchISt20_List_const_iteratorIS3_EEEvT_S9_St12__false_type=so_stub_for_libtelux_data
-Wl,--defsym=_ZNSt7__cxx114listIN5telux4data10IpAddrInfoESaIS3_EE6insertISt20_List_const_iteratorIS3_EvEESt14_List_iteratorIS3_ES8_T_SB_=so_stub_for_libtelux_data
-Wl,--defsym=_ZNSt7__cxx114listIN5telux4data10IpAddrInfoESaIS3_EEC1ERKS5_=so_stub_for_libtelux_data
-Wl,--defsym=_ZNSt7__cxx114listIN5telux4data10IpAddrInfoESaIS3_EEC1ISt20_List_const_iteratorIS3_EvEET_S9_RKS4_=so_stub_for_libtelux_data
-Wl,--defsym=_ZNSt7__cxx114listIN5telux4data10IpAddrInfoESaIS3_EEC2ERKS5_=so_stub_for_libtelux_data
-Wl,--defsym=_ZNSt7__cxx114listIN5telux4data10IpAddrInfoESaIS3_EEC2ISt20_List_const_iteratorIS3_EvEET_S9_RKS4_=so_stub_for_libtelux_data
-Wl,--defsym=_ZNSt7__cxx114listISt10shared_ptrIN5telux4data13EventInfoBaseEESaIS5_EE9_M_insertIJRS5_EEEvSt14_List_iteratorIS5_EDpOT_=so_stub_for_libtelux_data
-Wl,--defsym=_ZNSt7__cxx114listISt10shared_ptrIN5telux4data16ProfileRetrieverEESaIS5_EE9_M_insertIJRS5_EEEvSt14_List_iteratorIS5_EDpOT_=so_stub_for_libtelux_data
-Wl,--defsym=_ZNSt7promiseI18dsi_v2x_ind_info_tE9set_valueERKS0_=so_stub_for_libtelux_data
-Wl,--defsym=_ZNSt7promiseI18dsi_v2x_ind_info_tEC1Ev=so_stub_for_libtelux_data
-Wl,--defsym=_ZNSt7promiseI18dsi_v2x_ind_info_tEC2Ev=so_stub_for_libtelux_data
-Wl,--defsym=_ZNSt7promiseI18dsi_v2x_ind_info_tED1Ev=so_stub_for_libtelux_data
-Wl,--defsym=_ZNSt7promiseI18dsi_v2x_ind_info_tED2Ev=so_stub_for_libtelux_data
-Wl,--defsym=_ZNSt8functionIFvbbN5telux6common9ErrorCodeEEEC1ERKS4_=so_stub_for_libtelux_data
-Wl,--defsym=_ZNSt8functionIFvbbN5telux6common9ErrorCodeEEEC2ERKS4_=so_stub_for_libtelux_data
-Wl,--defsym=_ZNSt8functionIFvbN5telux6common9ErrorCodeEEEC1ERKS4_=so_stub_for_libtelux_data
-Wl,--defsym=_ZNSt8functionIFvbN5telux6common9ErrorCodeEEEC2ERKS4_=so_stub_for_libtelux_data
-Wl,--defsym=_ZNSt8functionIFvi6SlotIdN5telux6common9ErrorCodeEEEC1ERKS5_=so_stub_for_libtelux_data
-Wl,--defsym=_ZNSt8functionIFvi6SlotIdN5telux6common9ErrorCodeEEEC2ERKS5_=so_stub_for_libtelux_data
-Wl,--defsym=_ZNSt8functionIFvN5telux4data13DataCallStatsENS0_6common9ErrorCodeEEEC1ERKS6_=so_stub_for_libtelux_data
-Wl,--defsym=_ZNSt8functionIFvN5telux4data13DataCallStatsENS0_6common9ErrorCodeEEEC2ERKS6_=so_stub_for_libtelux_data
-Wl,--defsym=_ZNSt8functionIFvN5telux6common9ErrorCodeEEEC1ERKS4_=so_stub_for_libtelux_data
-Wl,--defsym=_ZNSt8functionIFvN5telux6common9ErrorCodeEEEC2ERKS4_=so_stub_for_libtelux_data
-Wl,--defsym=_ZNSt8functionIFvRKN5telux4data3net13L2tpSysConfigENS0_6common9ErrorCodeEEEC1ERKS9_=so_stub_for_libtelux_data
-Wl,--defsym=_ZNSt8functionIFvRKN5telux4data3net13L2tpSysConfigENS0_6common9ErrorCodeEEEC2ERKS9_=so_stub_for_libtelux_data
-Wl,--defsym=_ZNSt8functionIFvRKNSt7__cxx114listISt4pairIiiESaIS3_EEEN5telux6common9ErrorCodeEEEC1ERKSC_=so_stub_for_libtelux_data
-Wl,--defsym=_ZNSt8functionIFvRKNSt7__cxx114listISt4pairIiiESaIS3_EEEN5telux6common9ErrorCodeEEEC2ERKSC_=so_stub_for_libtelux_data
-Wl,--defsym=_ZNSt8functionIFvRKSt10shared_ptrIN5telux4data21DsiStatusCallbackDataEEEEC1ERKS8_=so_stub_for_libtelux_data
-Wl,--defsym=_ZNSt8functionIFvRKSt10shared_ptrIN5telux4data21DsiStatusCallbackDataEEEEC1ISt5_BindIFMNS2_9DsiClientEFvS6_EPSB_St12_PlaceholderILi1EEEEvvEET_=so_stub_for_libtelux_data
-Wl,--defsym=_ZNSt8functionIFvRKSt10shared_ptrIN5telux4data21DsiStatusCallbackDataEEEEC2ERKS8_=so_stub_for_libtelux_data
-Wl,--defsym=_ZNSt8functionIFvRKSt10shared_ptrIN5telux4data21DsiStatusCallbackDataEEEEC2ISt5_BindIFMNS2_9DsiClientEFvS6_EPSB_St12_PlaceholderILi1EEEEvvEET_=so_stub_for_libtelux_data
-Wl,--defsym=_ZNSt8functionIFvRKSt10shared_ptrIN5telux4data9IDataCallEENS1_6common9ErrorCodeEEEC1ERKSA_=so_stub_for_libtelux_data
-Wl,--defsym=_ZNSt8functionIFvRKSt10shared_ptrIN5telux4data9IDataCallEENS1_6common9ErrorCodeEEEC2ERKSA_=so_stub_for_libtelux_data
-Wl,--defsym=_ZNSt8functionIFvRKSt6vectorIN5telux4data10VlanConfigESaIS3_EENS1_6common9ErrorCodeEEEC1ERKSB_=so_stub_for_libtelux_data
-Wl,--defsym=_ZNSt8functionIFvRKSt6vectorIN5telux4data10VlanConfigESaIS3_EENS1_6common9ErrorCodeEEEC2ERKSB_=so_stub_for_libtelux_data
-Wl,--defsym=_ZNSt8functionIFvRKSt6vectorIN5telux4data3net10BridgeInfoESaIS4_EENS1_6common9ErrorCodeEEEC1ERKSC_=so_stub_for_libtelux_data
-Wl,--defsym=_ZNSt8functionIFvRKSt6vectorIN5telux4data3net10BridgeInfoESaIS4_EENS1_6common9ErrorCodeEEEC2ERKSC_=so_stub_for_libtelux_data
-Wl,--defsym=_ZNSt8functionIFvRKSt6vectorIN5telux4data3net9NatConfigESaIS4_EENS1_6common9ErrorCodeEEEC1ERKSC_=so_stub_for_libtelux_data
-Wl,--defsym=_ZNSt8functionIFvRKSt6vectorIN5telux4data3net9NatConfigESaIS4_EENS1_6common9ErrorCodeEEEC2ERKSC_=so_stub_for_libtelux_data
-Wl,--defsym=_ZNSt8functionIFvRKSt6vectorISt10shared_ptrIN5telux4data9IDataCallEESaIS5_EENS2_6common9ErrorCodeEEEC1ERKSD_=so_stub_for_libtelux_data
-Wl,--defsym=_ZNSt8functionIFvRKSt6vectorISt10shared_ptrIN5telux4data9IDataCallEESaIS5_EENS2_6common9ErrorCodeEEEC2ERKSD_=so_stub_for_libtelux_data
-Wl,--defsym=_ZNSt8functionIFvSt10shared_ptrIN5telux4data21DsiStatusCallbackDataEEEEC1IS_IFvRKS4_EEvvEET_=so_stub_for_libtelux_data
-Wl,--defsym=_ZNSt8functionIFvSt10shared_ptrIN5telux4data21DsiStatusCallbackDataEEEEC2IS_IFvRKS4_EEvvEET_=so_stub_for_libtelux_data
-Wl,--defsym=_ZNSt8functionIFvSt6vectorINSt7__cxx1112basic_stringIcSt11char_traitsIcESaIcEEESaIS6_EEN5telux6common9ErrorCodeEEEC1ERKSD_=so_stub_for_libtelux_data
-Wl,--defsym=_ZNSt8functionIFvSt6vectorINSt7__cxx1112basic_stringIcSt11char_traitsIcESaIcEEESaIS6_EEN5telux6common9ErrorCodeEEEC2ERKSD_=so_stub_for_libtelux_data
-Wl,--defsym=_ZNSt8functionIFvSt6vectorISt10shared_ptrIN5telux4data3net14IFirewallEntryEESaIS6_EENS2_6common9ErrorCodeEEEC1ERKSC_=so_stub_for_libtelux_data
-Wl,--defsym=_ZNSt8functionIFvSt6vectorISt10shared_ptrIN5telux4data3net14IFirewallEntryEESaIS6_EENS2_6common9ErrorCodeEEEC2ERKSC_=so_stub_for_libtelux_data
-Wl,--defsym=_ZNSt8_Rb_treeI13dsi_net_evt_tSt4pairIKS0_NSt7__cxx1112basic_stringIcSt11char_traitsIcESaIcEEEESt10_Select1stIS9_ESt4lessIS0_ESaIS9_EE14_M_insert_nodeEPSt18_Rb_tree_node_baseSH_PSt13_Rb_tree_nodeIS9_E=so_stub_for_libtelux_data
-Wl,--defsym=_ZNSt8_Rb_treeI13dsi_net_evt_tSt4pairIKS0_NSt7__cxx1112basic_stringIcSt11char_traitsIcESaIcEEEESt10_Select1stIS9_ESt4lessIS0_ESaIS9_EE22_M_emplace_hint_uniqueIJRKSt21piecewise_construct_tSt5tupleIJOS0_EESK_IJEEEEESt17_Rb_tree_iteratorIS9_ESt23_Rb_tree_const_iteratorIS9_EDpOT_=so_stub_for_libtelux_data
-Wl,--defsym=_ZNSt8_Rb_treeI13dsi_net_evt_tSt4pairIKS0_NSt7__cxx1112basic_stringIcSt11char_traitsIcESaIcEEEESt10_Select1stIS9_ESt4lessIS0_ESaIS9_EE22_M_emplace_hint_uniqueIJRKSt21piecewise_construct_tSt5tupleIJRS2_EESK_IJEEEEESt17_Rb_tree_iteratorIS9_ESt23_Rb_tree_const_iteratorIS9_EDpOT_=so_stub_for_libtelux_data
-Wl,--defsym=_ZNSt8_Rb_treeI13dsi_net_evt_tSt4pairIKS0_NSt7__cxx1112basic_stringIcSt11char_traitsIcESaIcEEEESt10_Select1stIS9_ESt4lessIS0_ESaIS9_EE24_M_get_insert_unique_posERS2_=so_stub_for_libtelux_data
-Wl,--defsym=_ZNSt8_Rb_treeI13dsi_net_evt_tSt4pairIKS0_NSt7__cxx1112basic_stringIcSt11char_traitsIcESaIcEEEESt10_Select1stIS9_ESt4lessIS0_ESaIS9_EE29_M_get_insert_hint_unique_posESt23_Rb_tree_const_iteratorIS9_ERS2_=so_stub_for_libtelux_data
-Wl,--defsym=_ZNSt8_Rb_treeI13dsi_net_evt_tSt4pairIKS0_NSt7__cxx1112basic_stringIcSt11char_traitsIcESaIcEEEESt10_Select1stIS9_ESt4lessIS0_ESaIS9_EE8_M_eraseEPSt13_Rb_tree_nodeIS9_E=so_stub_for_libtelux_data
-Wl,--defsym=_ZNSt8_Rb_treeI29qcmap_msgr_ip_family_enum_v01St4pairIKS0_29qcmap_msgr_wwan_call_type_v01ESt10_Select1stIS4_ESt4lessIS0_ESaIS4_EE14_M_insert_nodeEPSt18_Rb_tree_node_baseSC_PSt13_Rb_tree_nodeIS4_E=so_stub_for_libtelux_data
-Wl,--defsym=_ZNSt8_Rb_treeI29qcmap_msgr_ip_family_enum_v01St4pairIKS0_29qcmap_msgr_wwan_call_type_v01ESt10_Select1stIS4_ESt4lessIS0_ESaIS4_EE22_M_emplace_hint_uniqueIJRKSt21piecewise_construct_tSt5tupleIJOS0_EESF_IJEEEEESt17_Rb_tree_iteratorIS4_ESt23_Rb_tree_const_iteratorIS4_EDpOT_=so_stub_for_libtelux_data
-Wl,--defsym=_ZNSt8_Rb_treeI29qcmap_msgr_ip_family_enum_v01St4pairIKS0_29qcmap_msgr_wwan_call_type_v01ESt10_Select1stIS4_ESt4lessIS0_ESaIS4_EE22_M_emplace_hint_uniqueIJRKSt21piecewise_construct_tSt5tupleIJRS2_EESF_IJEEEEESt17_Rb_tree_iteratorIS4_ESt23_Rb_tree_const_iteratorIS4_EDpOT_=so_stub_for_libtelux_data
-Wl,--defsym=_ZNSt8_Rb_treeI29qcmap_msgr_ip_family_enum_v01St4pairIKS0_29qcmap_msgr_wwan_call_type_v01ESt10_Select1stIS4_ESt4lessIS0_ESaIS4_EE24_M_get_insert_unique_posERS2_=so_stub_for_libtelux_data
-Wl,--defsym=_ZNSt8_Rb_treeI29qcmap_msgr_ip_family_enum_v01St4pairIKS0_29qcmap_msgr_wwan_call_type_v01ESt10_Select1stIS4_ESt4lessIS0_ESaIS4_EE29_M_get_insert_hint_unique_posESt23_Rb_tree_const_iteratorIS4_ERS2_=so_stub_for_libtelux_data
-Wl,--defsym=_ZNSt8_Rb_treeI29qcmap_msgr_ip_family_enum_v01St4pairIKS0_29qcmap_msgr_wwan_call_type_v01ESt10_Select1stIS4_ESt4lessIS0_ESaIS4_EE8_M_eraseEPSt13_Rb_tree_nodeIS4_E=so_stub_for_libtelux_data
-Wl,--defsym=_ZNSt8_Rb_treeI6SlotIdSt4pairIKS0_St10shared_ptrIN5telux4data19IDataProfileManagerEEESt10_Select1stIS8_ESt4lessIS0_ESaIS8_EE14_M_insert_nodeEPSt18_Rb_tree_node_baseSG_PSt13_Rb_tree_nodeIS8_E=so_stub_for_libtelux_data
-Wl,--defsym=_ZNSt8_Rb_treeI6SlotIdSt4pairIKS0_St10shared_ptrIN5telux4data19IDataProfileManagerEEESt10_Select1stIS8_ESt4lessIS0_ESaIS8_EE17_M_emplace_uniqueIJRS0_RS3_INS5_22DataProfileManagerImplEEEEES1_ISt17_Rb_tree_iteratorIS8_EbEDpOT_=so_stub_for_libtelux_data
-Wl,--defsym=_ZNSt8_Rb_treeI6SlotIdSt4pairIKS0_St10shared_ptrIN5telux4data19IDataProfileManagerEEESt10_Select1stIS8_ESt4lessIS0_ESaIS8_EE22_M_emplace_hint_uniqueIJRKSt21piecewise_construct_tSt5tupleIJRS2_EESJ_IJEEEEESt17_Rb_tree_iteratorIS8_ESt23_Rb_tree_const_iteratorIS8_EDpOT_=so_stub_for_libtelux_data
-Wl,--defsym=_ZNSt8_Rb_treeI6SlotIdSt4pairIKS0_St10shared_ptrIN5telux4data19IDataProfileManagerEEESt10_Select1stIS8_ESt4lessIS0_ESaIS8_EE24_M_get_insert_unique_posERS2_=so_stub_for_libtelux_data
-Wl,--defsym=_ZNSt8_Rb_treeI6SlotIdSt4pairIKS0_St10shared_ptrIN5telux4data19IDataProfileManagerEEESt10_Select1stIS8_ESt4lessIS0_ESaIS8_EE29_M_get_insert_hint_unique_posESt23_Rb_tree_const_iteratorIS8_ERS2_=so_stub_for_libtelux_data
-Wl,--defsym=_ZNSt8_Rb_treeI6SlotIdSt4pairIKS0_St10shared_ptrIN5telux4data19IDataProfileManagerEEESt10_Select1stIS8_ESt4lessIS0_ESaIS8_EE8_M_eraseEPSt13_Rb_tree_nodeIS8_E=so_stub_for_libtelux_data
-Wl,--defsym=_ZNSt8_Rb_treeI6SlotIdSt4pairIKS0_St10shared_ptrIN5telux4data22IDataConnectionManagerEEESt10_Select1stIS8_ESt4lessIS0_ESaIS8_EE14_M_insert_nodeEPSt18_Rb_tree_node_baseSG_PSt13_Rb_tree_nodeIS8_E=so_stub_for_libtelux_data
-Wl,--defsym=_ZNSt8_Rb_treeI6SlotIdSt4pairIKS0_St10shared_ptrIN5telux4data22IDataConnectionManagerEEESt10_Select1stIS8_ESt4lessIS0_ESaIS8_EE17_M_emplace_uniqueIJRS0_RS3_INS5_25DataConnectionManagerImplEEEEES1_ISt17_Rb_tree_iteratorIS8_EbEDpOT_=so_stub_for_libtelux_data
-Wl,--defsym=_ZNSt8_Rb_treeI6SlotIdSt4pairIKS0_St10shared_ptrIN5telux4data22IDataConnectionManagerEEESt10_Select1stIS8_ESt4lessIS0_ESaIS8_EE22_M_emplace_hint_uniqueIJRKSt21piecewise_construct_tSt5tupleIJRS2_EESJ_IJEEEEESt17_Rb_tree_iteratorIS8_ESt23_Rb_tree_const_iteratorIS8_EDpOT_=so_stub_for_libtelux_data
-Wl,--defsym=_ZNSt8_Rb_treeI6SlotIdSt4pairIKS0_St10shared_ptrIN5telux4data22IDataConnectionManagerEEESt10_Select1stIS8_ESt4lessIS0_ESaIS8_EE24_M_get_insert_unique_posERS2_=so_stub_for_libtelux_data
-Wl,--defsym=_ZNSt8_Rb_treeI6SlotIdSt4pairIKS0_St10shared_ptrIN5telux4data22IDataConnectionManagerEEESt10_Select1stIS8_ESt4lessIS0_ESaIS8_EE29_M_get_insert_hint_unique_posESt23_Rb_tree_const_iteratorIS8_ERS2_=so_stub_for_libtelux_data
-Wl,--defsym=_ZNSt8_Rb_treeI6SlotIdSt4pairIKS0_St10shared_ptrIN5telux4data22IDataConnectionManagerEEESt10_Select1stIS8_ESt4lessIS0_ESaIS8_EE8_M_eraseEPSt13_Rb_tree_nodeIS8_E=so_stub_for_libtelux_data
-Wl,--defsym=_ZNSt8_Rb_treeIN5telux4data13OperationTypeESt4pairIKS2_St10shared_ptrINS1_3net11INatManagerEEESt10_Select1stIS9_ESt4lessIS2_ESaIS9_EE14_M_insert_nodeEPSt18_Rb_tree_node_baseSH_PSt13_Rb_tree_nodeIS9_E=so_stub_for_libtelux_data
-Wl,--defsym=_ZNSt8_Rb_treeIN5telux4data13OperationTypeESt4pairIKS2_St10shared_ptrINS1_3net11INatManagerEEESt10_Select1stIS9_ESt4lessIS2_ESaIS9_EE17_M_emplace_uniqueIJRS2_RS5_INS6_14NatManagerImplEEEEES3_ISt17_Rb_tree_iteratorIS9_EbEDpOT_=so_stub_for_libtelux_data
-Wl,--defsym=_ZNSt8_Rb_treeIN5telux4data13OperationTypeESt4pairIKS2_St10shared_ptrINS1_3net11INatManagerEEESt10_Select1stIS9_ESt4lessIS2_ESaIS9_EE22_M_emplace_hint_uniqueIJRKSt21piecewise_construct_tSt5tupleIJRS4_EESK_IJEEEEESt17_Rb_tree_iteratorIS9_ESt23_Rb_tree_const_iteratorIS9_EDpOT_=so_stub_for_libtelux_data
-Wl,--defsym=_ZNSt8_Rb_treeIN5telux4data13OperationTypeESt4pairIKS2_St10shared_ptrINS1_3net11INatManagerEEESt10_Select1stIS9_ESt4lessIS2_ESaIS9_EE24_M_get_insert_unique_posERS4_=so_stub_for_libtelux_data
-Wl,--defsym=_ZNSt8_Rb_treeIN5telux4data13OperationTypeESt4pairIKS2_St10shared_ptrINS1_3net11INatManagerEEESt10_Select1stIS9_ESt4lessIS2_ESaIS9_EE29_M_get_insert_hint_unique_posESt23_Rb_tree_const_iteratorIS9_ERS4_=so_stub_for_libtelux_data
-Wl,--defsym=_ZNSt8_Rb_treeIN5telux4data13OperationTypeESt4pairIKS2_St10shared_ptrINS1_3net11INatManagerEEESt10_Select1stIS9_ESt4lessIS2_ESaIS9_EE8_M_eraseEPSt13_Rb_tree_nodeIS9_E=so_stub_for_libtelux_data
-Wl,--defsym=_ZNSt8_Rb_treeIN5telux4data13OperationTypeESt4pairIKS2_St10shared_ptrINS1_3net12IVlanManagerEEESt10_Select1stIS9_ESt4lessIS2_ESaIS9_EE14_M_insert_nodeEPSt18_Rb_tree_node_baseSH_PSt13_Rb_tree_nodeIS9_E=so_stub_for_libtelux_data
-Wl,--defsym=_ZNSt8_Rb_treeIN5telux4data13OperationTypeESt4pairIKS2_St10shared_ptrINS1_3net12IVlanManagerEEESt10_Select1stIS9_ESt4lessIS2_ESaIS9_EE17_M_emplace_uniqueIJRS2_RS5_INS6_15VlanManagerImplEEEEES3_ISt17_Rb_tree_iteratorIS9_EbEDpOT_=so_stub_for_libtelux_data
-Wl,--defsym=_ZNSt8_Rb_treeIN5telux4data13OperationTypeESt4pairIKS2_St10shared_ptrINS1_3net12IVlanManagerEEESt10_Select1stIS9_ESt4lessIS2_ESaIS9_EE22_M_emplace_hint_uniqueIJRKSt21piecewise_construct_tSt5tupleIJRS4_EESK_IJEEEEESt17_Rb_tree_iteratorIS9_ESt23_Rb_tree_const_iteratorIS9_EDpOT_=so_stub_for_libtelux_data
-Wl,--defsym=_ZNSt8_Rb_treeIN5telux4data13OperationTypeESt4pairIKS2_St10shared_ptrINS1_3net12IVlanManagerEEESt10_Select1stIS9_ESt4lessIS2_ESaIS9_EE24_M_get_insert_unique_posERS4_=so_stub_for_libtelux_data
-Wl,--defsym=_ZNSt8_Rb_treeIN5telux4data13OperationTypeESt4pairIKS2_St10shared_ptrINS1_3net12IVlanManagerEEESt10_Select1stIS9_ESt4lessIS2_ESaIS9_EE29_M_get_insert_hint_unique_posESt23_Rb_tree_const_iteratorIS9_ERS4_=so_stub_for_libtelux_data
-Wl,--defsym=_ZNSt8_Rb_treeIN5telux4data13OperationTypeESt4pairIKS2_St10shared_ptrINS1_3net12IVlanManagerEEESt10_Select1stIS9_ESt4lessIS2_ESaIS9_EE8_M_eraseEPSt13_Rb_tree_nodeIS9_E=so_stub_for_libtelux_data
-Wl,--defsym=_ZNSt8_Rb_treeIN5telux4data13OperationTypeESt4pairIKS2_St10shared_ptrINS1_3net13ISocksManagerEEESt10_Select1stIS9_ESt4lessIS2_ESaIS9_EE14_M_insert_nodeEPSt18_Rb_tree_node_baseSH_PSt13_Rb_tree_nodeIS9_E=so_stub_for_libtelux_data
-Wl,--defsym=_ZNSt8_Rb_treeIN5telux4data13OperationTypeESt4pairIKS2_St10shared_ptrINS1_3net13ISocksManagerEEESt10_Select1stIS9_ESt4lessIS2_ESaIS9_EE17_M_emplace_uniqueIJRS2_RS5_INS6_16SocksManagerImplEEEEES3_ISt17_Rb_tree_iteratorIS9_EbEDpOT_=so_stub_for_libtelux_data
-Wl,--defsym=_ZNSt8_Rb_treeIN5telux4data13OperationTypeESt4pairIKS2_St10shared_ptrINS1_3net13ISocksManagerEEESt10_Select1stIS9_ESt4lessIS2_ESaIS9_EE22_M_emplace_hint_uniqueIJRKSt21piecewise_construct_tSt5tupleIJRS4_EESK_IJEEEEESt17_Rb_tree_iteratorIS9_ESt23_Rb_tree_const_iteratorIS9_EDpOT_=so_stub_for_libtelux_data
-Wl,--defsym=_ZNSt8_Rb_treeIN5telux4data13OperationTypeESt4pairIKS2_St10shared_ptrINS1_3net13ISocksManagerEEESt10_Select1stIS9_ESt4lessIS2_ESaIS9_EE24_M_get_insert_unique_posERS4_=so_stub_for_libtelux_data
-Wl,--defsym=_ZNSt8_Rb_treeIN5telux4data13OperationTypeESt4pairIKS2_St10shared_ptrINS1_3net13ISocksManagerEEESt10_Select1stIS9_ESt4lessIS2_ESaIS9_EE29_M_get_insert_hint_unique_posESt23_Rb_tree_const_iteratorIS9_ERS4_=so_stub_for_libtelux_data
-Wl,--defsym=_ZNSt8_Rb_treeIN5telux4data13OperationTypeESt4pairIKS2_St10shared_ptrINS1_3net13ISocksManagerEEESt10_Select1stIS9_ESt4lessIS2_ESaIS9_EE8_M_eraseEPSt13_Rb_tree_nodeIS9_E=so_stub_for_libtelux_data
-Wl,--defsym=_ZNSt8_Rb_treeIN5telux4data13OperationTypeESt4pairIKS2_St10shared_ptrINS1_3net16IFirewallManagerEEESt10_Select1stIS9_ESt4lessIS2_ESaIS9_EE14_M_insert_nodeEPSt18_Rb_tree_node_baseSH_PSt13_Rb_tree_nodeIS9_E=so_stub_for_libtelux_data
-Wl,--defsym=_ZNSt8_Rb_treeIN5telux4data13OperationTypeESt4pairIKS2_St10shared_ptrINS1_3net16IFirewallManagerEEESt10_Select1stIS9_ESt4lessIS2_ESaIS9_EE17_M_emplace_uniqueIJRS2_RS5_INS6_19FirewallManagerImplEEEEES3_ISt17_Rb_tree_iteratorIS9_EbEDpOT_=so_stub_for_libtelux_data
-Wl,--defsym=_ZNSt8_Rb_treeIN5telux4data13OperationTypeESt4pairIKS2_St10shared_ptrINS1_3net16IFirewallManagerEEESt10_Select1stIS9_ESt4lessIS2_ESaIS9_EE22_M_emplace_hint_uniqueIJRKSt21piecewise_construct_tSt5tupleIJRS4_EESK_IJEEEEESt17_Rb_tree_iteratorIS9_ESt23_Rb_tree_const_iteratorIS9_EDpOT_=so_stub_for_libtelux_data
-Wl,--defsym=_ZNSt8_Rb_treeIN5telux4data13OperationTypeESt4pairIKS2_St10shared_ptrINS1_3net16IFirewallManagerEEESt10_Select1stIS9_ESt4lessIS2_ESaIS9_EE24_M_get_insert_unique_posERS4_=so_stub_for_libtelux_data
-Wl,--defsym=_ZNSt8_Rb_treeIN5telux4data13OperationTypeESt4pairIKS2_St10shared_ptrINS1_3net16IFirewallManagerEEESt10_Select1stIS9_ESt4lessIS2_ESaIS9_EE29_M_get_insert_hint_unique_posESt23_Rb_tree_const_iteratorIS9_ERS4_=so_stub_for_libtelux_data
-Wl,--defsym=_ZNSt8_Rb_treeIN5telux4data13OperationTypeESt4pairIKS2_St10shared_ptrINS1_3net16IFirewallManagerEEESt10_Select1stIS9_ESt4lessIS2_ESaIS9_EE8_M_eraseEPSt13_Rb_tree_nodeIS9_E=so_stub_for_libtelux_data
-Wl,--defsym=_ZSt13move_backwardISt13shared_futureIvEESt15_Deque_iteratorIT_RS3_PS3_ES2_IS3_RKS3_PS7_ESA_S6_=so_stub_for_libtelux_data
-Wl,--defsym=_ZSt18make_exception_ptrISt12future_errorENSt15__exception_ptr13exception_ptrET_=so_stub_for_libtelux_data
-Wl,--defsym=_ZSt20dynamic_pointer_castIN5telux4data10IEspFilterENS1_9IIpFilterEESt10shared_ptrIT_ERKS4_IT0_E=so_stub_for_libtelux_data
-Wl,--defsym=_ZSt20dynamic_pointer_castIN5telux4data10ITcpFilterENS1_9IIpFilterEESt10shared_ptrIT_ERKS4_IT0_E=so_stub_for_libtelux_data
-Wl,--defsym=_ZSt20dynamic_pointer_castIN5telux4data10IUdpFilterENS1_9IIpFilterEESt10shared_ptrIT_ERKS4_IT0_E=so_stub_for_libtelux_data
-Wl,--defsym=_ZSt20dynamic_pointer_castIN5telux4data11IIcmpFilterENS1_9IIpFilterEESt10shared_ptrIT_ERKS4_IT0_E=so_stub_for_libtelux_data
-Wl,--defsym=_ZSt20dynamic_pointer_castIN5telux4data13EspFilterImplENS1_9IIpFilterEESt10shared_ptrIT_ERKS4_IT0_E=so_stub_for_libtelux_data
-Wl,--defsym=_ZSt20dynamic_pointer_castIN5telux4data13TcpFilterImplENS1_9IIpFilterEESt10shared_ptrIT_ERKS4_IT0_E=so_stub_for_libtelux_data
-Wl,--defsym=_ZSt20dynamic_pointer_castIN5telux4data13UdpFilterImplENS1_9IIpFilterEESt10shared_ptrIT_ERKS4_IT0_E=so_stub_for_libtelux_data
-Wl,--defsym=_ZSt20dynamic_pointer_castIN5telux4data14IcmpFilterImplENS1_9IIpFilterEESt10shared_ptrIT_ERKS4_IT0_E=so_stub_for_libtelux_data
-Wl,--defsym=_ZSt20dynamic_pointer_castIN5telux4data3net17FirewallEntryImplENS2_14IFirewallEntryEESt10shared_ptrIT_ERKS5_IT0_E=so_stub_for_libtelux_data
-Wl,--defsym=_ZSt20__throw_bad_weak_ptrv=so_stub_for_libtelux_data
-Wl,--defsym=_ZSt4moveISt13shared_futureIvEESt15_Deque_iteratorIT_RS3_PS3_ES6_S6_S6_=so_stub_for_libtelux_data
-Wl,--defsym=_ZSt7find_ifIN9__gnu_cxx17__normal_iteratorIPSt8weak_ptrIN5telux4data23IDataConnectionListenerEESt6vectorIS6_SaIS6_EEEEZNS3_6common15ListenerManagerIS5_E16registerListenerES6_EUlS6_E_ET_SG_SG_T0_=so_stub_for_libtelux_data
-Wl,--defsym=_ZSt7find_ifIN9__gnu_cxx17__normal_iteratorIPSt8weak_ptrIN5telux4data3net12INatListenerEESt6vectorIS7_SaIS7_EEEEZNS3_6common15ListenerManagerIS6_E16registerListenerES7_EUlS7_E_ET_SH_SH_T0_=so_stub_for_libtelux_data
-Wl,--defsym=_ZSt7find_ifIN9__gnu_cxx17__normal_iteratorIPSt8weak_ptrIN5telux4data3net13IL2tpListenerEESt6vectorIS7_SaIS7_EEEEZNS3_6common15ListenerManagerIS6_E16registerListenerES7_EUlS7_E_ET_SH_SH_T0_=so_stub_for_libtelux_data
-Wl,--defsym=_ZSt7find_ifIN9__gnu_cxx17__normal_iteratorIPSt8weak_ptrIN5telux4data3net13IVlanListenerEESt6vectorIS7_SaIS7_EEEEZNS3_6common15ListenerManagerIS6_E16registerListenerES7_EUlS7_E_ET_SH_SH_T0_=so_stub_for_libtelux_data
-Wl,--defsym=_ZSt7find_ifIN9__gnu_cxx17__normal_iteratorIPSt8weak_ptrIN5telux4data3net14ISocksListenerEESt6vectorIS7_SaIS7_EEEEZNS3_6common15ListenerManagerIS6_E16registerListenerES7_EUlS7_E_ET_SH_SH_T0_=so_stub_for_libtelux_data
-Wl,--defsym=_ZSt7find_ifIN9__gnu_cxx17__normal_iteratorIPSt8weak_ptrIN5telux4data3net15IBridgeListenerEESt6vectorIS7_SaIS7_EEEEZNS3_6common15ListenerManagerIS6_E16registerListenerES7_EUlS7_E_ET_SH_SH_T0_=so_stub_for_libtelux_data
-Wl,--defsym=_ZSt7find_ifIN9__gnu_cxx17__normal_iteratorIPSt8weak_ptrIN5telux4data3net17IFirewallListenerEESt6vectorIS7_SaIS7_EEEEZNS3_6common15ListenerManagerIS6_E16registerListenerES7_EUlS7_E_ET_SH_SH_T0_=so_stub_for_libtelux_data
-Wl,--defsym=_ZSt9__find_ifIN9__gnu_cxx17__normal_iteratorIPSt8weak_ptrIN5telux4data23IDataConnectionListenerEESt6vectorIS6_SaIS6_EEEENS0_5__ops10_Iter_predIZNS3_6common15ListenerManagerIS5_E16registerListenerES6_EUlS6_E_EEET_SJ_SJ_T0_=so_stub_for_libtelux_data
-Wl,--defsym=_ZSt9__find_ifIN9__gnu_cxx17__normal_iteratorIPSt8weak_ptrIN5telux4data23IDataConnectionListenerEESt6vectorIS6_SaIS6_EEEENS0_5__ops10_Iter_predIZNS3_6common15ListenerManagerIS5_E16registerListenerES6_EUlS6_E_EEET_SJ_SJ_T0_St26random_access_iterator_tag=so_stub_for_libtelux_data
-Wl,--defsym=_ZSt9__find_ifIN9__gnu_cxx17__normal_iteratorIPSt8weak_ptrIN5telux4data3net12INatListenerEESt6vectorIS7_SaIS7_EEEENS0_5__ops10_Iter_predIZNS3_6common15ListenerManagerIS6_E16registerListenerES7_EUlS7_E_EEET_SK_SK_T0_=so_stub_for_libtelux_data
-Wl,--defsym=_ZSt9__find_ifIN9__gnu_cxx17__normal_iteratorIPSt8weak_ptrIN5telux4data3net12INatListenerEESt6vectorIS7_SaIS7_EEEENS0_5__ops10_Iter_predIZNS3_6common15ListenerManagerIS6_E16registerListenerES7_EUlS7_E_EEET_SK_SK_T0_St26random_access_iterator_tag=so_stub_for_libtelux_data
-Wl,--defsym=_ZSt9__find_ifIN9__gnu_cxx17__normal_iteratorIPSt8weak_ptrIN5telux4data3net13IL2tpListenerEESt6vectorIS7_SaIS7_EEEENS0_5__ops10_Iter_predIZNS3_6common15ListenerManagerIS6_E16registerListenerES7_EUlS7_E_EEET_SK_SK_T0_=so_stub_for_libtelux_data
-Wl,--defsym=_ZSt9__find_ifIN9__gnu_cxx17__normal_iteratorIPSt8weak_ptrIN5telux4data3net13IL2tpListenerEESt6vectorIS7_SaIS7_EEEENS0_5__ops10_Iter_predIZNS3_6common15ListenerManagerIS6_E16registerListenerES7_EUlS7_E_EEET_SK_SK_T0_St26random_access_iterator_tag=so_stub_for_libtelux_data
-Wl,--defsym=_ZSt9__find_ifIN9__gnu_cxx17__normal_iteratorIPSt8weak_ptrIN5telux4data3net13IVlanListenerEESt6vectorIS7_SaIS7_EEEENS0_5__ops10_Iter_predIZNS3_6common15ListenerManagerIS6_E16registerListenerES7_EUlS7_E_EEET_SK_SK_T0_=so_stub_for_libtelux_data
-Wl,--defsym=_ZSt9__find_ifIN9__gnu_cxx17__normal_iteratorIPSt8weak_ptrIN5telux4data3net13IVlanListenerEESt6vectorIS7_SaIS7_EEEENS0_5__ops10_Iter_predIZNS3_6common15ListenerManagerIS6_E16registerListenerES7_EUlS7_E_EEET_SK_SK_T0_St26random_access_iterator_tag=so_stub_for_libtelux_data
-Wl,--defsym=_ZSt9__find_ifIN9__gnu_cxx17__normal_iteratorIPSt8weak_ptrIN5telux4data3net14ISocksListenerEESt6vectorIS7_SaIS7_EEEENS0_5__ops10_Iter_predIZNS3_6common15ListenerManagerIS6_E16registerListenerES7_EUlS7_E_EEET_SK_SK_T0_=so_stub_for_libtelux_data
-Wl,--defsym=_ZSt9__find_ifIN9__gnu_cxx17__normal_iteratorIPSt8weak_ptrIN5telux4data3net14ISocksListenerEESt6vectorIS7_SaIS7_EEEENS0_5__ops10_Iter_predIZNS3_6common15ListenerManagerIS6_E16registerListenerES7_EUlS7_E_EEET_SK_SK_T0_St26random_access_iterator_tag=so_stub_for_libtelux_data
-Wl,--defsym=_ZSt9__find_ifIN9__gnu_cxx17__normal_iteratorIPSt8weak_ptrIN5telux4data3net15IBridgeListenerEESt6vectorIS7_SaIS7_EEEENS0_5__ops10_Iter_predIZNS3_6common15ListenerManagerIS6_E16registerListenerES7_EUlS7_E_EEET_SK_SK_T0_=so_stub_for_libtelux_data
-Wl,--defsym=_ZSt9__find_ifIN9__gnu_cxx17__normal_iteratorIPSt8weak_ptrIN5telux4data3net15IBridgeListenerEESt6vectorIS7_SaIS7_EEEENS0_5__ops10_Iter_predIZNS3_6common15ListenerManagerIS6_E16registerListenerES7_EUlS7_E_EEET_SK_SK_T0_St26random_access_iterator_tag=so_stub_for_libtelux_data
-Wl,--defsym=_ZSt9__find_ifIN9__gnu_cxx17__normal_iteratorIPSt8weak_ptrIN5telux4data3net17IFirewallListenerEESt6vectorIS7_SaIS7_EEEENS0_5__ops10_Iter_predIZNS3_6common15ListenerManagerIS6_E16registerListenerES7_EUlS7_E_EEET_SK_SK_T0_=so_stub_for_libtelux_data
-Wl,--defsym=_ZSt9__find_ifIN9__gnu_cxx17__normal_iteratorIPSt8weak_ptrIN5telux4data3net17IFirewallListenerEESt6vectorIS7_SaIS7_EEEENS0_5__ops10_Iter_predIZNS3_6common15ListenerManagerIS6_E16registerListenerES7_EUlS7_E_EEET_SK_SK_T0_St26random_access_iterator_tag=so_stub_for_libtelux_data
-Wl,--defsym=_ZSteqRKSt10error_codeRKSt15error_condition=so_stub_for_libtelux_data
-Wl,--defsym=_ZThn12_N5telux4data22DataProfileManagerImpl21createProfileResponseEiiiPv=so_stub_for_libtelux_data
-Wl,--defsym=_ZThn12_N5telux4data22DataProfileManagerImplD0Ev=so_stub_for_libtelux_data
-Wl,--defsym=_ZThn12_N5telux4data22DataProfileManagerImplD1Ev=so_stub_for_libtelux_data
-Wl,--defsym=_ZThn16_N5telux4data22DataProfileManagerImpl15onProfileUpdateEP31wds_profile_changed_ind_msg_v01=so_stub_for_libtelux_data
-Wl,--defsym=_ZThn16_N5telux4data22DataProfileManagerImpl24onWdsServiceStatusChangeENS_6common13ServiceStatusE=so_stub_for_libtelux_data
-Wl,--defsym=_ZThn16_N5telux4data22DataProfileManagerImplD0Ev=so_stub_for_libtelux_data
-Wl,--defsym=_ZThn16_N5telux4data22DataProfileManagerImplD1Ev=so_stub_for_libtelux_data
-Wl,--defsym=_ZThn4_N5telux4data13EspFilterImplD0Ev=so_stub_for_libtelux_data
-Wl,--defsym=_ZThn4_N5telux4data13EspFilterImplD1Ev=so_stub_for_libtelux_data
-Wl,--defsym=_ZThn4_N5telux4data13TcpFilterImplD0Ev=so_stub_for_libtelux_data
-Wl,--defsym=_ZThn4_N5telux4data13TcpFilterImplD1Ev=so_stub_for_libtelux_data
-Wl,--defsym=_ZThn4_N5telux4data13UdpFilterImplD0Ev=so_stub_for_libtelux_data
-Wl,--defsym=_ZThn4_N5telux4data13UdpFilterImplD1Ev=so_stub_for_libtelux_data
-Wl,--defsym=_ZThn4_N5telux4data14IcmpFilterImplD0Ev=so_stub_for_libtelux_data
-Wl,--defsym=_ZThn4_N5telux4data14IcmpFilterImplD1Ev=so_stub_for_libtelux_data
-Wl,--defsym=_ZThn4_N5telux4data16ProfileRetriever19profileListResponseEiiRKSt6vectorINS_3qmi15ProfileListInfoESaIS4_EEPv=so_stub_for_libtelux_data
-Wl,--defsym=_ZThn4_N5telux4data16ProfileRetrieverD0Ev=so_stub_for_libtelux_data
-Wl,--defsym=_ZThn4_N5telux4data16ProfileRetrieverD1Ev=so_stub_for_libtelux_data
-Wl,--defsym=_ZThn4_N5telux4data21DataFilterManagerImpl24onDataRestrictModeChangeENS0_16DataRestrictModeE=so_stub_for_libtelux_data
-Wl,--defsym=_ZThn4_N5telux4data21DataFilterManagerImplD0Ev=so_stub_for_libtelux_data
-Wl,--defsym=_ZThn4_N5telux4data21DataFilterManagerImplD1Ev=so_stub_for_libtelux_data
-Wl,--defsym=_ZThn4_N5telux4data22DataProfileManagerImpl18onProfileRetrievedESt10shared_ptrINS0_16ProfileRetrieverEE=so_stub_for_libtelux_data
-Wl,--defsym=_ZThn4_N5telux4data22DataProfileManagerImplD0Ev=so_stub_for_libtelux_data
-Wl,--defsym=_ZThn4_N5telux4data22DataProfileManagerImplD1Ev=so_stub_for_libtelux_data
-Wl,--defsym=_ZThn4_N5telux4data25DataConnectionManagerImpl21onDataCallInfoChangedERKSt10shared_ptrINS0_9IDataCallEE=so_stub_for_libtelux_data
-Wl,--defsym=_ZThn4_N5telux4data25DataConnectionManagerImpl21onServiceStatusChangeENS_6common13ServiceStatusE=so_stub_for_libtelux_data
-Wl,--defsym=_ZThn4_N5telux4data25DataConnectionManagerImplD0Ev=so_stub_for_libtelux_data
-Wl,--defsym=_ZThn4_N5telux4data25DataConnectionManagerImplD1Ev=so_stub_for_libtelux_data
-Wl,--defsym=_ZThn4_N5telux4data3net14NatManagerImpl21onServiceStatusChangeENS_6common13ServiceStatusE=so_stub_for_libtelux_data
-Wl,--defsym=_ZThn4_N5telux4data3net14NatManagerImplD0Ev=so_stub_for_libtelux_data
-Wl,--defsym=_ZThn4_N5telux4data3net14NatManagerImplD1Ev=so_stub_for_libtelux_data
-Wl,--defsym=_ZThn4_N5telux4data3net15L2tpManagerImpl21onServiceStatusChangeENS_6common13ServiceStatusE=so_stub_for_libtelux_data
-Wl,--defsym=_ZThn4_N5telux4data3net15L2tpManagerImplD0Ev=so_stub_for_libtelux_data
-Wl,--defsym=_ZThn4_N5telux4data3net15L2tpManagerImplD1Ev=so_stub_for_libtelux_data
-Wl,--defsym=_ZThn4_N5telux4data3net15VlanManagerImpl21onServiceStatusChangeENS_6common13ServiceStatusE=so_stub_for_libtelux_data
-Wl,--defsym=_ZThn4_N5telux4data3net15VlanManagerImplD0Ev=so_stub_for_libtelux_data
-Wl,--defsym=_ZThn4_N5telux4data3net15VlanManagerImplD1Ev=so_stub_for_libtelux_data
-Wl,--defsym=_ZThn4_N5telux4data3net16SocksManagerImpl21onServiceStatusChangeENS_6common13ServiceStatusE=so_stub_for_libtelux_data
-Wl,--defsym=_ZThn4_N5telux4data3net16SocksManagerImplD0Ev=so_stub_for_libtelux_data
-Wl,--defsym=_ZThn4_N5telux4data3net16SocksManagerImplD1Ev=so_stub_for_libtelux_data
-Wl,--defsym=_ZThn4_N5telux4data3net17BridgeManagerImpl21onServiceStatusChangeENS_6common13ServiceStatusE=so_stub_for_libtelux_data
-Wl,--defsym=_ZThn4_N5telux4data3net17BridgeManagerImplD0Ev=so_stub_for_libtelux_data
-Wl,--defsym=_ZThn4_N5telux4data3net17BridgeManagerImplD1Ev=so_stub_for_libtelux_data
-Wl,--defsym=_ZThn4_N5telux4data3net19FirewallManagerImpl21onServiceStatusChangeENS_6common13ServiceStatusE=so_stub_for_libtelux_data
-Wl,--defsym=_ZThn4_N5telux4data3net19FirewallManagerImplD0Ev=so_stub_for_libtelux_data
-Wl,--defsym=_ZThn4_N5telux4data3net19FirewallManagerImplD1Ev=so_stub_for_libtelux_data
-Wl,--defsym=_ZThn8_N5telux4data22DataProfileManagerImpl15commandResponseEiiPv=so_stub_for_libtelux_data
-Wl,--defsym=_ZThn8_N5telux4data22DataProfileManagerImplD0Ev=so_stub_for_libtelux_data
-Wl,--defsym=_ZThn8_N5telux4data22DataProfileManagerImplD1Ev=so_stub_for_libtelux_data
-Wl,--defsym=_ZThn8_N5telux4data25DataConnectionManagerImplD0Ev=so_stub_for_libtelux_data
-Wl,--defsym=_ZThn8_N5telux4data25DataConnectionManagerImplD1Ev=so_stub_for_libtelux_data
-Wl,--defsym=_ZTIN5telux3qmi12IQmiListenerE=so_stub_for_libtelux_data
-Wl,--defsym=_ZTIN5telux3qmi15IQmiWdsListenerE=so_stub_for_libtelux_data
-Wl,--defsym=_ZTIN5telux3qmi27IQmiCommandResponseCallbackE=so_stub_for_libtelux_data
-Wl,--defsym=_ZTIN5telux3qmi28IQmiWdsCreateProfileCallbackE=so_stub_for_libtelux_data
-Wl,--defsym=_ZTIN5telux3qmi29IQmiWdsGetProfileListCallbackE=so_stub_for_libtelux_data
-Wl,--defsym=_ZTIN5telux3qmi33IQmiWdsGetProfileSettingsCallbackE=so_stub_for_libtelux_data
-Wl,--defsym=_ZTIN5telux4data10IEspFilterE=so_stub_for_libtelux_data
-Wl,--defsym=_ZTIN5telux4data10ITcpFilterE=so_stub_for_libtelux_data
-Wl,--defsym=_ZTIN5telux4data10IUdpFilterE=so_stub_for_libtelux_data
-Wl,--defsym=_ZTIN5telux4data11IIcmpFilterE=so_stub_for_libtelux_data
-Wl,--defsym=_ZTIN5telux4data12DataCallImplE=so_stub_for_libtelux_data
-Wl,--defsym=_ZTIN5telux4data12IpFilterImplE=so_stub_for_libtelux_data
-Wl,--defsym=_ZTIN5telux4data13EspFilterImplE=so_stub_for_libtelux_data
-Wl,--defsym=_ZTIN5telux4data13EventInfoBaseE=so_stub_for_libtelux_data
-Wl,--defsym=_ZTIN5telux4data13TcpFilterImplE=so_stub_for_libtelux_data
-Wl,--defsym=_ZTIN5telux4data13UdpFilterImplE=so_stub_for_libtelux_data
-Wl,--defsym=_ZTIN5telux4data14IcmpFilterImplE=so_stub_for_libtelux_data
-Wl,--defsym=_ZTIN5telux4data16ProfileRetrieverE=so_stub_for_libtelux_data
-Wl,--defsym=_ZTIN5telux4data18IDataFilterManagerE=so_stub_for_libtelux_data
-Wl,--defsym=_ZTIN5telux4data19IDataFilterListenerE=so_stub_for_libtelux_data
-Wl,--defsym=_ZTIN5telux4data19IDataProfileManagerE=so_stub_for_libtelux_data
-Wl,--defsym=_ZTIN5telux4data21DataFilterManagerImplE=so_stub_for_libtelux_data
-Wl,--defsym=_ZTIN5telux4data22DataProfileManagerImplE=so_stub_for_libtelux_data
-Wl,--defsym=_ZTIN5telux4data22IDataConnectionManagerE=so_stub_for_libtelux_data
-Wl,--defsym=_ZTIN5telux4data23IDataConnectionListenerE=so_stub_for_libtelux_data
-Wl,--defsym=_ZTIN5telux4data25DataConnectionManagerImplE=so_stub_for_libtelux_data
-Wl,--defsym=_ZTIN5telux4data25IProfileRetrieverCallbackE=so_stub_for_libtelux_data
-Wl,--defsym=_ZTIN5telux4data3net11INatManagerE=so_stub_for_libtelux_data
-Wl,--defsym=_ZTIN5telux4data3net12IL2tpManagerE=so_stub_for_libtelux_data
-Wl,--defsym=_ZTIN5telux4data3net12IVlanManagerE=so_stub_for_libtelux_data
-Wl,--defsym=_ZTIN5telux4data3net13ISocksManagerE=so_stub_for_libtelux_data
-Wl,--defsym=_ZTIN5telux4data3net14IBridgeManagerE=so_stub_for_libtelux_data
-Wl,--defsym=_ZTIN5telux4data3net14IFirewallEntryE=so_stub_for_libtelux_data
-Wl,--defsym=_ZTIN5telux4data3net14NatManagerImplE=so_stub_for_libtelux_data
-Wl,--defsym=_ZTIN5telux4data3net15L2tpManagerImplE=so_stub_for_libtelux_data
-Wl,--defsym=_ZTIN5telux4data3net15VlanManagerImplE=so_stub_for_libtelux_data
-Wl,--defsym=_ZTIN5telux4data3net16IFirewallManagerE=so_stub_for_libtelux_data
-Wl,--defsym=_ZTIN5telux4data3net16SocksManagerImplE=so_stub_for_libtelux_data
-Wl,--defsym=_ZTIN5telux4data3net17BridgeManagerImplE=so_stub_for_libtelux_data
-Wl,--defsym=_ZTIN5telux4data3net17FirewallEntryImplE=so_stub_for_libtelux_data
-Wl,--defsym=_ZTIN5telux4data3net19FirewallManagerImplE=so_stub_for_libtelux_data
-Wl,--defsym=_ZTIN5telux4data9EventInfoINS0_21DsiStatusCallbackDataEEE=so_stub_for_libtelux_data
-Wl,--defsym=_ZTIN5telux4data9IDataCallE=so_stub_for_libtelux_data
-Wl,--defsym=_ZTIN5telux4data9IIpFilterE=so_stub_for_libtelux_data
-Wl,--defsym=_ZTIN5telux6common16ICommandCallbackE=so_stub_for_libtelux_data
-Wl,--defsym=_ZTIN5telux6common22IServiceStatusListenerE=so_stub_for_libtelux_data
-Wl,--defsym=_ZTINSt13__future_base13_State_baseV27_SetterI18dsi_v2x_ind_info_tRKS2_EE=so_stub_for_libtelux_data
-Wl,--defsym=_ZTINSt13__future_base13_State_baseV2E=so_stub_for_libtelux_data
-Wl,--defsym=_ZTINSt13__future_base21_Async_state_commonV2E=so_stub_for_libtelux_data
-Wl,--defsym=_ZTINSt13__future_base7_ResultI18dsi_v2x_ind_info_tEE=so_stub_for_libtelux_data
-Wl,--defsym=_ZTINSt13__future_base7_ResultIbEE=so_stub_for_libtelux_data
-Wl,--defsym=_ZTINSt13__future_base7_ResultIvEE=so_stub_for_libtelux_data
-Wl,--defsym=_ZTISt11_Mutex_baseILN9__gnu_cxx12_Lock_policyE2EE=so_stub_for_libtelux_data
-Wl,--defsym=_ZTISt14_Function_base=so_stub_for_libtelux_data
-Wl,--defsym=_ZTISt14unary_functionIRKSt10shared_ptrIN5telux4data21DsiStatusCallbackDataEEvE=so_stub_for_libtelux_data
-Wl,--defsym=_ZTISt15_Sp_counted_ptrIPN5telux4data9DsiClientELN9__gnu_cxx12_Lock_policyE2EE=so_stub_for_libtelux_data
-Wl,--defsym=_ZTISt15_Sp_counted_ptrIPN5telux4data9QcmClientELN9__gnu_cxx12_Lock_policyE2EE=so_stub_for_libtelux_data
-Wl,--defsym=_ZTISt16_Sp_counted_baseILN9__gnu_cxx12_Lock_policyE2EE=so_stub_for_libtelux_data
-Wl,--defsym=_ZTISt17_Weak_result_typeIMN5telux4data9DsiClientEFvRKSt10shared_ptrINS1_21DsiStatusCallbackDataEEEE=so_stub_for_libtelux_data
-Wl,--defsym=_ZTISt19_Sp_make_shared_tag=so_stub_for_libtelux_data
-Wl,--defsym=_ZTISt23enable_shared_from_thisIN5telux4data16ProfileRetrieverEE=so_stub_for_libtelux_data
-Wl,--defsym=_ZTISt23enable_shared_from_thisIN5telux4data21DataFilterManagerImplEE=so_stub_for_libtelux_data
-Wl,--defsym=_ZTISt23enable_shared_from_thisIN5telux4data22DataProfileManagerImplEE=so_stub_for_libtelux_data
-Wl,--defsym=_ZTISt23enable_shared_from_thisIN5telux4data25DataConnectionManagerImplEE=so_stub_for_libtelux_data
-Wl,--defsym=_ZTISt23enable_shared_from_thisIN5telux4data3net14NatManagerImplEE=so_stub_for_libtelux_data
-Wl,--defsym=_ZTISt23enable_shared_from_thisIN5telux4data3net15L2tpManagerImplEE=so_stub_for_libtelux_data
-Wl,--defsym=_ZTISt23enable_shared_from_thisIN5telux4data3net15VlanManagerImplEE=so_stub_for_libtelux_data
-Wl,--defsym=_ZTISt23enable_shared_from_thisIN5telux4data3net16SocksManagerImplEE=so_stub_for_libtelux_data
-Wl,--defsym=_ZTISt23enable_shared_from_thisIN5telux4data3net17BridgeManagerImplEE=so_stub_for_libtelux_data
-Wl,--defsym=_ZTISt23enable_shared_from_thisIN5telux4data3net19FirewallManagerImplEE=so_stub_for_libtelux_data
-Wl,--defsym=_ZTISt23_Sp_counted_ptr_inplaceI12QCMAP_ClientSaIS0_ELN9__gnu_cxx12_Lock_policyE2EE=so_stub_for_libtelux_data
-Wl,--defsym=_ZTISt23_Sp_counted_ptr_inplaceIN5telux4data11DataProfileESaIS2_ELN9__gnu_cxx12_Lock_policyE2EE=so_stub_for_libtelux_data
-Wl,--defsym=_ZTISt23_Sp_counted_ptr_inplaceIN5telux4data12DataCallImplESaIS2_ELN9__gnu_cxx12_Lock_policyE2EE=so_stub_for_libtelux_data
-Wl,--defsym=_ZTISt23_Sp_counted_ptr_inplaceIN5telux4data12EventHandlerESaIS2_ELN9__gnu_cxx12_Lock_policyE2EE=so_stub_for_libtelux_data
-Wl,--defsym=_ZTISt23_Sp_counted_ptr_inplaceIN5telux4data13EspFilterImplESaIS2_ELN9__gnu_cxx12_Lock_policyE2EE=so_stub_for_libtelux_data
-Wl,--defsym=_ZTISt23_Sp_counted_ptr_inplaceIN5telux4data13TcpFilterImplESaIS2_ELN9__gnu_cxx12_Lock_policyE2EE=so_stub_for_libtelux_data
-Wl,--defsym=_ZTISt23_Sp_counted_ptr_inplaceIN5telux4data13UdpFilterImplESaIS2_ELN9__gnu_cxx12_Lock_policyE2EE=so_stub_for_libtelux_data
-Wl,--defsym=_ZTISt23_Sp_counted_ptr_inplaceIN5telux4data14IcmpFilterImplESaIS2_ELN9__gnu_cxx12_Lock_policyE2EE=so_stub_for_libtelux_data
-Wl,--defsym=_ZTISt23_Sp_counted_ptr_inplaceIN5telux4data16ProfileRetrieverESaIS2_ELN9__gnu_cxx12_Lock_policyE2EE=so_stub_for_libtelux_data
-Wl,--defsym=_ZTISt23_Sp_counted_ptr_inplaceIN5telux4data18DsiEventDispatcherESaIS2_ELN9__gnu_cxx12_Lock_policyE2EE=so_stub_for_libtelux_data
-Wl,--defsym=_ZTISt23_Sp_counted_ptr_inplaceIN5telux4data21DsiStatusCallbackDataESaIS2_ELN9__gnu_cxx12_Lock_policyE2EE=so_stub_for_libtelux_data
-Wl,--defsym=_ZTISt23_Sp_counted_ptr_inplaceIN5telux4data22DataProfileManagerImplESaIS2_ELN9__gnu_cxx12_Lock_policyE2EE=so_stub_for_libtelux_data
-Wl,--defsym=_ZTISt23_Sp_counted_ptr_inplaceIN5telux4data25DataConnectionManagerImplESaIS2_ELN9__gnu_cxx12_Lock_policyE2EE=so_stub_for_libtelux_data
-Wl,--defsym=_ZTISt23_Sp_counted_ptr_inplaceIN5telux4data3net14NatManagerImplESaIS3_ELN9__gnu_cxx12_Lock_policyE2EE=so_stub_for_libtelux_data
-Wl,--defsym=_ZTISt23_Sp_counted_ptr_inplaceIN5telux4data3net15L2tpManagerImplESaIS3_ELN9__gnu_cxx12_Lock_policyE2EE=so_stub_for_libtelux_data
-Wl,--defsym=_ZTISt23_Sp_counted_ptr_inplaceIN5telux4data3net15VlanManagerImplESaIS3_ELN9__gnu_cxx12_Lock_policyE2EE=so_stub_for_libtelux_data
-Wl,--defsym=_ZTISt23_Sp_counted_ptr_inplaceIN5telux4data3net16SocksManagerImplESaIS3_ELN9__gnu_cxx12_Lock_policyE2EE=so_stub_for_libtelux_data
-Wl,--defsym=_ZTISt23_Sp_counted_ptr_inplaceIN5telux4data3net17BridgeManagerImplESaIS3_ELN9__gnu_cxx12_Lock_policyE2EE=so_stub_for_libtelux_data
-Wl,--defsym=_ZTISt23_Sp_counted_ptr_inplaceIN5telux4data3net17FirewallEntryImplESaIS3_ELN9__gnu_cxx12_Lock_policyE2EE=so_stub_for_libtelux_data
-Wl,--defsym=_ZTISt23_Sp_counted_ptr_inplaceIN5telux4data3net19FirewallManagerImplESaIS3_ELN9__gnu_cxx12_Lock_policyE2EE=so_stub_for_libtelux_data
-Wl,--defsym=_ZTISt23_Sp_counted_ptr_inplaceIN5telux4data9EventInfoINS1_21DsiStatusCallbackDataEEESaIS4_ELN9__gnu_cxx12_Lock_policyE2EE=so_stub_for_libtelux_data
-Wl,--defsym=_ZTISt23_Sp_counted_ptr_inplaceIN5telux6common15ListenerManagerINS0_4data23IDataConnectionListenerEEESaIS5_ELN9__gnu_cxx12_Lock_policyE2EE=so_stub_for_libtelux_data
-Wl,--defsym=_ZTISt23_Sp_counted_ptr_inplaceIN5telux6common15ListenerManagerINS0_4data3net12INatListenerEEESaIS6_ELN9__gnu_cxx12_Lock_policyE2EE=so_stub_for_libtelux_data
-Wl,--defsym=_ZTISt23_Sp_counted_ptr_inplaceIN5telux6common15ListenerManagerINS0_4data3net13IL2tpListenerEEESaIS6_ELN9__gnu_cxx12_Lock_policyE2EE=so_stub_for_libtelux_data
-Wl,--defsym=_ZTISt23_Sp_counted_ptr_inplaceIN5telux6common15ListenerManagerINS0_4data3net13IVlanListenerEEESaIS6_ELN9__gnu_cxx12_Lock_policyE2EE=so_stub_for_libtelux_data
-Wl,--defsym=_ZTISt23_Sp_counted_ptr_inplaceIN5telux6common15ListenerManagerINS0_4data3net14ISocksListenerEEESaIS6_ELN9__gnu_cxx12_Lock_policyE2EE=so_stub_for_libtelux_data
-Wl,--defsym=_ZTISt23_Sp_counted_ptr_inplaceIN5telux6common15ListenerManagerINS0_4data3net15IBridgeListenerEEESaIS6_ELN9__gnu_cxx12_Lock_policyE2EE=so_stub_for_libtelux_data
-Wl,--defsym=_ZTISt23_Sp_counted_ptr_inplaceIN5telux6common15ListenerManagerINS0_4data3net17IFirewallListenerEEESaIS6_ELN9__gnu_cxx12_Lock_policyE2EE=so_stub_for_libtelux_data
-Wl,--defsym=_ZTISt23_Sp_counted_ptr_inplaceINSt13__future_base13_State_baseV2ESaIS1_ELN9__gnu_cxx12_Lock_policyE2EE=so_stub_for_libtelux_data
-Wl,--defsym=_ZTISt23_Sp_counted_ptr_inplaceISt6threadSaIS0_ELN9__gnu_cxx12_Lock_policyE2EE=so_stub_for_libtelux_data
-Wl,--defsym=_ZTISt24_Weak_result_type_memfunIMN5telux4data9DsiClientEFvRKSt10shared_ptrINS1_21DsiStatusCallbackDataEEELb1EE=so_stub_for_libtelux_data
-Wl,--defsym=_ZTISt31_Maybe_unary_or_binary_functionIvJRKSt10shared_ptrIN5telux4data21DsiStatusCallbackDataEEEE=so_stub_for_libtelux_data
-Wl,--defsym=_ZTISt5_BindIFMN5telux4data9DsiClientEFvRKSt10shared_ptrINS1_21DsiStatusCallbackDataEEEPS2_St12_PlaceholderILi1EEEE=so_stub_for_libtelux_data
-Wl,--defsym=_ZTISt8functionIFvRKSt10shared_ptrIN5telux4data21DsiStatusCallbackDataEEEE=so_stub_for_libtelux_data
-Wl,--defsym=_ZTSN5telux3qmi12IQmiListenerE=so_stub_for_libtelux_data
-Wl,--defsym=_ZTSN5telux3qmi15IQmiWdsListenerE=so_stub_for_libtelux_data
-Wl,--defsym=_ZTSN5telux3qmi27IQmiCommandResponseCallbackE=so_stub_for_libtelux_data
-Wl,--defsym=_ZTSN5telux3qmi28IQmiWdsCreateProfileCallbackE=so_stub_for_libtelux_data
-Wl,--defsym=_ZTSN5telux3qmi29IQmiWdsGetProfileListCallbackE=so_stub_for_libtelux_data
-Wl,--defsym=_ZTSN5telux3qmi33IQmiWdsGetProfileSettingsCallbackE=so_stub_for_libtelux_data
-Wl,--defsym=_ZTSN5telux4data10IEspFilterE=so_stub_for_libtelux_data
-Wl,--defsym=_ZTSN5telux4data10ITcpFilterE=so_stub_for_libtelux_data
-Wl,--defsym=_ZTSN5telux4data10IUdpFilterE=so_stub_for_libtelux_data
-Wl,--defsym=_ZTSN5telux4data11IIcmpFilterE=so_stub_for_libtelux_data
-Wl,--defsym=_ZTSN5telux4data12DataCallImplE=so_stub_for_libtelux_data
-Wl,--defsym=_ZTSN5telux4data12IpFilterImplE=so_stub_for_libtelux_data
-Wl,--defsym=_ZTSN5telux4data13EspFilterImplE=so_stub_for_libtelux_data
-Wl,--defsym=_ZTSN5telux4data13EventInfoBaseE=so_stub_for_libtelux_data
-Wl,--defsym=_ZTSN5telux4data13TcpFilterImplE=so_stub_for_libtelux_data
-Wl,--defsym=_ZTSN5telux4data13UdpFilterImplE=so_stub_for_libtelux_data
-Wl,--defsym=_ZTSN5telux4data14IcmpFilterImplE=so_stub_for_libtelux_data
-Wl,--defsym=_ZTSN5telux4data16ProfileRetrieverE=so_stub_for_libtelux_data
-Wl,--defsym=_ZTSN5telux4data18IDataFilterManagerE=so_stub_for_libtelux_data
-Wl,--defsym=_ZTSN5telux4data19IDataFilterListenerE=so_stub_for_libtelux_data
-Wl,--defsym=_ZTSN5telux4data19IDataProfileManagerE=so_stub_for_libtelux_data
-Wl,--defsym=_ZTSN5telux4data21DataFilterManagerImplE=so_stub_for_libtelux_data
-Wl,--defsym=_ZTSN5telux4data22DataProfileManagerImplE=so_stub_for_libtelux_data
-Wl,--defsym=_ZTSN5telux4data22IDataConnectionManagerE=so_stub_for_libtelux_data
-Wl,--defsym=_ZTSN5telux4data23IDataConnectionListenerE=so_stub_for_libtelux_data
-Wl,--defsym=_ZTSN5telux4data25DataConnectionManagerImplE=so_stub_for_libtelux_data
-Wl,--defsym=_ZTSN5telux4data25IProfileRetrieverCallbackE=so_stub_for_libtelux_data
-Wl,--defsym=_ZTSN5telux4data3net11INatManagerE=so_stub_for_libtelux_data
-Wl,--defsym=_ZTSN5telux4data3net12IL2tpManagerE=so_stub_for_libtelux_data
-Wl,--defsym=_ZTSN5telux4data3net12IVlanManagerE=so_stub_for_libtelux_data
-Wl,--defsym=_ZTSN5telux4data3net13ISocksManagerE=so_stub_for_libtelux_data
-Wl,--defsym=_ZTSN5telux4data3net14IBridgeManagerE=so_stub_for_libtelux_data
-Wl,--defsym=_ZTSN5telux4data3net14IFirewallEntryE=so_stub_for_libtelux_data
-Wl,--defsym=_ZTSN5telux4data3net14NatManagerImplE=so_stub_for_libtelux_data
-Wl,--defsym=_ZTSN5telux4data3net15L2tpManagerImplE=so_stub_for_libtelux_data
-Wl,--defsym=_ZTSN5telux4data3net15VlanManagerImplE=so_stub_for_libtelux_data
-Wl,--defsym=_ZTSN5telux4data3net16IFirewallManagerE=so_stub_for_libtelux_data
-Wl,--defsym=_ZTSN5telux4data3net16SocksManagerImplE=so_stub_for_libtelux_data
-Wl,--defsym=_ZTSN5telux4data3net17BridgeManagerImplE=so_stub_for_libtelux_data
-Wl,--defsym=_ZTSN5telux4data3net17FirewallEntryImplE=so_stub_for_libtelux_data
-Wl,--defsym=_ZTSN5telux4data3net19FirewallManagerImplE=so_stub_for_libtelux_data
-Wl,--defsym=_ZTSN5telux4data9EventInfoINS0_21DsiStatusCallbackDataEEE=so_stub_for_libtelux_data
-Wl,--defsym=_ZTSN5telux4data9IDataCallE=so_stub_for_libtelux_data
-Wl,--defsym=_ZTSN5telux4data9IIpFilterE=so_stub_for_libtelux_data
-Wl,--defsym=_ZTSN5telux6common16ICommandCallbackE=so_stub_for_libtelux_data
-Wl,--defsym=_ZTSN5telux6common22IServiceStatusListenerE=so_stub_for_libtelux_data
-Wl,--defsym=_ZTSNSt13__future_base13_State_baseV27_SetterI18dsi_v2x_ind_info_tRKS2_EE=so_stub_for_libtelux_data
-Wl,--defsym=_ZTSNSt13__future_base13_State_baseV2E=so_stub_for_libtelux_data
-Wl,--defsym=_ZTSNSt13__future_base21_Async_state_commonV2E=so_stub_for_libtelux_data
-Wl,--defsym=_ZTSNSt13__future_base7_ResultI18dsi_v2x_ind_info_tEE=so_stub_for_libtelux_data
-Wl,--defsym=_ZTSNSt13__future_base7_ResultIbEE=so_stub_for_libtelux_data
-Wl,--defsym=_ZTSNSt13__future_base7_ResultIvEE=so_stub_for_libtelux_data
-Wl,--defsym=_ZTSSt11_Mutex_baseILN9__gnu_cxx12_Lock_policyE2EE=so_stub_for_libtelux_data
-Wl,--defsym=_ZTSSt14_Function_base=so_stub_for_libtelux_data
-Wl,--defsym=_ZTSSt14unary_functionIRKSt10shared_ptrIN5telux4data21DsiStatusCallbackDataEEvE=so_stub_for_libtelux_data
-Wl,--defsym=_ZTSSt15_Sp_counted_ptrIPN5telux4data9DsiClientELN9__gnu_cxx12_Lock_policyE2EE=so_stub_for_libtelux_data
-Wl,--defsym=_ZTSSt15_Sp_counted_ptrIPN5telux4data9QcmClientELN9__gnu_cxx12_Lock_policyE2EE=so_stub_for_libtelux_data
-Wl,--defsym=_ZTSSt16_Sp_counted_baseILN9__gnu_cxx12_Lock_policyE2EE=so_stub_for_libtelux_data
-Wl,--defsym=_ZTSSt17_Weak_result_typeIMN5telux4data9DsiClientEFvRKSt10shared_ptrINS1_21DsiStatusCallbackDataEEEE=so_stub_for_libtelux_data
-Wl,--defsym=_ZTSSt19_Sp_make_shared_tag=so_stub_for_libtelux_data
-Wl,--defsym=_ZTSSt23enable_shared_from_thisIN5telux4data16ProfileRetrieverEE=so_stub_for_libtelux_data
-Wl,--defsym=_ZTSSt23enable_shared_from_thisIN5telux4data21DataFilterManagerImplEE=so_stub_for_libtelux_data
-Wl,--defsym=_ZTSSt23enable_shared_from_thisIN5telux4data22DataProfileManagerImplEE=so_stub_for_libtelux_data
-Wl,--defsym=_ZTSSt23enable_shared_from_thisIN5telux4data25DataConnectionManagerImplEE=so_stub_for_libtelux_data
-Wl,--defsym=_ZTSSt23enable_shared_from_thisIN5telux4data3net14NatManagerImplEE=so_stub_for_libtelux_data
-Wl,--defsym=_ZTSSt23enable_shared_from_thisIN5telux4data3net15L2tpManagerImplEE=so_stub_for_libtelux_data
-Wl,--defsym=_ZTSSt23enable_shared_from_thisIN5telux4data3net15VlanManagerImplEE=so_stub_for_libtelux_data
-Wl,--defsym=_ZTSSt23enable_shared_from_thisIN5telux4data3net16SocksManagerImplEE=so_stub_for_libtelux_data
-Wl,--defsym=_ZTSSt23enable_shared_from_thisIN5telux4data3net17BridgeManagerImplEE=so_stub_for_libtelux_data
-Wl,--defsym=_ZTSSt23enable_shared_from_thisIN5telux4data3net19FirewallManagerImplEE=so_stub_for_libtelux_data
-Wl,--defsym=_ZTSSt23_Sp_counted_ptr_inplaceI12QCMAP_ClientSaIS0_ELN9__gnu_cxx12_Lock_policyE2EE=so_stub_for_libtelux_data
-Wl,--defsym=_ZTSSt23_Sp_counted_ptr_inplaceIN5telux4data11DataProfileESaIS2_ELN9__gnu_cxx12_Lock_policyE2EE=so_stub_for_libtelux_data
-Wl,--defsym=_ZTSSt23_Sp_counted_ptr_inplaceIN5telux4data12DataCallImplESaIS2_ELN9__gnu_cxx12_Lock_policyE2EE=so_stub_for_libtelux_data
-Wl,--defsym=_ZTSSt23_Sp_counted_ptr_inplaceIN5telux4data12EventHandlerESaIS2_ELN9__gnu_cxx12_Lock_policyE2EE=so_stub_for_libtelux_data
-Wl,--defsym=_ZTSSt23_Sp_counted_ptr_inplaceIN5telux4data13EspFilterImplESaIS2_ELN9__gnu_cxx12_Lock_policyE2EE=so_stub_for_libtelux_data
-Wl,--defsym=_ZTSSt23_Sp_counted_ptr_inplaceIN5telux4data13TcpFilterImplESaIS2_ELN9__gnu_cxx12_Lock_policyE2EE=so_stub_for_libtelux_data
-Wl,--defsym=_ZTSSt23_Sp_counted_ptr_inplaceIN5telux4data13UdpFilterImplESaIS2_ELN9__gnu_cxx12_Lock_policyE2EE=so_stub_for_libtelux_data
-Wl,--defsym=_ZTSSt23_Sp_counted_ptr_inplaceIN5telux4data14IcmpFilterImplESaIS2_ELN9__gnu_cxx12_Lock_policyE2EE=so_stub_for_libtelux_data
-Wl,--defsym=_ZTSSt23_Sp_counted_ptr_inplaceIN5telux4data16ProfileRetrieverESaIS2_ELN9__gnu_cxx12_Lock_policyE2EE=so_stub_for_libtelux_data
-Wl,--defsym=_ZTSSt23_Sp_counted_ptr_inplaceIN5telux4data18DsiEventDispatcherESaIS2_ELN9__gnu_cxx12_Lock_policyE2EE=so_stub_for_libtelux_data
-Wl,--defsym=_ZTSSt23_Sp_counted_ptr_inplaceIN5telux4data21DsiStatusCallbackDataESaIS2_ELN9__gnu_cxx12_Lock_policyE2EE=so_stub_for_libtelux_data
-Wl,--defsym=_ZTSSt23_Sp_counted_ptr_inplaceIN5telux4data22DataProfileManagerImplESaIS2_ELN9__gnu_cxx12_Lock_policyE2EE=so_stub_for_libtelux_data
-Wl,--defsym=_ZTSSt23_Sp_counted_ptr_inplaceIN5telux4data25DataConnectionManagerImplESaIS2_ELN9__gnu_cxx12_Lock_policyE2EE=so_stub_for_libtelux_data
-Wl,--defsym=_ZTSSt23_Sp_counted_ptr_inplaceIN5telux4data3net14NatManagerImplESaIS3_ELN9__gnu_cxx12_Lock_policyE2EE=so_stub_for_libtelux_data
-Wl,--defsym=_ZTSSt23_Sp_counted_ptr_inplaceIN5telux4data3net15L2tpManagerImplESaIS3_ELN9__gnu_cxx12_Lock_policyE2EE=so_stub_for_libtelux_data
-Wl,--defsym=_ZTSSt23_Sp_counted_ptr_inplaceIN5telux4data3net15VlanManagerImplESaIS3_ELN9__gnu_cxx12_Lock_policyE2EE=so_stub_for_libtelux_data
-Wl,--defsym=_ZTSSt23_Sp_counted_ptr_inplaceIN5telux4data3net16SocksManagerImplESaIS3_ELN9__gnu_cxx12_Lock_policyE2EE=so_stub_for_libtelux_data
-Wl,--defsym=_ZTSSt23_Sp_counted_ptr_inplaceIN5telux4data3net17BridgeManagerImplESaIS3_ELN9__gnu_cxx12_Lock_policyE2EE=so_stub_for_libtelux_data
-Wl,--defsym=_ZTSSt23_Sp_counted_ptr_inplaceIN5telux4data3net17FirewallEntryImplESaIS3_ELN9__gnu_cxx12_Lock_policyE2EE=so_stub_for_libtelux_data
-Wl,--defsym=_ZTSSt23_Sp_counted_ptr_inplaceIN5telux4data3net19FirewallManagerImplESaIS3_ELN9__gnu_cxx12_Lock_policyE2EE=so_stub_for_libtelux_data
-Wl,--defsym=_ZTSSt23_Sp_counted_ptr_inplaceIN5telux4data9EventInfoINS1_21DsiStatusCallbackDataEEESaIS4_ELN9__gnu_cxx12_Lock_policyE2EE=so_stub_for_libtelux_data
-Wl,--defsym=_ZTSSt23_Sp_counted_ptr_inplaceIN5telux6common15ListenerManagerINS0_4data23IDataConnectionListenerEEESaIS5_ELN9__gnu_cxx12_Lock_policyE2EE=so_stub_for_libtelux_data
-Wl,--defsym=_ZTSSt23_Sp_counted_ptr_inplaceIN5telux6common15ListenerManagerINS0_4data3net12INatListenerEEESaIS6_ELN9__gnu_cxx12_Lock_policyE2EE=so_stub_for_libtelux_data
-Wl,--defsym=_ZTSSt23_Sp_counted_ptr_inplaceIN5telux6common15ListenerManagerINS0_4data3net13IL2tpListenerEEESaIS6_ELN9__gnu_cxx12_Lock_policyE2EE=so_stub_for_libtelux_data
-Wl,--defsym=_ZTSSt23_Sp_counted_ptr_inplaceIN5telux6common15ListenerManagerINS0_4data3net13IVlanListenerEEESaIS6_ELN9__gnu_cxx12_Lock_policyE2EE=so_stub_for_libtelux_data
-Wl,--defsym=_ZTSSt23_Sp_counted_ptr_inplaceIN5telux6common15ListenerManagerINS0_4data3net14ISocksListenerEEESaIS6_ELN9__gnu_cxx12_Lock_policyE2EE=so_stub_for_libtelux_data
-Wl,--defsym=_ZTSSt23_Sp_counted_ptr_inplaceIN5telux6common15ListenerManagerINS0_4data3net15IBridgeListenerEEESaIS6_ELN9__gnu_cxx12_Lock_policyE2EE=so_stub_for_libtelux_data
-Wl,--defsym=_ZTSSt23_Sp_counted_ptr_inplaceIN5telux6common15ListenerManagerINS0_4data3net17IFirewallListenerEEESaIS6_ELN9__gnu_cxx12_Lock_policyE2EE=so_stub_for_libtelux_data
-Wl,--defsym=_ZTSSt23_Sp_counted_ptr_inplaceINSt13__future_base13_State_baseV2ESaIS1_ELN9__gnu_cxx12_Lock_policyE2EE=so_stub_for_libtelux_data
-Wl,--defsym=_ZTSSt23_Sp_counted_ptr_inplaceISt6threadSaIS0_ELN9__gnu_cxx12_Lock_policyE2EE=so_stub_for_libtelux_data
-Wl,--defsym=_ZTSSt24_Weak_result_type_memfunIMN5telux4data9DsiClientEFvRKSt10shared_ptrINS1_21DsiStatusCallbackDataEEELb1EE=so_stub_for_libtelux_data
-Wl,--defsym=_ZTSSt31_Maybe_unary_or_binary_functionIvJRKSt10shared_ptrIN5telux4data21DsiStatusCallbackDataEEEE=so_stub_for_libtelux_data
-Wl,--defsym=_ZTSSt5_BindIFMN5telux4data9DsiClientEFvRKSt10shared_ptrINS1_21DsiStatusCallbackDataEEEPS2_St12_PlaceholderILi1EEEE=so_stub_for_libtelux_data
-Wl,--defsym=_ZTSSt8functionIFvRKSt10shared_ptrIN5telux4data21DsiStatusCallbackDataEEEE=so_stub_for_libtelux_data
-Wl,--defsym=_ZTTN5telux4data12IpFilterImplE=so_stub_for_libtelux_data
-Wl,--defsym=_ZTTN5telux4data13EspFilterImplE=so_stub_for_libtelux_data
-Wl,--defsym=_ZTTN5telux4data13TcpFilterImplE=so_stub_for_libtelux_data
-Wl,--defsym=_ZTTN5telux4data13UdpFilterImplE=so_stub_for_libtelux_data
-Wl,--defsym=_ZTTN5telux4data14IcmpFilterImplE=so_stub_for_libtelux_data
-Wl,--defsym=_ZTv0_n12_N5telux4data12IpFilterImpl11getIPv4InfoEv=so_stub_for_libtelux_data
-Wl,--defsym=_ZTv0_n16_N5telux4data12IpFilterImpl11setIPv4InfoERKNS0_8IPv4InfoE=so_stub_for_libtelux_data
-Wl,--defsym=_ZTv0_n20_N5telux4data12IpFilterImpl11getIPv6InfoEv=so_stub_for_libtelux_data
-Wl,--defsym=_ZTv0_n24_N5telux4data12IpFilterImpl11setIPv6InfoERKNS0_8IPv6InfoE=so_stub_for_libtelux_data
-Wl,--defsym=_ZTv0_n28_N5telux4data12IpFilterImpl13getIpProtocolEv=so_stub_for_libtelux_data
-Wl,--defsym=_ZTv0_n32_N5telux4data12IpFilterImplD0Ev=so_stub_for_libtelux_data
-Wl,--defsym=_ZTv0_n32_N5telux4data12IpFilterImplD1Ev=so_stub_for_libtelux_data
-Wl,--defsym=_ZTv0_n32_N5telux4data13EspFilterImplD0Ev=so_stub_for_libtelux_data
-Wl,--defsym=_ZTv0_n32_N5telux4data13EspFilterImplD1Ev=so_stub_for_libtelux_data
-Wl,--defsym=_ZTv0_n32_N5telux4data13TcpFilterImplD0Ev=so_stub_for_libtelux_data
-Wl,--defsym=_ZTv0_n32_N5telux4data13TcpFilterImplD1Ev=so_stub_for_libtelux_data
-Wl,--defsym=_ZTv0_n32_N5telux4data13UdpFilterImplD0Ev=so_stub_for_libtelux_data
-Wl,--defsym=_ZTv0_n32_N5telux4data13UdpFilterImplD1Ev=so_stub_for_libtelux_data
-Wl,--defsym=_ZTv0_n32_N5telux4data14IcmpFilterImplD0Ev=so_stub_for_libtelux_data
-Wl,--defsym=_ZTv0_n32_N5telux4data14IcmpFilterImplD1Ev=so_stub_for_libtelux_data
-Wl,--defsym=_ZTVN5telux4data12DataCallImplE=so_stub_for_libtelux_data
-Wl,--defsym=_ZTVN5telux4data12IpFilterImplE=so_stub_for_libtelux_data
-Wl,--defsym=_ZTVN5telux4data13EspFilterImplE=so_stub_for_libtelux_data
-Wl,--defsym=_ZTVN5telux4data13TcpFilterImplE=so_stub_for_libtelux_data
-Wl,--defsym=_ZTVN5telux4data13UdpFilterImplE=so_stub_for_libtelux_data
-Wl,--defsym=_ZTVN5telux4data14IcmpFilterImplE=so_stub_for_libtelux_data
-Wl,--defsym=_ZTVN5telux4data16ProfileRetrieverE=so_stub_for_libtelux_data
-Wl,--defsym=_ZTVN5telux4data21DataFilterManagerImplE=so_stub_for_libtelux_data
-Wl,--defsym=_ZTVN5telux4data22DataProfileManagerImplE=so_stub_for_libtelux_data
-Wl,--defsym=_ZTVN5telux4data25DataConnectionManagerImplE=so_stub_for_libtelux_data
-Wl,--defsym=_ZTVN5telux4data3net14NatManagerImplE=so_stub_for_libtelux_data
-Wl,--defsym=_ZTVN5telux4data3net15L2tpManagerImplE=so_stub_for_libtelux_data
-Wl,--defsym=_ZTVN5telux4data3net15VlanManagerImplE=so_stub_for_libtelux_data
-Wl,--defsym=_ZTVN5telux4data3net16SocksManagerImplE=so_stub_for_libtelux_data
-Wl,--defsym=_ZTVN5telux4data3net17BridgeManagerImplE=so_stub_for_libtelux_data
-Wl,--defsym=_ZTVN5telux4data3net17FirewallEntryImplE=so_stub_for_libtelux_data
-Wl,--defsym=_ZTVN5telux4data3net19FirewallManagerImplE=so_stub_for_libtelux_data
-Wl,--defsym=_ZTVN5telux4data9EventInfoINS0_21DsiStatusCallbackDataEEE=so_stub_for_libtelux_data
-Wl,--defsym=_ZTVNSt13__future_base13_State_baseV2E=so_stub_for_libtelux_data
-Wl,--defsym=_ZTVNSt13__future_base21_Async_state_commonV2E=so_stub_for_libtelux_data
-Wl,--defsym=_ZTVNSt13__future_base7_ResultI18dsi_v2x_ind_info_tEE=so_stub_for_libtelux_data
-Wl,--defsym=_ZTVNSt13__future_base7_ResultIbEE=so_stub_for_libtelux_data
-Wl,--defsym=_ZTVNSt13__future_base7_ResultIvEE=so_stub_for_libtelux_data
-Wl,--defsym=_ZTVSt15_Sp_counted_ptrIPN5telux4data9DsiClientELN9__gnu_cxx12_Lock_policyE2EE=so_stub_for_libtelux_data
-Wl,--defsym=_ZTVSt15_Sp_counted_ptrIPN5telux4data9QcmClientELN9__gnu_cxx12_Lock_policyE2EE=so_stub_for_libtelux_data
-Wl,--defsym=_ZTVSt23_Sp_counted_ptr_inplaceI12QCMAP_ClientSaIS0_ELN9__gnu_cxx12_Lock_policyE2EE=so_stub_for_libtelux_data
-Wl,--defsym=_ZTVSt23_Sp_counted_ptr_inplaceIN5telux4data11DataProfileESaIS2_ELN9__gnu_cxx12_Lock_policyE2EE=so_stub_for_libtelux_data
-Wl,--defsym=_ZTVSt23_Sp_counted_ptr_inplaceIN5telux4data12DataCallImplESaIS2_ELN9__gnu_cxx12_Lock_policyE2EE=so_stub_for_libtelux_data
-Wl,--defsym=_ZTVSt23_Sp_counted_ptr_inplaceIN5telux4data12EventHandlerESaIS2_ELN9__gnu_cxx12_Lock_policyE2EE=so_stub_for_libtelux_data
-Wl,--defsym=_ZTVSt23_Sp_counted_ptr_inplaceIN5telux4data13EspFilterImplESaIS2_ELN9__gnu_cxx12_Lock_policyE2EE=so_stub_for_libtelux_data
-Wl,--defsym=_ZTVSt23_Sp_counted_ptr_inplaceIN5telux4data13TcpFilterImplESaIS2_ELN9__gnu_cxx12_Lock_policyE2EE=so_stub_for_libtelux_data
-Wl,--defsym=_ZTVSt23_Sp_counted_ptr_inplaceIN5telux4data13UdpFilterImplESaIS2_ELN9__gnu_cxx12_Lock_policyE2EE=so_stub_for_libtelux_data
-Wl,--defsym=_ZTVSt23_Sp_counted_ptr_inplaceIN5telux4data14IcmpFilterImplESaIS2_ELN9__gnu_cxx12_Lock_policyE2EE=so_stub_for_libtelux_data
-Wl,--defsym=_ZTVSt23_Sp_counted_ptr_inplaceIN5telux4data16ProfileRetrieverESaIS2_ELN9__gnu_cxx12_Lock_policyE2EE=so_stub_for_libtelux_data
-Wl,--defsym=_ZTVSt23_Sp_counted_ptr_inplaceIN5telux4data18DsiEventDispatcherESaIS2_ELN9__gnu_cxx12_Lock_policyE2EE=so_stub_for_libtelux_data
-Wl,--defsym=_ZTVSt23_Sp_counted_ptr_inplaceIN5telux4data21DsiStatusCallbackDataESaIS2_ELN9__gnu_cxx12_Lock_policyE2EE=so_stub_for_libtelux_data
-Wl,--defsym=_ZTVSt23_Sp_counted_ptr_inplaceIN5telux4data22DataProfileManagerImplESaIS2_ELN9__gnu_cxx12_Lock_policyE2EE=so_stub_for_libtelux_data
-Wl,--defsym=_ZTVSt23_Sp_counted_ptr_inplaceIN5telux4data25DataConnectionManagerImplESaIS2_ELN9__gnu_cxx12_Lock_policyE2EE=so_stub_for_libtelux_data
-Wl,--defsym=_ZTVSt23_Sp_counted_ptr_inplaceIN5telux4data3net14NatManagerImplESaIS3_ELN9__gnu_cxx12_Lock_policyE2EE=so_stub_for_libtelux_data
-Wl,--defsym=_ZTVSt23_Sp_counted_ptr_inplaceIN5telux4data3net15L2tpManagerImplESaIS3_ELN9__gnu_cxx12_Lock_policyE2EE=so_stub_for_libtelux_data
-Wl,--defsym=_ZTVSt23_Sp_counted_ptr_inplaceIN5telux4data3net15VlanManagerImplESaIS3_ELN9__gnu_cxx12_Lock_policyE2EE=so_stub_for_libtelux_data
-Wl,--defsym=_ZTVSt23_Sp_counted_ptr_inplaceIN5telux4data3net16SocksManagerImplESaIS3_ELN9__gnu_cxx12_Lock_policyE2EE=so_stub_for_libtelux_data
-Wl,--defsym=_ZTVSt23_Sp_counted_ptr_inplaceIN5telux4data3net17BridgeManagerImplESaIS3_ELN9__gnu_cxx12_Lock_policyE2EE=so_stub_for_libtelux_data
-Wl,--defsym=_ZTVSt23_Sp_counted_ptr_inplaceIN5telux4data3net17FirewallEntryImplESaIS3_ELN9__gnu_cxx12_Lock_policyE2EE=so_stub_for_libtelux_data
-Wl,--defsym=_ZTVSt23_Sp_counted_ptr_inplaceIN5telux4data3net19FirewallManagerImplESaIS3_ELN9__gnu_cxx12_Lock_policyE2EE=so_stub_for_libtelux_data
-Wl,--defsym=_ZTVSt23_Sp_counted_ptr_inplaceIN5telux4data9EventInfoINS1_21DsiStatusCallbackDataEEESaIS4_ELN9__gnu_cxx12_Lock_policyE2EE=so_stub_for_libtelux_data
-Wl,--defsym=_ZTVSt23_Sp_counted_ptr_inplaceIN5telux6common15ListenerManagerINS0_4data23IDataConnectionListenerEEESaIS5_ELN9__gnu_cxx12_Lock_policyE2EE=so_stub_for_libtelux_data
-Wl,--defsym=_ZTVSt23_Sp_counted_ptr_inplaceIN5telux6common15ListenerManagerINS0_4data3net12INatListenerEEESaIS6_ELN9__gnu_cxx12_Lock_policyE2EE=so_stub_for_libtelux_data
-Wl,--defsym=_ZTVSt23_Sp_counted_ptr_inplaceIN5telux6common15ListenerManagerINS0_4data3net13IL2tpListenerEEESaIS6_ELN9__gnu_cxx12_Lock_policyE2EE=so_stub_for_libtelux_data
-Wl,--defsym=_ZTVSt23_Sp_counted_ptr_inplaceIN5telux6common15ListenerManagerINS0_4data3net13IVlanListenerEEESaIS6_ELN9__gnu_cxx12_Lock_policyE2EE=so_stub_for_libtelux_data
-Wl,--defsym=_ZTVSt23_Sp_counted_ptr_inplaceIN5telux6common15ListenerManagerINS0_4data3net14ISocksListenerEEESaIS6_ELN9__gnu_cxx12_Lock_policyE2EE=so_stub_for_libtelux_data
-Wl,--defsym=_ZTVSt23_Sp_counted_ptr_inplaceIN5telux6common15ListenerManagerINS0_4data3net15IBridgeListenerEEESaIS6_ELN9__gnu_cxx12_Lock_policyE2EE=so_stub_for_libtelux_data
-Wl,--defsym=_ZTVSt23_Sp_counted_ptr_inplaceIN5telux6common15ListenerManagerINS0_4data3net17IFirewallListenerEEESaIS6_ELN9__gnu_cxx12_Lock_policyE2EE=so_stub_for_libtelux_data
-Wl,--defsym=_ZTVSt23_Sp_counted_ptr_inplaceINSt13__future_base13_State_baseV2ESaIS1_ELN9__gnu_cxx12_Lock_policyE2EE=so_stub_for_libtelux_data
-Wl,--defsym=_ZTVSt23_Sp_counted_ptr_inplaceISt6threadSaIS0_ELN9__gnu_cxx12_Lock_policyE2EE=so_stub_for_libtelux_data
-Wl,--defsym=_ZZSt9call_onceIMNSt13__future_base13_State_baseV2EFvPSt8functionIFSt10unique_ptrINS0_12_Result_baseENS4_8_DeleterEEvEEPbEJPS1_S9_SA_EEvRSt9once_flagOT_DpOT0_ENKUlvE0_clEv=so_stub_for_libtelux_data
-Wl,--defsym=_ZZSt9call_onceIMNSt13__future_base13_State_baseV2EFvPSt8functionIFSt10unique_ptrINS0_12_Result_baseENS4_8_DeleterEEvEEPbEJPS1_S9_SA_EEvRSt9once_flagOT_DpOT0_ENUlvE0_4_FUNEv=so_stub_for_libtelux_data
-Wl,--defsym=_ZZSt9call_onceIMSt6threadFvvEJPS0_EEvRSt9once_flagOT_DpOT0_ENKUlvE0_clEv=so_stub_for_libtelux_data
-Wl,--defsym=_ZZSt9call_onceIMSt6threadFvvEJPS0_EEvRSt9once_flagOT_DpOT0_ENUlvE0_4_FUNEv=so_stub_for_libtelux_data
