-Wl,--defsym=audio_get_service_object_internal_v01=so_stub_for_libtelux_qmi
-Wl,--defsym=audio_qmi_idl_service_object_v01=so_stub_for_libtelux_qmi
-Wl,--defsym=__gcov_error_file=so_stub_for_libtelux_qmi
-Wl,--defsym=__gcov_master=so_stub_for_libtelux_qmi
-Wl,--defsym=__gcov_sort_n_vals=so_stub_for_libtelux_qmi
-Wl,--defsym=__gcov_var=so_stub_for_libtelux_qmi
-Wl,--defsym=tsens_qmi_service_get_service_object_internal_v01=so_stub_for_libtelux_qmi
-Wl,--defsym=tsens_qmi_service_qmi_idl_service_object_v01=so_stub_for_libtelux_qmi
-Wl,--defsym=_ZN5telux3qmi12DmsQmiClient12errorHandlerEi=so_stub_for_libtelux_qmi
-Wl,--defsym=_ZN5telux3qmi12DmsQmiClient13setBoundStateEb=so_stub_for_libtelux_qmi
-Wl,--defsym=_ZN5telux3qmi12DmsQmiClient15notifierHandlerE28qmi_client_notify_event_type=so_stub_for_libtelux_qmi
-Wl,--defsym=_ZN5telux3qmi12DmsQmiClient17indicationHandlerEP17qmi_client_structjPvjS4_=so_stub_for_libtelux_qmi
-Wl,--defsym=_ZN5telux3qmi12DmsQmiClient18sendSetEventReportEbSt10shared_ptrINS0_26IQmiSetEventReportCallbackEEPv=so_stub_for_libtelux_qmi
-Wl,--defsym=_ZN5telux3qmi12DmsQmiClient20asyncResponseHandlerEjPvjS2_iSt10shared_ptrINS_6common16ICommandCallbackEE=so_stub_for_libtelux_qmi
-Wl,--defsym=_ZN5telux3qmi12DmsQmiClient20sendDmsMsisdnRequestESt10shared_ptrINS0_25IQmiMsisdnRequestCallbackEEPv=so_stub_for_libtelux_qmi
-Wl,--defsym=_ZN5telux3qmi12DmsQmiClient21waitForInitializationEv=so_stub_for_libtelux_qmi
-Wl,--defsym=_ZN5telux3qmi12DmsQmiClient22registerDmsIndicationsESt6bitsetILj7EESt10shared_ptrINS0_33IQmiRegisterDmsIndicationCallbackEEPv=so_stub_for_libtelux_qmi
-Wl,--defsym=_ZN5telux3qmi12DmsQmiClient23bindSubscriptionRequestEiPv=so_stub_for_libtelux_qmi
-Wl,--defsym=_ZN5telux3qmi12DmsQmiClient23handleOperatingModeRespEPvjS2_iSt8weak_ptrINS_6common16ICommandCallbackEE=so_stub_for_libtelux_qmi
-Wl,--defsym=_ZN5telux3qmi12DmsQmiClient24handleSetEventReportRespEPvjS2_iSt8weak_ptrINS_6common16ICommandCallbackEE=so_stub_for_libtelux_qmi
-Wl,--defsym=_ZN5telux3qmi12DmsQmiClient24sendOperatingModeRequestESt10shared_ptrINS0_28IQmiGetOperatingModeCallbackEEPv=so_stub_for_libtelux_qmi
-Wl,--defsym=_ZN5telux3qmi12DmsQmiClient26handleDmsMsisdnRequestRespEPvjS2_iSt8weak_ptrINS_6common16ICommandCallbackEE=so_stub_for_libtelux_qmi
-Wl,--defsym=_ZN5telux3qmi12DmsQmiClient26handleSetOperatingModeRespEPvjS2_iSt8weak_ptrINS_6common16ICommandCallbackEE=so_stub_for_libtelux_qmi
-Wl,--defsym=_ZN5telux3qmi12DmsQmiClient26notifyOperatingModeChangedE27dms_operating_mode_enum_v01=so_stub_for_libtelux_qmi
-Wl,--defsym=_ZN5telux3qmi12DmsQmiClient27sendSetOperatingModeRequestESt10shared_ptrINS0_28IQmiSetOperatingModeCallbackEEiPv=so_stub_for_libtelux_qmi
-Wl,--defsym=_ZN5telux3qmi12DmsQmiClient28handleCellularCapabilityRespEPvjS2_iSt8weak_ptrINS_6common16ICommandCallbackEE=so_stub_for_libtelux_qmi
-Wl,--defsym=_ZN5telux3qmi12DmsQmiClient29handleDmsBindSubscriptionRespEPvjS2_iSt8weak_ptrINS_6common16ICommandCallbackEE=so_stub_for_libtelux_qmi
-Wl,--defsym=_ZN5telux3qmi12DmsQmiClient29sendCellularCapabilityRequestESt10shared_ptrINS0_30IQmiCellularCapabilityCallbackEEPv=so_stub_for_libtelux_qmi
-Wl,--defsym=_ZN5telux3qmi12DmsQmiClient30handleSetEventReportIndicationEP17qmi_client_structPvj=so_stub_for_libtelux_qmi
-Wl,--defsym=_ZN5telux3qmi12DmsQmiClient30sendDeviceActivityStateRequestE27dms_activity_state_type_v01St10shared_ptrINS0_31IQmiDeviceActivityStateCallbackEEPv=so_stub_for_libtelux_qmi
-Wl,--defsym=_ZN5telux3qmi12DmsQmiClient31handleRegisterDmsIndicationRespEPvjS2_iSt8weak_ptrINS_6common16ICommandCallbackEE=so_stub_for_libtelux_qmi
-Wl,--defsym=_ZN5telux3qmi12DmsQmiClient33handleSendDeviceActivityStateRespEPvjS2_iSt8weak_ptrINS_6common16ICommandCallbackEE=so_stub_for_libtelux_qmi
-Wl,--defsym=_ZN5telux3qmi12DmsQmiClient33notifyModemClientReadinessChangedEh=so_stub_for_libtelux_qmi
-Wl,--defsym=_ZN5telux3qmi12DmsQmiClient35handleDeviceActivityStateIndicationEP17qmi_client_structPvj=so_stub_for_libtelux_qmi
-Wl,--defsym=_ZN5telux3qmi12DmsQmiClient4initEP22qmi_idl_service_object=so_stub_for_libtelux_qmi
-Wl,--defsym=_ZN5telux3qmi12DmsQmiClient7isReadyEv=so_stub_for_libtelux_qmi
-Wl,--defsym=_ZN5telux3qmi12DmsQmiClient8initSyncEv=so_stub_for_libtelux_qmi
-Wl,--defsym=_ZN5telux3qmi12DmsQmiClientC1Ei=so_stub_for_libtelux_qmi
-Wl,--defsym=_ZN5telux3qmi12DmsQmiClientC2Ei=so_stub_for_libtelux_qmi
-Wl,--defsym=_ZN5telux3qmi12DmsQmiClientD0Ev=so_stub_for_libtelux_qmi
-Wl,--defsym=_ZN5telux3qmi12DmsQmiClientD1Ev=so_stub_for_libtelux_qmi
-Wl,--defsym=_ZN5telux3qmi12DmsQmiClientD2Ev=so_stub_for_libtelux_qmi
-Wl,--defsym=_ZN5telux3qmi12NasQmiClient11setModePrefEiSt10shared_ptrINS0_40IQmiSetSystemSelectionPreferenceCallbackEEPv=so_stub_for_libtelux_qmi
-Wl,--defsym=_ZN5telux3qmi12NasQmiClient12errorHandlerEi=so_stub_for_libtelux_qmi
-Wl,--defsym=_ZN5telux3qmi12NasQmiClient13setBoundStateEb=so_stub_for_libtelux_qmi
-Wl,--defsym=_ZN5telux3qmi12NasQmiClient14networkScanReqESt10shared_ptrINS0_30IQmiPerformNetworkScanCallbackEEPv=so_stub_for_libtelux_qmi
-Wl,--defsym=_ZN5telux3qmi12NasQmiClient14setPeakTxPowerEaSt10shared_ptrINS0_20IQmiSetPeakTxPowerCbEEPv=so_stub_for_libtelux_qmi
-Wl,--defsym=_ZN5telux3qmi12NasQmiClient15notifierHandlerE28qmi_client_notify_event_type=so_stub_for_libtelux_qmi
-Wl,--defsym=_ZN5telux3qmi12NasQmiClient16notifySystemInfoEP24nas_sys_info_ind_msg_v01=so_stub_for_libtelux_qmi
-Wl,--defsym=_ZN5telux3qmi12NasQmiClient16requestV2xStatusESt10shared_ptrINS0_21IQmiV2xStatusCallbackEEPv=so_stub_for_libtelux_qmi
-Wl,--defsym=_ZN5telux3qmi12NasQmiClient17handleV2xStopRespEPvjS2_iSt8weak_ptrINS_6common16ICommandCallbackEE=so_stub_for_libtelux_qmi
-Wl,--defsym=_ZN5telux3qmi12NasQmiClient17indicationHandlerEP17qmi_client_structjPvjS4_=so_stub_for_libtelux_qmi
-Wl,--defsym=_ZN5telux3qmi12NasQmiClient18handleV2xStartRespEPvjS2_iSt8weak_ptrINS_6common16ICommandCallbackEE=so_stub_for_libtelux_qmi
-Wl,--defsym=_ZN5telux3qmi12NasQmiClient19handleSystemInfoIndEP17qmi_client_structPvj=so_stub_for_libtelux_qmi
-Wl,--defsym=_ZN5telux3qmi12NasQmiClient19handleV2xStatusRespEPvjS2_iSt8weak_ptrINS_6common16ICommandCallbackEE=so_stub_for_libtelux_qmi
-Wl,--defsym=_ZN5telux3qmi12NasQmiClient20asyncResponseHandlerEjPvjS2_iSt10shared_ptrINS_6common16ICommandCallbackEE=so_stub_for_libtelux_qmi
-Wl,--defsym=_ZN5telux3qmi12NasQmiClient20notifyHighCapabilityEP35nas_high_capability_sub_ind_msg_v01=so_stub_for_libtelux_qmi
-Wl,--defsym=_ZN5telux3qmi12NasQmiClient21handleNetworkScanRespEPvjS2_iSt8weak_ptrINS_6common16ICommandCallbackEE=so_stub_for_libtelux_qmi
-Wl,--defsym=_ZN5telux3qmi12NasQmiClient21handlePeakTxPowerRespEPvjS2_iSt8weak_ptrINS_6common16ICommandCallbackEE=so_stub_for_libtelux_qmi
-Wl,--defsym=_ZN5telux3qmi12NasQmiClient21waitForInitializationEv=so_stub_for_libtelux_qmi
-Wl,--defsym=_ZN5telux3qmi12NasQmiClient22handleSelectionModeIndEP17qmi_client_structPvj=so_stub_for_libtelux_qmi
-Wl,--defsym=_ZN5telux3qmi12NasQmiClient22registerForIndicationsESt10shared_ptrINS0_30IQmiNasRegisterForIndsCallbackEEPv=so_stub_for_libtelux_qmi
-Wl,--defsym=_ZN5telux3qmi12NasQmiClient23bindSubscriptionRequestEiPv=so_stub_for_libtelux_qmi
-Wl,--defsym=_ZN5telux3qmi12NasQmiClient23handleGetSystemInfoRespEPvjS2_iSt8weak_ptrINS_6common16ICommandCallbackEE=so_stub_for_libtelux_qmi
-Wl,--defsym=_ZN5telux3qmi12NasQmiClient23handleHighCapabilityIndEP17qmi_client_structPvj=so_stub_for_libtelux_qmi
-Wl,--defsym=_ZN5telux3qmi12NasQmiClient24handleIndicationsRegRespEPvjS2_iSt8weak_ptrINS_6common16ICommandCallbackEE=so_stub_for_libtelux_qmi
-Wl,--defsym=_ZN5telux3qmi12NasQmiClient24handleRegisterForIndRespEPvjS2_iSt8weak_ptrINS_6common16ICommandCallbackEE=so_stub_for_libtelux_qmi
-Wl,--defsym=_ZN5telux3qmi12NasQmiClient24sendGetSystemInfoRequestESt8functionIFvP29nas_get_sys_info_resp_msg_v01PviEES5_=so_stub_for_libtelux_qmi
-Wl,--defsym=_ZN5telux3qmi12NasQmiClient25handleV2xStatusIndicationEP17qmi_client_structPvj=so_stub_for_libtelux_qmi
-Wl,--defsym=_ZN5telux3qmi12NasQmiClient25notifyV2xStatusIndicationERK28nas_v2x_notification_ind_v01=so_stub_for_libtelux_qmi
-Wl,--defsym=_ZN5telux3qmi12NasQmiClient25registerForNasIndicationsESt6bitsetILj16EESt10shared_ptrINS0_34IQmiRegisterNasIndicationsCallbackEEPv=so_stub_for_libtelux_qmi
-Wl,--defsym=_ZN5telux3qmi12NasQmiClient26handleBindSubscriptionRespEPvjS2_iSt8weak_ptrINS_6common16ICommandCallbackEE=so_stub_for_libtelux_qmi
-Wl,--defsym=_ZN5telux3qmi12NasQmiClient27handleGetHighCapabilityRespEPvjS2_iSt8weak_ptrINS_6common16ICommandCallbackEE=so_stub_for_libtelux_qmi
-Wl,--defsym=_ZN5telux3qmi12NasQmiClient27handleSetHighCapabilityRespEPvjS2_iSt8weak_ptrINS_6common16ICommandCallbackEE=so_stub_for_libtelux_qmi
-Wl,--defsym=_ZN5telux3qmi12NasQmiClient30handleGetPreferredNetworksRespEPvjS2_iSt8weak_ptrINS_6common16ICommandCallbackEE=so_stub_for_libtelux_qmi
-Wl,--defsym=_ZN5telux3qmi12NasQmiClient30handleSetPreferredNetworksRespEPvjS2_iSt8weak_ptrINS_6common16ICommandCallbackEE=so_stub_for_libtelux_qmi
-Wl,--defsym=_ZN5telux3qmi12NasQmiClient30sendSetServiceDomainPreferenceERiSt10shared_ptrINS0_40IQmiSetSystemSelectionPreferenceCallbackEEPv=so_stub_for_libtelux_qmi
-Wl,--defsym=_ZN5telux3qmi12NasQmiClient31notifySystemSelectionPreferenceEP43nas_system_selection_preference_ind_msg_v01=so_stub_for_libtelux_qmi
-Wl,--defsym=_ZN5telux3qmi12NasQmiClient31sendGetHighCapabilitySubRequestESt8functionIFvP40nas_get_high_capability_sub_resp_msg_v01PviEES5_=so_stub_for_libtelux_qmi
-Wl,--defsym=_ZN5telux3qmi12NasQmiClient31sendGetPreferredNetworksRequestESt10shared_ptrINS0_32IQmiGetPreferredNetworksCallbackEEPv=so_stub_for_libtelux_qmi
-Wl,--defsym=_ZN5telux3qmi12NasQmiClient31sendSetHighCapabilitySubRequestEiSt8functionIFviPviEES3_=so_stub_for_libtelux_qmi
-Wl,--defsym=_ZN5telux3qmi12NasQmiClient31sendSetPreferredNetworksRequestERSt6vectorINS0_19QmiPreferredNetworkESaIS3_EEbSt10shared_ptrINS0_32IQmiSetPreferredNetworksCallbackEEPv=so_stub_for_libtelux_qmi
-Wl,--defsym=_ZN5telux3qmi12NasQmiClient34sendSetNetworkSelectionModeRequestERNS0_25QmiNetworkSelectionConfigESt10shared_ptrINS0_40IQmiSetSystemSelectionPreferenceCallbackEEPv=so_stub_for_libtelux_qmi
-Wl,--defsym=_ZN5telux3qmi12NasQmiClient38handleGetSystemSelectionPreferenceRespEPvjS2_iSt8weak_ptrINS_6common16ICommandCallbackEE=so_stub_for_libtelux_qmi
-Wl,--defsym=_ZN5telux3qmi12NasQmiClient38handleSetSystemSelectionPreferenceRespEPvjS2_iSt8weak_ptrINS_6common16ICommandCallbackEE=so_stub_for_libtelux_qmi
-Wl,--defsym=_ZN5telux3qmi12NasQmiClient39sendGetSystemSelectionPreferenceRequestESt8functionIFvP48nas_get_system_selection_preference_resp_msg_v01PviEES5_=so_stub_for_libtelux_qmi
-Wl,--defsym=_ZN5telux3qmi12NasQmiClient4initEP22qmi_idl_service_object=so_stub_for_libtelux_qmi
-Wl,--defsym=_ZN5telux3qmi12NasQmiClient7isReadyEv=so_stub_for_libtelux_qmi
-Wl,--defsym=_ZN5telux3qmi12NasQmiClient7v2xStopESt10shared_ptrINS0_19IQmiV2xStopCallbackEEPv=so_stub_for_libtelux_qmi
-Wl,--defsym=_ZN5telux3qmi12NasQmiClient8initSyncEv=so_stub_for_libtelux_qmi
-Wl,--defsym=_ZN5telux3qmi12NasQmiClient8v2xStartESt10shared_ptrINS0_20IQmiV2xStartCallbackEEPv=so_stub_for_libtelux_qmi
-Wl,--defsym=_ZN5telux3qmi12NasQmiClientC1Ei=so_stub_for_libtelux_qmi
-Wl,--defsym=_ZN5telux3qmi12NasQmiClientC2Ei=so_stub_for_libtelux_qmi
-Wl,--defsym=_ZN5telux3qmi12NasQmiClientD0Ev=so_stub_for_libtelux_qmi
-Wl,--defsym=_ZN5telux3qmi12NasQmiClientD1Ev=so_stub_for_libtelux_qmi
-Wl,--defsym=_ZN5telux3qmi12NasQmiClientD2Ev=so_stub_for_libtelux_qmi
-Wl,--defsym=_ZN5telux3qmi12TmdQmiClient11sendRequestIh43tmd_get_mitigation_device_list_resp_msg_v01EENS_6common6StatusEijRPT_RPT0_Pv=so_stub_for_libtelux_qmi
-Wl,--defsym=_ZN5telux3qmi12TmdQmiClient12errorHandlerEi=so_stub_for_libtelux_qmi
-Wl,--defsym=_ZN5telux3qmi12TmdQmiClient15notifierHandlerE28qmi_client_notify_event_type=so_stub_for_libtelux_qmi
-Wl,--defsym=_ZN5telux3qmi12TmdQmiClient16sendAsyncRequestIh43tmd_get_mitigation_device_list_resp_msg_v01JEEENS_6common6StatusEjRPT_RPT0_St10shared_ptrINS4_16ICommandCallbackEEPv=so_stub_for_libtelux_qmi
-Wl,--defsym=_ZN5telux3qmi12TmdQmiClient17indicationHandlerEP17qmi_client_structjPvjS4_=so_stub_for_libtelux_qmi
-Wl,--defsym=_ZN5telux3qmi12TmdQmiClient19mallocAndInitParamsIh43tmd_get_mitigation_device_list_resp_msg_v01EENS_6common6StatusERPT_RPT0_=so_stub_for_libtelux_qmi
-Wl,--defsym=_ZN5telux3qmi12TmdQmiClient20asyncResponseHandlerEjPvjS2_iSt10shared_ptrINS_6common16ICommandCallbackEE=so_stub_for_libtelux_qmi
-Wl,--defsym=_ZN5telux3qmi12TmdQmiClient22sendGetMitigationLevelE30tmd_mitigation_dev_id_type_v01St10shared_ptrINS0_33IQmiTmdGetMitigationLevelCallbackEEPv=so_stub_for_libtelux_qmi
-Wl,--defsym=_ZN5telux3qmi12TmdQmiClient22sendSetMitigationLevelEh30tmd_mitigation_dev_id_type_v01St10shared_ptrINS0_33IQmiTmdSetMitigationLevelCallbackEEPv=so_stub_for_libtelux_qmi
-Wl,--defsym=_ZN5telux3qmi12TmdQmiClient27handleMitigationLevelUpdateEP17qmi_client_structPvj=so_stub_for_libtelux_qmi
-Wl,--defsym=_ZN5telux3qmi12TmdQmiClient27notifyMitigationLevelUpdateEP39tmd_mitigation_level_report_ind_msg_v01=so_stub_for_libtelux_qmi
-Wl,--defsym=_ZN5telux3qmi12TmdQmiClient27sendGetMitigationDeviceListESt10shared_ptrINS0_38IQmiTmdGetMitigationDeviceListCallbackEEPv=so_stub_for_libtelux_qmi
-Wl,--defsym=_ZN5telux3qmi12TmdQmiClient28handleGetMitigationLevelRespEPvjS2_iSt8weak_ptrINS_6common16ICommandCallbackEE=so_stub_for_libtelux_qmi
-Wl,--defsym=_ZN5telux3qmi12TmdQmiClient28handleSetMitigationLevelRespEPvjS2_iSt8weak_ptrINS_6common16ICommandCallbackEE=so_stub_for_libtelux_qmi
-Wl,--defsym=_ZN5telux3qmi12TmdQmiClient33handleGetMitigationDeviceListRespEPvjS2_iSt8weak_ptrINS_6common16ICommandCallbackEE=so_stub_for_libtelux_qmi
-Wl,--defsym=_ZN5telux3qmi12TmdQmiClient39sendRegisterNotificationMitigationLevelE30tmd_mitigation_dev_id_type_v01St10shared_ptrINS0_50IQmiTmdRegisterNotificationMitigationLevelCallbackEEPv=so_stub_for_libtelux_qmi
-Wl,--defsym=_ZN5telux3qmi12TmdQmiClient41handleRegisterNotificationMitigationLevelEPvjS2_iSt8weak_ptrINS_6common16ICommandCallbackEE=so_stub_for_libtelux_qmi
-Wl,--defsym=_ZN5telux3qmi12TmdQmiClient41sendDeregisterNotificationMitigationLevelE30tmd_mitigation_dev_id_type_v01St10shared_ptrINS0_52IQmiTmdDeregisterNotificationMitigationLevelCallbackEEPv=so_stub_for_libtelux_qmi
-Wl,--defsym=_ZN5telux3qmi12TmdQmiClient43handleDeregisterNotificationMitigationLevelEPvjS2_iSt8weak_ptrINS_6common16ICommandCallbackEE=so_stub_for_libtelux_qmi
-Wl,--defsym=_ZN5telux3qmi12TmdQmiClientC1Ev=so_stub_for_libtelux_qmi
-Wl,--defsym=_ZN5telux3qmi12TmdQmiClientC2Ev=so_stub_for_libtelux_qmi
-Wl,--defsym=_ZN5telux3qmi12TmdQmiClientD0Ev=so_stub_for_libtelux_qmi
-Wl,--defsym=_ZN5telux3qmi12TmdQmiClientD1Ev=so_stub_for_libtelux_qmi
-Wl,--defsym=_ZN5telux3qmi12TmdQmiClientD2Ev=so_stub_for_libtelux_qmi
-Wl,--defsym=_ZN5telux3qmi12UimQmiClient12errorHandlerEi=so_stub_for_libtelux_qmi
-Wl,--defsym=_ZN5telux3qmi12UimQmiClient12getSlotCountERi=so_stub_for_libtelux_qmi
-Wl,--defsym=_ZN5telux3qmi12UimQmiClient13handleEidRespEPvjS2_iSt8weak_ptrINS_6common16ICommandCallbackEE=so_stub_for_libtelux_qmi
-Wl,--defsym=_ZN5telux3qmi12UimQmiClient13sendGetEidReqEiSt8functionIFvP24uim_get_eid_resp_msg_v01PviEES5_=so_stub_for_libtelux_qmi
-Wl,--defsym=_ZN5telux3qmi12UimQmiClient14sendAtrRequestEiSt10shared_ptrINS0_22IQmiSapRequestCallbackEEPv=so_stub_for_libtelux_qmi
-Wl,--defsym=_ZN5telux3qmi12UimQmiClient14sendSimRequestEiNS0_14SapRequestTypeESt10shared_ptrINS0_22IQmiSapRequestCallbackEEPv=so_stub_for_libtelux_qmi
-Wl,--defsym=_ZN5telux3qmi12UimQmiClient15notifierHandlerE28qmi_client_notify_event_type=so_stub_for_libtelux_qmi
-Wl,--defsym=_ZN5telux3qmi12UimQmiClient15sendUserConsentE6SlotIdbSt8functionIFvP37uim_profile_user_consent_resp_msg_v01PviEES6_=so_stub_for_libtelux_qmi
-Wl,--defsym=_ZN5telux3qmi12UimQmiClient17indicationHandlerEP17qmi_client_structjPvjS4_=so_stub_for_libtelux_qmi
-Wl,--defsym=_ZN5telux3qmi12UimQmiClient17sendAddProfileReqE6SlotIdRKNSt7__cxx1112basic_stringIcSt11char_traitsIcESaIcEEESA_bSt8functionIFvP28uim_add_profile_resp_msg_v01PviEESE_=so_stub_for_libtelux_qmi
-Wl,--defsym=_ZN5telux3qmi12UimQmiClient17sendDeleteProfileE6SlotIdiSt8functionIFvP31uim_delete_profile_resp_msg_v01PviEES6_=so_stub_for_libtelux_qmi
-Wl,--defsym=_ZN5telux3qmi12UimQmiClient17sendSetProfileReqE6SlotIdibSt8functionIFvP32uim_set_sim_profile_resp_msg_v01PviEES6_=so_stub_for_libtelux_qmi
-Wl,--defsym=_ZN5telux3qmi12UimQmiClient18handleEventRegRespEPvjS2_iSt8weak_ptrINS_6common16ICommandCallbackEE=so_stub_for_libtelux_qmi
-Wl,--defsym=_ZN5telux3qmi12UimQmiClient19handleAddProfileIndEP17qmi_client_structPvj=so_stub_for_libtelux_qmi
-Wl,--defsym=_ZN5telux3qmi12UimQmiClient19notifyAddProfileIndERK27uim_add_profile_ind_msg_v01=so_stub_for_libtelux_qmi
-Wl,--defsym=_ZN5telux3qmi12UimQmiClient19sendSapStateRequestENS0_19SapConnectOperationERii=so_stub_for_libtelux_qmi
-Wl,--defsym=_ZN5telux3qmi12UimQmiClient20asyncResponseHandlerEjPvjS2_iSt10shared_ptrINS_6common16ICommandCallbackEE=so_stub_for_libtelux_qmi
-Wl,--defsym=_ZN5telux3qmi12UimQmiClient20handleAddProfileRespEPvjS2_iSt8weak_ptrINS_6common16ICommandCallbackEE=so_stub_for_libtelux_qmi
-Wl,--defsym=_ZN5telux3qmi12UimQmiClient20handleSapRequestRespEPvjS2_iSt8weak_ptrINS_6common16ICommandCallbackEE=so_stub_for_libtelux_qmi
-Wl,--defsym=_ZN5telux3qmi12UimQmiClient20handleSetProfileRespEPvjS2_iSt8weak_ptrINS_6common16ICommandCallbackEE=so_stub_for_libtelux_qmi
-Wl,--defsym=_ZN5telux3qmi12UimQmiClient20handleSwitchSlotRespEPvjS2_iSt8weak_ptrINS_6common16ICommandCallbackEE=so_stub_for_libtelux_qmi
-Wl,--defsym=_ZN5telux3qmi12UimQmiClient21handleUserConsentRespEPvjS2_iSt8weak_ptrINS_6common16ICommandCallbackEE=so_stub_for_libtelux_qmi
-Wl,--defsym=_ZN5telux3qmi12UimQmiClient21sendGetProfileInfoReqE6SlotIdiSt8functionIFvP33uim_get_profile_info_resp_msg_v01PviEES6_=so_stub_for_libtelux_qmi
-Wl,--defsym=_ZN5telux3qmi12UimQmiClient21sendUpdateNickNameReqE6SlotIdiRKNSt7__cxx1112basic_stringIcSt11char_traitsIcESaIcEEESt8functionIFvP40uim_update_profile_nickname_resp_msg_v01PviEESE_=so_stub_for_libtelux_qmi
-Wl,--defsym=_ZN5telux3qmi12UimQmiClient23handleDeleteProfileRespEPvjS2_iSt8weak_ptrINS_6common16ICommandCallbackEE=so_stub_for_libtelux_qmi
-Wl,--defsym=_ZN5telux3qmi12UimQmiClient23handleGetSlotStatusRespEPvjS2_iSt8weak_ptrINS_6common16ICommandCallbackEE=so_stub_for_libtelux_qmi
-Wl,--defsym=_ZN5telux3qmi12UimQmiClient23handleSapConnectionRespEPvjS2_iSt8weak_ptrINS_6common16ICommandCallbackEE=so_stub_for_libtelux_qmi
-Wl,--defsym=_ZN5telux3qmi12UimQmiClient23sendTransmitApduRequestEiSt6vectorIhSaIhEESt10shared_ptrINS0_22IQmiSapRequestCallbackEEPv=so_stub_for_libtelux_qmi
-Wl,--defsym=_ZN5telux3qmi12UimQmiClient24handleGetProfileInfoRespEPvjS2_iSt8weak_ptrINS_6common16ICommandCallbackEE=so_stub_for_libtelux_qmi
-Wl,--defsym=_ZN5telux3qmi12UimQmiClient24handleUpdateNickNameRespEPvjS2_iSt8weak_ptrINS_6common16ICommandCallbackEE=so_stub_for_libtelux_qmi
-Wl,--defsym=_ZN5telux3qmi12UimQmiClient24sendGetSimProfileListReqE6SlotIdSt8functionIFvP32uim_get_sim_profile_resp_msg_v01PviEES6_=so_stub_for_libtelux_qmi
-Wl,--defsym=_ZN5telux3qmi12UimQmiClient24sendGetSlotStatusRequestESt8functionIFvP33uim_get_slots_status_resp_msg_v01PviEES5_=so_stub_for_libtelux_qmi
-Wl,--defsym=_ZN5telux3qmi12UimQmiClient25registerForUimIndicationsESt6bitsetILj16EESt8functionIFviiEE=so_stub_for_libtelux_qmi
-Wl,--defsym=_ZN5telux3qmi12UimQmiClient26handleSlotStatusIndicationEP17qmi_client_structPvj=so_stub_for_libtelux_qmi
-Wl,--defsym=_ZN5telux3qmi12UimQmiClient26sendReadTransparentRequestESt10shared_ptrINS0_34IQmiReadTransparentRequestCallbackEEii=so_stub_for_libtelux_qmi
-Wl,--defsym=_ZN5telux3qmi12UimQmiClient27handleGetSimProfileListRespEPvjS2_iSt8weak_ptrINS_6common16ICommandCallbackEE=so_stub_for_libtelux_qmi
-Wl,--defsym=_ZN5telux3qmi12UimQmiClient27sendSwitchActiveSlotRequestE6SlotIdSt8functionIFviPviEES4_=so_stub_for_libtelux_qmi
-Wl,--defsym=_ZN5telux3qmi12UimQmiClient28sendSapOpenConnectionRequestEiiSt10shared_ptrINS0_25IQmiSapConnectionCallbackEEPv=so_stub_for_libtelux_qmi
-Wl,--defsym=_ZN5telux3qmi12UimQmiClient29sendSapCloseConnectionRequestEiSt10shared_ptrINS0_25IQmiSapConnectionCallbackEEPv=so_stub_for_libtelux_qmi
-Wl,--defsym=_ZN5telux3qmi12UimQmiClient30sendSapConnectionStatusRequestEiSt10shared_ptrINS0_25IQmiSapConnectionCallbackEEPv=so_stub_for_libtelux_qmi
-Wl,--defsym=_ZN5telux3qmi12UimQmiClient32handleReadTransparentRequestRespEPvjS2_iSt8weak_ptrINS_6common16ICommandCallbackEE=so_stub_for_libtelux_qmi
-Wl,--defsym=_ZN5telux3qmi12UimQmiClientC1Ev=so_stub_for_libtelux_qmi
-Wl,--defsym=_ZN5telux3qmi12UimQmiClientC2Ev=so_stub_for_libtelux_qmi
-Wl,--defsym=_ZN5telux3qmi12UimQmiClientD0Ev=so_stub_for_libtelux_qmi
-Wl,--defsym=_ZN5telux3qmi12UimQmiClientD1Ev=so_stub_for_libtelux_qmi
-Wl,--defsym=_ZN5telux3qmi12UimQmiClientD2Ev=so_stub_for_libtelux_qmi
-Wl,--defsym=_ZN5telux3qmi12WdsQmiClient12errorHandlerEi=so_stub_for_libtelux_qmi
-Wl,--defsym=_ZN5telux3qmi12WdsQmiClient12getModemPortEv=so_stub_for_libtelux_qmi
-Wl,--defsym=_ZN5telux3qmi12WdsQmiClient13isInterfaceUpENSt7__cxx1112basic_stringIcSt11char_traitsIcESaIcEEE=so_stub_for_libtelux_qmi
-Wl,--defsym=_ZN5telux3qmi12WdsQmiClient13setBoundStateEb=so_stub_for_libtelux_qmi
-Wl,--defsym=_ZN5telux3qmi12WdsQmiClient13v2xSpsFlowRegER32wds_v2x_sps_flow_reg_req_msg_v01St10shared_ptrINS0_27IQmiCommandResponseCallbackEEPv=so_stub_for_libtelux_qmi
-Wl,--defsym=_ZN5telux3qmi12WdsQmiClient15bindMuxDataPortEhSt10shared_ptrINS0_27IQmiCommandResponseCallbackEEPv=so_stub_for_libtelux_qmi
-Wl,--defsym=_ZN5telux3qmi12WdsQmiClient15notifierHandlerE28qmi_client_notify_event_type=so_stub_for_libtelux_qmi
-Wl,--defsym=_ZN5telux3qmi12WdsQmiClient15v2xSpsFlowDeregEjhSt10shared_ptrINS0_27IQmiCommandResponseCallbackEEPv=so_stub_for_libtelux_qmi
-Wl,--defsym=_ZN5telux3qmi12WdsQmiClient16bindSubscriptionE30wds_bind_subscription_enum_v01St10shared_ptrINS0_27IQmiCommandResponseCallbackEEPv=so_stub_for_libtelux_qmi
-Wl,--defsym=_ZN5telux3qmi12WdsQmiClient16createProfileReqER30wds_create_profile_req_msg_v01RKNS0_16QmiProfileParamsE=so_stub_for_libtelux_qmi
-Wl,--defsym=_ZN5telux3qmi12WdsQmiClient16v2xGetConfigFileESt10shared_ptrINS_6common16ICommandCallbackEEPv=so_stub_for_libtelux_qmi
-Wl,--defsym=_ZN5telux3qmi12WdsQmiClient16v2xNonSpsFlowRegER36wds_v2x_non_sps_flow_reg_req_msg_v01St10shared_ptrINS0_27IQmiCommandResponseCallbackEEPv=so_stub_for_libtelux_qmi
-Wl,--defsym=_ZN5telux3qmi12WdsQmiClient16v2xSpsFlowUpdateER35wds_v2x_sps_flow_update_req_msg_v01St10shared_ptrINS0_27IQmiCommandResponseCallbackEEPv=so_stub_for_libtelux_qmi
-Wl,--defsym=_ZN5telux3qmi12WdsQmiClient17indicationHandlerEP17qmi_client_structjPvjS4_=so_stub_for_libtelux_qmi
-Wl,--defsym=_ZN5telux3qmi12WdsQmiClient17initClientByIfaceEP22qmi_idl_service_objectNSt7__cxx1112basic_stringIcSt11char_traitsIcESaIcEEEi=so_stub_for_libtelux_qmi
-Wl,--defsym=_ZN5telux3qmi12WdsQmiClient17setClientIpFamilyE22wds_ip_family_enum_v01St10shared_ptrINS0_27IQmiCommandResponseCallbackEEPv=so_stub_for_libtelux_qmi
-Wl,--defsym=_ZN5telux3qmi12WdsQmiClient17v2xSendConfigFileEjjtjPcSt10shared_ptrINS0_27IQmiCommandResponseCallbackEEPv=so_stub_for_libtelux_qmi
-Wl,--defsym=_ZN5telux3qmi12WdsQmiClient17v2xServiceListSubEbjtSt10shared_ptrISt6vectorIjSaIjEEES2_INS_6common16ICommandCallbackEEPv=so_stub_for_libtelux_qmi
-Wl,--defsym=_ZN5telux3qmi12WdsQmiClient18notifyV2xConfigIndERK31wds_v2x_config_file_ind_msg_v01=so_stub_for_libtelux_qmi
-Wl,--defsym=_ZN5telux3qmi12WdsQmiClient18v2xNonSpsFlowDeregER38wds_v2x_non_sps_flow_dereg_req_msg_v01St10shared_ptrINS0_27IQmiCommandResponseCallbackEEPv=so_stub_for_libtelux_qmi
-Wl,--defsym=_ZN5telux3qmi12WdsQmiClient18v2xUpdateSrcL2InfoEjSt10shared_ptrINS0_27IQmiCommandResponseCallbackEEPv=so_stub_for_libtelux_qmi
-Wl,--defsym=_ZN5telux3qmi12WdsQmiClient18waitForInterfaceUpENSt7__cxx1112basic_stringIcSt11char_traitsIcESaIcEEEjj=so_stub_for_libtelux_qmi
-Wl,--defsym=_ZN5telux3qmi12WdsQmiClient20asyncResponseHandlerEjPvjS2_iSt10shared_ptrINS_6common16ICommandCallbackEE=so_stub_for_libtelux_qmi
-Wl,--defsym=_ZN5telux3qmi12WdsQmiClient21notifyV2xSrcL2InfoIndERK31wds_v2x_src_l2_info_ind_msg_v01=so_stub_for_libtelux_qmi
-Wl,--defsym=_ZN5telux3qmi12WdsQmiClient21requestV2xSpsFlowInfoEjhSt10shared_ptrINS0_29IQmiWdsV2xSpsFlowInfoCallbackEEPv=so_stub_for_libtelux_qmi
-Wl,--defsym=_ZN5telux3qmi12WdsQmiClient21v2xSendTunnelModeInfoER36wds_v2x_tunnel_mode_info_req_msg_v01St10shared_ptrINS0_27IQmiCommandResponseCallbackEEPv=so_stub_for_libtelux_qmi
-Wl,--defsym=_ZN5telux3qmi12WdsQmiClient21waitForInitializationEv=so_stub_for_libtelux_qmi
-Wl,--defsym=_ZN5telux3qmi12WdsQmiClient22notifyPktSrvcStatusIndERK31wds_pkt_srvc_status_ind_msg_v01=so_stub_for_libtelux_qmi
-Wl,--defsym=_ZN5telux3qmi12WdsQmiClient22registerForIndicationsESt10shared_ptrINS0_27IQmiCommandResponseCallbackEEPv=so_stub_for_libtelux_qmi
-Wl,--defsym=_ZN5telux3qmi12WdsQmiClient22requestRuntimeSettingsESt10shared_ptrINS0_30IQmiWdsRuntimeSettingsCallbackEEPv=so_stub_for_libtelux_qmi
-Wl,--defsym=_ZN5telux3qmi12WdsQmiClient23handleCreateProfileRespEPvjS2_iSt8weak_ptrINS_6common16ICommandCallbackEE=so_stub_for_libtelux_qmi
-Wl,--defsym=_ZN5telux3qmi12WdsQmiClient23handleDeleteProfileRespEPvjS2_iSt8weak_ptrINS_6common16ICommandCallbackEE=so_stub_for_libtelux_qmi
-Wl,--defsym=_ZN5telux3qmi12WdsQmiClient23handleModifyProfileRespEPvjS2_iSt8weak_ptrINS_6common16ICommandCallbackEE=so_stub_for_libtelux_qmi
-Wl,--defsym=_ZN5telux3qmi12WdsQmiClient23handleV2xSpsFlowRegRespEPvjS2_iSt8weak_ptrINS_6common16ICommandCallbackEE=so_stub_for_libtelux_qmi
-Wl,--defsym=_ZN5telux3qmi12WdsQmiClient23v2xServiceListSubscribeEjtSt10shared_ptrISt6vectorIjSaIjEEES2_INS0_27IQmiCommandResponseCallbackEEPv=so_stub_for_libtelux_qmi
-Wl,--defsym=_ZN5telux3qmi12WdsQmiClient24handleGetProfileListRespEPvjS2_iSt8weak_ptrINS_6common16ICommandCallbackEE=so_stub_for_libtelux_qmi
-Wl,--defsym=_ZN5telux3qmi12WdsQmiClient24handleIndicationsRegRespEPvjS2_iSt8weak_ptrINS_6common16ICommandCallbackEE=so_stub_for_libtelux_qmi
-Wl,--defsym=_ZN5telux3qmi12WdsQmiClient24handleV2xServiceListRespEPvjS2_iSt8weak_ptrINS_6common16ICommandCallbackEE=so_stub_for_libtelux_qmi
-Wl,--defsym=_ZN5telux3qmi12WdsQmiClient24handleV2xSpsFlowInfoRespEPvjS2_iSt8weak_ptrINS_6common16ICommandCallbackEE=so_stub_for_libtelux_qmi
-Wl,--defsym=_ZN5telux3qmi12WdsQmiClient24notifyProfileChangeEventEP31wds_profile_changed_ind_msg_v01=so_stub_for_libtelux_qmi
-Wl,--defsym=_ZN5telux3qmi12WdsQmiClient24notifyV2xConfigChangeIndERK34wds_v2x_config_changed_ind_msg_v01=so_stub_for_libtelux_qmi
-Wl,--defsym=_ZN5telux3qmi12WdsQmiClient24requestV2xCapabilityInfoESt10shared_ptrINS0_27IQmiCommandResponseCallbackEEPv=so_stub_for_libtelux_qmi
-Wl,--defsym=_ZN5telux3qmi12WdsQmiClient24sendCreateProfileRequestERKNS0_16QmiProfileParamsESt10shared_ptrINS0_28IQmiWdsCreateProfileCallbackEEPv=so_stub_for_libtelux_qmi
-Wl,--defsym=_ZN5telux3qmi12WdsQmiClient24sendDeleteProfileRequestEihSt10shared_ptrINS0_27IQmiCommandResponseCallbackEEPv=so_stub_for_libtelux_qmi
-Wl,--defsym=_ZN5telux3qmi12WdsQmiClient24sendModifyProfileRequestEiRKNS0_16QmiProfileParamsESt10shared_ptrINS0_27IQmiCommandResponseCallbackEEPv=so_stub_for_libtelux_qmi
-Wl,--defsym=_ZN5telux3qmi12WdsQmiClient25handleBindMuxDataPortRespEPvjS2_iSt8weak_ptrINS_6common16ICommandCallbackEE=so_stub_for_libtelux_qmi
-Wl,--defsym=_ZN5telux3qmi12WdsQmiClient25handleV2xSpsFlowDeregRespEPvjS2_iSt8weak_ptrINS_6common16ICommandCallbackEE=so_stub_for_libtelux_qmi
-Wl,--defsym=_ZN5telux3qmi12WdsQmiClient25sendGetProfileListRequestEiSt10shared_ptrINS0_29IQmiWdsGetProfileListCallbackEEPv=so_stub_for_libtelux_qmi
-Wl,--defsym=_ZN5telux3qmi12WdsQmiClient25v2xServiceListUnsubscribeEjSt10shared_ptrISt6vectorIjSaIjEEES2_INS0_27IQmiCommandResponseCallbackEEPv=so_stub_for_libtelux_qmi
-Wl,--defsym=_ZN5telux3qmi12WdsQmiClient26handleBindSubscriptionRespEPvjS2_iSt8weak_ptrINS_6common16ICommandCallbackEE=so_stub_for_libtelux_qmi
-Wl,--defsym=_ZN5telux3qmi12WdsQmiClient26handleV2xGetConfigFileRespEPvjS2_iSt8weak_ptrINS_6common16ICommandCallbackEE=so_stub_for_libtelux_qmi
-Wl,--defsym=_ZN5telux3qmi12WdsQmiClient26handleV2xNonSpsFlowRegRespEPvjS2_iSt8weak_ptrINS_6common16ICommandCallbackEE=so_stub_for_libtelux_qmi
-Wl,--defsym=_ZN5telux3qmi12WdsQmiClient26handleV2xSpsFlowUpdateRespEPvjS2_iSt8weak_ptrINS_6common16ICommandCallbackEE=so_stub_for_libtelux_qmi
-Wl,--defsym=_ZN5telux3qmi12WdsQmiClient26notifyV2xCapabilityInfoIndERK35wds_v2x_capability_info_ind_msg_v01=so_stub_for_libtelux_qmi
-Wl,--defsym=_ZN5telux3qmi12WdsQmiClient26notifyV2xSendConfigFileIndERK43wds_v2x_send_config_file_result_ind_msg_v01=so_stub_for_libtelux_qmi
-Wl,--defsym=_ZN5telux3qmi12WdsQmiClient27handleConfigureProfilesRespEPvjS2_iSt8weak_ptrINS_6common16ICommandCallbackEE=so_stub_for_libtelux_qmi
-Wl,--defsym=_ZN5telux3qmi12WdsQmiClient27handleSetClientIpFamilyRespEPvjS2_iSt8weak_ptrINS_6common16ICommandCallbackEE=so_stub_for_libtelux_qmi
-Wl,--defsym=_ZN5telux3qmi12WdsQmiClient27handleV2xCapabilityInfoRespEPvjS2_iSt8weak_ptrINS_6common16ICommandCallbackEE=so_stub_for_libtelux_qmi
-Wl,--defsym=_ZN5telux3qmi12WdsQmiClient27handleV2xSendConfigFileRespEPvjS2_iSt8weak_ptrINS_6common16ICommandCallbackEE=so_stub_for_libtelux_qmi
-Wl,--defsym=_ZN5telux3qmi12WdsQmiClient27registerV2xConfigIndicationESt10shared_ptrINS0_27IQmiCommandResponseCallbackEEPv=so_stub_for_libtelux_qmi
-Wl,--defsym=_ZN5telux3qmi12WdsQmiClient28handleGetProfileSettingsRespEPvjS2_iSt8weak_ptrINS_6common16ICommandCallbackEE=so_stub_for_libtelux_qmi
-Wl,--defsym=_ZN5telux3qmi12WdsQmiClient28handleGetRuntimeSettingsRespEPvjS2_iSt8weak_ptrINS_6common16ICommandCallbackEE=so_stub_for_libtelux_qmi
-Wl,--defsym=_ZN5telux3qmi12WdsQmiClient28handleV2xNonSpsFlowDeregRespEPvjS2_iSt8weak_ptrINS_6common16ICommandCallbackEE=so_stub_for_libtelux_qmi
-Wl,--defsym=_ZN5telux3qmi12WdsQmiClient28handleV2xSrcL2InfoIndicationEP17qmi_client_structPvj=so_stub_for_libtelux_qmi
-Wl,--defsym=_ZN5telux3qmi12WdsQmiClient28handleV2xUpdateSrcL2InfoRespEPvjS2_iSt8weak_ptrINS_6common16ICommandCallbackEE=so_stub_for_libtelux_qmi
-Wl,--defsym=_ZN5telux3qmi12WdsQmiClient28notifyV2xSpsFlowRegResultIndERK39wds_v2x_sps_flow_reg_result_ind_msg_v01=so_stub_for_libtelux_qmi
-Wl,--defsym=_ZN5telux3qmi12WdsQmiClient29handlePktSrvcStatusIndicationEP17qmi_client_structPvj=so_stub_for_libtelux_qmi
-Wl,--defsym=_ZN5telux3qmi12WdsQmiClient29handleV2xConfigFileIndicationEP17qmi_client_structPvj=so_stub_for_libtelux_qmi
-Wl,--defsym=_ZN5telux3qmi12WdsQmiClient29notifyV2xSpsSchedulingInfoIndERK39wds_v2x_sps_scheduling_info_ind_msg_v01=so_stub_for_libtelux_qmi
-Wl,--defsym=_ZN5telux3qmi12WdsQmiClient29sendGetProfileSettingsRequestEihSt10shared_ptrINS0_33IQmiWdsGetProfileSettingsCallbackEEPv=so_stub_for_libtelux_qmi
-Wl,--defsym=_ZN5telux3qmi12WdsQmiClient30configureProfilesForIndicationESt10shared_ptrINS0_27IQmiCommandResponseCallbackEEPv=so_stub_for_libtelux_qmi
-Wl,--defsym=_ZN5telux3qmi12WdsQmiClient30notifyV2xSpsFlowDeregResultIndERK41wds_v2x_sps_flow_dereg_result_ind_msg_v01=so_stub_for_libtelux_qmi
-Wl,--defsym=_ZN5telux3qmi12WdsQmiClient31handleV2xSendTunnelModeInfoRespEPvjS2_iSt8weak_ptrINS_6common16ICommandCallbackEE=so_stub_for_libtelux_qmi
-Wl,--defsym=_ZN5telux3qmi12WdsQmiClient31notifyV2xSpsFlowUpdateResultIndERK42wds_v2x_sps_flow_update_result_ind_msg_v01=so_stub_for_libtelux_qmi
-Wl,--defsym=_ZN5telux3qmi12WdsQmiClient31registerProfileChangeIndicationESt10shared_ptrINS0_27IQmiCommandResponseCallbackEEPv=so_stub_for_libtelux_qmi
-Wl,--defsym=_ZN5telux3qmi12WdsQmiClient32deconfigureProfilesForIndicationESt10shared_ptrINS0_27IQmiCommandResponseCallbackEEPv=so_stub_for_libtelux_qmi
-Wl,--defsym=_ZN5telux3qmi12WdsQmiClient32handleV2xConfigChangedIndicationEP17qmi_client_structPvj=so_stub_for_libtelux_qmi
-Wl,--defsym=_ZN5telux3qmi12WdsQmiClient33handleV2xCapabilityInfoIndicationEP17qmi_client_structPvj=so_stub_for_libtelux_qmi
-Wl,--defsym=_ZN5telux3qmi12WdsQmiClient33requestV2xServiceSubscriptionInfoEjSt10shared_ptrINS0_27IQmiCommandResponseCallbackEEPv=so_stub_for_libtelux_qmi
-Wl,--defsym=_ZN5telux3qmi12WdsQmiClient34notifyV2xServiceSubscribeResultIndERK44wds_v2x_service_subscribe_result_ind_msg_v01=so_stub_for_libtelux_qmi
-Wl,--defsym=_ZN5telux3qmi12WdsQmiClient35handleV2xSpsFlowRegResultIndicationEP17qmi_client_structPvj=so_stub_for_libtelux_qmi
-Wl,--defsym=_ZN5telux3qmi12WdsQmiClient36createProfileSettingsFromQmiResponseEP37wds_get_profile_settings_resp_msg_v01ihRNS0_19ProfileSettingsRespE=so_stub_for_libtelux_qmi
-Wl,--defsym=_ZN5telux3qmi12WdsQmiClient36handleProfileEventRegisterIndicationEP17qmi_client_structPvj=so_stub_for_libtelux_qmi
-Wl,--defsym=_ZN5telux3qmi12WdsQmiClient36handleV2xServiceSubscriptionInfoRespEPvjS2_iSt8weak_ptrINS_6common16ICommandCallbackEE=so_stub_for_libtelux_qmi
-Wl,--defsym=_ZN5telux3qmi12WdsQmiClient36handleV2xSpsSchedulingInfoIndicationEP17qmi_client_structPvj=so_stub_for_libtelux_qmi
-Wl,--defsym=_ZN5telux3qmi12WdsQmiClient37handleV2xSpsFlowDeregResultIndicationEP17qmi_client_structPvj=so_stub_for_libtelux_qmi
-Wl,--defsym=_ZN5telux3qmi12WdsQmiClient38handleV2xSpsFlowUpdateResultIndicationEP17qmi_client_structPvj=so_stub_for_libtelux_qmi
-Wl,--defsym=_ZN5telux3qmi12WdsQmiClient39handleV2xSendConfigFileResultIndicationEP17qmi_client_structPvj=so_stub_for_libtelux_qmi
-Wl,--defsym=_ZN5telux3qmi12WdsQmiClient41handleV2xServiceSubscribeResultIndicationEP17qmi_client_structPvj=so_stub_for_libtelux_qmi
-Wl,--defsym=_ZN5telux3qmi12WdsQmiClient7initMapEv=so_stub_for_libtelux_qmi
-Wl,--defsym=_ZN5telux3qmi12WdsQmiClient7isReadyEv=so_stub_for_libtelux_qmi
-Wl,--defsym=_ZN5telux3qmi12WdsQmiClient8initSyncEv=so_stub_for_libtelux_qmi
-Wl,--defsym=_ZN5telux3qmi12WdsQmiClientC1E6SlotId=so_stub_for_libtelux_qmi
-Wl,--defsym=_ZN5telux3qmi12WdsQmiClientC2E6SlotId=so_stub_for_libtelux_qmi
-Wl,--defsym=_ZN5telux3qmi12WdsQmiClientD0Ev=so_stub_for_libtelux_qmi
-Wl,--defsym=_ZN5telux3qmi12WdsQmiClientD1Ev=so_stub_for_libtelux_qmi
-Wl,--defsym=_ZN5telux3qmi12WdsQmiClientD2Ev=so_stub_for_libtelux_qmi
-Wl,--defsym=_ZN5telux3qmi12WmsQmiClient12errorHandlerEi=so_stub_for_libtelux_qmi
-Wl,--defsym=_ZN5telux3qmi12WmsQmiClient13setBoundStateEb=so_stub_for_libtelux_qmi
-Wl,--defsym=_ZN5telux3qmi12WmsQmiClient15notifierHandlerE28qmi_client_notify_event_type=so_stub_for_libtelux_qmi
-Wl,--defsym=_ZN5telux3qmi12WmsQmiClient17indicationHandlerEP17qmi_client_structjPvjS4_=so_stub_for_libtelux_qmi
-Wl,--defsym=_ZN5telux3qmi12WmsQmiClient17notifyEventReportEP28wms_event_report_ind_msg_v01=so_stub_for_libtelux_qmi
-Wl,--defsym=_ZN5telux3qmi12WmsQmiClient20asyncResponseHandlerEjPvjS2_iSt10shared_ptrINS_6common16ICommandCallbackEE=so_stub_for_libtelux_qmi
-Wl,--defsym=_ZN5telux3qmi12WmsQmiClient20handleEventReportIndEP17qmi_client_structPvj=so_stub_for_libtelux_qmi
-Wl,--defsym=_ZN5telux3qmi12WmsQmiClient21notifyBroadcastConfigEP32wms_broadcast_config_ind_msg_v01=so_stub_for_libtelux_qmi
-Wl,--defsym=_ZN5telux3qmi12WmsQmiClient21waitForInitializationEv=so_stub_for_libtelux_qmi
-Wl,--defsym=_ZN5telux3qmi12WmsQmiClient22registerForIndicationsESt6bitsetILj16EESt8functionIFvP36wms_indication_register_resp_msg_v01PviEES7_=so_stub_for_libtelux_qmi
-Wl,--defsym=_ZN5telux3qmi12WmsQmiClient23bindSubscriptionRequestEiPv=so_stub_for_libtelux_qmi
-Wl,--defsym=_ZN5telux3qmi12WmsQmiClient24handleBroadcastConfigIndEP17qmi_client_structPvj=so_stub_for_libtelux_qmi
-Wl,--defsym=_ZN5telux3qmi12WmsQmiClient24handleIndicationsRegRespEPvjS2_iSt8weak_ptrINS_6common16ICommandCallbackEE=so_stub_for_libtelux_qmi
-Wl,--defsym=_ZN5telux3qmi12WmsQmiClient24handleSetEventReportRespEPvjS2_iSt8weak_ptrINS_6common16ICommandCallbackEE=so_stub_for_libtelux_qmi
-Wl,--defsym=_ZN5telux3qmi12WmsQmiClient25sendSetEventReportRequestESt6bitsetILj16EESt8functionIFvP33wms_set_event_report_resp_msg_v01PviEES7_=so_stub_for_libtelux_qmi
-Wl,--defsym=_ZN5telux3qmi12WmsQmiClient26handleBindSubscriptionRespEPvjS2_iSt8weak_ptrINS_6common16ICommandCallbackEE=so_stub_for_libtelux_qmi
-Wl,--defsym=_ZN5telux3qmi12WmsQmiClient27handlSetBroadcastConfigRespEPvjS2_iSt8weak_ptrINS_6common16ICommandCallbackEE=so_stub_for_libtelux_qmi
-Wl,--defsym=_ZN5telux3qmi12WmsQmiClient28handleGetBroadcastConfigRespEPvjS2_iSt8weak_ptrINS_6common16ICommandCallbackEE=so_stub_for_libtelux_qmi
-Wl,--defsym=_ZN5telux3qmi12WmsQmiClient29sendGetBroadcastConfigRequestESt8functionIFvP37wms_get_broadcast_config_resp_msg_v01PviEES5_=so_stub_for_libtelux_qmi
-Wl,--defsym=_ZN5telux3qmi12WmsQmiClient29sendSetBroadcastConfigRequestESt6vectorINS_3tel19CellBroadcastFilterESaIS4_EESt8functionIFvP37wms_set_broadcast_config_resp_msg_v01PviEESA_=so_stub_for_libtelux_qmi
-Wl,--defsym=_ZN5telux3qmi12WmsQmiClient32handleSetBroadcastActivationRespEPvjS2_iSt8weak_ptrINS_6common16ICommandCallbackEE=so_stub_for_libtelux_qmi
-Wl,--defsym=_ZN5telux3qmi12WmsQmiClient33sendSetBroadcastActivationRequestEbbSt8functionIFvP41wms_set_broadcast_activation_resp_msg_v01PviEES5_=so_stub_for_libtelux_qmi
-Wl,--defsym=_ZN5telux3qmi12WmsQmiClient4initEP22qmi_idl_service_object=so_stub_for_libtelux_qmi
-Wl,--defsym=_ZN5telux3qmi12WmsQmiClient7isReadyEv=so_stub_for_libtelux_qmi
-Wl,--defsym=_ZN5telux3qmi12WmsQmiClient8initSyncEv=so_stub_for_libtelux_qmi
-Wl,--defsym=_ZN5telux3qmi12WmsQmiClientC1Ei=so_stub_for_libtelux_qmi
-Wl,--defsym=_ZN5telux3qmi12WmsQmiClientC2Ei=so_stub_for_libtelux_qmi
-Wl,--defsym=_ZN5telux3qmi12WmsQmiClientD0Ev=so_stub_for_libtelux_qmi
-Wl,--defsym=_ZN5telux3qmi12WmsQmiClientD1Ev=so_stub_for_libtelux_qmi
-Wl,--defsym=_ZN5telux3qmi12WmsQmiClientD2Ev=so_stub_for_libtelux_qmi
-Wl,--defsym=_ZN5telux3qmi14AudioQmiClient12errorHandlerEi=so_stub_for_libtelux_qmi
-Wl,--defsym=_ZN5telux3qmi14AudioQmiClient14handleDtmfRespEPvjS2_iSt8weak_ptrINS_6common16ICommandCallbackEE=so_stub_for_libtelux_qmi
-Wl,--defsym=_ZN5telux3qmi14AudioQmiClient14sendStreamReadEjP30audio_stream_read_resp_msg_v01jSt10shared_ptrINS0_22IQmiStreamReadCallbackEEPv=so_stub_for_libtelux_qmi
-Wl,--defsym=_ZN5telux3qmi14AudioQmiClient14sendStreamStopEjSt10shared_ptrINS0_22IQmiStreamStopCallbackEEPv=so_stub_for_libtelux_qmi
-Wl,--defsym=_ZN5telux3qmi14AudioQmiClient15notifierHandlerE28qmi_client_notify_event_type=so_stub_for_libtelux_qmi
-Wl,--defsym=_ZN5telux3qmi14AudioQmiClient15sendDtmfCommandEj16audio_permit_v01jjjtjSt10shared_ptrINS0_20IQmiDtmfToneCallbackEEPv=so_stub_for_libtelux_qmi
-Wl,--defsym=_ZN5telux3qmi14AudioQmiClient15sendStreamStartEjSt10shared_ptrINS0_23IQmiStreamStartCallbackEEPv=so_stub_for_libtelux_qmi
-Wl,--defsym=_ZN5telux3qmi14AudioQmiClient15sendStreamWriteEjP30audio_stream_write_req_msg_v01St10shared_ptrINS0_23IQmiStreamWriteCallbackEEPv=so_stub_for_libtelux_qmi
-Wl,--defsym=_ZN5telux3qmi14AudioQmiClient16notifyWriteReadyERK30audio_stream_write_ind_msg_v01=so_stub_for_libtelux_qmi
-Wl,--defsym=_ZN5telux3qmi14AudioQmiClient16sendCreateStreamEjjjjjjjPjPNS0_15QmiFormatParamsEjjS2_St10shared_ptrINS0_24IQmiCreateStreamCallbackEEPv=so_stub_for_libtelux_qmi
-Wl,--defsym=_ZN5telux3qmi14AudioQmiClient16sendDeleteStreamEjjSt10shared_ptrINS0_24IQmiDeleteStreamCallbackEEPv=so_stub_for_libtelux_qmi
-Wl,--defsym=_ZN5telux3qmi14AudioQmiClient17handleToneGenRespEPvjS2_iSt8weak_ptrINS_6common16ICommandCallbackEE=so_stub_for_libtelux_qmi
-Wl,--defsym=_ZN5telux3qmi14AudioQmiClient17indicationHandlerEP17qmi_client_structjPvjS4_=so_stub_for_libtelux_qmi
-Wl,--defsym=_ZN5telux3qmi14AudioQmiClient17notifyModemStatusERK30audio_modem_status_ind_msg_v01=so_stub_for_libtelux_qmi
-Wl,--defsym=_ZN5telux3qmi14AudioQmiClient17sendLoadSubsystemESt10shared_ptrINS0_25IQmiLoadSubsystemCallbackEEPv=so_stub_for_libtelux_qmi
-Wl,--defsym=_ZN5telux3qmi14AudioQmiClient17sendStreamGetMuteEjjSt10shared_ptrINS0_25IQmiStreamGetMuteCallbackEEPv=so_stub_for_libtelux_qmi
-Wl,--defsym=_ZN5telux3qmi14AudioQmiClient17sendStreamSetMuteEjjbSt10shared_ptrINS0_25IQmiStreamSetMuteCallbackEEPv=so_stub_for_libtelux_qmi
-Wl,--defsym=_ZN5telux3qmi14AudioQmiClient18handleLoopbackRespEPvjS2_iSt8weak_ptrINS_6common16ICommandCallbackEE=so_stub_for_libtelux_qmi
-Wl,--defsym=_ZN5telux3qmi14AudioQmiClient18registerDtmfEventsEj16audio_permit_v01St10shared_ptrINS0_25IQmiRegisterEventCallbackEEPv=so_stub_for_libtelux_qmi
-Wl,--defsym=_ZN5telux3qmi14AudioQmiClient18sendStreamLoopbackEj16audio_permit_v01St10shared_ptrINS0_20IQmiLoopbackCallbackEEPv=so_stub_for_libtelux_qmi
-Wl,--defsym=_ZN5telux3qmi14AudioQmiClient18sendToneGenCommandEj16audio_permit_v01St6vectorItSaItEEttSt10shared_ptrINS0_19IQmiToneGenCallbackEEPv=so_stub_for_libtelux_qmi
-Wl,--defsym=_ZN5telux3qmi14AudioQmiClient19notifyDrainCompleteERK30audio_stream_drain_ind_msg_v01=so_stub_for_libtelux_qmi
-Wl,--defsym=_ZN5telux3qmi14AudioQmiClient19notifyDtmfDetectionEP32audio_dtmf_detection_ind_msg_v01=so_stub_for_libtelux_qmi
-Wl,--defsym=_ZN5telux3qmi14AudioQmiClient19sendPlayStreamDrainEjSt10shared_ptrINS0_27IQmiPlayStreamDrainCallbackEEPv=so_stub_for_libtelux_qmi
-Wl,--defsym=_ZN5telux3qmi14AudioQmiClient19sendPlayStreamFlushEjSt10shared_ptrINS0_27IQmiPlayStreamFlushCallbackEEPv=so_stub_for_libtelux_qmi
-Wl,--defsym=_ZN5telux3qmi14AudioQmiClient19sendStreamGetDeviceEjSt10shared_ptrINS0_27IQmiStreamGetDeviceCallbackEEPv=so_stub_for_libtelux_qmi
-Wl,--defsym=_ZN5telux3qmi14AudioQmiClient19sendStreamGetVolumeEjjSt10shared_ptrINS0_27IQmiStreamGetVolumeCallbackEEPv=so_stub_for_libtelux_qmi
-Wl,--defsym=_ZN5telux3qmi14AudioQmiClient19sendStreamSetDeviceEjjPjSt10shared_ptrINS0_27IQmiStreamSetDeviceCallbackEEPv=so_stub_for_libtelux_qmi
-Wl,--defsym=_ZN5telux3qmi14AudioQmiClient19sendStreamSetVolumeEjjjPjPfSt10shared_ptrINS0_27IQmiStreamSetVolumeCallbackEEPv=so_stub_for_libtelux_qmi
-Wl,--defsym=_ZN5telux3qmi14AudioQmiClient20asyncResponseHandlerEjPvjS2_iSt10shared_ptrINS_6common16ICommandCallbackEE=so_stub_for_libtelux_qmi
-Wl,--defsym=_ZN5telux3qmi14AudioQmiClient20handleStreamReadRespEPvjS2_iSt8weak_ptrINS_6common16ICommandCallbackEE=so_stub_for_libtelux_qmi
-Wl,--defsym=_ZN5telux3qmi14AudioQmiClient20handleStreamStopRespEPvjS2_iSt8weak_ptrINS_6common16ICommandCallbackEE=so_stub_for_libtelux_qmi
-Wl,--defsym=_ZN5telux3qmi14AudioQmiClient20sendCreateTranscoderEjNS0_24QmiTransCodeStreamConfigESt10shared_ptrINS0_28IQmiCreateTranscoderCallbackEEPv=so_stub_for_libtelux_qmi
-Wl,--defsym=_ZN5telux3qmi14AudioQmiClient21handleStreamStartRespEPvjS2_iSt8weak_ptrINS_6common16ICommandCallbackEE=so_stub_for_libtelux_qmi
-Wl,--defsym=_ZN5telux3qmi14AudioQmiClient21handleStreamWriteRespEPvjS2_iSt8weak_ptrINS_6common16ICommandCallbackEE=so_stub_for_libtelux_qmi
-Wl,--defsym=_ZN5telux3qmi14AudioQmiClient21sendTranscodeTearDownEjSt10shared_ptrINS0_30IQmiTranscoderTeardownCallbackEEPv=so_stub_for_libtelux_qmi
-Wl,--defsym=_ZN5telux3qmi14AudioQmiClient22handleCreateStreamRespEPvjS2_iSt8weak_ptrINS_6common16ICommandCallbackEE=so_stub_for_libtelux_qmi
-Wl,--defsym=_ZN5telux3qmi14AudioQmiClient22handleDeleteStreamRespEPvjS2_iSt8weak_ptrINS_6common16ICommandCallbackEE=so_stub_for_libtelux_qmi
-Wl,--defsym=_ZN5telux3qmi14AudioQmiClient23handleLoadSubsystemRespEPvjS2_iSt8weak_ptrINS_6common16ICommandCallbackEE=so_stub_for_libtelux_qmi
-Wl,--defsym=_ZN5telux3qmi14AudioQmiClient23handleRegisterEventRespEPvjS2_iSt8weak_ptrINS_6common16ICommandCallbackEE=so_stub_for_libtelux_qmi
-Wl,--defsym=_ZN5telux3qmi14AudioQmiClient23handleStreamGetMuteRespEPvjS2_iSt8weak_ptrINS_6common16ICommandCallbackEE=so_stub_for_libtelux_qmi
-Wl,--defsym=_ZN5telux3qmi14AudioQmiClient23handleStreamSetMuteRespEPvjS2_iSt8weak_ptrINS_6common16ICommandCallbackEE=so_stub_for_libtelux_qmi
-Wl,--defsym=_ZN5telux3qmi14AudioQmiClient23sendGetSupportedDevicesEjSt10shared_ptrINS0_31IQmiGetSupportedDevicesCallbackEEPv=so_stub_for_libtelux_qmi
-Wl,--defsym=_ZN5telux3qmi14AudioQmiClient23sendGetSupportedStreamsEjSt10shared_ptrINS0_31IQmiGetSupportedStreamsCallbackEEPv=so_stub_for_libtelux_qmi
-Wl,--defsym=_ZN5telux3qmi14AudioQmiClient25handlePlayStreamDrainRespEPvjS2_iSt8weak_ptrINS_6common16ICommandCallbackEE=so_stub_for_libtelux_qmi
-Wl,--defsym=_ZN5telux3qmi14AudioQmiClient25handlePlayStreamFlushRespEPvjS2_iSt8weak_ptrINS_6common16ICommandCallbackEE=so_stub_for_libtelux_qmi
-Wl,--defsym=_ZN5telux3qmi14AudioQmiClient25handleStreamGetDeviceRespEPvjS2_iSt8weak_ptrINS_6common16ICommandCallbackEE=so_stub_for_libtelux_qmi
-Wl,--defsym=_ZN5telux3qmi14AudioQmiClient25handleStreamGetVolumeRespEPvjS2_iSt8weak_ptrINS_6common16ICommandCallbackEE=so_stub_for_libtelux_qmi
-Wl,--defsym=_ZN5telux3qmi14AudioQmiClient25handleStreamSetDeviceRespEPvjS2_iSt8weak_ptrINS_6common16ICommandCallbackEE=so_stub_for_libtelux_qmi
-Wl,--defsym=_ZN5telux3qmi14AudioQmiClient25handleStreamSetVolumeRespEPvjS2_iSt8weak_ptrINS_6common16ICommandCallbackEE=so_stub_for_libtelux_qmi
-Wl,--defsym=_ZN5telux3qmi14AudioQmiClient26handleCreateTranscoderRespEPvjS2_iSt8weak_ptrINS_6common16ICommandCallbackEE=so_stub_for_libtelux_qmi
-Wl,--defsym=_ZN5telux3qmi14AudioQmiClient26handleWriteReadyIndicationEP17qmi_client_structPvj=so_stub_for_libtelux_qmi
-Wl,--defsym=_ZN5telux3qmi14AudioQmiClient27handleModemStatusIndicationEP17qmi_client_structPvj=so_stub_for_libtelux_qmi
-Wl,--defsym=_ZN5telux3qmi14AudioQmiClient28handleTranscoderTeardownRespEPvjS2_iSt8weak_ptrINS_6common16ICommandCallbackEE=so_stub_for_libtelux_qmi
-Wl,--defsym=_ZN5telux3qmi14AudioQmiClient29handleDrainCompleteIndicationEP17qmi_client_structPvj=so_stub_for_libtelux_qmi
-Wl,--defsym=_ZN5telux3qmi14AudioQmiClient29handleDtmfDetectionIndicationEP17qmi_client_structPvj=so_stub_for_libtelux_qmi
-Wl,--defsym=_ZN5telux3qmi14AudioQmiClient29handleGetSupportedDevicesRespEPvjS2_iSt8weak_ptrINS_6common16ICommandCallbackEE=so_stub_for_libtelux_qmi
-Wl,--defsym=_ZN5telux3qmi14AudioQmiClient29handleGetSupportedStreamsRespEPvjS2_iSt8weak_ptrINS_6common16ICommandCallbackEE=so_stub_for_libtelux_qmi
-Wl,--defsym=_ZN5telux3qmi14AudioQmiClientC1Ev=so_stub_for_libtelux_qmi
-Wl,--defsym=_ZN5telux3qmi14AudioQmiClientC2Ev=so_stub_for_libtelux_qmi
-Wl,--defsym=_ZN5telux3qmi14AudioQmiClientD0Ev=so_stub_for_libtelux_qmi
-Wl,--defsym=_ZN5telux3qmi14AudioQmiClientD1Ev=so_stub_for_libtelux_qmi
-Wl,--defsym=_ZN5telux3qmi14AudioQmiClientD2Ev=so_stub_for_libtelux_qmi
-Wl,--defsym=_ZN5telux3qmi14PowerQmiClient12errorHandlerEi=so_stub_for_libtelux_qmi
-Wl,--defsym=_ZN5telux3qmi14PowerQmiClient15notifierHandlerE28qmi_client_notify_event_type=so_stub_for_libtelux_qmi
-Wl,--defsym=_ZN5telux3qmi14PowerQmiClient17indicationHandlerEP17qmi_client_structjPvjS4_=so_stub_for_libtelux_qmi
-Wl,--defsym=_ZN5telux3qmi14PowerQmiClient20asyncResponseHandlerEjPvjS2_iSt10shared_ptrINS_6common16ICommandCallbackEE=so_stub_for_libtelux_qmi
-Wl,--defsym=_ZN5telux3qmi14PowerQmiClient20notifyTcuStateUpdateEP36pwr_mgr_broadcast_indication_msg_v01=so_stub_for_libtelux_qmi
-Wl,--defsym=_ZN5telux3qmi14PowerQmiClient22registerTcuStateEventsEbSt10shared_ptrINS0_33IQmiRegisterTcuStateEventCallbackEEPv=so_stub_for_libtelux_qmi
-Wl,--defsym=_ZN5telux3qmi14PowerQmiClient23handleRegisterEventRespEPvjS2_iSt8weak_ptrINS_6common16ICommandCallbackEE=so_stub_for_libtelux_qmi
-Wl,--defsym=_ZN5telux3qmi14PowerQmiClient24sendActivityStateCommandE13pwr_state_v01St10shared_ptrINS0_27IQmiTcuStateCommandCallbackEEPv=so_stub_for_libtelux_qmi
-Wl,--defsym=_ZN5telux3qmi14PowerQmiClient25handleTcuStateCommandRespEPvjS2_iSt8weak_ptrINS_6common16ICommandCallbackEE=so_stub_for_libtelux_qmi
-Wl,--defsym=_ZN5telux3qmi14PowerQmiClient26sendActivityStateUpdateAckE17pwr_state_ack_v01St10shared_ptrINS0_23IQmiTcuStateAckCallbackEEPv=so_stub_for_libtelux_qmi
-Wl,--defsym=_ZN5telux3qmi14PowerQmiClient27handleTcuStateUpdateAckRespEPvjS2_iSt8weak_ptrINS_6common16ICommandCallbackEE=so_stub_for_libtelux_qmi
-Wl,--defsym=_ZN5telux3qmi14PowerQmiClient30handleTcuStateUpdateIndicationEP17qmi_client_structPvj=so_stub_for_libtelux_qmi
-Wl,--defsym=_ZN5telux3qmi14PowerQmiClient31handleSlaveAppsStatusIndicationEP17qmi_client_structPvj=so_stub_for_libtelux_qmi
-Wl,--defsym=_ZN5telux3qmi14PowerQmiClientC1Ev=so_stub_for_libtelux_qmi
-Wl,--defsym=_ZN5telux3qmi14PowerQmiClientC2Ev=so_stub_for_libtelux_qmi
-Wl,--defsym=_ZN5telux3qmi14PowerQmiClientD0Ev=so_stub_for_libtelux_qmi
-Wl,--defsym=_ZN5telux3qmi14PowerQmiClientD1Ev=so_stub_for_libtelux_qmi
-Wl,--defsym=_ZN5telux3qmi14PowerQmiClientD2Ev=so_stub_for_libtelux_qmi
-Wl,--defsym=_ZN5telux3qmi14TsensQmiClient12errorHandlerEi=so_stub_for_libtelux_qmi
-Wl,--defsym=_ZN5telux3qmi14TsensQmiClient15notifierHandlerE28qmi_client_notify_event_type=so_stub_for_libtelux_qmi
-Wl,--defsym=_ZN5telux3qmi14TsensQmiClient17indicationHandlerEP17qmi_client_structjPvjS4_=so_stub_for_libtelux_qmi
-Wl,--defsym=_ZN5telux3qmi14TsensQmiClient20asyncResponseHandlerEjPvjS2_iSt10shared_ptrINS_6common16ICommandCallbackEE=so_stub_for_libtelux_qmi
-Wl,--defsym=_ZN5telux3qmi14TsensQmiClient20handleGetCommandRespEPvjS2_iSt8weak_ptrINS_6common16ICommandCallbackEE=so_stub_for_libtelux_qmi
-Wl,--defsym=_ZN5telux3qmi14TsensQmiClient20handleSetCommandRespEPvjS2_iSt8weak_ptrINS_6common16ICommandCallbackEE=so_stub_for_libtelux_qmi
-Wl,--defsym=_ZN5telux3qmi14TsensQmiClient23handleRegisterEventRespEPvjS2_iSt8weak_ptrINS_6common16ICommandCallbackEE=so_stub_for_libtelux_qmi
-Wl,--defsym=_ZN5telux3qmi14TsensQmiClient28handleAutoShutdownModeUpdateEP17qmi_client_structPvj=so_stub_for_libtelux_qmi
-Wl,--defsym=_ZN5telux3qmi14TsensQmiClient28notifyAutoShutdownModeUpdateEP34tsens_broadcast_indication_msg_v01=so_stub_for_libtelux_qmi
-Wl,--defsym=_ZN5telux3qmi14TsensQmiClient30registerAutoShutdownModeEventsESt10shared_ptrINS0_37IQmiRegisterAutoShutdownEventCallbackEEPv=so_stub_for_libtelux_qmi
-Wl,--defsym=_ZN5telux3qmi14TsensQmiClient30sendGetAutoShutdownModeCommandESt10shared_ptrINS0_27IQmiGetShutdownModeCallbackEEPv=so_stub_for_libtelux_qmi
-Wl,--defsym=_ZN5telux3qmi14TsensQmiClient30sendSetAutoShutdownModeCommandE15tsens_state_v01jSt10shared_ptrINS0_27IQmiSetShutdownModeCallbackEEPv=so_stub_for_libtelux_qmi
-Wl,--defsym=_ZN5telux3qmi14TsensQmiClientC1Ev=so_stub_for_libtelux_qmi
-Wl,--defsym=_ZN5telux3qmi14TsensQmiClientC2Ev=so_stub_for_libtelux_qmi
-Wl,--defsym=_ZN5telux3qmi14TsensQmiClientD0Ev=so_stub_for_libtelux_qmi
-Wl,--defsym=_ZN5telux3qmi14TsensQmiClientD1Ev=so_stub_for_libtelux_qmi
-Wl,--defsym=_ZN5telux3qmi14TsensQmiClientD2Ev=so_stub_for_libtelux_qmi
-Wl,--defsym=_ZN5telux3qmi14VoiceQmiClient12errorHandlerEi=so_stub_for_libtelux_qmi
-Wl,--defsym=_ZN5telux3qmi14VoiceQmiClient13setBoundStateEb=so_stub_for_libtelux_qmi
-Wl,--defsym=_ZN5telux3qmi14VoiceQmiClient15notifierHandlerE28qmi_client_notify_event_type=so_stub_for_libtelux_qmi
-Wl,--defsym=_ZN5telux3qmi14VoiceQmiClient16sendECallRequestESt6vectorIhSaIhEEbiiiNSt7__cxx1112basic_stringIcSt11char_traitsIcESaIcEEESt10shared_ptrINS0_24IQmiECallRequestCallbackEEPv=so_stub_for_libtelux_qmi
-Wl,--defsym=_ZN5telux3qmi14VoiceQmiClient17indicationHandlerEP17qmi_client_structjPvjS4_=so_stub_for_libtelux_qmi
-Wl,--defsym=_ZN5telux3qmi14VoiceQmiClient17notifyECallStatusEP30voice_ecall_status_ind_msg_v02=so_stub_for_libtelux_qmi
-Wl,--defsym=_ZN5telux3qmi14VoiceQmiClient20asyncResponseHandlerEjPvjS2_iSt10shared_ptrINS_6common16ICommandCallbackEE=so_stub_for_libtelux_qmi
-Wl,--defsym=_ZN5telux3qmi14VoiceQmiClient21waitForInitializationEv=so_stub_for_libtelux_qmi
-Wl,--defsym=_ZN5telux3qmi14VoiceQmiClient23bindSubscriptionRequestEiPv=so_stub_for_libtelux_qmi
-Wl,--defsym=_ZN5telux3qmi14VoiceQmiClient23handleDialECallResponseEPvjS2_iSt8weak_ptrINS_6common16ICommandCallbackEE=so_stub_for_libtelux_qmi
-Wl,--defsym=_ZN5telux3qmi14VoiceQmiClient24handleVoiceSetConfigRespEPvjS2_iSt8weak_ptrINS_6common16ICommandCallbackEE=so_stub_for_libtelux_qmi
-Wl,--defsym=_ZN5telux3qmi14VoiceQmiClient24notifyECallOperatingModeEP33voice_ecall_oprt_mode_ind_msg_v02=so_stub_for_libtelux_qmi
-Wl,--defsym=_ZN5telux3qmi14VoiceQmiClient25sendGetECallOperatingModeESt10shared_ptrINS0_33IQmiGetECallOperatingModeCallbackEEPv=so_stub_for_libtelux_qmi
-Wl,--defsym=_ZN5telux3qmi14VoiceQmiClient25sendSetECallOperatingModeEiSt10shared_ptrINS0_33IQmiSetECallOperatingModeCallbackEEPv=so_stub_for_libtelux_qmi
-Wl,--defsym=_ZN5telux3qmi14VoiceQmiClient25sendVoiceSetConfigRequestESt6vectorIhSaIhEESt10shared_ptrINS0_26IQmiVoiceSetConfigCallbackEEPv=so_stub_for_libtelux_qmi
-Wl,--defsym=_ZN5telux3qmi14VoiceQmiClient26handleBindSubscriptionRespEPvjS2_iSt8weak_ptrINS_6common16ICommandCallbackEE=so_stub_for_libtelux_qmi
-Wl,--defsym=_ZN5telux3qmi14VoiceQmiClient26notifyECallHlapTimerStatusEP41voice_ecall_hlap_timer_status_ind_msg_v02=so_stub_for_libtelux_qmi
-Wl,--defsym=_ZN5telux3qmi14VoiceQmiClient27handleECallStatusIndicationEP17qmi_client_structPvj=so_stub_for_libtelux_qmi
-Wl,--defsym=_ZN5telux3qmi14VoiceQmiClient27registerForVoiceIndicationsESt6bitsetILj16EESt10shared_ptrINS0_36IQmiRegisterVoiceIndicationsCallbackEEPv=so_stub_for_libtelux_qmi
-Wl,--defsym=_ZN5telux3qmi14VoiceQmiClient27sendGetECallHlapTimerStatusESt10shared_ptrINS0_35IQmiGetECallHlapTimerStatusCallbackEEPv=so_stub_for_libtelux_qmi
-Wl,--defsym=_ZN5telux3qmi14VoiceQmiClient30handleECallIndRegisterResponseEPvjS2_iSt8weak_ptrINS_6common16ICommandCallbackEE=so_stub_for_libtelux_qmi
-Wl,--defsym=_ZN5telux3qmi14VoiceQmiClient31handleGetECallOperatingModeRespEPvjS2_iSt8weak_ptrINS_6common16ICommandCallbackEE=so_stub_for_libtelux_qmi
-Wl,--defsym=_ZN5telux3qmi14VoiceQmiClient31handleSetECallOperatingModeRespEPvjS2_iSt8weak_ptrINS_6common16ICommandCallbackEE=so_stub_for_libtelux_qmi
-Wl,--defsym=_ZN5telux3qmi14VoiceQmiClient33handleGetECallHlapTimerStatusRespEPvjS2_iSt8weak_ptrINS_6common16ICommandCallbackEE=so_stub_for_libtelux_qmi
-Wl,--defsym=_ZN5telux3qmi14VoiceQmiClient34handleECallOperatingModeIndicationEP17qmi_client_structPvj=so_stub_for_libtelux_qmi
-Wl,--defsym=_ZN5telux3qmi14VoiceQmiClient36handleECallHlapTimerStatusIndicationEP17qmi_client_structPvj=so_stub_for_libtelux_qmi
-Wl,--defsym=_ZN5telux3qmi14VoiceQmiClient4initEP22qmi_idl_service_object=so_stub_for_libtelux_qmi
-Wl,--defsym=_ZN5telux3qmi14VoiceQmiClient7isReadyEv=so_stub_for_libtelux_qmi
-Wl,--defsym=_ZN5telux3qmi14VoiceQmiClient8initSyncEv=so_stub_for_libtelux_qmi
-Wl,--defsym=_ZN5telux3qmi14VoiceQmiClientC1Ei=so_stub_for_libtelux_qmi
-Wl,--defsym=_ZN5telux3qmi14VoiceQmiClientC2Ei=so_stub_for_libtelux_qmi
-Wl,--defsym=_ZN5telux3qmi14VoiceQmiClientD0Ev=so_stub_for_libtelux_qmi
-Wl,--defsym=_ZN5telux3qmi14VoiceQmiClientD1Ev=so_stub_for_libtelux_qmi
-Wl,--defsym=_ZN5telux3qmi14VoiceQmiClientD2Ev=so_stub_for_libtelux_qmi
-Wl,--defsym=_ZN5telux3qmi15IQmiDmsListener21onOperatingModeChangeEi=so_stub_for_libtelux_qmi
-Wl,--defsym=_ZN5telux3qmi15IQmiDmsListener24onDmsServiceStatusChangeENS_6common13ServiceStatusEi=so_stub_for_libtelux_qmi
-Wl,--defsym=_ZN5telux3qmi15IQmiDmsListener26onModemActivityClientReadyEb=so_stub_for_libtelux_qmi
-Wl,--defsym=_ZN5telux3qmi15IQmiNasListener19onSystemInfoChangedEP24nas_sys_info_ind_msg_v01=so_stub_for_libtelux_qmi
-Wl,--defsym=_ZN5telux3qmi15IQmiNasListener20onV2xNotificationIndERK28nas_v2x_notification_ind_v01=so_stub_for_libtelux_qmi
-Wl,--defsym=_ZN5telux3qmi15IQmiNasListener23onHighCapabilityChangedEP35nas_high_capability_sub_ind_msg_v01=so_stub_for_libtelux_qmi
-Wl,--defsym=_ZN5telux3qmi15IQmiNasListener24onNasServiceStatusChangeENS_6common13ServiceStatusE=so_stub_for_libtelux_qmi
-Wl,--defsym=_ZN5telux3qmi15IQmiNasListener34onSystemSelectionPreferenceChangedEP43nas_system_selection_preference_ind_msg_v01=so_stub_for_libtelux_qmi
-Wl,--defsym=_ZN5telux3qmi15IQmiUimListener15onAddProfileIndERK27uim_add_profile_ind_msg_v01=so_stub_for_libtelux_qmi
-Wl,--defsym=_ZN5telux3qmi15IQmiUimListener19onSlotStatusChangedE34uim_slot_status_change_ind_msg_v01=so_stub_for_libtelux_qmi
-Wl,--defsym=_ZN5telux3qmi15IQmiUimListener24onUimServiceStatusChangeENS_6common13ServiceStatusE=so_stub_for_libtelux_qmi
-Wl,--defsym=_ZN5telux3qmi15IQmiWdsListener15onProfileUpdateEP31wds_profile_changed_ind_msg_v01=so_stub_for_libtelux_qmi
-Wl,--defsym=_ZN5telux3qmi15IQmiWdsListener17onV2xSrcL2InfoIndERK31wds_v2x_src_l2_info_ind_msg_v01=so_stub_for_libtelux_qmi
-Wl,--defsym=_ZN5telux3qmi15IQmiWdsListener18onPktSrvcStatusIndERK31wds_pkt_srvc_status_ind_msg_v01=so_stub_for_libtelux_qmi
-Wl,--defsym=_ZN5telux3qmi15IQmiWdsListener20onV2xConfigChangeIndERK34wds_v2x_config_changed_ind_msg_v01=so_stub_for_libtelux_qmi
-Wl,--defsym=_ZN5telux3qmi15IQmiWdsListener22onV2xCapabilityInfoIndERK35wds_v2x_capability_info_ind_msg_v01=so_stub_for_libtelux_qmi
-Wl,--defsym=_ZN5telux3qmi15IQmiWdsListener22onV2xSendConfigFileIndERK43wds_v2x_send_config_file_result_ind_msg_v01=so_stub_for_libtelux_qmi
-Wl,--defsym=_ZN5telux3qmi15IQmiWdsListener24onV2xGetConfigurationIndERK31wds_v2x_config_file_ind_msg_v01=so_stub_for_libtelux_qmi
-Wl,--defsym=_ZN5telux3qmi15IQmiWdsListener24onV2xSpsFlowRegResultIndERK39wds_v2x_sps_flow_reg_result_ind_msg_v01=so_stub_for_libtelux_qmi
-Wl,--defsym=_ZN5telux3qmi15IQmiWdsListener24onWdsServiceStatusChangeENS_6common13ServiceStatusE=so_stub_for_libtelux_qmi
-Wl,--defsym=_ZN5telux3qmi15IQmiWdsListener25onV2xSpsSchedulingInfoIndERK39wds_v2x_sps_scheduling_info_ind_msg_v01=so_stub_for_libtelux_qmi
-Wl,--defsym=_ZN5telux3qmi15IQmiWdsListener26onV2xSpsFlowDeregResultIndERK41wds_v2x_sps_flow_dereg_result_ind_msg_v01=so_stub_for_libtelux_qmi
-Wl,--defsym=_ZN5telux3qmi15IQmiWdsListener27onV2xSpsFlowUpdateResultIndERK42wds_v2x_sps_flow_update_result_ind_msg_v01=so_stub_for_libtelux_qmi
-Wl,--defsym=_ZN5telux3qmi15IQmiWdsListener30onV2xServiceSubscribeResultIndERK44wds_v2x_service_subscribe_result_ind_msg_v01=so_stub_for_libtelux_qmi
-Wl,--defsym=_ZN5telux3qmi15IQmiWmsListener23onEventReportIndicationEP28wms_event_report_ind_msg_v01=so_stub_for_libtelux_qmi
-Wl,--defsym=_ZN5telux3qmi15IQmiWmsListener24onWmsServiceStatusChangeENS_6common13ServiceStatusE=so_stub_for_libtelux_qmi
-Wl,--defsym=_ZN5telux3qmi15IQmiWmsListener31onBroadcastConfigurationChangedEP32wms_broadcast_config_ind_msg_v01=so_stub_for_libtelux_qmi
-Wl,--defsym=_ZN5telux3qmi16QmiClientFactory11getInstanceEv=so_stub_for_libtelux_qmi
-Wl,--defsym=_ZN5telux3qmi16QmiClientFactory15getDmsQmiClientEi=so_stub_for_libtelux_qmi
-Wl,--defsym=_ZN5telux3qmi16QmiClientFactory15getNasQmiClientEi=so_stub_for_libtelux_qmi
-Wl,--defsym=_ZN5telux3qmi16QmiClientFactory15getTmdQmiClientEv=so_stub_for_libtelux_qmi
-Wl,--defsym=_ZN5telux3qmi16QmiClientFactory15getUimQmiClientEv=so_stub_for_libtelux_qmi
-Wl,--defsym=_ZN5telux3qmi16QmiClientFactory15getWdsQmiClientE6SlotId=so_stub_for_libtelux_qmi
-Wl,--defsym=_ZN5telux3qmi16QmiClientFactory15getWdsQmiClientENSt7__cxx1112basic_stringIcSt11char_traitsIcESaIcEEEi=so_stub_for_libtelux_qmi
-Wl,--defsym=_ZN5telux3qmi16QmiClientFactory15getWmsQmiClientE6SlotId=so_stub_for_libtelux_qmi
-Wl,--defsym=_ZN5telux3qmi16QmiClientFactory17getAudioQmiClientEv=so_stub_for_libtelux_qmi
-Wl,--defsym=_ZN5telux3qmi16QmiClientFactory17getPowerQmiClientEv=so_stub_for_libtelux_qmi
-Wl,--defsym=_ZN5telux3qmi16QmiClientFactory17getTsensQmiClientEv=so_stub_for_libtelux_qmi
-Wl,--defsym=_ZN5telux3qmi16QmiClientFactory17getVoiceQmiClientEi=so_stub_for_libtelux_qmi
-Wl,--defsym=_ZN5telux3qmi16QmiClientFactory21getUimRemoteQmiClientEv=so_stub_for_libtelux_qmi
-Wl,--defsym=_ZN5telux3qmi16QmiClientFactory23getModemConfigQmiClientEv=so_stub_for_libtelux_qmi
-Wl,--defsym=_ZN5telux3qmi16QmiClientFactoryC1Ev=so_stub_for_libtelux_qmi
-Wl,--defsym=_ZN5telux3qmi16QmiClientFactoryC2Ev=so_stub_for_libtelux_qmi
-Wl,--defsym=_ZN5telux3qmi16QmiClientFactoryD1Ev=so_stub_for_libtelux_qmi
-Wl,--defsym=_ZN5telux3qmi16QmiClientFactoryD2Ev=so_stub_for_libtelux_qmi
-Wl,--defsym=_ZN5telux3qmi16QmiProfileParamsD1Ev=so_stub_for_libtelux_qmi
-Wl,--defsym=_ZN5telux3qmi16QmiProfileParamsD2Ev=so_stub_for_libtelux_qmi
-Wl,--defsym=_ZN5telux3qmi17IQmiVoiceListener13onECallStatusEP30voice_ecall_status_ind_msg_v02i=so_stub_for_libtelux_qmi
-Wl,--defsym=_ZN5telux3qmi17IQmiVoiceListener15onECallOprtModeEP33voice_ecall_oprt_mode_ind_msg_v02i=so_stub_for_libtelux_qmi
-Wl,--defsym=_ZN5telux3qmi17IQmiVoiceListener22onECallHlapTimerStatusEP41voice_ecall_hlap_timer_status_ind_msg_v02i=so_stub_for_libtelux_qmi
-Wl,--defsym=_ZN5telux3qmi17IQmiVoiceListener26onVoiceServiceStatusChangeENS_6common13ServiceStatusEi=so_stub_for_libtelux_qmi
-Wl,--defsym=_ZN5telux3qmi18UimRemoteQmiClient12errorHandlerEi=so_stub_for_libtelux_qmi
-Wl,--defsym=_ZN5telux3qmi18UimRemoteQmiClient13handleApduIndEP17qmi_client_structPvj=so_stub_for_libtelux_qmi
-Wl,--defsym=_ZN5telux3qmi18UimRemoteQmiClient14handleApduRespEPvjS2_iSt8weak_ptrINS_6common16ICommandCallbackEE=so_stub_for_libtelux_qmi
-Wl,--defsym=_ZN5telux3qmi18UimRemoteQmiClient15handleEventRespEPvjS2_iSt8weak_ptrINS_6common16ICommandCallbackEE=so_stub_for_libtelux_qmi
-Wl,--defsym=_ZN5telux3qmi18UimRemoteQmiClient15handleResetRespEPvjS2_iSt8weak_ptrINS_6common16ICommandCallbackEE=so_stub_for_libtelux_qmi
-Wl,--defsym=_ZN5telux3qmi18UimRemoteQmiClient15notifierHandlerE28qmi_client_notify_event_type=so_stub_for_libtelux_qmi
-Wl,--defsym=_ZN5telux3qmi18UimRemoteQmiClient15notifyCardResetEP33uim_remote_card_reset_ind_msg_v01=so_stub_for_libtelux_qmi
-Wl,--defsym=_ZN5telux3qmi18UimRemoteQmiClient15sendApduRequestER27uim_remote_apdu_req_msg_v01St8functionIFvP28uim_remote_apdu_resp_msg_v01iPvEES7_=so_stub_for_libtelux_qmi
-Wl,--defsym=_ZN5telux3qmi18UimRemoteQmiClient16handleConnectIndEP17qmi_client_structPvj=so_stub_for_libtelux_qmi
-Wl,--defsym=_ZN5telux3qmi18UimRemoteQmiClient16sendEventRequestER28uim_remote_event_req_msg_v01St8functionIFvP29uim_remote_event_resp_msg_v01iPvEES7_=so_stub_for_libtelux_qmi
-Wl,--defsym=_ZN5telux3qmi18UimRemoteQmiClient16sendResetRequestESt8functionIFvP29uim_remote_reset_resp_msg_v01iPvEES5_=so_stub_for_libtelux_qmi
-Wl,--defsym=_ZN5telux3qmi18UimRemoteQmiClient17indicationHandlerEP17qmi_client_structjPvjS4_=so_stub_for_libtelux_qmi
-Wl,--defsym=_ZN5telux3qmi18UimRemoteQmiClient17notifyCardConnectEP30uim_remote_connect_ind_msg_v01=so_stub_for_libtelux_qmi
-Wl,--defsym=_ZN5telux3qmi18UimRemoteQmiClient17notifyCardPowerUpEP36uim_remote_card_power_up_ind_msg_v01=so_stub_for_libtelux_qmi
-Wl,--defsym=_ZN5telux3qmi18UimRemoteQmiClient18handleCardResetIndEP17qmi_client_structPvj=so_stub_for_libtelux_qmi
-Wl,--defsym=_ZN5telux3qmi18UimRemoteQmiClient18notifyApduTransferEP27uim_remote_apdu_ind_msg_v01=so_stub_for_libtelux_qmi
-Wl,--defsym=_ZN5telux3qmi18UimRemoteQmiClient19handleDisconnectIndEP17qmi_client_structPvj=so_stub_for_libtelux_qmi
-Wl,--defsym=_ZN5telux3qmi18UimRemoteQmiClient19notifyCardPowerDownEP38uim_remote_card_power_down_ind_msg_v01=so_stub_for_libtelux_qmi
-Wl,--defsym=_ZN5telux3qmi18UimRemoteQmiClient20asyncResponseHandlerEjPvjS2_iSt10shared_ptrINS_6common16ICommandCallbackEE=so_stub_for_libtelux_qmi
-Wl,--defsym=_ZN5telux3qmi18UimRemoteQmiClient20handleCardPowerUpIndEP17qmi_client_structPvj=so_stub_for_libtelux_qmi
-Wl,--defsym=_ZN5telux3qmi18UimRemoteQmiClient20notifyCardDisconnectEP33uim_remote_disconnect_ind_msg_v01=so_stub_for_libtelux_qmi
-Wl,--defsym=_ZN5telux3qmi18UimRemoteQmiClient22handleCardPowerDownIndEP17qmi_client_structPvj=so_stub_for_libtelux_qmi
-Wl,--defsym=_ZN5telux3qmi18UimRemoteQmiClientC1Ev=so_stub_for_libtelux_qmi
-Wl,--defsym=_ZN5telux3qmi18UimRemoteQmiClientC2Ev=so_stub_for_libtelux_qmi
-Wl,--defsym=_ZN5telux3qmi18UimRemoteQmiClientD0Ev=so_stub_for_libtelux_qmi
-Wl,--defsym=_ZN5telux3qmi18UimRemoteQmiClientD1Ev=so_stub_for_libtelux_qmi
-Wl,--defsym=_ZN5telux3qmi18UimRemoteQmiClientD2Ev=so_stub_for_libtelux_qmi
-Wl,--defsym=_ZN5telux3qmi20ModemConfigQmiClient12errorHandlerEi=so_stub_for_libtelux_qmi
-Wl,--defsym=_ZN5telux3qmi20ModemConfigQmiClient14sendGetFeatureEjSt10shared_ptrINS0_20IQmiResponseCallbackEEPv=so_stub_for_libtelux_qmi
-Wl,--defsym=_ZN5telux3qmi20ModemConfigQmiClient14sendLoadConfigE29pdc_load_config_info_type_v01St10shared_ptrINS0_20IQmiResponseCallbackEEPv=so_stub_for_libtelux_qmi
-Wl,--defsym=_ZN5telux3qmi20ModemConfigQmiClient14sendSetFeatureEj27pdc_selection_mode_enum_v01St10shared_ptrINS0_20IQmiResponseCallbackEEPv=so_stub_for_libtelux_qmi
-Wl,--defsym=_ZN5telux3qmi20ModemConfigQmiClient15notifierHandlerE28qmi_client_notify_event_type=so_stub_for_libtelux_qmi
-Wl,--defsym=_ZN5telux3qmi20ModemConfigQmiClient16sendDeleteConfigE28pdc_config_info_req_type_v01iSt10shared_ptrINS0_20IQmiResponseCallbackEEPv=so_stub_for_libtelux_qmi
-Wl,--defsym=_ZN5telux3qmi20ModemConfigQmiClient17indicationHandlerEP17qmi_client_structjPvjS4_=so_stub_for_libtelux_qmi
-Wl,--defsym=_ZN5telux3qmi20ModemConfigQmiClient17sendGetConfigInfoE28pdc_config_info_req_type_v01St10shared_ptrINS0_20IQmiResponseCallbackEEPv=so_stub_for_libtelux_qmi
-Wl,--defsym=_ZN5telux3qmi20ModemConfigQmiClient17sendGetConfigListE24pdc_config_type_enum_v01St10shared_ptrINS0_20IQmiResponseCallbackEEPv=so_stub_for_libtelux_qmi
-Wl,--defsym=_ZN5telux3qmi20ModemConfigQmiClient18sendActivateConfigE24pdc_config_type_enum_v01jSt10shared_ptrINS0_20IQmiResponseCallbackEEPv=so_stub_for_libtelux_qmi
-Wl,--defsym=_ZN5telux3qmi20ModemConfigQmiClient19notifyLoadConfigIndERK27pdc_load_config_ind_msg_v01=so_stub_for_libtelux_qmi
-Wl,--defsym=_ZN5telux3qmi20ModemConfigQmiClient19sendSetSelectConfigE28pdc_config_info_req_type_v01jSt10shared_ptrINS0_20IQmiResponseCallbackEEPv=so_stub_for_libtelux_qmi
-Wl,--defsym=_ZN5telux3qmi20ModemConfigQmiClient20asyncResponseHandlerEjPvjS2_iSt10shared_ptrINS_6common16ICommandCallbackEE=so_stub_for_libtelux_qmi
-Wl,--defsym=_ZN5telux3qmi20ModemConfigQmiClient20handleGetFeatureRespEPvjS2_iSt8weak_ptrINS_6common16ICommandCallbackEE=so_stub_for_libtelux_qmi
-Wl,--defsym=_ZN5telux3qmi20ModemConfigQmiClient20handleLoadConfigRespEPvjS2_iSt8weak_ptrINS_6common16ICommandCallbackEE=so_stub_for_libtelux_qmi
-Wl,--defsym=_ZN5telux3qmi20ModemConfigQmiClient20handleSetFeatureRespEPvjS2_iSt8weak_ptrINS_6common16ICommandCallbackEE=so_stub_for_libtelux_qmi
-Wl,--defsym=_ZN5telux3qmi20ModemConfigQmiClient20sendDeactivateConfigE24pdc_config_type_enum_v01jSt10shared_ptrINS0_20IQmiResponseCallbackEEPv=so_stub_for_libtelux_qmi
-Wl,--defsym=_ZN5telux3qmi20ModemConfigQmiClient20sendRegisterListenerEhSt10shared_ptrINS0_28IQmiRegisterListenerCallbackEEPv=so_stub_for_libtelux_qmi
-Wl,--defsym=_ZN5telux3qmi20ModemConfigQmiClient21notifyDeleteConfigIndERK29pdc_delete_config_ind_msg_v01=so_stub_for_libtelux_qmi
-Wl,--defsym=_ZN5telux3qmi20ModemConfigQmiClient21sendGetSelectedConfigE24pdc_config_type_enum_v01jSt10shared_ptrINS0_20IQmiResponseCallbackEEPv=so_stub_for_libtelux_qmi
-Wl,--defsym=_ZN5telux3qmi20ModemConfigQmiClient22handleDeleteConfigRespEPvjS2_iSt8weak_ptrINS_6common16ICommandCallbackEE=so_stub_for_libtelux_qmi
-Wl,--defsym=_ZN5telux3qmi20ModemConfigQmiClient22notifyConfigRefreshIndERK23pdc_refresh_ind_msg_v01=so_stub_for_libtelux_qmi
-Wl,--defsym=_ZN5telux3qmi20ModemConfigQmiClient22notifyGetConfigInfoIndERK31pdc_get_config_info_ind_msg_v01=so_stub_for_libtelux_qmi
-Wl,--defsym=_ZN5telux3qmi20ModemConfigQmiClient22notifyGetConfigListIndERK28pdc_list_configs_ind_msg_v01=so_stub_for_libtelux_qmi
-Wl,--defsym=_ZN5telux3qmi20ModemConfigQmiClient23handleGetConfigInfoRespEPvjS2_iSt8weak_ptrINS_6common16ICommandCallbackEE=so_stub_for_libtelux_qmi
-Wl,--defsym=_ZN5telux3qmi20ModemConfigQmiClient23handleGetConfigListRespEPvjS2_iSt8weak_ptrINS_6common16ICommandCallbackEE=so_stub_for_libtelux_qmi
-Wl,--defsym=_ZN5telux3qmi20ModemConfigQmiClient23notifyActivateConfigIndERK31pdc_activate_config_ind_msg_v01=so_stub_for_libtelux_qmi
-Wl,--defsym=_ZN5telux3qmi20ModemConfigQmiClient24handleActivateConfigRespEPvjS2_iSt8weak_ptrINS_6common16ICommandCallbackEE=so_stub_for_libtelux_qmi
-Wl,--defsym=_ZN5telux3qmi20ModemConfigQmiClient24notifyGetSelectConfigIndERK35pdc_get_selected_config_ind_msg_v01=so_stub_for_libtelux_qmi
-Wl,--defsym=_ZN5telux3qmi20ModemConfigQmiClient24notifySetSelectConfigIndERK35pdc_set_selected_config_ind_msg_v01=so_stub_for_libtelux_qmi
-Wl,--defsym=_ZN5telux3qmi20ModemConfigQmiClient24sendGetDefaultConfigInfoE24pdc_config_type_enum_v01St10shared_ptrINS0_20IQmiResponseCallbackEEPv=so_stub_for_libtelux_qmi
-Wl,--defsym=_ZN5telux3qmi20ModemConfigQmiClient25handleGetSelectConfigRespEPvjS2_iSt8weak_ptrINS_6common16ICommandCallbackEE=so_stub_for_libtelux_qmi
-Wl,--defsym=_ZN5telux3qmi20ModemConfigQmiClient25handleSetSelectConfigRespEPvjS2_iSt8weak_ptrINS_6common16ICommandCallbackEE=so_stub_for_libtelux_qmi
-Wl,--defsym=_ZN5telux3qmi20ModemConfigQmiClient25notifyDeactivateConfigIndERK33pdc_deactivate_config_ind_msg_v01=so_stub_for_libtelux_qmi
-Wl,--defsym=_ZN5telux3qmi20ModemConfigQmiClient25notifyGetFeatureConfigIndERK27pdc_get_feature_ind_msg_v01=so_stub_for_libtelux_qmi
-Wl,--defsym=_ZN5telux3qmi20ModemConfigQmiClient25notifySetFeatureConfigIndERK27pdc_set_feature_ind_msg_v01=so_stub_for_libtelux_qmi
-Wl,--defsym=_ZN5telux3qmi20ModemConfigQmiClient26handleDeactivateConfigRespEPvjS2_iSt8weak_ptrINS_6common16ICommandCallbackEE=so_stub_for_libtelux_qmi
-Wl,--defsym=_ZN5telux3qmi20ModemConfigQmiClient26handleGetFeatureIndicationEP17qmi_client_structPvj=so_stub_for_libtelux_qmi
-Wl,--defsym=_ZN5telux3qmi20ModemConfigQmiClient26handleLoadConfigIndicationEP17qmi_client_structPvj=so_stub_for_libtelux_qmi
-Wl,--defsym=_ZN5telux3qmi20ModemConfigQmiClient26handleSetFeatureIndicationEP17qmi_client_structPvj=so_stub_for_libtelux_qmi
-Wl,--defsym=_ZN5telux3qmi20ModemConfigQmiClient28handleDeleteConfigIndicationEP17qmi_client_structPvj=so_stub_for_libtelux_qmi
-Wl,--defsym=_ZN5telux3qmi20ModemConfigQmiClient28handleRegisterIndicationRespEPvjS2_iSt8weak_ptrINS_6common16ICommandCallbackEE=so_stub_for_libtelux_qmi
-Wl,--defsym=_ZN5telux3qmi20ModemConfigQmiClient29handleConfigRefreshIndicationEP17qmi_client_structPvj=so_stub_for_libtelux_qmi
-Wl,--defsym=_ZN5telux3qmi20ModemConfigQmiClient29handleGetConfigInfoIndicationEP17qmi_client_structPvj=so_stub_for_libtelux_qmi
-Wl,--defsym=_ZN5telux3qmi20ModemConfigQmiClient29handleGetConfigListIndicationEP17qmi_client_structPvj=so_stub_for_libtelux_qmi
-Wl,--defsym=_ZN5telux3qmi20ModemConfigQmiClient29notifyGetDefaultConfigInfoIndERK39pdc_get_default_config_info_ind_msg_v01=so_stub_for_libtelux_qmi
-Wl,--defsym=_ZN5telux3qmi20ModemConfigQmiClient30handleActivateConfigIndicationEP17qmi_client_structPvj=so_stub_for_libtelux_qmi
-Wl,--defsym=_ZN5telux3qmi20ModemConfigQmiClient30handleGetDefaultConfigInfoRespEPvjS2_iSt8weak_ptrINS_6common16ICommandCallbackEE=so_stub_for_libtelux_qmi
-Wl,--defsym=_ZN5telux3qmi20ModemConfigQmiClient31handleGetSelectConfigIndicationEP17qmi_client_structPvj=so_stub_for_libtelux_qmi
-Wl,--defsym=_ZN5telux3qmi20ModemConfigQmiClient31handleSetSelectConfigIndicationEP17qmi_client_structPvj=so_stub_for_libtelux_qmi
-Wl,--defsym=_ZN5telux3qmi20ModemConfigQmiClient32handleDeactivateConfigIndicationEP17qmi_client_structPvj=so_stub_for_libtelux_qmi
-Wl,--defsym=_ZN5telux3qmi20ModemConfigQmiClient36handleGetDefaultConfigInfoIndicationEP17qmi_client_structPvj=so_stub_for_libtelux_qmi
-Wl,--defsym=_ZN5telux3qmi20ModemConfigQmiClientC1Ev=so_stub_for_libtelux_qmi
-Wl,--defsym=_ZN5telux3qmi20ModemConfigQmiClientC2Ev=so_stub_for_libtelux_qmi
-Wl,--defsym=_ZN5telux3qmi20ModemConfigQmiClientD0Ev=so_stub_for_libtelux_qmi
-Wl,--defsym=_ZN5telux3qmi20ModemConfigQmiClientD1Ev=so_stub_for_libtelux_qmi
-Wl,--defsym=_ZN5telux3qmi20ModemConfigQmiClientD2Ev=so_stub_for_libtelux_qmi
-Wl,--defsym=_ZN5telux3qmi21IQmiAudioPlayListener22onWriteReadyIndicationERK30audio_stream_write_ind_msg_v01=so_stub_for_libtelux_qmi
-Wl,--defsym=_ZN5telux3qmi21IQmiAudioPlayListener23onPlayStoppedIndicationERK30audio_stream_drain_ind_msg_v01=so_stub_for_libtelux_qmi
-Wl,--defsym=_ZN5telux3qmi21IQmiUimRemoteListener23onCardResetNotificationEP33uim_remote_card_reset_ind_msg_v01=so_stub_for_libtelux_qmi
-Wl,--defsym=_ZN5telux3qmi21IQmiUimRemoteListener25onCardConnectNotificationEP30uim_remote_connect_ind_msg_v01=so_stub_for_libtelux_qmi
-Wl,--defsym=_ZN5telux3qmi21IQmiUimRemoteListener25onCardPowerUpNotificationEP36uim_remote_card_power_up_ind_msg_v01=so_stub_for_libtelux_qmi
-Wl,--defsym=_ZN5telux3qmi21IQmiUimRemoteListener26onApduTransferNotificationEP27uim_remote_apdu_ind_msg_v01=so_stub_for_libtelux_qmi
-Wl,--defsym=_ZN5telux3qmi21IQmiUimRemoteListener27onCardPowerDownNotificationEP38uim_remote_card_power_down_ind_msg_v01=so_stub_for_libtelux_qmi
-Wl,--defsym=_ZN5telux3qmi21IQmiUimRemoteListener28onCardDisconnectNotificationEP33uim_remote_disconnect_ind_msg_v01=so_stub_for_libtelux_qmi
-Wl,--defsym=_ZN5telux3qmi21IQmiUimRemoteListener30onRemoteSimServiceStatusChangeENS_6common13ServiceStatusE=so_stub_for_libtelux_qmi
-Wl,--defsym=_ZN5telux3qmi22IQmiAudioVoiceListener19onDtmfToneDetectionEP32audio_dtmf_detection_ind_msg_v01=so_stub_for_libtelux_qmi
-Wl,--defsym=_ZN5telux3qmi23IQmiModemConfigListener14onLoadConfiIndERK27pdc_load_config_ind_msg_v01=so_stub_for_libtelux_qmi
-Wl,--defsym=_ZN5telux3qmi23IQmiModemConfigListener15onGetFeatureIndERK27pdc_get_feature_ind_msg_v01=so_stub_for_libtelux_qmi
-Wl,--defsym=_ZN5telux3qmi23IQmiModemConfigListener15onSetFeatureIndERK27pdc_set_feature_ind_msg_v01=so_stub_for_libtelux_qmi
-Wl,--defsym=_ZN5telux3qmi23IQmiModemConfigListener17onDeleteConfigIndERK29pdc_delete_config_ind_msg_v01=so_stub_for_libtelux_qmi
-Wl,--defsym=_ZN5telux3qmi23IQmiModemConfigListener18onConfigRefreshIndERK23pdc_refresh_ind_msg_v01=so_stub_for_libtelux_qmi
-Wl,--defsym=_ZN5telux3qmi23IQmiModemConfigListener18onGetConfigInfoIndERK31pdc_get_config_info_ind_msg_v01=so_stub_for_libtelux_qmi
-Wl,--defsym=_ZN5telux3qmi23IQmiModemConfigListener18onGetConfigListIndERK28pdc_list_configs_ind_msg_v01=so_stub_for_libtelux_qmi
-Wl,--defsym=_ZN5telux3qmi23IQmiModemConfigListener19onActivateConfigIndERK31pdc_activate_config_ind_msg_v01=so_stub_for_libtelux_qmi
-Wl,--defsym=_ZN5telux3qmi23IQmiModemConfigListener20onGetSelectConfigIndERK35pdc_get_selected_config_ind_msg_v01=so_stub_for_libtelux_qmi
-Wl,--defsym=_ZN5telux3qmi23IQmiModemConfigListener20onSetSelectConfigIndERK35pdc_set_selected_config_ind_msg_v01=so_stub_for_libtelux_qmi
-Wl,--defsym=_ZN5telux3qmi23IQmiModemConfigListener21onDeactivateConfigIndERK33pdc_deactivate_config_ind_msg_v01=so_stub_for_libtelux_qmi
-Wl,--defsym=_ZN5telux3qmi23IQmiModemConfigListener25onGetDefaultConfigInfoIndERK39pdc_get_default_config_info_ind_msg_v01=so_stub_for_libtelux_qmi
-Wl,--defsym=_ZN5telux3qmi23IQmiModemConfigListener32onModemConfigServiceStatusChangeENS_6common13ServiceStatusE=so_stub_for_libtelux_qmi
-Wl,--defsym=_ZN5telux3qmi23IQmiTcuActivityListener16onTcuStateUpdateEP36pwr_mgr_broadcast_indication_msg_v01=so_stub_for_libtelux_qmi
-Wl,--defsym=_ZN5telux3qmi23IQmiTcuActivityListener22onSlaveAckStatusUpdateE24pwr_mgr_state_change_v01=so_stub_for_libtelux_qmi
-Wl,--defsym=_ZN5telux3qmi23IQmiTcuActivityListener32onTcuActivityServiceStatusChangeENS_6common13ServiceStatusE=so_stub_for_libtelux_qmi
-Wl,--defsym=_ZN5telux3qmi24IQmiAudioServiceListener19onModemStatusChangeENS_6common13ServiceStatusE=so_stub_for_libtelux_qmi
-Wl,--defsym=_ZN5telux3qmi24IQmiAudioServiceListener21onServiceStatusChangeENS_6common13ServiceStatusE=so_stub_for_libtelux_qmi
-Wl,--defsym=_ZN5telux3qmi28IQmiAutoShutdownModeListener24onAutoShutdownModeUpdateEP34tsens_broadcast_indication_msg_v01=so_stub_for_libtelux_qmi
-Wl,--defsym=_ZN5telux3qmi28IQmiAutoShutdownModeListener33onAutoShutdownServiceStatusChangeENS_6common13ServiceStatusE=so_stub_for_libtelux_qmi
-Wl,--defsym=_ZN5telux3qmi30IQmiTmdMitigationLevelListener26onTmdMitigationLevelUpdateEP39tmd_mitigation_level_report_ind_msg_v01=so_stub_for_libtelux_qmi
-Wl,--defsym=_ZN5telux3qmi30IQmiTmdMitigationLevelListener34onTmdMitigationServiceStatusChangeENS_6common13ServiceStatusE=so_stub_for_libtelux_qmi
-Wl,--defsym=_ZN5telux3qmi9QmiClient10initClientEP22qmi_idl_service_object=so_stub_for_libtelux_qmi
-Wl,--defsym=_ZN5telux3qmi9QmiClient11sendRequestI23pwr_mgr_ack_req_msg_v0124pwr_mgr_ack_resp_msg_v01EENS_6common6StatusEijRT_RPT0_Pv=so_stub_for_libtelux_qmi
-Wl,--defsym=_ZN5telux3qmi9QmiClient11sendRequestI23pwr_mgr_cmd_req_msg_v0124pwr_mgr_cmd_resp_msg_v01EENS_6common6StatusEijRT_RPT0_Pv=so_stub_for_libtelux_qmi
-Wl,--defsym=_ZN5telux3qmi9QmiClient11sendRequestI23uim_get_eid_req_msg_v0124uim_get_eid_resp_msg_v01EENS_6common6StatusEijRT_RPT0_Pv=so_stub_for_libtelux_qmi
-Wl,--defsym=_ZN5telux3qmi9QmiClient11sendRequestI24nas_v2x_stop_req_msg_v0125nas_v2x_stop_resp_msg_v01EENS_6common6StatusEijRT_RPT0_Pv=so_stub_for_libtelux_qmi
-Wl,--defsym=_ZN5telux3qmi9QmiClient11sendRequestI25nas_v2x_start_req_msg_v0126nas_v2x_start_resp_msg_v01EENS_6common6StatusEijRT_RPT0_Pv=so_stub_for_libtelux_qmi
-Wl,--defsym=_ZN5telux3qmi9QmiClient11sendRequestI25uim_event_reg_req_msg_v0126uim_event_reg_resp_msg_v01EENS_6common6StatusEijRT_RPT0_Pv=so_stub_for_libtelux_qmi
-Wl,--defsym=_ZN5telux3qmi9QmiClient11sendRequestI26dms_get_msisdn_req_msg_v0127dms_get_msisdn_resp_msg_v01EENS_6common6StatusEijRT_RPT0_Pv=so_stub_for_libtelux_qmi
-Wl,--defsym=_ZN5telux3qmi9QmiClient11sendRequestI27pdc_get_feature_req_msg_v0128pdc_get_feature_resp_msg_v01EENS_6common6StatusEijRT_RPT0_Pv=so_stub_for_libtelux_qmi
-Wl,--defsym=_ZN5telux3qmi9QmiClient11sendRequestI27pdc_load_config_req_msg_v0128pdc_load_config_resp_msg_v01EENS_6common6StatusEijRT_RPT0_Pv=so_stub_for_libtelux_qmi
-Wl,--defsym=_ZN5telux3qmi9QmiClient11sendRequestI27pdc_set_feature_req_msg_v0128pdc_set_feature_resp_msg_v01EENS_6common6StatusEijRT_RPT0_Pv=so_stub_for_libtelux_qmi
-Wl,--defsym=_ZN5telux3qmi9QmiClient11sendRequestI27tsens_get_state_req_msg_v0128tsens_get_state_resp_msg_v01EENS_6common6StatusEijRT_RPT0_Pv=so_stub_for_libtelux_qmi
-Wl,--defsym=_ZN5telux3qmi9QmiClient11sendRequestI27tsens_set_state_req_msg_v0128tsens_set_state_resp_msg_v01EENS_6common6StatusEijRT_RPT0_Pv=so_stub_for_libtelux_qmi
-Wl,--defsym=_ZN5telux3qmi9QmiClient11sendRequestI27uim_add_profile_req_msg_v0128uim_add_profile_resp_msg_v01EENS_6common6StatusEijRT_RPT0_Pv=so_stub_for_libtelux_qmi
-Wl,--defsym=_ZN5telux3qmi9QmiClient11sendRequestI27uim_remote_apdu_req_msg_v0128uim_remote_apdu_resp_msg_v01EENS_6common6StatusEijRT_RPT0_Pv=so_stub_for_libtelux_qmi
-Wl,--defsym=_ZN5telux3qmi9QmiClient11sendRequestI27uim_sap_request_req_msg_v0128uim_sap_request_resp_msg_v01EENS_6common6StatusEijRT_RPT0_Pv=so_stub_for_libtelux_qmi
-Wl,--defsym=_ZN5telux3qmi9QmiClient11sendRequestI27uim_switch_slot_req_msg_v0128uim_switch_slot_resp_msg_v01EENS_6common6StatusEijRT_RPT0_Pv=so_stub_for_libtelux_qmi
-Wl,--defsym=_ZN5telux3qmi9QmiClient11sendRequestI27voice_dial_call_req_msg_v0228voice_dial_call_resp_msg_v02EENS_6common6StatusEijRT_RPT0_Pv=so_stub_for_libtelux_qmi
-Wl,--defsym=_ZN5telux3qmi9QmiClient11sendRequestI28nas_get_sys_info_req_msg_v0129nas_get_sys_info_resp_msg_v01EENS_6common6StatusEijRT_RPT0_Pv=so_stub_for_libtelux_qmi
-Wl,--defsym=_ZN5telux3qmi9QmiClient11sendRequestI28pdc_list_configs_req_msg_v0129pdc_list_configs_resp_msg_v01EENS_6common6StatusEijRT_RPT0_Pv=so_stub_for_libtelux_qmi
-Wl,--defsym=_ZN5telux3qmi9QmiClient11sendRequestI28pwr_mgr_register_req_msg_v0129pwr_mgr_register_resp_msg_v01EENS_6common6StatusEijRT_RPT0_Pv=so_stub_for_libtelux_qmi
-Wl,--defsym=_ZN5telux3qmi9QmiClient11sendRequestI28uim_remote_event_req_msg_v0129uim_remote_event_resp_msg_v01EENS_6common6StatusEijRT_RPT0_Pv=so_stub_for_libtelux_qmi
-Wl,--defsym=_ZN5telux3qmi9QmiClient11sendRequestI28uim_remote_reset_req_msg_v0129uim_remote_reset_resp_msg_v01EENS_6common6StatusEijRT_RPT0_Pv=so_stub_for_libtelux_qmi
-Wl,--defsym=_ZN5telux3qmi9QmiClient11sendRequestI28voice_set_config_req_msg_v0229voice_set_config_resp_msg_v02EENS_6common6StatusEijRT_RPT0_Pv=so_stub_for_libtelux_qmi
-Wl,--defsym=_ZN5telux3qmi9QmiClient11sendRequestI29audio_stream_read_req_msg_v0130audio_stream_read_resp_msg_v01EENS_6common6StatusEijRT_RPT0_Pv=so_stub_for_libtelux_qmi
-Wl,--defsym=_ZN5telux3qmi9QmiClient11sendRequestI29audio_stream_stop_req_msg_v0130audio_stream_stop_resp_msg_v01EENS_6common6StatusEijRT_RPT0_Pv=so_stub_for_libtelux_qmi
-Wl,--defsym=_ZN5telux3qmi9QmiClient11sendRequestI29pdc_delete_config_req_msg_v0130pdc_delete_config_resp_msg_v01EENS_6common6StatusEijRT_RPT0_Pv=so_stub_for_libtelux_qmi
-Wl,--defsym=_ZN5telux3qmi9QmiClient11sendRequestI30audio_close_stream_req_msg_v0131audio_close_stream_resp_msg_v01EENS_6common6StatusEijRT_RPT0_Pv=so_stub_for_libtelux_qmi
-Wl,--defsym=_ZN5telux3qmi9QmiClient11sendRequestI30audio_stream_drain_req_msg_v0131audio_stream_drain_resp_msg_v01EENS_6common6StatusEijRT_RPT0_Pv=so_stub_for_libtelux_qmi
-Wl,--defsym=_ZN5telux3qmi9QmiClient11sendRequestI30audio_stream_flush_req_msg_v0131audio_stream_flush_resp_msg_v01EENS_6common6StatusEijRT_RPT0_Pv=so_stub_for_libtelux_qmi
-Wl,--defsym=_ZN5telux3qmi9QmiClient11sendRequestI30audio_stream_start_req_msg_v0131audio_stream_start_resp_msg_v01EENS_6common6StatusEijRT_RPT0_Pv=so_stub_for_libtelux_qmi
-Wl,--defsym=_ZN5telux3qmi9QmiClient11sendRequestI30audio_stream_write_req_msg_v0131audio_stream_write_resp_msg_v01EENS_6common6StatusEijRT_RPT0_Pv=so_stub_for_libtelux_qmi
-Wl,--defsym=_ZN5telux3qmi9QmiClient11sendRequestI30dms_get_device_cap_req_msg_v0131dms_get_device_cap_resp_msg_v01EENS_6common6StatusEijRT_RPT0_Pv=so_stub_for_libtelux_qmi
-Wl,--defsym=_ZN5telux3qmi9QmiClient11sendRequestI30nas_get_v2x_status_req_msg_v0131nas_get_v2x_status_resp_msg_v01EENS_6common6StatusEijRT_RPT0_Pv=so_stub_for_libtelux_qmi
-Wl,--defsym=_ZN5telux3qmi9QmiClient11sendRequestI30uim_delete_profile_req_msg_v0131uim_delete_profile_resp_msg_v01EENS_6common6StatusEijRT_RPT0_Pv=so_stub_for_libtelux_qmi
-Wl,--defsym=_ZN5telux3qmi9QmiClient11sendRequestI30uim_sap_connection_req_msg_v0131uim_sap_connection_resp_msg_v01EENS_6common6StatusEijRT_RPT0_Pv=so_stub_for_libtelux_qmi
-Wl,--defsym=_ZN5telux3qmi9QmiClient11sendRequestI30wds_create_profile_req_msg_v0131wds_create_profile_resp_msg_v01EENS_6common6StatusEijRT_RPT0_Pv=so_stub_for_libtelux_qmi
-Wl,--defsym=_ZN5telux3qmi9QmiClient11sendRequestI30wds_delete_profile_req_msg_v0131wds_delete_profile_resp_msg_v01EENS_6common6StatusEijRT_RPT0_Pv=so_stub_for_libtelux_qmi
-Wl,--defsym=_ZN5telux3qmi9QmiClient11sendRequestI31audio_create_stream_req_msg_v0132audio_create_stream_resp_msg_v01EENS_6common6StatusEijRT_RPT0_Pv=so_stub_for_libtelux_qmi
-Wl,--defsym=_ZN5telux3qmi9QmiClient11sendRequestI31pdc_activate_config_req_msg_v0132pdc_activate_config_resp_msg_v01EENS_6common6StatusEijRT_RPT0_Pv=so_stub_for_libtelux_qmi
-Wl,--defsym=_ZN5telux3qmi9QmiClient11sendRequestI31pdc_get_config_info_req_msg_v0132pdc_get_config_info_resp_msg_v01EENS_6common6StatusEijRT_RPT0_Pv=so_stub_for_libtelux_qmi
-Wl,--defsym=_ZN5telux3qmi9QmiClient11sendRequestI31uim_get_sim_profile_req_msg_v0132uim_get_sim_profile_resp_msg_v01EENS_6common6StatusEijRT_RPT0_Pv=so_stub_for_libtelux_qmi
-Wl,--defsym=_ZN5telux3qmi9QmiClient11sendRequestI31uim_set_sim_profile_req_msg_v0132uim_set_sim_profile_resp_msg_v01EENS_6common6StatusEijRT_RPT0_Pv=so_stub_for_libtelux_qmi
-Wl,--defsym=_ZN5telux3qmi9QmiClient11sendRequestI32audio_load_subsystem_req_msg_v0133audio_load_subsystem_resp_msg_v01EENS_6common6StatusEijRT_RPT0_Pv=so_stub_for_libtelux_qmi
-Wl,--defsym=_ZN5telux3qmi9QmiClient11sendRequestI32dms_set_event_report_req_msg_v0133dms_set_event_report_resp_msg_v01EENS_6common6StatusEijRT_RPT0_Pv=so_stub_for_libtelux_qmi
-Wl,--defsym=_ZN5telux3qmi9QmiClient11sendRequestI32uim_get_profile_info_req_msg_v0133uim_get_profile_info_resp_msg_v01EENS_6common6StatusEijRT_RPT0_Pv=so_stub_for_libtelux_qmi
-Wl,--defsym=_ZN5telux3qmi9QmiClient11sendRequestI32uim_get_slots_status_req_msg_v0133uim_get_slots_status_resp_msg_v01EENS_6common6StatusEijRT_RPT0_Pv=so_stub_for_libtelux_qmi
-Wl,--defsym=_ZN5telux3qmi9QmiClient11sendRequestI32uim_read_transparent_req_msg_v0133uim_read_transparent_resp_msg_v01EENS_6common6StatusEijRT_RPT0_Pv=so_stub_for_libtelux_qmi
-Wl,--defsym=_ZN5telux3qmi9QmiClient11sendRequestI32wds_get_profile_list_req_msg_v0133wds_get_profile_list_resp_msg_v01EENS_6common6StatusEijRT_RPT0_Pv=so_stub_for_libtelux_qmi
-Wl,--defsym=_ZN5telux3qmi9QmiClient11sendRequestI32wds_v2x_sps_flow_reg_req_msg_v0133wds_v2x_sps_flow_reg_resp_msg_v01EENS_6common6StatusEijRT_RPT0_Pv=so_stub_for_libtelux_qmi
-Wl,--defsym=_ZN5telux3qmi9QmiClient11sendRequestI32wms_set_event_report_req_msg_v0133wms_set_event_report_resp_msg_v01EENS_6common6StatusEijRT_RPT0_Pv=so_stub_for_libtelux_qmi
-Wl,--defsym=_ZN5telux3qmi9QmiClient11sendRequestI33audio_dtmf_generation_req_msg_v0134audio_dtmf_generation_resp_msg_v01EENS_6common6StatusEijRT_RPT0_Pv=so_stub_for_libtelux_qmi
-Wl,--defsym=_ZN5telux3qmi9QmiClient11sendRequestI33audio_stream_get_mute_req_msg_v0134audio_stream_get_mute_resp_msg_v01EENS_6common6StatusEijRT_RPT0_Pv=so_stub_for_libtelux_qmi
-Wl,--defsym=_ZN5telux3qmi9QmiClient11sendRequestI33audio_stream_loopback_req_msg_v0134audio_stream_loopback_resp_msg_v01EENS_6common6StatusEijRT_RPT0_Pv=so_stub_for_libtelux_qmi
-Wl,--defsym=_ZN5telux3qmi9QmiClient11sendRequestI33audio_stream_set_mute_req_msg_v0134audio_stream_set_mute_resp_msg_v01EENS_6common6StatusEijRT_RPT0_Pv=so_stub_for_libtelux_qmi
-Wl,--defsym=_ZN5telux3qmi9QmiClient11sendRequestI33audio_tone_generation_req_msg_v0134audio_tone_generation_resp_msg_v01EENS_6common6StatusEijRT_RPT0_Pv=so_stub_for_libtelux_qmi
-Wl,--defsym=_ZN5telux3qmi9QmiClient11sendRequestI33dms_bind_subscription_req_msg_v0134dms_bind_subscription_resp_msg_v01EENS_6common6StatusEijRT_RPT0_Pv=so_stub_for_libtelux_qmi
-Wl,--defsym=_ZN5telux3qmi9QmiClient11sendRequestI33nas_bind_subscription_req_msg_v0134nas_bind_subscription_resp_msg_v01EENS_6common6StatusEijRT_RPT0_Pv=so_stub_for_libtelux_qmi
-Wl,--defsym=_ZN5telux3qmi9QmiClient11sendRequestI33pdc_deactivate_config_req_msg_v0132pdc_activate_config_resp_msg_v01EENS_6common6StatusEijRT_RPT0_Pv=so_stub_for_libtelux_qmi
-Wl,--defsym=_ZN5telux3qmi9QmiClient11sendRequestI33wds_bind_subscription_req_msg_v0134wds_bind_subscription_resp_msg_v01EENS_6common6StatusEijRT_RPT0_Pv=so_stub_for_libtelux_qmi
-Wl,--defsym=_ZN5telux3qmi9QmiClient11sendRequestI33wms_bind_subscription_req_msg_v0134wms_bind_subscription_resp_msg_v01EENS_6common6StatusEijRT_RPT0_Pv=so_stub_for_libtelux_qmi
-Wl,--defsym=_ZN5telux3qmi9QmiClient11sendRequestI34dms_get_operating_mode_req_msg_v0135dms_get_operating_mode_resp_msg_v01EENS_6common6StatusEijRT_RPT0_Pv=so_stub_for_libtelux_qmi
-Wl,--defsym=_ZN5telux3qmi9QmiClient11sendRequestI34dms_set_operating_mode_req_msg_v0135dms_set_operating_mode_resp_msg_v01EENS_6common6StatusEijRT_RPT0_Pv=so_stub_for_libtelux_qmi
-Wl,--defsym=_ZN5telux3qmi9QmiClient11sendRequestI34tsens_service_register_req_msg_v0135tsens_service_register_resp_msg_v01EENS_6common6StatusEijRT_RPT0_Pv=so_stub_for_libtelux_qmi
-Wl,--defsym=_ZN5telux3qmi9QmiClient11sendRequestI34wds_bind_mux_data_port_req_msg_v0135wds_bind_mux_data_port_resp_msg_v01EENS_6common6StatusEijRT_RPT0_Pv=so_stub_for_libtelux_qmi
-Wl,--defsym=_ZN5telux3qmi9QmiClient11sendRequestI34wds_v2x_sps_flow_dereg_req_msg_v0135wds_v2x_sps_flow_dereg_resp_msg_v01EENS_6common6StatusEijRT_RPT0_Pv=so_stub_for_libtelux_qmi
-Wl,--defsym=_ZN5telux3qmi9QmiClient11sendRequestI35audio_create_transcoder_req_msg_v0136audio_create_transcoder_resp_msg_v01EENS_6common6StatusEijRT_RPT0_Pv=so_stub_for_libtelux_qmi
-Wl,--defsym=_ZN5telux3qmi9QmiClient11sendRequestI35audio_stream_get_device_req_msg_v0136audio_stream_get_device_resp_msg_v01EENS_6common6StatusEijRT_RPT0_Pv=so_stub_for_libtelux_qmi
-Wl,--defsym=_ZN5telux3qmi9QmiClient11sendRequestI35audio_stream_get_volume_req_msg_v0136audio_stream_get_volume_resp_msg_v01EENS_6common6StatusEijRT_RPT0_Pv=so_stub_for_libtelux_qmi
-Wl,--defsym=_ZN5telux3qmi9QmiClient11sendRequestI35audio_stream_set_device_req_msg_v0136audio_stream_set_device_resp_msg_v01EENS_6common6StatusEijRT_RPT0_Pv=so_stub_for_libtelux_qmi
-Wl,--defsym=_ZN5telux3qmi9QmiClient11sendRequestI35audio_stream_set_volume_req_msg_v0136audio_stream_set_volume_resp_msg_v01EENS_6common6StatusEijRT_RPT0_Pv=so_stub_for_libtelux_qmi
-Wl,--defsym=_ZN5telux3qmi9QmiClient11sendRequestI35dms_indication_register_req_msg_v0136dms_indication_register_resp_msg_v01EENS_6common6StatusEijRT_RPT0_Pv=so_stub_for_libtelux_qmi
-Wl,--defsym=_ZN5telux3qmi9QmiClient11sendRequestI35nas_indication_register_req_msg_v0136nas_indication_register_resp_msg_v01EENS_6common6StatusEijRT_RPT0_Pv=so_stub_for_libtelux_qmi
-Wl,--defsym=_ZN5telux3qmi9QmiClient11sendRequestI35nas_set_v2x_peak_tx_pwr_req_msg_v0136nas_set_v2x_peak_tx_pwr_resp_msg_v01EENS_6common6StatusEijRT_RPT0_Pv=so_stub_for_libtelux_qmi
-Wl,--defsym=_ZN5telux3qmi9QmiClient11sendRequestI35pdc_get_selected_config_req_msg_v0136pdc_get_selected_config_resp_msg_v01EENS_6common6StatusEijRT_RPT0_Pv=so_stub_for_libtelux_qmi
-Wl,--defsym=_ZN5telux3qmi9QmiClient11sendRequestI35pdc_indication_register_req_msg_v0136pdc_indication_register_resp_msg_v01EENS_6common6StatusEijRT_RPT0_Pv=so_stub_for_libtelux_qmi
-Wl,--defsym=_ZN5telux3qmi9QmiClient11sendRequestI35pdc_set_selected_config_req_msg_v0136pdc_set_selected_config_resp_msg_v01EENS_6common6StatusEijRT_RPT0_Pv=so_stub_for_libtelux_qmi
-Wl,--defsym=_ZN5telux3qmi9QmiClient11sendRequestI35voice_bind_subscription_req_msg_v0236voice_bind_subscription_resp_msg_v02EENS_6common6StatusEijRT_RPT0_Pv=so_stub_for_libtelux_qmi
-Wl,--defsym=_ZN5telux3qmi9QmiClient11sendRequestI35wds_config_profile_list_req_msg_v0136wds_config_profile_list_resp_msg_v01EENS_6common6StatusEijRT_RPT0_Pv=so_stub_for_libtelux_qmi
-Wl,--defsym=_ZN5telux3qmi9QmiClient11sendRequestI35wds_indication_register_req_msg_v0136wds_indication_register_resp_msg_v01EENS_6common6StatusEijRT_RPT0_Pv=so_stub_for_libtelux_qmi
-Wl,--defsym=_ZN5telux3qmi9QmiClient11sendRequestI35wds_v2x_get_config_file_req_msg_v0136wds_v2x_get_config_file_resp_msg_v01EENS_6common6StatusEijRT_RPT0_Pv=so_stub_for_libtelux_qmi
-Wl,--defsym=_ZN5telux3qmi9QmiClient11sendRequestI35wds_v2x_sps_flow_update_req_msg_v0136wds_v2x_sps_flow_update_resp_msg_v01EENS_6common6StatusEijRT_RPT0_Pv=so_stub_for_libtelux_qmi
-Wl,--defsym=_ZN5telux3qmi9QmiClient11sendRequestI35wms_indication_register_req_msg_v0136wms_indication_register_resp_msg_v01EENS_6common6StatusEijRT_RPT0_Pv=so_stub_for_libtelux_qmi
-Wl,--defsym=_ZN5telux3qmi9QmiClient11sendRequestI36nas_perform_network_scan_req_msg_v0137nas_perform_network_scan_resp_msg_v01EENS_6common6StatusEijRT_RPT0_Pv=so_stub_for_libtelux_qmi
-Wl,--defsym=_ZN5telux3qmi9QmiClient11sendRequestI36tmd_get_mitigation_level_req_msg_v0137tmd_get_mitigation_level_resp_msg_v01EENS_6common6StatusEijRT_RPT0_Pv=so_stub_for_libtelux_qmi
-Wl,--defsym=_ZN5telux3qmi9QmiClient11sendRequestI36tmd_set_mitigation_level_req_msg_v0137tmd_set_mitigation_level_resp_msg_v01EENS_6common6StatusEijRT_RPT0_Pv=so_stub_for_libtelux_qmi
-Wl,--defsym=_ZN5telux3qmi9QmiClient11sendRequestI36uim_profile_user_consent_req_msg_v0137uim_profile_user_consent_resp_msg_v01EENS_6common6StatusEijRT_RPT0_Pv=so_stub_for_libtelux_qmi
-Wl,--defsym=_ZN5telux3qmi9QmiClient11sendRequestI36wds_get_profile_settings_req_msg_v0137wds_get_profile_settings_resp_msg_v01EENS_6common6StatusEijRT_RPT0_Pv=so_stub_for_libtelux_qmi
-Wl,--defsym=_ZN5telux3qmi9QmiClient11sendRequestI36wds_get_runtime_settings_req_msg_v0137wds_get_runtime_settings_resp_msg_v01EENS_6common6StatusEijRT_RPT0_Pv=so_stub_for_libtelux_qmi
-Wl,--defsym=_ZN5telux3qmi9QmiClient11sendRequestI36wds_v2x_non_sps_flow_reg_req_msg_v0137wds_v2x_non_sps_flow_reg_resp_msg_v01EENS_6common6StatusEijRT_RPT0_Pv=so_stub_for_libtelux_qmi
-Wl,--defsym=_ZN5telux3qmi9QmiClient11sendRequestI36wds_v2x_send_config_file_req_msg_v0137wds_v2x_send_config_file_resp_msg_v01EENS_6common6StatusEijRT_RPT0_Pv=so_stub_for_libtelux_qmi
-Wl,--defsym=_ZN5telux3qmi9QmiClient11sendRequestI36wds_v2x_tunnel_mode_info_req_msg_v0137wds_v2x_tunnel_mode_info_resp_msg_v01EENS_6common6StatusEijRT_RPT0_Pv=so_stub_for_libtelux_qmi
-Wl,--defsym=_ZN5telux3qmi9QmiClient11sendRequestI36wms_get_broadcast_config_req_msg_v0137wms_get_broadcast_config_resp_msg_v01EENS_6common6StatusEijRT_RPT0_Pv=so_stub_for_libtelux_qmi
-Wl,--defsym=_ZN5telux3qmi9QmiClient11sendRequestI36wms_set_broadcast_config_req_msg_v0137wms_set_broadcast_config_resp_msg_v01EENS_6common6StatusEijRT_RPT0_Pv=so_stub_for_libtelux_qmi
-Wl,--defsym=_ZN5telux3qmi9QmiClient11sendRequestI37audio_teardown_transcoder_req_msg_v0138audio_teardown_transcoder_resp_msg_v01EENS_6common6StatusEijRT_RPT0_Pv=so_stub_for_libtelux_qmi
-Wl,--defsym=_ZN5telux3qmi9QmiClient11sendRequestI37dms_device_activity_state_req_msg_v0138dms_device_activity_state_resp_msg_v01EENS_6common6StatusEijRT_RPT0_Pv=so_stub_for_libtelux_qmi
-Wl,--defsym=_ZN5telux3qmi9QmiClient11sendRequestI37voice_get_ecall_oprt_mode_req_msg_v0238voice_get_ecall_oprt_mode_resp_msg_v02EENS_6common6StatusEijRT_RPT0_Pv=so_stub_for_libtelux_qmi
-Wl,--defsym=_ZN5telux3qmi9QmiClient11sendRequestI37voice_indication_register_req_msg_v0238voice_indication_register_resp_msg_v02EENS_6common6StatusEijRT_RPT0_Pv=so_stub_for_libtelux_qmi
-Wl,--defsym=_ZN5telux3qmi9QmiClient11sendRequestI37voice_set_ecall_oprt_mode_req_msg_v0238voice_set_ecall_oprt_mode_resp_msg_v02EENS_6common6StatusEijRT_RPT0_Pv=so_stub_for_libtelux_qmi
-Wl,--defsym=_ZN5telux3qmi9QmiClient11sendRequestI37wds_v2x_service_subscribe_req_msg_v0138wds_v2x_service_subscribe_resp_msg_v01EENS_6common6StatusEijRT_RPT0_Pv=so_stub_for_libtelux_qmi
-Wl,--defsym=_ZN5telux3qmi9QmiClient11sendRequestI37wds_v2x_sps_flow_get_info_req_msg_v0138wds_v2x_sps_flow_get_info_resp_msg_v01EENS_6common6StatusEijRT_RPT0_Pv=so_stub_for_libtelux_qmi
-Wl,--defsym=_ZN5telux3qmi9QmiClient11sendRequestI38audio_service_ind_register_req_msg_v0139audio_service_ind_register_resp_msg_v01EENS_6common6StatusEijRT_RPT0_Pv=so_stub_for_libtelux_qmi
-Wl,--defsym=_ZN5telux3qmi9QmiClient11sendRequestI38nas_get_preferred_networks_req_msg_v0139nas_get_preferred_networks_resp_msg_v01EENS_6common6StatusEijRT_RPT0_Pv=so_stub_for_libtelux_qmi
-Wl,--defsym=_ZN5telux3qmi9QmiClient11sendRequestI38nas_set_preferred_networks_req_msg_v0139nas_set_preferred_networks_resp_msg_v01EENS_6common6StatusEijRT_RPT0_Pv=so_stub_for_libtelux_qmi
-Wl,--defsym=_ZN5telux3qmi9QmiClient11sendRequestI38wds_v2x_non_sps_flow_dereg_req_msg_v0139wds_v2x_non_sps_flow_dereg_resp_msg_v01EENS_6common6StatusEijRT_RPT0_Pv=so_stub_for_libtelux_qmi
-Wl,--defsym=_ZN5telux3qmi9QmiClient11sendRequestI38wds_v2x_update_src_l2_info_req_msg_v0139wds_v2x_update_src_l2_info_resp_msg_v01EENS_6common6StatusEijRT_RPT0_Pv=so_stub_for_libtelux_qmi
-Wl,--defsym=_ZN5telux3qmi9QmiClient11sendRequestI39audio_get_supported_devices_req_msg_v0140audio_get_supported_devices_resp_msg_v01EENS_6common6StatusEijRT_RPT0_Pv=so_stub_for_libtelux_qmi
-Wl,--defsym=_ZN5telux3qmi9QmiClient11sendRequestI39audio_get_supported_streams_req_msg_v0140audio_get_supported_streams_resp_msg_v01EENS_6common6StatusEijRT_RPT0_Pv=so_stub_for_libtelux_qmi
-Wl,--defsym=_ZN5telux3qmi9QmiClient11sendRequestI39nas_get_high_capability_sub_req_msg_v0140nas_get_high_capability_sub_resp_msg_v01EENS_6common6StatusEijRT_RPT0_Pv=so_stub_for_libtelux_qmi
-Wl,--defsym=_ZN5telux3qmi9QmiClient11sendRequestI39nas_set_high_capability_sub_req_msg_v0140nas_set_high_capability_sub_resp_msg_v01EENS_6common6StatusEijRT_RPT0_Pv=so_stub_for_libtelux_qmi
-Wl,--defsym=_ZN5telux3qmi9QmiClient11sendRequestI39pdc_get_default_config_info_req_msg_v0140pdc_get_default_config_info_resp_msg_v01EENS_6common6StatusEijRT_RPT0_Pv=so_stub_for_libtelux_qmi
-Wl,--defsym=_ZN5telux3qmi9QmiClient11sendRequestI39uim_update_profile_nickname_req_msg_v0140uim_update_profile_nickname_resp_msg_v01EENS_6common6StatusEijRT_RPT0_Pv=so_stub_for_libtelux_qmi
-Wl,--defsym=_ZN5telux3qmi9QmiClient11sendRequestI39wds_modify_profile_settings_req_msg_v0140wds_modify_profile_settings_resp_msg_v01EENS_6common6StatusEijRT_RPT0_Pv=so_stub_for_libtelux_qmi
-Wl,--defsym=_ZN5telux3qmi9QmiClient11sendRequestI39wds_v2x_get_capability_info_req_msg_v0140wds_v2x_get_capability_info_resp_msg_v01EENS_6common6StatusEijRT_RPT0_Pv=so_stub_for_libtelux_qmi
-Wl,--defsym=_ZN5telux3qmi9QmiClient11sendRequestI40wms_set_broadcast_activation_req_msg_v0141wms_set_broadcast_activation_resp_msg_v01EENS_6common6StatusEijRT_RPT0_Pv=so_stub_for_libtelux_qmi
-Wl,--defsym=_ZN5telux3qmi9QmiClient11sendRequestI41wds_set_client_ip_family_pref_req_msg_v0142wds_set_client_ip_family_pref_resp_msg_v01EENS_6common6StatusEijRT_RPT0_Pv=so_stub_for_libtelux_qmi
-Wl,--defsym=_ZN5telux3qmi9QmiClient11sendRequestI45voice_get_ecall_hlap_timer_status_req_msg_v0246voice_get_ecall_hlap_timer_status_resp_msg_v02EENS_6common6StatusEijRT_RPT0_Pv=so_stub_for_libtelux_qmi
-Wl,--defsym=_ZN5telux3qmi9QmiClient11sendRequestI46wds_v2x_service_get_subscribe_list_req_msg_v0147wds_v2x_service_get_subscribe_list_resp_msg_v01EENS_6common6StatusEijRT_RPT0_Pv=so_stub_for_libtelux_qmi
-Wl,--defsym=_ZN5telux3qmi9QmiClient11sendRequestI47nas_get_system_selection_preference_req_msg_v0148nas_get_system_selection_preference_resp_msg_v01EENS_6common6StatusEijRT_RPT0_Pv=so_stub_for_libtelux_qmi
-Wl,--defsym=_ZN5telux3qmi9QmiClient11sendRequestI47nas_set_system_selection_preference_req_msg_v0148nas_set_system_selection_preference_resp_msg_v01EENS_6common6StatusEijRT_RPT0_Pv=so_stub_for_libtelux_qmi
-Wl,--defsym=_ZN5telux3qmi9QmiClient11sendRequestI54tmd_register_notification_mitigation_level_req_msg_v0155tmd_register_notification_mitigation_level_resp_msg_v01EENS_6common6StatusEijRT_RPT0_Pv=so_stub_for_libtelux_qmi
-Wl,--defsym=_ZN5telux3qmi9QmiClient11sendRequestI56tmd_deregister_notification_mitigation_level_req_msg_v0157tmd_deregister_notification_mitigation_level_resp_msg_v01EENS_6common6StatusEijRT_RPT0_Pv=so_stub_for_libtelux_qmi
-Wl,--defsym=_ZN5telux3qmi9QmiClient12errorHandlerEi=so_stub_for_libtelux_qmi
-Wl,--defsym=_ZN5telux3qmi9QmiClient12getModemPortEv=so_stub_for_libtelux_qmi
-Wl,--defsym=_ZN5telux3qmi9QmiClient13releaseClientEv=so_stub_for_libtelux_qmi
-Wl,--defsym=_ZN5telux3qmi9QmiClient14handleNewStateESt10shared_ptrINS1_12ServiceParamEE=so_stub_for_libtelux_qmi
-Wl,--defsym=_ZN5telux3qmi9QmiClient15getClientHandleEv=so_stub_for_libtelux_qmi
-Wl,--defsym=_ZN5telux3qmi9QmiClient15notifierHandlerE28qmi_client_notify_event_type=so_stub_for_libtelux_qmi
-Wl,--defsym=_ZN5telux3qmi9QmiClient15sendSyncRequestI30uim_sap_connection_req_msg_v0131uim_sap_connection_resp_msg_v01EENS_6common6StatusEjRT_RPT0_i=so_stub_for_libtelux_qmi
-Wl,--defsym=_ZN5telux3qmi9QmiClient15sendSyncRequestI31uim_get_card_status_req_msg_v0132uim_get_card_status_resp_msg_v01EENS_6common6StatusEjRT_RPT0_i=so_stub_for_libtelux_qmi
-Wl,--defsym=_ZN5telux3qmi9QmiClient16registerListenerESt8weak_ptrINS0_12IQmiListenerEE=so_stub_for_libtelux_qmi
-Wl,--defsym=_ZN5telux3qmi9QmiClient16sendAsyncRequestI23pwr_mgr_ack_req_msg_v0124pwr_mgr_ack_resp_msg_v01EENS_6common6StatusEjRT_RPT0_St10shared_ptrINS5_16ICommandCallbackEEPv=so_stub_for_libtelux_qmi
-Wl,--defsym=_ZN5telux3qmi9QmiClient16sendAsyncRequestI23pwr_mgr_cmd_req_msg_v0124pwr_mgr_cmd_resp_msg_v01EENS_6common6StatusEjRT_RPT0_St10shared_ptrINS5_16ICommandCallbackEEPv=so_stub_for_libtelux_qmi
-Wl,--defsym=_ZN5telux3qmi9QmiClient16sendAsyncRequestI23uim_get_eid_req_msg_v0124uim_get_eid_resp_msg_v01JPS4_PviEEENS_6common6StatusEjRT_RPT0_St8functionIFvDpT1_EES6_=so_stub_for_libtelux_qmi
-Wl,--defsym=_ZN5telux3qmi9QmiClient16sendAsyncRequestI24nas_v2x_stop_req_msg_v0125nas_v2x_stop_resp_msg_v01EENS_6common6StatusEjRT_RPT0_St10shared_ptrINS5_16ICommandCallbackEEPv=so_stub_for_libtelux_qmi
-Wl,--defsym=_ZN5telux3qmi9QmiClient16sendAsyncRequestI25nas_v2x_start_req_msg_v0126nas_v2x_start_resp_msg_v01EENS_6common6StatusEjRT_RPT0_St10shared_ptrINS5_16ICommandCallbackEEPv=so_stub_for_libtelux_qmi
-Wl,--defsym=_ZN5telux3qmi9QmiClient16sendAsyncRequestI25uim_event_reg_req_msg_v0126uim_event_reg_resp_msg_v01JiiEEENS_6common6StatusEjRT_RPT0_St8functionIFvDpT1_EEPv=so_stub_for_libtelux_qmi
-Wl,--defsym=_ZN5telux3qmi9QmiClient16sendAsyncRequestI26dms_get_msisdn_req_msg_v0127dms_get_msisdn_resp_msg_v01EENS_6common6StatusEjRT_RPT0_St10shared_ptrINS5_16ICommandCallbackEEPv=so_stub_for_libtelux_qmi
-Wl,--defsym=_ZN5telux3qmi9QmiClient16sendAsyncRequestI27pdc_get_feature_req_msg_v0128pdc_get_feature_resp_msg_v01EENS_6common6StatusEjRT_RPT0_St10shared_ptrINS5_16ICommandCallbackEEPv=so_stub_for_libtelux_qmi
-Wl,--defsym=_ZN5telux3qmi9QmiClient16sendAsyncRequestI27pdc_load_config_req_msg_v0128pdc_load_config_resp_msg_v01EENS_6common6StatusEjRT_RPT0_St10shared_ptrINS5_16ICommandCallbackEEPv=so_stub_for_libtelux_qmi
-Wl,--defsym=_ZN5telux3qmi9QmiClient16sendAsyncRequestI27pdc_set_feature_req_msg_v0128pdc_set_feature_resp_msg_v01EENS_6common6StatusEjRT_RPT0_St10shared_ptrINS5_16ICommandCallbackEEPv=so_stub_for_libtelux_qmi
-Wl,--defsym=_ZN5telux3qmi9QmiClient16sendAsyncRequestI27tsens_get_state_req_msg_v0128tsens_get_state_resp_msg_v01EENS_6common6StatusEjRT_RPT0_St10shared_ptrINS5_16ICommandCallbackEEPv=so_stub_for_libtelux_qmi
-Wl,--defsym=_ZN5telux3qmi9QmiClient16sendAsyncRequestI27tsens_set_state_req_msg_v0128tsens_set_state_resp_msg_v01EENS_6common6StatusEjRT_RPT0_St10shared_ptrINS5_16ICommandCallbackEEPv=so_stub_for_libtelux_qmi
-Wl,--defsym=_ZN5telux3qmi9QmiClient16sendAsyncRequestI27uim_add_profile_req_msg_v0128uim_add_profile_resp_msg_v01JPS4_PviEEENS_6common6StatusEjRT_RPT0_St8functionIFvDpT1_EES6_=so_stub_for_libtelux_qmi
-Wl,--defsym=_ZN5telux3qmi9QmiClient16sendAsyncRequestI27uim_remote_apdu_req_msg_v0128uim_remote_apdu_resp_msg_v01JPS4_iPvEEENS_6common6StatusEjRT_RPT0_St8functionIFvDpT1_EES6_=so_stub_for_libtelux_qmi
-Wl,--defsym=_ZN5telux3qmi9QmiClient16sendAsyncRequestI27uim_sap_request_req_msg_v0128uim_sap_request_resp_msg_v01EENS_6common6StatusEjRT_RPT0_St10shared_ptrINS5_16ICommandCallbackEEPv=so_stub_for_libtelux_qmi
-Wl,--defsym=_ZN5telux3qmi9QmiClient16sendAsyncRequestI27uim_switch_slot_req_msg_v0128uim_switch_slot_resp_msg_v01JiPviEEENS_6common6StatusEjRT_RPT0_St8functionIFvDpT1_EES5_=so_stub_for_libtelux_qmi
-Wl,--defsym=_ZN5telux3qmi9QmiClient16sendAsyncRequestI27voice_dial_call_req_msg_v0228voice_dial_call_resp_msg_v02EENS_6common6StatusEjRT_RPT0_St10shared_ptrINS5_16ICommandCallbackEEPv=so_stub_for_libtelux_qmi
-Wl,--defsym=_ZN5telux3qmi9QmiClient16sendAsyncRequestI28nas_get_sys_info_req_msg_v0129nas_get_sys_info_resp_msg_v01JPS4_PviEEENS_6common6StatusEjRT_RPT0_St8functionIFvDpT1_EES6_=so_stub_for_libtelux_qmi
-Wl,--defsym=_ZN5telux3qmi9QmiClient16sendAsyncRequestI28pdc_list_configs_req_msg_v0129pdc_list_configs_resp_msg_v01EENS_6common6StatusEjRT_RPT0_St10shared_ptrINS5_16ICommandCallbackEEPv=so_stub_for_libtelux_qmi
-Wl,--defsym=_ZN5telux3qmi9QmiClient16sendAsyncRequestI28pwr_mgr_register_req_msg_v0129pwr_mgr_register_resp_msg_v01EENS_6common6StatusEjRT_RPT0_St10shared_ptrINS5_16ICommandCallbackEEPv=so_stub_for_libtelux_qmi
-Wl,--defsym=_ZN5telux3qmi9QmiClient16sendAsyncRequestI28uim_remote_event_req_msg_v0129uim_remote_event_resp_msg_v01JPS4_iPvEEENS_6common6StatusEjRT_RPT0_St8functionIFvDpT1_EES6_=so_stub_for_libtelux_qmi
-Wl,--defsym=_ZN5telux3qmi9QmiClient16sendAsyncRequestI28uim_remote_reset_req_msg_v0129uim_remote_reset_resp_msg_v01JPS4_iPvEEENS_6common6StatusEjRT_RPT0_St8functionIFvDpT1_EES6_=so_stub_for_libtelux_qmi
-Wl,--defsym=_ZN5telux3qmi9QmiClient16sendAsyncRequestI28voice_set_config_req_msg_v0229voice_set_config_resp_msg_v02EENS_6common6StatusEjRT_RPT0_St10shared_ptrINS5_16ICommandCallbackEEPv=so_stub_for_libtelux_qmi
-Wl,--defsym=_ZN5telux3qmi9QmiClient16sendAsyncRequestI29audio_stream_read_req_msg_v0130audio_stream_read_resp_msg_v01EENS_6common6StatusEjRT_RPT0_St10shared_ptrINS5_16ICommandCallbackEEPv=so_stub_for_libtelux_qmi
-Wl,--defsym=_ZN5telux3qmi9QmiClient16sendAsyncRequestI29audio_stream_stop_req_msg_v0130audio_stream_stop_resp_msg_v01EENS_6common6StatusEjRT_RPT0_St10shared_ptrINS5_16ICommandCallbackEEPv=so_stub_for_libtelux_qmi
-Wl,--defsym=_ZN5telux3qmi9QmiClient16sendAsyncRequestI29pdc_delete_config_req_msg_v0130pdc_delete_config_resp_msg_v01EENS_6common6StatusEjRT_RPT0_St10shared_ptrINS5_16ICommandCallbackEEPv=so_stub_for_libtelux_qmi
-Wl,--defsym=_ZN5telux3qmi9QmiClient16sendAsyncRequestI30audio_close_stream_req_msg_v0131audio_close_stream_resp_msg_v01EENS_6common6StatusEjRT_RPT0_St10shared_ptrINS5_16ICommandCallbackEEPv=so_stub_for_libtelux_qmi
-Wl,--defsym=_ZN5telux3qmi9QmiClient16sendAsyncRequestI30audio_stream_drain_req_msg_v0131audio_stream_drain_resp_msg_v01EENS_6common6StatusEjRT_RPT0_St10shared_ptrINS5_16ICommandCallbackEEPv=so_stub_for_libtelux_qmi
-Wl,--defsym=_ZN5telux3qmi9QmiClient16sendAsyncRequestI30audio_stream_flush_req_msg_v0131audio_stream_flush_resp_msg_v01EENS_6common6StatusEjRT_RPT0_St10shared_ptrINS5_16ICommandCallbackEEPv=so_stub_for_libtelux_qmi
-Wl,--defsym=_ZN5telux3qmi9QmiClient16sendAsyncRequestI30audio_stream_start_req_msg_v0131audio_stream_start_resp_msg_v01EENS_6common6StatusEjRT_RPT0_St10shared_ptrINS5_16ICommandCallbackEEPv=so_stub_for_libtelux_qmi
-Wl,--defsym=_ZN5telux3qmi9QmiClient16sendAsyncRequestI30audio_stream_write_req_msg_v0131audio_stream_write_resp_msg_v01EENS_6common6StatusEjRT_RPT0_St10shared_ptrINS5_16ICommandCallbackEEPv=so_stub_for_libtelux_qmi
-Wl,--defsym=_ZN5telux3qmi9QmiClient16sendAsyncRequestI30dms_get_device_cap_req_msg_v0131dms_get_device_cap_resp_msg_v01EENS_6common6StatusEjRT_RPT0_St10shared_ptrINS5_16ICommandCallbackEEPv=so_stub_for_libtelux_qmi
-Wl,--defsym=_ZN5telux3qmi9QmiClient16sendAsyncRequestI30nas_get_v2x_status_req_msg_v0131nas_get_v2x_status_resp_msg_v01EENS_6common6StatusEjRT_RPT0_St10shared_ptrINS5_16ICommandCallbackEEPv=so_stub_for_libtelux_qmi
-Wl,--defsym=_ZN5telux3qmi9QmiClient16sendAsyncRequestI30uim_delete_profile_req_msg_v0131uim_delete_profile_resp_msg_v01JPS4_PviEEENS_6common6StatusEjRT_RPT0_St8functionIFvDpT1_EES6_=so_stub_for_libtelux_qmi
-Wl,--defsym=_ZN5telux3qmi9QmiClient16sendAsyncRequestI30uim_sap_connection_req_msg_v0131uim_sap_connection_resp_msg_v01EENS_6common6StatusEjRT_RPT0_St10shared_ptrINS5_16ICommandCallbackEEPv=so_stub_for_libtelux_qmi
-Wl,--defsym=_ZN5telux3qmi9QmiClient16sendAsyncRequestI30wds_create_profile_req_msg_v0131wds_create_profile_resp_msg_v01EENS_6common6StatusEjRT_RPT0_St10shared_ptrINS5_16ICommandCallbackEEPv=so_stub_for_libtelux_qmi
-Wl,--defsym=_ZN5telux3qmi9QmiClient16sendAsyncRequestI30wds_delete_profile_req_msg_v0131wds_delete_profile_resp_msg_v01EENS_6common6StatusEjRT_RPT0_St10shared_ptrINS5_16ICommandCallbackEEPv=so_stub_for_libtelux_qmi
-Wl,--defsym=_ZN5telux3qmi9QmiClient16sendAsyncRequestI31audio_create_stream_req_msg_v0132audio_create_stream_resp_msg_v01EENS_6common6StatusEjRT_RPT0_St10shared_ptrINS5_16ICommandCallbackEEPv=so_stub_for_libtelux_qmi
-Wl,--defsym=_ZN5telux3qmi9QmiClient16sendAsyncRequestI31pdc_activate_config_req_msg_v0132pdc_activate_config_resp_msg_v01EENS_6common6StatusEjRT_RPT0_St10shared_ptrINS5_16ICommandCallbackEEPv=so_stub_for_libtelux_qmi
-Wl,--defsym=_ZN5telux3qmi9QmiClient16sendAsyncRequestI31pdc_get_config_info_req_msg_v0132pdc_get_config_info_resp_msg_v01EENS_6common6StatusEjRT_RPT0_St10shared_ptrINS5_16ICommandCallbackEEPv=so_stub_for_libtelux_qmi
-Wl,--defsym=_ZN5telux3qmi9QmiClient16sendAsyncRequestI31uim_get_sim_profile_req_msg_v0132uim_get_sim_profile_resp_msg_v01JPS4_PviEEENS_6common6StatusEjRT_RPT0_St8functionIFvDpT1_EES6_=so_stub_for_libtelux_qmi
-Wl,--defsym=_ZN5telux3qmi9QmiClient16sendAsyncRequestI31uim_set_sim_profile_req_msg_v0132uim_set_sim_profile_resp_msg_v01JPS4_PviEEENS_6common6StatusEjRT_RPT0_St8functionIFvDpT1_EES6_=so_stub_for_libtelux_qmi
-Wl,--defsym=_ZN5telux3qmi9QmiClient16sendAsyncRequestI32audio_load_subsystem_req_msg_v0133audio_load_subsystem_resp_msg_v01EENS_6common6StatusEjRT_RPT0_St10shared_ptrINS5_16ICommandCallbackEEPv=so_stub_for_libtelux_qmi
-Wl,--defsym=_ZN5telux3qmi9QmiClient16sendAsyncRequestI32dms_set_event_report_req_msg_v0133dms_set_event_report_resp_msg_v01EENS_6common6StatusEjRT_RPT0_St10shared_ptrINS5_16ICommandCallbackEEPv=so_stub_for_libtelux_qmi
-Wl,--defsym=_ZN5telux3qmi9QmiClient16sendAsyncRequestI32uim_get_profile_info_req_msg_v0133uim_get_profile_info_resp_msg_v01JPS4_PviEEENS_6common6StatusEjRT_RPT0_St8functionIFvDpT1_EES6_=so_stub_for_libtelux_qmi
-Wl,--defsym=_ZN5telux3qmi9QmiClient16sendAsyncRequestI32uim_get_slots_status_req_msg_v0133uim_get_slots_status_resp_msg_v01JPS4_PviEEENS_6common6StatusEjRT_RPT0_St8functionIFvDpT1_EES6_=so_stub_for_libtelux_qmi
-Wl,--defsym=_ZN5telux3qmi9QmiClient16sendAsyncRequestI32uim_read_transparent_req_msg_v0133uim_read_transparent_resp_msg_v01EENS_6common6StatusEjRT_RPT0_St10shared_ptrINS5_16ICommandCallbackEEPv=so_stub_for_libtelux_qmi
-Wl,--defsym=_ZN5telux3qmi9QmiClient16sendAsyncRequestI32wds_get_profile_list_req_msg_v0133wds_get_profile_list_resp_msg_v01EENS_6common6StatusEjRT_RPT0_St10shared_ptrINS5_16ICommandCallbackEEPv=so_stub_for_libtelux_qmi
-Wl,--defsym=_ZN5telux3qmi9QmiClient16sendAsyncRequestI32wds_v2x_sps_flow_reg_req_msg_v0133wds_v2x_sps_flow_reg_resp_msg_v01EENS_6common6StatusEjRT_RPT0_St10shared_ptrINS5_16ICommandCallbackEEPv=so_stub_for_libtelux_qmi
-Wl,--defsym=_ZN5telux3qmi9QmiClient16sendAsyncRequestI32wms_set_event_report_req_msg_v0133wms_set_event_report_resp_msg_v01JPS4_PviEEENS_6common6StatusEjRT_RPT0_St8functionIFvDpT1_EES6_=so_stub_for_libtelux_qmi
-Wl,--defsym=_ZN5telux3qmi9QmiClient16sendAsyncRequestI33audio_dtmf_generation_req_msg_v0134audio_dtmf_generation_resp_msg_v01EENS_6common6StatusEjRT_RPT0_St10shared_ptrINS5_16ICommandCallbackEEPv=so_stub_for_libtelux_qmi
-Wl,--defsym=_ZN5telux3qmi9QmiClient16sendAsyncRequestI33audio_stream_get_mute_req_msg_v0134audio_stream_get_mute_resp_msg_v01EENS_6common6StatusEjRT_RPT0_St10shared_ptrINS5_16ICommandCallbackEEPv=so_stub_for_libtelux_qmi
-Wl,--defsym=_ZN5telux3qmi9QmiClient16sendAsyncRequestI33audio_stream_loopback_req_msg_v0134audio_stream_loopback_resp_msg_v01EENS_6common6StatusEjRT_RPT0_St10shared_ptrINS5_16ICommandCallbackEEPv=so_stub_for_libtelux_qmi
-Wl,--defsym=_ZN5telux3qmi9QmiClient16sendAsyncRequestI33audio_stream_set_mute_req_msg_v0134audio_stream_set_mute_resp_msg_v01EENS_6common6StatusEjRT_RPT0_St10shared_ptrINS5_16ICommandCallbackEEPv=so_stub_for_libtelux_qmi
-Wl,--defsym=_ZN5telux3qmi9QmiClient16sendAsyncRequestI33audio_tone_generation_req_msg_v0134audio_tone_generation_resp_msg_v01EENS_6common6StatusEjRT_RPT0_St10shared_ptrINS5_16ICommandCallbackEEPv=so_stub_for_libtelux_qmi
-Wl,--defsym=_ZN5telux3qmi9QmiClient16sendAsyncRequestI33dms_bind_subscription_req_msg_v0134dms_bind_subscription_resp_msg_v01EENS_6common6StatusEjRT_RPT0_St10shared_ptrINS5_16ICommandCallbackEEPv=so_stub_for_libtelux_qmi
-Wl,--defsym=_ZN5telux3qmi9QmiClient16sendAsyncRequestI33nas_bind_subscription_req_msg_v0134nas_bind_subscription_resp_msg_v01EENS_6common6StatusEjRT_RPT0_St10shared_ptrINS5_16ICommandCallbackEEPv=so_stub_for_libtelux_qmi
-Wl,--defsym=_ZN5telux3qmi9QmiClient16sendAsyncRequestI33pdc_deactivate_config_req_msg_v0132pdc_activate_config_resp_msg_v01EENS_6common6StatusEjRT_RPT0_St10shared_ptrINS5_16ICommandCallbackEEPv=so_stub_for_libtelux_qmi
-Wl,--defsym=_ZN5telux3qmi9QmiClient16sendAsyncRequestI33wds_bind_subscription_req_msg_v0134wds_bind_subscription_resp_msg_v01EENS_6common6StatusEjRT_RPT0_St10shared_ptrINS5_16ICommandCallbackEEPv=so_stub_for_libtelux_qmi
-Wl,--defsym=_ZN5telux3qmi9QmiClient16sendAsyncRequestI33wms_bind_subscription_req_msg_v0134wms_bind_subscription_resp_msg_v01EENS_6common6StatusEjRT_RPT0_St10shared_ptrINS5_16ICommandCallbackEEPv=so_stub_for_libtelux_qmi
-Wl,--defsym=_ZN5telux3qmi9QmiClient16sendAsyncRequestI34dms_get_operating_mode_req_msg_v0135dms_get_operating_mode_resp_msg_v01EENS_6common6StatusEjRT_RPT0_St10shared_ptrINS5_16ICommandCallbackEEPv=so_stub_for_libtelux_qmi
-Wl,--defsym=_ZN5telux3qmi9QmiClient16sendAsyncRequestI34dms_set_operating_mode_req_msg_v0135dms_set_operating_mode_resp_msg_v01EENS_6common6StatusEjRT_RPT0_St10shared_ptrINS5_16ICommandCallbackEEPv=so_stub_for_libtelux_qmi
-Wl,--defsym=_ZN5telux3qmi9QmiClient16sendAsyncRequestI34tsens_service_register_req_msg_v0135tsens_service_register_resp_msg_v01EENS_6common6StatusEjRT_RPT0_St10shared_ptrINS5_16ICommandCallbackEEPv=so_stub_for_libtelux_qmi
-Wl,--defsym=_ZN5telux3qmi9QmiClient16sendAsyncRequestI34wds_bind_mux_data_port_req_msg_v0135wds_bind_mux_data_port_resp_msg_v01EENS_6common6StatusEjRT_RPT0_St10shared_ptrINS5_16ICommandCallbackEEPv=so_stub_for_libtelux_qmi
-Wl,--defsym=_ZN5telux3qmi9QmiClient16sendAsyncRequestI34wds_v2x_sps_flow_dereg_req_msg_v0135wds_v2x_sps_flow_dereg_resp_msg_v01EENS_6common6StatusEjRT_RPT0_St10shared_ptrINS5_16ICommandCallbackEEPv=so_stub_for_libtelux_qmi
-Wl,--defsym=_ZN5telux3qmi9QmiClient16sendAsyncRequestI35audio_create_transcoder_req_msg_v0136audio_create_transcoder_resp_msg_v01EENS_6common6StatusEjRT_RPT0_St10shared_ptrINS5_16ICommandCallbackEEPv=so_stub_for_libtelux_qmi
-Wl,--defsym=_ZN5telux3qmi9QmiClient16sendAsyncRequestI35audio_stream_get_device_req_msg_v0136audio_stream_get_device_resp_msg_v01EENS_6common6StatusEjRT_RPT0_St10shared_ptrINS5_16ICommandCallbackEEPv=so_stub_for_libtelux_qmi
-Wl,--defsym=_ZN5telux3qmi9QmiClient16sendAsyncRequestI35audio_stream_get_volume_req_msg_v0136audio_stream_get_volume_resp_msg_v01EENS_6common6StatusEjRT_RPT0_St10shared_ptrINS5_16ICommandCallbackEEPv=so_stub_for_libtelux_qmi
-Wl,--defsym=_ZN5telux3qmi9QmiClient16sendAsyncRequestI35audio_stream_set_device_req_msg_v0136audio_stream_set_device_resp_msg_v01EENS_6common6StatusEjRT_RPT0_St10shared_ptrINS5_16ICommandCallbackEEPv=so_stub_for_libtelux_qmi
-Wl,--defsym=_ZN5telux3qmi9QmiClient16sendAsyncRequestI35audio_stream_set_volume_req_msg_v0136audio_stream_set_volume_resp_msg_v01EENS_6common6StatusEjRT_RPT0_St10shared_ptrINS5_16ICommandCallbackEEPv=so_stub_for_libtelux_qmi
-Wl,--defsym=_ZN5telux3qmi9QmiClient16sendAsyncRequestI35dms_indication_register_req_msg_v0136dms_indication_register_resp_msg_v01EENS_6common6StatusEjRT_RPT0_St10shared_ptrINS5_16ICommandCallbackEEPv=so_stub_for_libtelux_qmi
-Wl,--defsym=_ZN5telux3qmi9QmiClient16sendAsyncRequestI35nas_indication_register_req_msg_v0136nas_indication_register_resp_msg_v01EENS_6common6StatusEjRT_RPT0_St10shared_ptrINS5_16ICommandCallbackEEPv=so_stub_for_libtelux_qmi
-Wl,--defsym=_ZN5telux3qmi9QmiClient16sendAsyncRequestI35nas_set_v2x_peak_tx_pwr_req_msg_v0136nas_set_v2x_peak_tx_pwr_resp_msg_v01EENS_6common6StatusEjRT_RPT0_St10shared_ptrINS5_16ICommandCallbackEEPv=so_stub_for_libtelux_qmi
-Wl,--defsym=_ZN5telux3qmi9QmiClient16sendAsyncRequestI35pdc_get_selected_config_req_msg_v0136pdc_get_selected_config_resp_msg_v01EENS_6common6StatusEjRT_RPT0_St10shared_ptrINS5_16ICommandCallbackEEPv=so_stub_for_libtelux_qmi
-Wl,--defsym=_ZN5telux3qmi9QmiClient16sendAsyncRequestI35pdc_indication_register_req_msg_v0136pdc_indication_register_resp_msg_v01EENS_6common6StatusEjRT_RPT0_St10shared_ptrINS5_16ICommandCallbackEEPv=so_stub_for_libtelux_qmi
-Wl,--defsym=_ZN5telux3qmi9QmiClient16sendAsyncRequestI35pdc_set_selected_config_req_msg_v0136pdc_set_selected_config_resp_msg_v01EENS_6common6StatusEjRT_RPT0_St10shared_ptrINS5_16ICommandCallbackEEPv=so_stub_for_libtelux_qmi
-Wl,--defsym=_ZN5telux3qmi9QmiClient16sendAsyncRequestI35voice_bind_subscription_req_msg_v0236voice_bind_subscription_resp_msg_v02EENS_6common6StatusEjRT_RPT0_St10shared_ptrINS5_16ICommandCallbackEEPv=so_stub_for_libtelux_qmi
-Wl,--defsym=_ZN5telux3qmi9QmiClient16sendAsyncRequestI35wds_config_profile_list_req_msg_v0136wds_config_profile_list_resp_msg_v01EENS_6common6StatusEjRT_RPT0_St10shared_ptrINS5_16ICommandCallbackEEPv=so_stub_for_libtelux_qmi
-Wl,--defsym=_ZN5telux3qmi9QmiClient16sendAsyncRequestI35wds_indication_register_req_msg_v0136wds_indication_register_resp_msg_v01EENS_6common6StatusEjRT_RPT0_St10shared_ptrINS5_16ICommandCallbackEEPv=so_stub_for_libtelux_qmi
-Wl,--defsym=_ZN5telux3qmi9QmiClient16sendAsyncRequestI35wds_v2x_get_config_file_req_msg_v0136wds_v2x_get_config_file_resp_msg_v01EENS_6common6StatusEjRT_RPT0_St10shared_ptrINS5_16ICommandCallbackEEPv=so_stub_for_libtelux_qmi
-Wl,--defsym=_ZN5telux3qmi9QmiClient16sendAsyncRequestI35wds_v2x_sps_flow_update_req_msg_v0136wds_v2x_sps_flow_update_resp_msg_v01EENS_6common6StatusEjRT_RPT0_St10shared_ptrINS5_16ICommandCallbackEEPv=so_stub_for_libtelux_qmi
-Wl,--defsym=_ZN5telux3qmi9QmiClient16sendAsyncRequestI35wms_indication_register_req_msg_v0136wms_indication_register_resp_msg_v01JPS4_PviEEENS_6common6StatusEjRT_RPT0_St8functionIFvDpT1_EES6_=so_stub_for_libtelux_qmi
-Wl,--defsym=_ZN5telux3qmi9QmiClient16sendAsyncRequestI36nas_perform_network_scan_req_msg_v0137nas_perform_network_scan_resp_msg_v01EENS_6common6StatusEjRT_RPT0_St10shared_ptrINS5_16ICommandCallbackEEPv=so_stub_for_libtelux_qmi
-Wl,--defsym=_ZN5telux3qmi9QmiClient16sendAsyncRequestI36tmd_get_mitigation_level_req_msg_v0137tmd_get_mitigation_level_resp_msg_v01EENS_6common6StatusEjRT_RPT0_St10shared_ptrINS5_16ICommandCallbackEEPv=so_stub_for_libtelux_qmi
-Wl,--defsym=_ZN5telux3qmi9QmiClient16sendAsyncRequestI36tmd_set_mitigation_level_req_msg_v0137tmd_set_mitigation_level_resp_msg_v01EENS_6common6StatusEjRT_RPT0_St10shared_ptrINS5_16ICommandCallbackEEPv=so_stub_for_libtelux_qmi
-Wl,--defsym=_ZN5telux3qmi9QmiClient16sendAsyncRequestI36uim_profile_user_consent_req_msg_v0137uim_profile_user_consent_resp_msg_v01JPS4_PviEEENS_6common6StatusEjRT_RPT0_St8functionIFvDpT1_EES6_=so_stub_for_libtelux_qmi
-Wl,--defsym=_ZN5telux3qmi9QmiClient16sendAsyncRequestI36wds_get_profile_settings_req_msg_v0137wds_get_profile_settings_resp_msg_v01EENS_6common6StatusEjRT_RPT0_St10shared_ptrINS5_16ICommandCallbackEEPv=so_stub_for_libtelux_qmi
-Wl,--defsym=_ZN5telux3qmi9QmiClient16sendAsyncRequestI36wds_get_runtime_settings_req_msg_v0137wds_get_runtime_settings_resp_msg_v01EENS_6common6StatusEjRT_RPT0_St10shared_ptrINS5_16ICommandCallbackEEPv=so_stub_for_libtelux_qmi
-Wl,--defsym=_ZN5telux3qmi9QmiClient16sendAsyncRequestI36wds_v2x_non_sps_flow_reg_req_msg_v0137wds_v2x_non_sps_flow_reg_resp_msg_v01EENS_6common6StatusEjRT_RPT0_St10shared_ptrINS5_16ICommandCallbackEEPv=so_stub_for_libtelux_qmi
-Wl,--defsym=_ZN5telux3qmi9QmiClient16sendAsyncRequestI36wds_v2x_send_config_file_req_msg_v0137wds_v2x_send_config_file_resp_msg_v01EENS_6common6StatusEjRT_RPT0_St10shared_ptrINS5_16ICommandCallbackEEPv=so_stub_for_libtelux_qmi
-Wl,--defsym=_ZN5telux3qmi9QmiClient16sendAsyncRequestI36wds_v2x_tunnel_mode_info_req_msg_v0137wds_v2x_tunnel_mode_info_resp_msg_v01EENS_6common6StatusEjRT_RPT0_St10shared_ptrINS5_16ICommandCallbackEEPv=so_stub_for_libtelux_qmi
-Wl,--defsym=_ZN5telux3qmi9QmiClient16sendAsyncRequestI36wms_get_broadcast_config_req_msg_v0137wms_get_broadcast_config_resp_msg_v01JPS4_PviEEENS_6common6StatusEjRT_RPT0_St8functionIFvDpT1_EES6_=so_stub_for_libtelux_qmi
-Wl,--defsym=_ZN5telux3qmi9QmiClient16sendAsyncRequestI36wms_set_broadcast_config_req_msg_v0137wms_set_broadcast_config_resp_msg_v01JPS4_PviEEENS_6common6StatusEjRT_RPT0_St8functionIFvDpT1_EES6_=so_stub_for_libtelux_qmi
-Wl,--defsym=_ZN5telux3qmi9QmiClient16sendAsyncRequestI37audio_teardown_transcoder_req_msg_v0138audio_teardown_transcoder_resp_msg_v01EENS_6common6StatusEjRT_RPT0_St10shared_ptrINS5_16ICommandCallbackEEPv=so_stub_for_libtelux_qmi
-Wl,--defsym=_ZN5telux3qmi9QmiClient16sendAsyncRequestI37dms_device_activity_state_req_msg_v0138dms_device_activity_state_resp_msg_v01EENS_6common6StatusEjRT_RPT0_St10shared_ptrINS5_16ICommandCallbackEEPv=so_stub_for_libtelux_qmi
-Wl,--defsym=_ZN5telux3qmi9QmiClient16sendAsyncRequestI37voice_get_ecall_oprt_mode_req_msg_v0238voice_get_ecall_oprt_mode_resp_msg_v02EENS_6common6StatusEjRT_RPT0_St10shared_ptrINS5_16ICommandCallbackEEPv=so_stub_for_libtelux_qmi
-Wl,--defsym=_ZN5telux3qmi9QmiClient16sendAsyncRequestI37voice_indication_register_req_msg_v0238voice_indication_register_resp_msg_v02EENS_6common6StatusEjRT_RPT0_St10shared_ptrINS5_16ICommandCallbackEEPv=so_stub_for_libtelux_qmi
-Wl,--defsym=_ZN5telux3qmi9QmiClient16sendAsyncRequestI37voice_set_ecall_oprt_mode_req_msg_v0238voice_set_ecall_oprt_mode_resp_msg_v02EENS_6common6StatusEjRT_RPT0_St10shared_ptrINS5_16ICommandCallbackEEPv=so_stub_for_libtelux_qmi
-Wl,--defsym=_ZN5telux3qmi9QmiClient16sendAsyncRequestI37wds_v2x_service_subscribe_req_msg_v0138wds_v2x_service_subscribe_resp_msg_v01EENS_6common6StatusEjRT_RPT0_St10shared_ptrINS5_16ICommandCallbackEEPv=so_stub_for_libtelux_qmi
-Wl,--defsym=_ZN5telux3qmi9QmiClient16sendAsyncRequestI37wds_v2x_sps_flow_get_info_req_msg_v0138wds_v2x_sps_flow_get_info_resp_msg_v01EENS_6common6StatusEjRT_RPT0_St10shared_ptrINS5_16ICommandCallbackEEPv=so_stub_for_libtelux_qmi
-Wl,--defsym=_ZN5telux3qmi9QmiClient16sendAsyncRequestI38audio_service_ind_register_req_msg_v0139audio_service_ind_register_resp_msg_v01EENS_6common6StatusEjRT_RPT0_St10shared_ptrINS5_16ICommandCallbackEEPv=so_stub_for_libtelux_qmi
-Wl,--defsym=_ZN5telux3qmi9QmiClient16sendAsyncRequestI38nas_get_preferred_networks_req_msg_v0139nas_get_preferred_networks_resp_msg_v01EENS_6common6StatusEjRT_RPT0_St10shared_ptrINS5_16ICommandCallbackEEPv=so_stub_for_libtelux_qmi
-Wl,--defsym=_ZN5telux3qmi9QmiClient16sendAsyncRequestI38nas_set_preferred_networks_req_msg_v0139nas_set_preferred_networks_resp_msg_v01EENS_6common6StatusEjRT_RPT0_St10shared_ptrINS5_16ICommandCallbackEEPv=so_stub_for_libtelux_qmi
-Wl,--defsym=_ZN5telux3qmi9QmiClient16sendAsyncRequestI38wds_v2x_non_sps_flow_dereg_req_msg_v0139wds_v2x_non_sps_flow_dereg_resp_msg_v01EENS_6common6StatusEjRT_RPT0_St10shared_ptrINS5_16ICommandCallbackEEPv=so_stub_for_libtelux_qmi
-Wl,--defsym=_ZN5telux3qmi9QmiClient16sendAsyncRequestI38wds_v2x_update_src_l2_info_req_msg_v0139wds_v2x_update_src_l2_info_resp_msg_v01EENS_6common6StatusEjRT_RPT0_St10shared_ptrINS5_16ICommandCallbackEEPv=so_stub_for_libtelux_qmi
-Wl,--defsym=_ZN5telux3qmi9QmiClient16sendAsyncRequestI39audio_get_supported_devices_req_msg_v0140audio_get_supported_devices_resp_msg_v01EENS_6common6StatusEjRT_RPT0_St10shared_ptrINS5_16ICommandCallbackEEPv=so_stub_for_libtelux_qmi
-Wl,--defsym=_ZN5telux3qmi9QmiClient16sendAsyncRequestI39audio_get_supported_streams_req_msg_v0140audio_get_supported_streams_resp_msg_v01EENS_6common6StatusEjRT_RPT0_St10shared_ptrINS5_16ICommandCallbackEEPv=so_stub_for_libtelux_qmi
-Wl,--defsym=_ZN5telux3qmi9QmiClient16sendAsyncRequestI39nas_get_high_capability_sub_req_msg_v0140nas_get_high_capability_sub_resp_msg_v01JPS4_PviEEENS_6common6StatusEjRT_RPT0_St8functionIFvDpT1_EES6_=so_stub_for_libtelux_qmi
-Wl,--defsym=_ZN5telux3qmi9QmiClient16sendAsyncRequestI39nas_set_high_capability_sub_req_msg_v0140nas_set_high_capability_sub_resp_msg_v01JiPviEEENS_6common6StatusEjRT_RPT0_St8functionIFvDpT1_EES5_=so_stub_for_libtelux_qmi
-Wl,--defsym=_ZN5telux3qmi9QmiClient16sendAsyncRequestI39pdc_get_default_config_info_req_msg_v0140pdc_get_default_config_info_resp_msg_v01EENS_6common6StatusEjRT_RPT0_St10shared_ptrINS5_16ICommandCallbackEEPv=so_stub_for_libtelux_qmi
-Wl,--defsym=_ZN5telux3qmi9QmiClient16sendAsyncRequestI39uim_update_profile_nickname_req_msg_v0140uim_update_profile_nickname_resp_msg_v01JPS4_PviEEENS_6common6StatusEjRT_RPT0_St8functionIFvDpT1_EES6_=so_stub_for_libtelux_qmi
-Wl,--defsym=_ZN5telux3qmi9QmiClient16sendAsyncRequestI39wds_modify_profile_settings_req_msg_v0140wds_modify_profile_settings_resp_msg_v01EENS_6common6StatusEjRT_RPT0_St10shared_ptrINS5_16ICommandCallbackEEPv=so_stub_for_libtelux_qmi
-Wl,--defsym=_ZN5telux3qmi9QmiClient16sendAsyncRequestI39wds_v2x_get_capability_info_req_msg_v0140wds_v2x_get_capability_info_resp_msg_v01EENS_6common6StatusEjRT_RPT0_St10shared_ptrINS5_16ICommandCallbackEEPv=so_stub_for_libtelux_qmi
-Wl,--defsym=_ZN5telux3qmi9QmiClient16sendAsyncRequestI40wms_set_broadcast_activation_req_msg_v0141wms_set_broadcast_activation_resp_msg_v01JPS4_PviEEENS_6common6StatusEjRT_RPT0_St8functionIFvDpT1_EES6_=so_stub_for_libtelux_qmi
-Wl,--defsym=_ZN5telux3qmi9QmiClient16sendAsyncRequestI41wds_set_client_ip_family_pref_req_msg_v0142wds_set_client_ip_family_pref_resp_msg_v01EENS_6common6StatusEjRT_RPT0_St10shared_ptrINS5_16ICommandCallbackEEPv=so_stub_for_libtelux_qmi
-Wl,--defsym=_ZN5telux3qmi9QmiClient16sendAsyncRequestI45voice_get_ecall_hlap_timer_status_req_msg_v0246voice_get_ecall_hlap_timer_status_resp_msg_v02EENS_6common6StatusEjRT_RPT0_St10shared_ptrINS5_16ICommandCallbackEEPv=so_stub_for_libtelux_qmi
-Wl,--defsym=_ZN5telux3qmi9QmiClient16sendAsyncRequestI46wds_v2x_service_get_subscribe_list_req_msg_v0147wds_v2x_service_get_subscribe_list_resp_msg_v01EENS_6common6StatusEjRT_RPT0_St10shared_ptrINS5_16ICommandCallbackEEPv=so_stub_for_libtelux_qmi
-Wl,--defsym=_ZN5telux3qmi9QmiClient16sendAsyncRequestI47nas_get_system_selection_preference_req_msg_v0148nas_get_system_selection_preference_resp_msg_v01JPS4_PviEEENS_6common6StatusEjRT_RPT0_St8functionIFvDpT1_EES6_=so_stub_for_libtelux_qmi
-Wl,--defsym=_ZN5telux3qmi9QmiClient16sendAsyncRequestI47nas_set_system_selection_preference_req_msg_v0148nas_set_system_selection_preference_resp_msg_v01EENS_6common6StatusEjRT_RPT0_St10shared_ptrINS5_16ICommandCallbackEEPv=so_stub_for_libtelux_qmi
-Wl,--defsym=_ZN5telux3qmi9QmiClient16sendAsyncRequestI54tmd_register_notification_mitigation_level_req_msg_v0155tmd_register_notification_mitigation_level_resp_msg_v01EENS_6common6StatusEjRT_RPT0_St10shared_ptrINS5_16ICommandCallbackEEPv=so_stub_for_libtelux_qmi
-Wl,--defsym=_ZN5telux3qmi9QmiClient16sendAsyncRequestI56tmd_deregister_notification_mitigation_level_req_msg_v0157tmd_deregister_notification_mitigation_level_resp_msg_v01EENS_6common6StatusEjRT_RPT0_St10shared_ptrINS5_16ICommandCallbackEEPv=so_stub_for_libtelux_qmi
-Wl,--defsym=_ZN5telux3qmi9QmiClient16setServiceStatusENS_6common13ServiceStatusE=so_stub_for_libtelux_qmi
-Wl,--defsym=_ZN5telux3qmi9QmiClient18deregisterListenerESt8weak_ptrINS0_12IQmiListenerEE=so_stub_for_libtelux_qmi
-Wl,--defsym=_ZN5telux3qmi9QmiClient19mallocAndInitParamsI23pwr_mgr_ack_req_msg_v0124pwr_mgr_ack_resp_msg_v01EENS_6common6StatusERT_RPT0_=so_stub_for_libtelux_qmi
-Wl,--defsym=_ZN5telux3qmi9QmiClient19mallocAndInitParamsI23pwr_mgr_cmd_req_msg_v0124pwr_mgr_cmd_resp_msg_v01EENS_6common6StatusERT_RPT0_=so_stub_for_libtelux_qmi
-Wl,--defsym=_ZN5telux3qmi9QmiClient19mallocAndInitParamsI23uim_get_eid_req_msg_v0124uim_get_eid_resp_msg_v01EENS_6common6StatusERT_RPT0_=so_stub_for_libtelux_qmi
-Wl,--defsym=_ZN5telux3qmi9QmiClient19mallocAndInitParamsI24nas_v2x_stop_req_msg_v0125nas_v2x_stop_resp_msg_v01EENS_6common6StatusERT_RPT0_=so_stub_for_libtelux_qmi
-Wl,--defsym=_ZN5telux3qmi9QmiClient19mallocAndInitParamsI25nas_v2x_start_req_msg_v0126nas_v2x_start_resp_msg_v01EENS_6common6StatusERT_RPT0_=so_stub_for_libtelux_qmi
-Wl,--defsym=_ZN5telux3qmi9QmiClient19mallocAndInitParamsI25uim_event_reg_req_msg_v0126uim_event_reg_resp_msg_v01EENS_6common6StatusERT_RPT0_=so_stub_for_libtelux_qmi
-Wl,--defsym=_ZN5telux3qmi9QmiClient19mallocAndInitParamsI26dms_get_msisdn_req_msg_v0127dms_get_msisdn_resp_msg_v01EENS_6common6StatusERT_RPT0_=so_stub_for_libtelux_qmi
-Wl,--defsym=_ZN5telux3qmi9QmiClient19mallocAndInitParamsI27pdc_get_feature_req_msg_v0128pdc_get_feature_resp_msg_v01EENS_6common6StatusERT_RPT0_=so_stub_for_libtelux_qmi
-Wl,--defsym=_ZN5telux3qmi9QmiClient19mallocAndInitParamsI27pdc_load_config_req_msg_v0128pdc_load_config_resp_msg_v01EENS_6common6StatusERT_RPT0_=so_stub_for_libtelux_qmi
-Wl,--defsym=_ZN5telux3qmi9QmiClient19mallocAndInitParamsI27pdc_set_feature_req_msg_v0128pdc_set_feature_resp_msg_v01EENS_6common6StatusERT_RPT0_=so_stub_for_libtelux_qmi
-Wl,--defsym=_ZN5telux3qmi9QmiClient19mallocAndInitParamsI27tsens_get_state_req_msg_v0128tsens_get_state_resp_msg_v01EENS_6common6StatusERT_RPT0_=so_stub_for_libtelux_qmi
-Wl,--defsym=_ZN5telux3qmi9QmiClient19mallocAndInitParamsI27tsens_set_state_req_msg_v0128tsens_set_state_resp_msg_v01EENS_6common6StatusERT_RPT0_=so_stub_for_libtelux_qmi
-Wl,--defsym=_ZN5telux3qmi9QmiClient19mallocAndInitParamsI27uim_add_profile_req_msg_v0128uim_add_profile_resp_msg_v01EENS_6common6StatusERT_RPT0_=so_stub_for_libtelux_qmi
-Wl,--defsym=_ZN5telux3qmi9QmiClient19mallocAndInitParamsI27uim_sap_request_req_msg_v0128uim_sap_request_resp_msg_v01EENS_6common6StatusERT_RPT0_=so_stub_for_libtelux_qmi
-Wl,--defsym=_ZN5telux3qmi9QmiClient19mallocAndInitParamsI27uim_switch_slot_req_msg_v0128uim_switch_slot_resp_msg_v01EENS_6common6StatusERT_RPT0_=so_stub_for_libtelux_qmi
-Wl,--defsym=_ZN5telux3qmi9QmiClient19mallocAndInitParamsI27voice_dial_call_req_msg_v0228voice_dial_call_resp_msg_v02EENS_6common6StatusERT_RPT0_=so_stub_for_libtelux_qmi
-Wl,--defsym=_ZN5telux3qmi9QmiClient19mallocAndInitParamsI28nas_get_sys_info_req_msg_v0129nas_get_sys_info_resp_msg_v01EENS_6common6StatusERT_RPT0_=so_stub_for_libtelux_qmi
-Wl,--defsym=_ZN5telux3qmi9QmiClient19mallocAndInitParamsI28pdc_list_configs_req_msg_v0129pdc_list_configs_resp_msg_v01EENS_6common6StatusERT_RPT0_=so_stub_for_libtelux_qmi
-Wl,--defsym=_ZN5telux3qmi9QmiClient19mallocAndInitParamsI28pwr_mgr_register_req_msg_v0129pwr_mgr_register_resp_msg_v01EENS_6common6StatusERT_RPT0_=so_stub_for_libtelux_qmi
-Wl,--defsym=_ZN5telux3qmi9QmiClient19mallocAndInitParamsI28uim_remote_reset_req_msg_v0129uim_remote_reset_resp_msg_v01EENS_6common6StatusERT_RPT0_=so_stub_for_libtelux_qmi
-Wl,--defsym=_ZN5telux3qmi9QmiClient19mallocAndInitParamsI28voice_set_config_req_msg_v0229voice_set_config_resp_msg_v02EENS_6common6StatusERT_RPT0_=so_stub_for_libtelux_qmi
-Wl,--defsym=_ZN5telux3qmi9QmiClient19mallocAndInitParamsI29audio_stream_stop_req_msg_v0130audio_stream_stop_resp_msg_v01EENS_6common6StatusERT_RPT0_=so_stub_for_libtelux_qmi
-Wl,--defsym=_ZN5telux3qmi9QmiClient19mallocAndInitParamsI29pdc_delete_config_req_msg_v0130pdc_delete_config_resp_msg_v01EENS_6common6StatusERT_RPT0_=so_stub_for_libtelux_qmi
-Wl,--defsym=_ZN5telux3qmi9QmiClient19mallocAndInitParamsI30audio_close_stream_req_msg_v0131audio_close_stream_resp_msg_v01EENS_6common6StatusERT_RPT0_=so_stub_for_libtelux_qmi
-Wl,--defsym=_ZN5telux3qmi9QmiClient19mallocAndInitParamsI30audio_stream_drain_req_msg_v0131audio_stream_drain_resp_msg_v01EENS_6common6StatusERT_RPT0_=so_stub_for_libtelux_qmi
-Wl,--defsym=_ZN5telux3qmi9QmiClient19mallocAndInitParamsI30audio_stream_flush_req_msg_v0131audio_stream_flush_resp_msg_v01EENS_6common6StatusERT_RPT0_=so_stub_for_libtelux_qmi
-Wl,--defsym=_ZN5telux3qmi9QmiClient19mallocAndInitParamsI30audio_stream_start_req_msg_v0131audio_stream_start_resp_msg_v01EENS_6common6StatusERT_RPT0_=so_stub_for_libtelux_qmi
-Wl,--defsym=_ZN5telux3qmi9QmiClient19mallocAndInitParamsI30dms_get_device_cap_req_msg_v0131dms_get_device_cap_resp_msg_v01EENS_6common6StatusERT_RPT0_=so_stub_for_libtelux_qmi
-Wl,--defsym=_ZN5telux3qmi9QmiClient19mallocAndInitParamsI30nas_get_v2x_status_req_msg_v0131nas_get_v2x_status_resp_msg_v01EENS_6common6StatusERT_RPT0_=so_stub_for_libtelux_qmi
-Wl,--defsym=_ZN5telux3qmi9QmiClient19mallocAndInitParamsI30uim_delete_profile_req_msg_v0131uim_delete_profile_resp_msg_v01EENS_6common6StatusERT_RPT0_=so_stub_for_libtelux_qmi
-Wl,--defsym=_ZN5telux3qmi9QmiClient19mallocAndInitParamsI30uim_sap_connection_req_msg_v0131uim_sap_connection_resp_msg_v01EENS_6common6StatusERT_RPT0_=so_stub_for_libtelux_qmi
-Wl,--defsym=_ZN5telux3qmi9QmiClient19mallocAndInitParamsI30wds_create_profile_req_msg_v0131wds_create_profile_resp_msg_v01EENS_6common6StatusERT_RPT0_=so_stub_for_libtelux_qmi
-Wl,--defsym=_ZN5telux3qmi9QmiClient19mallocAndInitParamsI30wds_delete_profile_req_msg_v0131wds_delete_profile_resp_msg_v01EENS_6common6StatusERT_RPT0_=so_stub_for_libtelux_qmi
-Wl,--defsym=_ZN5telux3qmi9QmiClient19mallocAndInitParamsI31audio_create_stream_req_msg_v0132audio_create_stream_resp_msg_v01EENS_6common6StatusERT_RPT0_=so_stub_for_libtelux_qmi
-Wl,--defsym=_ZN5telux3qmi9QmiClient19mallocAndInitParamsI31pdc_activate_config_req_msg_v0132pdc_activate_config_resp_msg_v01EENS_6common6StatusERT_RPT0_=so_stub_for_libtelux_qmi
-Wl,--defsym=_ZN5telux3qmi9QmiClient19mallocAndInitParamsI31pdc_get_config_info_req_msg_v0132pdc_get_config_info_resp_msg_v01EENS_6common6StatusERT_RPT0_=so_stub_for_libtelux_qmi
-Wl,--defsym=_ZN5telux3qmi9QmiClient19mallocAndInitParamsI31uim_get_card_status_req_msg_v0132uim_get_card_status_resp_msg_v01EENS_6common6StatusERT_RPT0_=so_stub_for_libtelux_qmi
-Wl,--defsym=_ZN5telux3qmi9QmiClient19mallocAndInitParamsI31uim_get_sim_profile_req_msg_v0132uim_get_sim_profile_resp_msg_v01EENS_6common6StatusERT_RPT0_=so_stub_for_libtelux_qmi
-Wl,--defsym=_ZN5telux3qmi9QmiClient19mallocAndInitParamsI31uim_set_sim_profile_req_msg_v0132uim_set_sim_profile_resp_msg_v01EENS_6common6StatusERT_RPT0_=so_stub_for_libtelux_qmi
-Wl,--defsym=_ZN5telux3qmi9QmiClient19mallocAndInitParamsI32audio_load_subsystem_req_msg_v0133audio_load_subsystem_resp_msg_v01EENS_6common6StatusERT_RPT0_=so_stub_for_libtelux_qmi
-Wl,--defsym=_ZN5telux3qmi9QmiClient19mallocAndInitParamsI32dms_set_event_report_req_msg_v0133dms_set_event_report_resp_msg_v01EENS_6common6StatusERT_RPT0_=so_stub_for_libtelux_qmi
-Wl,--defsym=_ZN5telux3qmi9QmiClient19mallocAndInitParamsI32uim_get_profile_info_req_msg_v0133uim_get_profile_info_resp_msg_v01EENS_6common6StatusERT_RPT0_=so_stub_for_libtelux_qmi
-Wl,--defsym=_ZN5telux3qmi9QmiClient19mallocAndInitParamsI32uim_get_slots_status_req_msg_v0133uim_get_slots_status_resp_msg_v01EENS_6common6StatusERT_RPT0_=so_stub_for_libtelux_qmi
-Wl,--defsym=_ZN5telux3qmi9QmiClient19mallocAndInitParamsI32uim_read_transparent_req_msg_v0133uim_read_transparent_resp_msg_v01EENS_6common6StatusERT_RPT0_=so_stub_for_libtelux_qmi
-Wl,--defsym=_ZN5telux3qmi9QmiClient19mallocAndInitParamsI32wds_get_profile_list_req_msg_v0133wds_get_profile_list_resp_msg_v01EENS_6common6StatusERT_RPT0_=so_stub_for_libtelux_qmi
-Wl,--defsym=_ZN5telux3qmi9QmiClient19mallocAndInitParamsI32wms_set_event_report_req_msg_v0133wms_set_event_report_resp_msg_v01EENS_6common6StatusERT_RPT0_=so_stub_for_libtelux_qmi
-Wl,--defsym=_ZN5telux3qmi9QmiClient19mallocAndInitParamsI33audio_dtmf_generation_req_msg_v0134audio_dtmf_generation_resp_msg_v01EENS_6common6StatusERT_RPT0_=so_stub_for_libtelux_qmi
-Wl,--defsym=_ZN5telux3qmi9QmiClient19mallocAndInitParamsI33audio_stream_get_mute_req_msg_v0134audio_stream_get_mute_resp_msg_v01EENS_6common6StatusERT_RPT0_=so_stub_for_libtelux_qmi
-Wl,--defsym=_ZN5telux3qmi9QmiClient19mallocAndInitParamsI33audio_stream_loopback_req_msg_v0134audio_stream_loopback_resp_msg_v01EENS_6common6StatusERT_RPT0_=so_stub_for_libtelux_qmi
-Wl,--defsym=_ZN5telux3qmi9QmiClient19mallocAndInitParamsI33audio_stream_set_mute_req_msg_v0134audio_stream_set_mute_resp_msg_v01EENS_6common6StatusERT_RPT0_=so_stub_for_libtelux_qmi
-Wl,--defsym=_ZN5telux3qmi9QmiClient19mallocAndInitParamsI33audio_tone_generation_req_msg_v0134audio_tone_generation_resp_msg_v01EENS_6common6StatusERT_RPT0_=so_stub_for_libtelux_qmi
-Wl,--defsym=_ZN5telux3qmi9QmiClient19mallocAndInitParamsI33dms_bind_subscription_req_msg_v0134dms_bind_subscription_resp_msg_v01EENS_6common6StatusERT_RPT0_=so_stub_for_libtelux_qmi
-Wl,--defsym=_ZN5telux3qmi9QmiClient19mallocAndInitParamsI33nas_bind_subscription_req_msg_v0134nas_bind_subscription_resp_msg_v01EENS_6common6StatusERT_RPT0_=so_stub_for_libtelux_qmi
-Wl,--defsym=_ZN5telux3qmi9QmiClient19mallocAndInitParamsI33pdc_deactivate_config_req_msg_v0132pdc_activate_config_resp_msg_v01EENS_6common6StatusERT_RPT0_=so_stub_for_libtelux_qmi
-Wl,--defsym=_ZN5telux3qmi9QmiClient19mallocAndInitParamsI33wds_bind_subscription_req_msg_v0134wds_bind_subscription_resp_msg_v01EENS_6common6StatusERT_RPT0_=so_stub_for_libtelux_qmi
-Wl,--defsym=_ZN5telux3qmi9QmiClient19mallocAndInitParamsI33wms_bind_subscription_req_msg_v0134wms_bind_subscription_resp_msg_v01EENS_6common6StatusERT_RPT0_=so_stub_for_libtelux_qmi
-Wl,--defsym=_ZN5telux3qmi9QmiClient19mallocAndInitParamsI34dms_get_operating_mode_req_msg_v0135dms_get_operating_mode_resp_msg_v01EENS_6common6StatusERT_RPT0_=so_stub_for_libtelux_qmi
-Wl,--defsym=_ZN5telux3qmi9QmiClient19mallocAndInitParamsI34dms_set_operating_mode_req_msg_v0135dms_set_operating_mode_resp_msg_v01EENS_6common6StatusERT_RPT0_=so_stub_for_libtelux_qmi
-Wl,--defsym=_ZN5telux3qmi9QmiClient19mallocAndInitParamsI34tsens_service_register_req_msg_v0135tsens_service_register_resp_msg_v01EENS_6common6StatusERT_RPT0_=so_stub_for_libtelux_qmi
-Wl,--defsym=_ZN5telux3qmi9QmiClient19mallocAndInitParamsI34wds_bind_mux_data_port_req_msg_v0135wds_bind_mux_data_port_resp_msg_v01EENS_6common6StatusERT_RPT0_=so_stub_for_libtelux_qmi
-Wl,--defsym=_ZN5telux3qmi9QmiClient19mallocAndInitParamsI34wds_v2x_sps_flow_dereg_req_msg_v0135wds_v2x_sps_flow_dereg_resp_msg_v01EENS_6common6StatusERT_RPT0_=so_stub_for_libtelux_qmi
-Wl,--defsym=_ZN5telux3qmi9QmiClient19mallocAndInitParamsI35audio_create_transcoder_req_msg_v0136audio_create_transcoder_resp_msg_v01EENS_6common6StatusERT_RPT0_=so_stub_for_libtelux_qmi
-Wl,--defsym=_ZN5telux3qmi9QmiClient19mallocAndInitParamsI35audio_stream_get_device_req_msg_v0136audio_stream_get_device_resp_msg_v01EENS_6common6StatusERT_RPT0_=so_stub_for_libtelux_qmi
-Wl,--defsym=_ZN5telux3qmi9QmiClient19mallocAndInitParamsI35audio_stream_get_volume_req_msg_v0136audio_stream_get_volume_resp_msg_v01EENS_6common6StatusERT_RPT0_=so_stub_for_libtelux_qmi
-Wl,--defsym=_ZN5telux3qmi9QmiClient19mallocAndInitParamsI35audio_stream_set_device_req_msg_v0136audio_stream_set_device_resp_msg_v01EENS_6common6StatusERT_RPT0_=so_stub_for_libtelux_qmi
-Wl,--defsym=_ZN5telux3qmi9QmiClient19mallocAndInitParamsI35audio_stream_set_volume_req_msg_v0136audio_stream_set_volume_resp_msg_v01EENS_6common6StatusERT_RPT0_=so_stub_for_libtelux_qmi
-Wl,--defsym=_ZN5telux3qmi9QmiClient19mallocAndInitParamsI35dms_indication_register_req_msg_v0136dms_indication_register_resp_msg_v01EENS_6common6StatusERT_RPT0_=so_stub_for_libtelux_qmi
-Wl,--defsym=_ZN5telux3qmi9QmiClient19mallocAndInitParamsI35nas_indication_register_req_msg_v0136nas_indication_register_resp_msg_v01EENS_6common6StatusERT_RPT0_=so_stub_for_libtelux_qmi
-Wl,--defsym=_ZN5telux3qmi9QmiClient19mallocAndInitParamsI35nas_set_v2x_peak_tx_pwr_req_msg_v0136nas_set_v2x_peak_tx_pwr_resp_msg_v01EENS_6common6StatusERT_RPT0_=so_stub_for_libtelux_qmi
-Wl,--defsym=_ZN5telux3qmi9QmiClient19mallocAndInitParamsI35pdc_get_selected_config_req_msg_v0136pdc_get_selected_config_resp_msg_v01EENS_6common6StatusERT_RPT0_=so_stub_for_libtelux_qmi
-Wl,--defsym=_ZN5telux3qmi9QmiClient19mallocAndInitParamsI35pdc_indication_register_req_msg_v0136pdc_indication_register_resp_msg_v01EENS_6common6StatusERT_RPT0_=so_stub_for_libtelux_qmi
-Wl,--defsym=_ZN5telux3qmi9QmiClient19mallocAndInitParamsI35pdc_set_selected_config_req_msg_v0136pdc_set_selected_config_resp_msg_v01EENS_6common6StatusERT_RPT0_=so_stub_for_libtelux_qmi
-Wl,--defsym=_ZN5telux3qmi9QmiClient19mallocAndInitParamsI35voice_bind_subscription_req_msg_v0236voice_bind_subscription_resp_msg_v02EENS_6common6StatusERT_RPT0_=so_stub_for_libtelux_qmi
-Wl,--defsym=_ZN5telux3qmi9QmiClient19mallocAndInitParamsI35wds_config_profile_list_req_msg_v0136wds_config_profile_list_resp_msg_v01EENS_6common6StatusERT_RPT0_=so_stub_for_libtelux_qmi
-Wl,--defsym=_ZN5telux3qmi9QmiClient19mallocAndInitParamsI35wds_indication_register_req_msg_v0136wds_indication_register_resp_msg_v01EENS_6common6StatusERT_RPT0_=so_stub_for_libtelux_qmi
-Wl,--defsym=_ZN5telux3qmi9QmiClient19mallocAndInitParamsI35wds_v2x_get_config_file_req_msg_v0136wds_v2x_get_config_file_resp_msg_v01EENS_6common6StatusERT_RPT0_=so_stub_for_libtelux_qmi
-Wl,--defsym=_ZN5telux3qmi9QmiClient19mallocAndInitParamsI35wms_indication_register_req_msg_v0136wms_indication_register_resp_msg_v01EENS_6common6StatusERT_RPT0_=so_stub_for_libtelux_qmi
-Wl,--defsym=_ZN5telux3qmi9QmiClient19mallocAndInitParamsI36nas_perform_network_scan_req_msg_v0137nas_perform_network_scan_resp_msg_v01EENS_6common6StatusERT_RPT0_=so_stub_for_libtelux_qmi
-Wl,--defsym=_ZN5telux3qmi9QmiClient19mallocAndInitParamsI36tmd_get_mitigation_level_req_msg_v0137tmd_get_mitigation_level_resp_msg_v01EENS_6common6StatusERT_RPT0_=so_stub_for_libtelux_qmi
-Wl,--defsym=_ZN5telux3qmi9QmiClient19mallocAndInitParamsI36tmd_set_mitigation_level_req_msg_v0137tmd_set_mitigation_level_resp_msg_v01EENS_6common6StatusERT_RPT0_=so_stub_for_libtelux_qmi
-Wl,--defsym=_ZN5telux3qmi9QmiClient19mallocAndInitParamsI36uim_profile_user_consent_req_msg_v0137uim_profile_user_consent_resp_msg_v01EENS_6common6StatusERT_RPT0_=so_stub_for_libtelux_qmi
-Wl,--defsym=_ZN5telux3qmi9QmiClient19mallocAndInitParamsI36wds_get_profile_settings_req_msg_v0137wds_get_profile_settings_resp_msg_v01EENS_6common6StatusERT_RPT0_=so_stub_for_libtelux_qmi
-Wl,--defsym=_ZN5telux3qmi9QmiClient19mallocAndInitParamsI36wds_get_runtime_settings_req_msg_v0137wds_get_runtime_settings_resp_msg_v01EENS_6common6StatusERT_RPT0_=so_stub_for_libtelux_qmi
-Wl,--defsym=_ZN5telux3qmi9QmiClient19mallocAndInitParamsI36wds_v2x_send_config_file_req_msg_v0137wds_v2x_send_config_file_resp_msg_v01EENS_6common6StatusERT_RPT0_=so_stub_for_libtelux_qmi
-Wl,--defsym=_ZN5telux3qmi9QmiClient19mallocAndInitParamsI36wms_get_broadcast_config_req_msg_v0137wms_get_broadcast_config_resp_msg_v01EENS_6common6StatusERT_RPT0_=so_stub_for_libtelux_qmi
-Wl,--defsym=_ZN5telux3qmi9QmiClient19mallocAndInitParamsI36wms_set_broadcast_config_req_msg_v0137wms_set_broadcast_config_resp_msg_v01EENS_6common6StatusERT_RPT0_=so_stub_for_libtelux_qmi
-Wl,--defsym=_ZN5telux3qmi9QmiClient19mallocAndInitParamsI37audio_teardown_transcoder_req_msg_v0138audio_teardown_transcoder_resp_msg_v01EENS_6common6StatusERT_RPT0_=so_stub_for_libtelux_qmi
-Wl,--defsym=_ZN5telux3qmi9QmiClient19mallocAndInitParamsI37dms_device_activity_state_req_msg_v0138dms_device_activity_state_resp_msg_v01EENS_6common6StatusERT_RPT0_=so_stub_for_libtelux_qmi
-Wl,--defsym=_ZN5telux3qmi9QmiClient19mallocAndInitParamsI37voice_get_ecall_oprt_mode_req_msg_v0238voice_get_ecall_oprt_mode_resp_msg_v02EENS_6common6StatusERT_RPT0_=so_stub_for_libtelux_qmi
-Wl,--defsym=_ZN5telux3qmi9QmiClient19mallocAndInitParamsI37voice_indication_register_req_msg_v0238voice_indication_register_resp_msg_v02EENS_6common6StatusERT_RPT0_=so_stub_for_libtelux_qmi
-Wl,--defsym=_ZN5telux3qmi9QmiClient19mallocAndInitParamsI37voice_set_ecall_oprt_mode_req_msg_v0238voice_set_ecall_oprt_mode_resp_msg_v02EENS_6common6StatusERT_RPT0_=so_stub_for_libtelux_qmi
-Wl,--defsym=_ZN5telux3qmi9QmiClient19mallocAndInitParamsI37wds_v2x_service_subscribe_req_msg_v0138wds_v2x_service_subscribe_resp_msg_v01EENS_6common6StatusERT_RPT0_=so_stub_for_libtelux_qmi
-Wl,--defsym=_ZN5telux3qmi9QmiClient19mallocAndInitParamsI37wds_v2x_sps_flow_get_info_req_msg_v0138wds_v2x_sps_flow_get_info_resp_msg_v01EENS_6common6StatusERT_RPT0_=so_stub_for_libtelux_qmi
-Wl,--defsym=_ZN5telux3qmi9QmiClient19mallocAndInitParamsI38audio_service_ind_register_req_msg_v0139audio_service_ind_register_resp_msg_v01EENS_6common6StatusERT_RPT0_=so_stub_for_libtelux_qmi
-Wl,--defsym=_ZN5telux3qmi9QmiClient19mallocAndInitParamsI38nas_get_preferred_networks_req_msg_v0139nas_get_preferred_networks_resp_msg_v01EENS_6common6StatusERT_RPT0_=so_stub_for_libtelux_qmi
-Wl,--defsym=_ZN5telux3qmi9QmiClient19mallocAndInitParamsI38nas_set_preferred_networks_req_msg_v0139nas_set_preferred_networks_resp_msg_v01EENS_6common6StatusERT_RPT0_=so_stub_for_libtelux_qmi
-Wl,--defsym=_ZN5telux3qmi9QmiClient19mallocAndInitParamsI38wds_v2x_update_src_l2_info_req_msg_v0139wds_v2x_update_src_l2_info_resp_msg_v01EENS_6common6StatusERT_RPT0_=so_stub_for_libtelux_qmi
-Wl,--defsym=_ZN5telux3qmi9QmiClient19mallocAndInitParamsI39audio_get_supported_devices_req_msg_v0140audio_get_supported_devices_resp_msg_v01EENS_6common6StatusERT_RPT0_=so_stub_for_libtelux_qmi
-Wl,--defsym=_ZN5telux3qmi9QmiClient19mallocAndInitParamsI39audio_get_supported_streams_req_msg_v0140audio_get_supported_streams_resp_msg_v01EENS_6common6StatusERT_RPT0_=so_stub_for_libtelux_qmi
-Wl,--defsym=_ZN5telux3qmi9QmiClient19mallocAndInitParamsI39nas_get_high_capability_sub_req_msg_v0140nas_get_high_capability_sub_resp_msg_v01EENS_6common6StatusERT_RPT0_=so_stub_for_libtelux_qmi
-Wl,--defsym=_ZN5telux3qmi9QmiClient19mallocAndInitParamsI39nas_set_high_capability_sub_req_msg_v0140nas_set_high_capability_sub_resp_msg_v01EENS_6common6StatusERT_RPT0_=so_stub_for_libtelux_qmi
-Wl,--defsym=_ZN5telux3qmi9QmiClient19mallocAndInitParamsI39pdc_get_default_config_info_req_msg_v0140pdc_get_default_config_info_resp_msg_v01EENS_6common6StatusERT_RPT0_=so_stub_for_libtelux_qmi
-Wl,--defsym=_ZN5telux3qmi9QmiClient19mallocAndInitParamsI39uim_update_profile_nickname_req_msg_v0140uim_update_profile_nickname_resp_msg_v01EENS_6common6StatusERT_RPT0_=so_stub_for_libtelux_qmi
-Wl,--defsym=_ZN5telux3qmi9QmiClient19mallocAndInitParamsI39wds_modify_profile_settings_req_msg_v0140wds_modify_profile_settings_resp_msg_v01EENS_6common6StatusERT_RPT0_=so_stub_for_libtelux_qmi
-Wl,--defsym=_ZN5telux3qmi9QmiClient19mallocAndInitParamsI39wds_v2x_get_capability_info_req_msg_v0140wds_v2x_get_capability_info_resp_msg_v01EENS_6common6StatusERT_RPT0_=so_stub_for_libtelux_qmi
-Wl,--defsym=_ZN5telux3qmi9QmiClient19mallocAndInitParamsI40wms_set_broadcast_activation_req_msg_v0141wms_set_broadcast_activation_resp_msg_v01EENS_6common6StatusERT_RPT0_=so_stub_for_libtelux_qmi
-Wl,--defsym=_ZN5telux3qmi9QmiClient19mallocAndInitParamsI41wds_set_client_ip_family_pref_req_msg_v0142wds_set_client_ip_family_pref_resp_msg_v01EENS_6common6StatusERT_RPT0_=so_stub_for_libtelux_qmi
-Wl,--defsym=_ZN5telux3qmi9QmiClient19mallocAndInitParamsI45voice_get_ecall_hlap_timer_status_req_msg_v0246voice_get_ecall_hlap_timer_status_resp_msg_v02EENS_6common6StatusERT_RPT0_=so_stub_for_libtelux_qmi
-Wl,--defsym=_ZN5telux3qmi9QmiClient19mallocAndInitParamsI46wds_v2x_service_get_subscribe_list_req_msg_v0147wds_v2x_service_get_subscribe_list_resp_msg_v01EENS_6common6StatusERT_RPT0_=so_stub_for_libtelux_qmi
-Wl,--defsym=_ZN5telux3qmi9QmiClient19mallocAndInitParamsI47nas_get_system_selection_preference_req_msg_v0148nas_get_system_selection_preference_resp_msg_v01EENS_6common6StatusERT_RPT0_=so_stub_for_libtelux_qmi
-Wl,--defsym=_ZN5telux3qmi9QmiClient19mallocAndInitParamsI47nas_set_system_selection_preference_req_msg_v0148nas_set_system_selection_preference_resp_msg_v01EENS_6common6StatusERT_RPT0_=so_stub_for_libtelux_qmi
-Wl,--defsym=_ZN5telux3qmi9QmiClient19mallocAndInitParamsI54tmd_register_notification_mitigation_level_req_msg_v0155tmd_register_notification_mitigation_level_resp_msg_v01EENS_6common6StatusERT_RPT0_=so_stub_for_libtelux_qmi
-Wl,--defsym=_ZN5telux3qmi9QmiClient19mallocAndInitParamsI56tmd_deregister_notification_mitigation_level_req_msg_v0157tmd_deregister_notification_mitigation_level_resp_msg_v01EENS_6common6StatusERT_RPT0_=so_stub_for_libtelux_qmi
-Wl,--defsym=_ZN5telux3qmi9QmiClient21getAvailableListenersERSt6vectorISt10shared_ptrINS0_12IQmiListenerEESaIS5_EE=so_stub_for_libtelux_qmi
-Wl,--defsym=_ZN5telux3qmi9QmiClient21qmiIndicationCallbackEP17qmi_client_structjPvjS4_=so_stub_for_libtelux_qmi
-Wl,--defsym=_ZN5telux3qmi9QmiClient21waitForInitializationEv=so_stub_for_libtelux_qmi
-Wl,--defsym=_ZN5telux3qmi9QmiClient24qmiAsyncResponseCallbackEP17qmi_client_structjPvjS4_i=so_stub_for_libtelux_qmi
-Wl,--defsym=_ZN5telux3qmi9QmiClient25qmiClientNotifierCallbackEP17qmi_client_structP22qmi_idl_service_object28qmi_client_notify_event_typePv=so_stub_for_libtelux_qmi
-Wl,--defsym=_ZN5telux3qmi9QmiClient26qmiClientErrorCallbackSyncEP17qmi_client_structi=so_stub_for_libtelux_qmi
-Wl,--defsym=_ZN5telux3qmi9QmiClient29qmiClientNotifierCallbackSyncEP17qmi_client_structP22qmi_idl_service_object28qmi_client_notify_event_type=so_stub_for_libtelux_qmi
-Wl,--defsym=_ZN5telux3qmi9QmiClient4initEP22qmi_idl_service_object=so_stub_for_libtelux_qmi
-Wl,--defsym=_ZN5telux3qmi9QmiClient7isReadyEv=so_stub_for_libtelux_qmi
-Wl,--defsym=_ZN5telux3qmi9QmiClient7onReadyEv=so_stub_for_libtelux_qmi
-Wl,--defsym=_ZN5telux3qmi9QmiClientC1Ev=so_stub_for_libtelux_qmi
-Wl,--defsym=_ZN5telux3qmi9QmiClientC2Ev=so_stub_for_libtelux_qmi
-Wl,--defsym=_ZN5telux3qmi9QmiClientD0Ev=so_stub_for_libtelux_qmi
-Wl,--defsym=_ZN5telux3qmi9QmiClientD1Ev=so_stub_for_libtelux_qmi
-Wl,--defsym=_ZN5telux3qmi9QmiClientD2Ev=so_stub_for_libtelux_qmi
-Wl,--defsym=_ZN5telux6common14AsyncTaskQueueIvE14purgeCompletedEv=so_stub_for_libtelux_qmi
-Wl,--defsym=_ZN5telux6common18FunctionalCallbackIJiiEED0Ev=so_stub_for_libtelux_qmi
-Wl,--defsym=_ZN5telux6common18FunctionalCallbackIJiiEED1Ev=so_stub_for_libtelux_qmi
-Wl,--defsym=_ZN5telux6common18FunctionalCallbackIJiiEED2Ev=so_stub_for_libtelux_qmi
-Wl,--defsym=_ZN5telux6common18FunctionalCallbackIJiPviEED0Ev=so_stub_for_libtelux_qmi
-Wl,--defsym=_ZN5telux6common18FunctionalCallbackIJiPviEED1Ev=so_stub_for_libtelux_qmi
-Wl,--defsym=_ZN5telux6common18FunctionalCallbackIJiPviEED2Ev=so_stub_for_libtelux_qmi
-Wl,--defsym=_ZN5telux6common18FunctionalCallbackIJP24uim_get_eid_resp_msg_v01PviEED0Ev=so_stub_for_libtelux_qmi
-Wl,--defsym=_ZN5telux6common18FunctionalCallbackIJP24uim_get_eid_resp_msg_v01PviEED1Ev=so_stub_for_libtelux_qmi
-Wl,--defsym=_ZN5telux6common18FunctionalCallbackIJP24uim_get_eid_resp_msg_v01PviEED2Ev=so_stub_for_libtelux_qmi
-Wl,--defsym=_ZN5telux6common18FunctionalCallbackIJP28uim_add_profile_resp_msg_v01PviEED0Ev=so_stub_for_libtelux_qmi
-Wl,--defsym=_ZN5telux6common18FunctionalCallbackIJP28uim_add_profile_resp_msg_v01PviEED1Ev=so_stub_for_libtelux_qmi
-Wl,--defsym=_ZN5telux6common18FunctionalCallbackIJP28uim_add_profile_resp_msg_v01PviEED2Ev=so_stub_for_libtelux_qmi
-Wl,--defsym=_ZN5telux6common18FunctionalCallbackIJP28uim_remote_apdu_resp_msg_v01iPvEED0Ev=so_stub_for_libtelux_qmi
-Wl,--defsym=_ZN5telux6common18FunctionalCallbackIJP28uim_remote_apdu_resp_msg_v01iPvEED1Ev=so_stub_for_libtelux_qmi
-Wl,--defsym=_ZN5telux6common18FunctionalCallbackIJP28uim_remote_apdu_resp_msg_v01iPvEED2Ev=so_stub_for_libtelux_qmi
-Wl,--defsym=_ZN5telux6common18FunctionalCallbackIJP29nas_get_sys_info_resp_msg_v01PviEED0Ev=so_stub_for_libtelux_qmi
-Wl,--defsym=_ZN5telux6common18FunctionalCallbackIJP29nas_get_sys_info_resp_msg_v01PviEED1Ev=so_stub_for_libtelux_qmi
-Wl,--defsym=_ZN5telux6common18FunctionalCallbackIJP29nas_get_sys_info_resp_msg_v01PviEED2Ev=so_stub_for_libtelux_qmi
-Wl,--defsym=_ZN5telux6common18FunctionalCallbackIJP29uim_remote_event_resp_msg_v01iPvEED0Ev=so_stub_for_libtelux_qmi
-Wl,--defsym=_ZN5telux6common18FunctionalCallbackIJP29uim_remote_event_resp_msg_v01iPvEED1Ev=so_stub_for_libtelux_qmi
-Wl,--defsym=_ZN5telux6common18FunctionalCallbackIJP29uim_remote_event_resp_msg_v01iPvEED2Ev=so_stub_for_libtelux_qmi
-Wl,--defsym=_ZN5telux6common18FunctionalCallbackIJP29uim_remote_reset_resp_msg_v01iPvEED0Ev=so_stub_for_libtelux_qmi
-Wl,--defsym=_ZN5telux6common18FunctionalCallbackIJP29uim_remote_reset_resp_msg_v01iPvEED1Ev=so_stub_for_libtelux_qmi
-Wl,--defsym=_ZN5telux6common18FunctionalCallbackIJP29uim_remote_reset_resp_msg_v01iPvEED2Ev=so_stub_for_libtelux_qmi
-Wl,--defsym=_ZN5telux6common18FunctionalCallbackIJP31uim_delete_profile_resp_msg_v01PviEED0Ev=so_stub_for_libtelux_qmi
-Wl,--defsym=_ZN5telux6common18FunctionalCallbackIJP31uim_delete_profile_resp_msg_v01PviEED1Ev=so_stub_for_libtelux_qmi
-Wl,--defsym=_ZN5telux6common18FunctionalCallbackIJP31uim_delete_profile_resp_msg_v01PviEED2Ev=so_stub_for_libtelux_qmi
-Wl,--defsym=_ZN5telux6common18FunctionalCallbackIJP32uim_get_sim_profile_resp_msg_v01PviEED0Ev=so_stub_for_libtelux_qmi
-Wl,--defsym=_ZN5telux6common18FunctionalCallbackIJP32uim_get_sim_profile_resp_msg_v01PviEED1Ev=so_stub_for_libtelux_qmi
-Wl,--defsym=_ZN5telux6common18FunctionalCallbackIJP32uim_get_sim_profile_resp_msg_v01PviEED2Ev=so_stub_for_libtelux_qmi
-Wl,--defsym=_ZN5telux6common18FunctionalCallbackIJP32uim_set_sim_profile_resp_msg_v01PviEED0Ev=so_stub_for_libtelux_qmi
-Wl,--defsym=_ZN5telux6common18FunctionalCallbackIJP32uim_set_sim_profile_resp_msg_v01PviEED1Ev=so_stub_for_libtelux_qmi
-Wl,--defsym=_ZN5telux6common18FunctionalCallbackIJP32uim_set_sim_profile_resp_msg_v01PviEED2Ev=so_stub_for_libtelux_qmi
-Wl,--defsym=_ZN5telux6common18FunctionalCallbackIJP33uim_get_profile_info_resp_msg_v01PviEED0Ev=so_stub_for_libtelux_qmi
-Wl,--defsym=_ZN5telux6common18FunctionalCallbackIJP33uim_get_profile_info_resp_msg_v01PviEED1Ev=so_stub_for_libtelux_qmi
-Wl,--defsym=_ZN5telux6common18FunctionalCallbackIJP33uim_get_profile_info_resp_msg_v01PviEED2Ev=so_stub_for_libtelux_qmi
-Wl,--defsym=_ZN5telux6common18FunctionalCallbackIJP33uim_get_slots_status_resp_msg_v01PviEED0Ev=so_stub_for_libtelux_qmi
-Wl,--defsym=_ZN5telux6common18FunctionalCallbackIJP33uim_get_slots_status_resp_msg_v01PviEED1Ev=so_stub_for_libtelux_qmi
-Wl,--defsym=_ZN5telux6common18FunctionalCallbackIJP33uim_get_slots_status_resp_msg_v01PviEED2Ev=so_stub_for_libtelux_qmi
-Wl,--defsym=_ZN5telux6common18FunctionalCallbackIJP33wms_set_event_report_resp_msg_v01PviEED0Ev=so_stub_for_libtelux_qmi
-Wl,--defsym=_ZN5telux6common18FunctionalCallbackIJP33wms_set_event_report_resp_msg_v01PviEED1Ev=so_stub_for_libtelux_qmi
-Wl,--defsym=_ZN5telux6common18FunctionalCallbackIJP33wms_set_event_report_resp_msg_v01PviEED2Ev=so_stub_for_libtelux_qmi
-Wl,--defsym=_ZN5telux6common18FunctionalCallbackIJP36wms_indication_register_resp_msg_v01PviEED0Ev=so_stub_for_libtelux_qmi
-Wl,--defsym=_ZN5telux6common18FunctionalCallbackIJP36wms_indication_register_resp_msg_v01PviEED1Ev=so_stub_for_libtelux_qmi
-Wl,--defsym=_ZN5telux6common18FunctionalCallbackIJP36wms_indication_register_resp_msg_v01PviEED2Ev=so_stub_for_libtelux_qmi
-Wl,--defsym=_ZN5telux6common18FunctionalCallbackIJP37uim_profile_user_consent_resp_msg_v01PviEED0Ev=so_stub_for_libtelux_qmi
-Wl,--defsym=_ZN5telux6common18FunctionalCallbackIJP37uim_profile_user_consent_resp_msg_v01PviEED1Ev=so_stub_for_libtelux_qmi
-Wl,--defsym=_ZN5telux6common18FunctionalCallbackIJP37uim_profile_user_consent_resp_msg_v01PviEED2Ev=so_stub_for_libtelux_qmi
-Wl,--defsym=_ZN5telux6common18FunctionalCallbackIJP37wms_get_broadcast_config_resp_msg_v01PviEED0Ev=so_stub_for_libtelux_qmi
-Wl,--defsym=_ZN5telux6common18FunctionalCallbackIJP37wms_get_broadcast_config_resp_msg_v01PviEED1Ev=so_stub_for_libtelux_qmi
-Wl,--defsym=_ZN5telux6common18FunctionalCallbackIJP37wms_get_broadcast_config_resp_msg_v01PviEED2Ev=so_stub_for_libtelux_qmi
-Wl,--defsym=_ZN5telux6common18FunctionalCallbackIJP37wms_set_broadcast_config_resp_msg_v01PviEED0Ev=so_stub_for_libtelux_qmi
-Wl,--defsym=_ZN5telux6common18FunctionalCallbackIJP37wms_set_broadcast_config_resp_msg_v01PviEED1Ev=so_stub_for_libtelux_qmi
-Wl,--defsym=_ZN5telux6common18FunctionalCallbackIJP37wms_set_broadcast_config_resp_msg_v01PviEED2Ev=so_stub_for_libtelux_qmi
-Wl,--defsym=_ZN5telux6common18FunctionalCallbackIJP40nas_get_high_capability_sub_resp_msg_v01PviEED0Ev=so_stub_for_libtelux_qmi
-Wl,--defsym=_ZN5telux6common18FunctionalCallbackIJP40nas_get_high_capability_sub_resp_msg_v01PviEED1Ev=so_stub_for_libtelux_qmi
-Wl,--defsym=_ZN5telux6common18FunctionalCallbackIJP40nas_get_high_capability_sub_resp_msg_v01PviEED2Ev=so_stub_for_libtelux_qmi
-Wl,--defsym=_ZN5telux6common18FunctionalCallbackIJP40uim_update_profile_nickname_resp_msg_v01PviEED0Ev=so_stub_for_libtelux_qmi
-Wl,--defsym=_ZN5telux6common18FunctionalCallbackIJP40uim_update_profile_nickname_resp_msg_v01PviEED1Ev=so_stub_for_libtelux_qmi
-Wl,--defsym=_ZN5telux6common18FunctionalCallbackIJP40uim_update_profile_nickname_resp_msg_v01PviEED2Ev=so_stub_for_libtelux_qmi
-Wl,--defsym=_ZN5telux6common18FunctionalCallbackIJP41wms_set_broadcast_activation_resp_msg_v01PviEED0Ev=so_stub_for_libtelux_qmi
-Wl,--defsym=_ZN5telux6common18FunctionalCallbackIJP41wms_set_broadcast_activation_resp_msg_v01PviEED1Ev=so_stub_for_libtelux_qmi
-Wl,--defsym=_ZN5telux6common18FunctionalCallbackIJP41wms_set_broadcast_activation_resp_msg_v01PviEED2Ev=so_stub_for_libtelux_qmi
-Wl,--defsym=_ZN5telux6common18FunctionalCallbackIJP48nas_get_system_selection_preference_resp_msg_v01PviEED0Ev=so_stub_for_libtelux_qmi
-Wl,--defsym=_ZN5telux6common18FunctionalCallbackIJP48nas_get_system_selection_preference_resp_msg_v01PviEED1Ev=so_stub_for_libtelux_qmi
-Wl,--defsym=_ZN5telux6common18FunctionalCallbackIJP48nas_get_system_selection_preference_resp_msg_v01PviEED2Ev=so_stub_for_libtelux_qmi
-Wl,--defsym=_ZN5telux6common22CommandCallbackManager11addCallbackIJiiEEEiSt8functionIFvDpT_EE=so_stub_for_libtelux_qmi
-Wl,--defsym=_ZN5telux6common22CommandCallbackManager11addCallbackIJiPviEEEiSt8functionIFvDpT_EE=so_stub_for_libtelux_qmi
-Wl,--defsym=_ZN5telux6common22CommandCallbackManager11addCallbackIJP24uim_get_eid_resp_msg_v01PviEEEiSt8functionIFvDpT_EE=so_stub_for_libtelux_qmi
-Wl,--defsym=_ZN5telux6common22CommandCallbackManager11addCallbackIJP28uim_add_profile_resp_msg_v01PviEEEiSt8functionIFvDpT_EE=so_stub_for_libtelux_qmi
-Wl,--defsym=_ZN5telux6common22CommandCallbackManager11addCallbackIJP28uim_remote_apdu_resp_msg_v01iPvEEEiSt8functionIFvDpT_EE=so_stub_for_libtelux_qmi
-Wl,--defsym=_ZN5telux6common22CommandCallbackManager11addCallbackIJP29nas_get_sys_info_resp_msg_v01PviEEEiSt8functionIFvDpT_EE=so_stub_for_libtelux_qmi
-Wl,--defsym=_ZN5telux6common22CommandCallbackManager11addCallbackIJP29uim_remote_event_resp_msg_v01iPvEEEiSt8functionIFvDpT_EE=so_stub_for_libtelux_qmi
-Wl,--defsym=_ZN5telux6common22CommandCallbackManager11addCallbackIJP29uim_remote_reset_resp_msg_v01iPvEEEiSt8functionIFvDpT_EE=so_stub_for_libtelux_qmi
-Wl,--defsym=_ZN5telux6common22CommandCallbackManager11addCallbackIJP31uim_delete_profile_resp_msg_v01PviEEEiSt8functionIFvDpT_EE=so_stub_for_libtelux_qmi
-Wl,--defsym=_ZN5telux6common22CommandCallbackManager11addCallbackIJP32uim_get_sim_profile_resp_msg_v01PviEEEiSt8functionIFvDpT_EE=so_stub_for_libtelux_qmi
-Wl,--defsym=_ZN5telux6common22CommandCallbackManager11addCallbackIJP32uim_set_sim_profile_resp_msg_v01PviEEEiSt8functionIFvDpT_EE=so_stub_for_libtelux_qmi
-Wl,--defsym=_ZN5telux6common22CommandCallbackManager11addCallbackIJP33uim_get_profile_info_resp_msg_v01PviEEEiSt8functionIFvDpT_EE=so_stub_for_libtelux_qmi
-Wl,--defsym=_ZN5telux6common22CommandCallbackManager11addCallbackIJP33uim_get_slots_status_resp_msg_v01PviEEEiSt8functionIFvDpT_EE=so_stub_for_libtelux_qmi
-Wl,--defsym=_ZN5telux6common22CommandCallbackManager11addCallbackIJP33wms_set_event_report_resp_msg_v01PviEEEiSt8functionIFvDpT_EE=so_stub_for_libtelux_qmi
-Wl,--defsym=_ZN5telux6common22CommandCallbackManager11addCallbackIJP36wms_indication_register_resp_msg_v01PviEEEiSt8functionIFvDpT_EE=so_stub_for_libtelux_qmi
-Wl,--defsym=_ZN5telux6common22CommandCallbackManager11addCallbackIJP37uim_profile_user_consent_resp_msg_v01PviEEEiSt8functionIFvDpT_EE=so_stub_for_libtelux_qmi
-Wl,--defsym=_ZN5telux6common22CommandCallbackManager11addCallbackIJP37wms_get_broadcast_config_resp_msg_v01PviEEEiSt8functionIFvDpT_EE=so_stub_for_libtelux_qmi
-Wl,--defsym=_ZN5telux6common22CommandCallbackManager11addCallbackIJP37wms_set_broadcast_config_resp_msg_v01PviEEEiSt8functionIFvDpT_EE=so_stub_for_libtelux_qmi
-Wl,--defsym=_ZN5telux6common22CommandCallbackManager11addCallbackIJP40nas_get_high_capability_sub_resp_msg_v01PviEEEiSt8functionIFvDpT_EE=so_stub_for_libtelux_qmi
-Wl,--defsym=_ZN5telux6common22CommandCallbackManager11addCallbackIJP40uim_update_profile_nickname_resp_msg_v01PviEEEiSt8functionIFvDpT_EE=so_stub_for_libtelux_qmi
-Wl,--defsym=_ZN5telux6common22CommandCallbackManager11addCallbackIJP41wms_set_broadcast_activation_resp_msg_v01PviEEEiSt8functionIFvDpT_EE=so_stub_for_libtelux_qmi
-Wl,--defsym=_ZN5telux6common22CommandCallbackManager11addCallbackIJP48nas_get_system_selection_preference_resp_msg_v01PviEEEiSt8functionIFvDpT_EE=so_stub_for_libtelux_qmi
-Wl,--defsym=_ZN5telux6common22CommandCallbackManager15executeCallbackIJRiRPvS3_EEEvSt10shared_ptrINS0_16ICommandCallbackEEDpOT_=so_stub_for_libtelux_qmi
-Wl,--defsym=_ZN5telux6common22CommandCallbackManager15executeCallbackIJRiS3_EEEvSt10shared_ptrINS0_16ICommandCallbackEEDpOT_=so_stub_for_libtelux_qmi
-Wl,--defsym=_ZN5telux6common22CommandCallbackManager15executeCallbackIJRP24uim_get_eid_resp_msg_v01RPvRiEEEvSt10shared_ptrINS0_16ICommandCallbackEEDpOT_=so_stub_for_libtelux_qmi
-Wl,--defsym=_ZN5telux6common22CommandCallbackManager15executeCallbackIJRP28uim_add_profile_resp_msg_v01RPvRiEEEvSt10shared_ptrINS0_16ICommandCallbackEEDpOT_=so_stub_for_libtelux_qmi
-Wl,--defsym=_ZN5telux6common22CommandCallbackManager15executeCallbackIJRP28uim_remote_apdu_resp_msg_v01RiRPvEEEvSt10shared_ptrINS0_16ICommandCallbackEEDpOT_=so_stub_for_libtelux_qmi
-Wl,--defsym=_ZN5telux6common22CommandCallbackManager15executeCallbackIJRP29nas_get_sys_info_resp_msg_v01RPvRiEEEvSt10shared_ptrINS0_16ICommandCallbackEEDpOT_=so_stub_for_libtelux_qmi
-Wl,--defsym=_ZN5telux6common22CommandCallbackManager15executeCallbackIJRP29uim_remote_event_resp_msg_v01RiRPvEEEvSt10shared_ptrINS0_16ICommandCallbackEEDpOT_=so_stub_for_libtelux_qmi
-Wl,--defsym=_ZN5telux6common22CommandCallbackManager15executeCallbackIJRP29uim_remote_reset_resp_msg_v01RiRPvEEEvSt10shared_ptrINS0_16ICommandCallbackEEDpOT_=so_stub_for_libtelux_qmi
-Wl,--defsym=_ZN5telux6common22CommandCallbackManager15executeCallbackIJRP31uim_delete_profile_resp_msg_v01RPvRiEEEvSt10shared_ptrINS0_16ICommandCallbackEEDpOT_=so_stub_for_libtelux_qmi
-Wl,--defsym=_ZN5telux6common22CommandCallbackManager15executeCallbackIJRP32uim_get_sim_profile_resp_msg_v01RPvRiEEEvSt10shared_ptrINS0_16ICommandCallbackEEDpOT_=so_stub_for_libtelux_qmi
-Wl,--defsym=_ZN5telux6common22CommandCallbackManager15executeCallbackIJRP32uim_set_sim_profile_resp_msg_v01RPvRiEEEvSt10shared_ptrINS0_16ICommandCallbackEEDpOT_=so_stub_for_libtelux_qmi
-Wl,--defsym=_ZN5telux6common22CommandCallbackManager15executeCallbackIJRP33uim_get_profile_info_resp_msg_v01RPvRiEEEvSt10shared_ptrINS0_16ICommandCallbackEEDpOT_=so_stub_for_libtelux_qmi
-Wl,--defsym=_ZN5telux6common22CommandCallbackManager15executeCallbackIJRP33uim_get_slots_status_resp_msg_v01RPvRiEEEvSt10shared_ptrINS0_16ICommandCallbackEEDpOT_=so_stub_for_libtelux_qmi
-Wl,--defsym=_ZN5telux6common22CommandCallbackManager15executeCallbackIJRP33wms_set_event_report_resp_msg_v01RPvRiEEEvSt10shared_ptrINS0_16ICommandCallbackEEDpOT_=so_stub_for_libtelux_qmi
-Wl,--defsym=_ZN5telux6common22CommandCallbackManager15executeCallbackIJRP36wms_indication_register_resp_msg_v01RPvRiEEEvSt10shared_ptrINS0_16ICommandCallbackEEDpOT_=so_stub_for_libtelux_qmi
-Wl,--defsym=_ZN5telux6common22CommandCallbackManager15executeCallbackIJRP37uim_profile_user_consent_resp_msg_v01RPvRiEEEvSt10shared_ptrINS0_16ICommandCallbackEEDpOT_=so_stub_for_libtelux_qmi
-Wl,--defsym=_ZN5telux6common22CommandCallbackManager15executeCallbackIJRP37wms_get_broadcast_config_resp_msg_v01RPvRiEEEvSt10shared_ptrINS0_16ICommandCallbackEEDpOT_=so_stub_for_libtelux_qmi
-Wl,--defsym=_ZN5telux6common22CommandCallbackManager15executeCallbackIJRP37wms_set_broadcast_config_resp_msg_v01RPvRiEEEvSt10shared_ptrINS0_16ICommandCallbackEEDpOT_=so_stub_for_libtelux_qmi
-Wl,--defsym=_ZN5telux6common22CommandCallbackManager15executeCallbackIJRP40nas_get_high_capability_sub_resp_msg_v01RPvRiEEEvSt10shared_ptrINS0_16ICommandCallbackEEDpOT_=so_stub_for_libtelux_qmi
-Wl,--defsym=_ZN5telux6common22CommandCallbackManager15executeCallbackIJRP40uim_update_profile_nickname_resp_msg_v01RPvRiEEEvSt10shared_ptrINS0_16ICommandCallbackEEDpOT_=so_stub_for_libtelux_qmi
-Wl,--defsym=_ZN5telux6common22CommandCallbackManager15executeCallbackIJRP41wms_set_broadcast_activation_resp_msg_v01RPvRiEEEvSt10shared_ptrINS0_16ICommandCallbackEEDpOT_=so_stub_for_libtelux_qmi
-Wl,--defsym=_ZN5telux6common22CommandCallbackManager15executeCallbackIJRP48nas_get_system_selection_preference_resp_msg_v01RPvRiEEEvSt10shared_ptrINS0_16ICommandCallbackEEDpOT_=so_stub_for_libtelux_qmi
-Wl,--defsym=_ZN5telux6common3Log10logMessageIJPKc18qmi_error_type_v01S4_NSt7__cxx1112basic_stringIcSt11char_traitsIcESaIcEEEEEEvNS0_8LogLevelERKSB_SE_RKiDpT_=so_stub_for_libtelux_qmi
-Wl,--defsym=_ZN5telux6common3Log10logMessageIJPKc21wds_pdp_type_enum_v01EEEvNS0_8LogLevelERKNSt7__cxx1112basic_stringIcSt11char_traitsIcESaIcEEESE_RKiDpT_=so_stub_for_libtelux_qmi
-Wl,--defsym=_ZN5telux6common3Log10logMessageIJPKc25wds_profile_type_enum_v01EEEvNS0_8LogLevelERKNSt7__cxx1112basic_stringIcSt11char_traitsIcESaIcEEESE_RKiDpT_=so_stub_for_libtelux_qmi
-Wl,--defsym=_ZN5telux6common3Log10logMessageIJPKc35wds_ds_extended_error_code_enum_v01S4_NSt7__cxx1112basic_stringIcSt11char_traitsIcESaIcEEEEEEvNS0_8LogLevelERKSB_SE_RKiDpT_=so_stub_for_libtelux_qmi
-Wl,--defsym=_ZN5telux6common3Log10logMessageIJPKcbEEEvNS0_8LogLevelERKNSt7__cxx1112basic_stringIcSt11char_traitsIcESaIcEEESD_RKiDpT_=so_stub_for_libtelux_qmi
-Wl,--defsym=_ZN5telux6common3Log10logMessageIJPKcEEEvNS0_8LogLevelERKNSt7__cxx1112basic_stringIcSt11char_traitsIcESaIcEEESD_RKiDpT_=so_stub_for_libtelux_qmi
-Wl,--defsym=_ZN5telux6common3Log10logMessageIJPKciEEEvNS0_8LogLevelERKNSt7__cxx1112basic_stringIcSt11char_traitsIcESaIcEEESD_RKiDpT_=so_stub_for_libtelux_qmi
-Wl,--defsym=_ZN5telux6common3Log10logMessageIJPKciS4_27dms_activity_state_type_v01EEEvNS0_8LogLevelERKNSt7__cxx1112basic_stringIcSt11char_traitsIcESaIcEEESE_RKiDpT_=so_stub_for_libtelux_qmi
-Wl,--defsym=_ZN5telux6common3Log10logMessageIJPKciS4_EEEvNS0_8LogLevelERKNSt7__cxx1112basic_stringIcSt11char_traitsIcESaIcEEESD_RKiDpT_=so_stub_for_libtelux_qmi
-Wl,--defsym=_ZN5telux6common3Log10logMessageIJPKciS4_NSt7__cxx1112basic_stringIcSt11char_traitsIcESaIcEEEEEEvNS0_8LogLevelERKSA_SD_RKiDpT_=so_stub_for_libtelux_qmi
-Wl,--defsym=_ZN5telux6common3Log10logMessageIJPKciS4_NSt7__cxx1112basic_stringIcSt11char_traitsIcESaIcEEES4_iEEEvNS0_8LogLevelERKSA_SD_RKiDpT_=so_stub_for_libtelux_qmi
-Wl,--defsym=_ZN5telux6common3Log10logMessageIJPKcjEEEvNS0_8LogLevelERKNSt7__cxx1112basic_stringIcSt11char_traitsIcESaIcEEESD_RKiDpT_=so_stub_for_libtelux_qmi
-Wl,--defsym=_ZN5telux6common3Log10logMessageIJPKcjS4_25wds_v2x_err_type_enum_v01EEEvNS0_8LogLevelERKNSt7__cxx1112basic_stringIcSt11char_traitsIcESaIcEEESE_RKiDpT_=so_stub_for_libtelux_qmi
-Wl,--defsym=_ZN5telux6common3Log10logMessageIJPKcjS4_EEEvNS0_8LogLevelERKNSt7__cxx1112basic_stringIcSt11char_traitsIcESaIcEEESD_RKiDpT_=so_stub_for_libtelux_qmi
-Wl,--defsym=_ZN5telux6common3Log10logMessageIJPKcjS4_iEEEvNS0_8LogLevelERKNSt7__cxx1112basic_stringIcSt11char_traitsIcESaIcEEESD_RKiDpT_=so_stub_for_libtelux_qmi
-Wl,--defsym=_ZN5telux6common3Log10logMessageIJPKcNSt7__cxx1112basic_stringIcSt11char_traitsIcESaIcEEEEEEvNS0_8LogLevelERKSA_SD_RKiDpT_=so_stub_for_libtelux_qmi
-Wl,--defsym=_ZN5telux6common3Log10logMessageIJPKcP17qmi_client_structS4_jEEEvNS0_8LogLevelERKNSt7__cxx1112basic_stringIcSt11char_traitsIcESaIcEEESF_RKiDpT_=so_stub_for_libtelux_qmi
-Wl,--defsym=_ZN5telux6common3Log10logMessageIJPKcS4_17uim_slot_enum_v01EEEvNS0_8LogLevelERKNSt7__cxx1112basic_stringIcSt11char_traitsIcESaIcEEESE_RKiDpT_=so_stub_for_libtelux_qmi
-Wl,--defsym=_ZN5telux6common3Log10logMessageIJPKcS4_18call_type_enum_v02S4_iS4_22ecall_variant_enum_v02EEEvNS0_8LogLevelERKNSt7__cxx1112basic_stringIcSt11char_traitsIcESaIcEEESF_RKiDpT_=so_stub_for_libtelux_qmi
-Wl,--defsym=_ZN5telux6common3Log10logMessageIJPKcS4_18qmi_error_type_v01EEEvNS0_8LogLevelERKNSt7__cxx1112basic_stringIcSt11char_traitsIcESaIcEEESE_RKiDpT_=so_stub_for_libtelux_qmi
-Wl,--defsym=_ZN5telux6common3Log10logMessageIJPKcS4_22nas_subs_type_enum_v01EEEvNS0_8LogLevelERKNSt7__cxx1112basic_stringIcSt11char_traitsIcESaIcEEESE_RKiDpT_=so_stub_for_libtelux_qmi
-Wl,--defsym=_ZN5telux6common3Log10logMessageIJPKcS4_26uim_physical_slot_enum_v01EEEvNS0_8LogLevelERKNSt7__cxx1112basic_stringIcSt11char_traitsIcESaIcEEESE_RKiDpT_=so_stub_for_libtelux_qmi
-Wl,--defsym=_ZN5telux6common3Log10logMessageIJPKcS4_6SlotIdEEEvNS0_8LogLevelERKNSt7__cxx1112basic_stringIcSt11char_traitsIcESaIcEEESE_RKiDpT_=so_stub_for_libtelux_qmi
-Wl,--defsym=_ZN5telux6common3Log10logMessageIJPKcS4_bS4_bEEEvNS0_8LogLevelERKNSt7__cxx1112basic_stringIcSt11char_traitsIcESaIcEEESD_RKiDpT_=so_stub_for_libtelux_qmi
-Wl,--defsym=_ZN5telux6common3Log10logMessageIJPKcS4_EEEvNS0_8LogLevelERKNSt7__cxx1112basic_stringIcSt11char_traitsIcESaIcEEESD_RKiDpT_=so_stub_for_libtelux_qmi
-Wl,--defsym=_ZN5telux6common3Log10logMessageIJPKcS4_hEEEvNS0_8LogLevelERKNSt7__cxx1112basic_stringIcSt11char_traitsIcESaIcEEESD_RKiDpT_=so_stub_for_libtelux_qmi
-Wl,--defsym=_ZN5telux6common3Log10logMessageIJPKcS4_iEEEvNS0_8LogLevelERKNSt7__cxx1112basic_stringIcSt11char_traitsIcESaIcEEESD_RKiDpT_=so_stub_for_libtelux_qmi
-Wl,--defsym=_ZN5telux6common3Log10logMessageIJPKcS4_iS4_EEEvNS0_8LogLevelERKNSt7__cxx1112basic_stringIcSt11char_traitsIcESaIcEEESD_RKiDpT_=so_stub_for_libtelux_qmi
-Wl,--defsym=_ZN5telux6common3Log10logMessageIJPKcS4_iS4_iEEEvNS0_8LogLevelERKNSt7__cxx1112basic_stringIcSt11char_traitsIcESaIcEEESD_RKiDpT_=so_stub_for_libtelux_qmi
-Wl,--defsym=_ZN5telux6common3Log10logMessageIJPKcS4_iS4_iS4_bEEEvNS0_8LogLevelERKNSt7__cxx1112basic_stringIcSt11char_traitsIcESaIcEEESD_RKiDpT_=so_stub_for_libtelux_qmi
-Wl,--defsym=_ZN5telux6common3Log10logMessageIJPKcS4_iS4_iS4_NSt7__cxx1112basic_stringIcSt11char_traitsIcESaIcEEEEEEvNS0_8LogLevelERKSA_SD_RKiDpT_=so_stub_for_libtelux_qmi
-Wl,--defsym=_ZN5telux6common3Log10logMessageIJPKcS4_iS4_iS4_NSt7__cxx1112basic_stringIcSt11char_traitsIcESaIcEEES4_SA_S4_SA_S4_SA_S4_iS4_iEEEvNS0_8LogLevelERKSA_SD_RKiDpT_=so_stub_for_libtelux_qmi
-Wl,--defsym=_ZN5telux6common3Log10logMessageIJPKcS4_iS4_NSt7__cxx1112basic_stringIcSt11char_traitsIcESaIcEEEEEEvNS0_8LogLevelERKSA_SD_RKiDpT_=so_stub_for_libtelux_qmi
-Wl,--defsym=_ZN5telux6common3Log10logMessageIJPKcS4_iS4_NSt7__cxx1112basic_stringIcSt11char_traitsIcESaIcEEES4_iEEEvNS0_8LogLevelERKSA_SD_RKiDpT_=so_stub_for_libtelux_qmi
-Wl,--defsym=_ZN5telux6common3Log10logMessageIJPKcS4_iS4_NSt7__cxx1112basic_stringIcSt11char_traitsIcESaIcEEES4_SA_S4_bEEEvNS0_8LogLevelERKSA_SD_RKiDpT_=so_stub_for_libtelux_qmi
-Wl,--defsym=_ZN5telux6common3Log10logMessageIJPKcS4_iS4_P17qmi_client_structEEEvNS0_8LogLevelERKNSt7__cxx1112basic_stringIcSt11char_traitsIcESaIcEEESF_RKiDpT_=so_stub_for_libtelux_qmi
-Wl,--defsym=_ZN5telux6common3Log10logMessageIJPKcS4_jEEEvNS0_8LogLevelERKNSt7__cxx1112basic_stringIcSt11char_traitsIcESaIcEEESD_RKiDpT_=so_stub_for_libtelux_qmi
-Wl,--defsym=_ZN5telux6common3Log10logMessageIJPKcS4_jS4_iEEEvNS0_8LogLevelERKNSt7__cxx1112basic_stringIcSt11char_traitsIcESaIcEEESD_RKiDpT_=so_stub_for_libtelux_qmi
-Wl,--defsym=_ZN5telux6common3Log10logMessageIJPKcS4_jS4_iS4_NSt7__cxx1112basic_stringIcSt11char_traitsIcESaIcEEEEEEvNS0_8LogLevelERKSA_SD_RKiDpT_=so_stub_for_libtelux_qmi
-Wl,--defsym=_ZN5telux6common3Log10logMessageIJPKcS4_jS4_jS4_P17qmi_client_structEEEvNS0_8LogLevelERKNSt7__cxx1112basic_stringIcSt11char_traitsIcESaIcEEESF_RKiDpT_=so_stub_for_libtelux_qmi
-Wl,--defsym=_ZN5telux6common3Log10logMessageIJPKcS4_S4_21data_ep_type_enum_v01S4_jS4_iEEEvNS0_8LogLevelERKNSt7__cxx1112basic_stringIcSt11char_traitsIcESaIcEEESE_RKiDpT_=so_stub_for_libtelux_qmi
-Wl,--defsym=_ZN5telux6common3Log10logMessageIJPKcS4_S4_29uim_remote_slot_type_enum_v01EEEvNS0_8LogLevelERKNSt7__cxx1112basic_stringIcSt11char_traitsIcESaIcEEESE_RKiDpT_=so_stub_for_libtelux_qmi
-Wl,--defsym=_ZN5telux6common3Log10logMessageIJPKcS4_S4_EEEvNS0_8LogLevelERKNSt7__cxx1112basic_stringIcSt11char_traitsIcESaIcEEESD_RKiDpT_=so_stub_for_libtelux_qmi
-Wl,--defsym=_ZN5telux6common3Log10logMessageIJPKcS4_S4_iEEEvNS0_8LogLevelERKNSt7__cxx1112basic_stringIcSt11char_traitsIcESaIcEEESD_RKiDpT_=so_stub_for_libtelux_qmi
-Wl,--defsym=_ZN5telux6common3Log10logMessageIJPKcS4_S4_iS4_tS4_40wds_v2x_service_sub_action_type_enum_v01EEEvNS0_8LogLevelERKNSt7__cxx1112basic_stringIcSt11char_traitsIcESaIcEEESE_RKiDpT_=so_stub_for_libtelux_qmi
-Wl,--defsym=_ZN5telux6common3Log10logMessageIJPKcS4_S4_NSt7__cxx1112basic_stringIcSt11char_traitsIcESaIcEEES4_EEEvNS0_8LogLevelERKSA_SD_RKiDpT_=so_stub_for_libtelux_qmi
-Wl,--defsym=_ZN5telux6common3Log10logMessageIJPKcS4_tEEEvNS0_8LogLevelERKNSt7__cxx1112basic_stringIcSt11char_traitsIcESaIcEEESD_RKiDpT_=so_stub_for_libtelux_qmi
-Wl,--defsym=_ZN5telux6common3Log10logMessageIJPKctS4_jEEEvNS0_8LogLevelERKNSt7__cxx1112basic_stringIcSt11char_traitsIcESaIcEEESD_RKiDpT_=so_stub_for_libtelux_qmi
-Wl,--defsym=_ZN5telux6common3Log16constructMessageINSt7__cxx1119basic_ostringstreamIcSt11char_traitsIcESaIcEEE18qmi_error_type_v01JPKcNS3_12basic_stringIcS6_S7_EEEEEvRT_T0_DpT1_=so_stub_for_libtelux_qmi
-Wl,--defsym=_ZN5telux6common3Log16constructMessageINSt7__cxx1119basic_ostringstreamIcSt11char_traitsIcESaIcEEE35wds_ds_extended_error_code_enum_v01JPKcNS3_12basic_stringIcS6_S7_EEEEEvRT_T0_DpT1_=so_stub_for_libtelux_qmi
-Wl,--defsym=_ZN5telux6common3Log16constructMessageINSt7__cxx1119basic_ostringstreamIcSt11char_traitsIcESaIcEEEiJPKciSA_NS3_12basic_stringIcS6_S7_EEEEEvRT_T0_DpT1_=so_stub_for_libtelux_qmi
-Wl,--defsym=_ZN5telux6common3Log16constructMessageINSt7__cxx1119basic_ostringstreamIcSt11char_traitsIcESaIcEEEiJPKciSA_NS3_12basic_stringIcS6_S7_EESA_SC_SA_SC_SA_SC_SA_iSA_iEEEvRT_T0_DpT1_=so_stub_for_libtelux_qmi
-Wl,--defsym=_ZN5telux6common3Log16constructMessageINSt7__cxx1119basic_ostringstreamIcSt11char_traitsIcESaIcEEEiJPKcNS3_12basic_stringIcS6_S7_EEEEEvRT_T0_DpT1_=so_stub_for_libtelux_qmi
-Wl,--defsym=_ZN5telux6common3Log16constructMessageINSt7__cxx1119basic_ostringstreamIcSt11char_traitsIcESaIcEEEiJPKcNS3_12basic_stringIcS6_S7_EESA_iEEEvRT_T0_DpT1_=so_stub_for_libtelux_qmi
-Wl,--defsym=_ZN5telux6common3Log16constructMessageINSt7__cxx1119basic_ostringstreamIcSt11char_traitsIcESaIcEEEiJPKcNS3_12basic_stringIcS6_S7_EESA_SC_SA_bEEEvRT_T0_DpT1_=so_stub_for_libtelux_qmi
-Wl,--defsym=_ZN5telux6common3Log16constructMessageINSt7__cxx1119basic_ostringstreamIcSt11char_traitsIcESaIcEEEiJPKcNS3_12basic_stringIcS6_S7_EESA_SC_SA_SC_SA_SC_SA_iSA_iEEEvRT_T0_DpT1_=so_stub_for_libtelux_qmi
-Wl,--defsym=_ZN5telux6common3Log16constructMessageINSt7__cxx1119basic_ostringstreamIcSt11char_traitsIcESaIcEEEjJPKciSA_NS3_12basic_stringIcS6_S7_EEEEEvRT_T0_DpT1_=so_stub_for_libtelux_qmi
-Wl,--defsym=_ZN5telux6common3Log16constructMessageINSt7__cxx1119basic_ostringstreamIcSt11char_traitsIcESaIcEEENS3_12basic_stringIcS6_S7_EEJPKcSA_SC_bEEEvRT_T0_DpT1_=so_stub_for_libtelux_qmi
-Wl,--defsym=_ZN5telux6common3Log16constructMessageINSt7__cxx1119basic_ostringstreamIcSt11char_traitsIcESaIcEEENS3_12basic_stringIcS6_S7_EEJPKcSA_SC_iSC_iEEEvRT_T0_DpT1_=so_stub_for_libtelux_qmi
-Wl,--defsym=_ZN5telux6common3Log16constructMessageINSt7__cxx1119basic_ostringstreamIcSt11char_traitsIcESaIcEEENS3_12basic_stringIcS6_S7_EEJPKcSA_SC_SA_SC_iSC_iEEEvRT_T0_DpT1_=so_stub_for_libtelux_qmi
-Wl,--defsym=_ZN5telux6common3Log16constructMessageINSt7__cxx1119basic_ostringstreamIcSt11char_traitsIcESaIcEEENS3_12basic_stringIcS6_S7_EEJPKcSA_SC_SA_SC_SA_SC_iSC_iEEEvRT_T0_DpT1_=so_stub_for_libtelux_qmi
-Wl,--defsym=_ZN5telux6common3Log16constructMessageINSt7__cxx1119basic_ostringstreamIcSt11char_traitsIcESaIcEEEPKcJ18qmi_error_type_v01SA_NS3_12basic_stringIcS6_S7_EEEEEvRT_T0_DpT1_=so_stub_for_libtelux_qmi
-Wl,--defsym=_ZN5telux6common3Log16constructMessageINSt7__cxx1119basic_ostringstreamIcSt11char_traitsIcESaIcEEEPKcJ35wds_ds_extended_error_code_enum_v01SA_NS3_12basic_stringIcS6_S7_EEEEEvRT_T0_DpT1_=so_stub_for_libtelux_qmi
-Wl,--defsym=_ZN5telux6common3Log16constructMessageINSt7__cxx1119basic_ostringstreamIcSt11char_traitsIcESaIcEEEPKcJiSA_iSA_NS3_12basic_stringIcS6_S7_EEEEEvRT_T0_DpT1_=so_stub_for_libtelux_qmi
-Wl,--defsym=_ZN5telux6common3Log16constructMessageINSt7__cxx1119basic_ostringstreamIcSt11char_traitsIcESaIcEEEPKcJiSA_iSA_NS3_12basic_stringIcS6_S7_EESA_SC_SA_SC_SA_SC_SA_iSA_iEEEvRT_T0_DpT1_=so_stub_for_libtelux_qmi
-Wl,--defsym=_ZN5telux6common3Log16constructMessageINSt7__cxx1119basic_ostringstreamIcSt11char_traitsIcESaIcEEEPKcJiSA_NS3_12basic_stringIcS6_S7_EEEEEvRT_T0_DpT1_=so_stub_for_libtelux_qmi
-Wl,--defsym=_ZN5telux6common3Log16constructMessageINSt7__cxx1119basic_ostringstreamIcSt11char_traitsIcESaIcEEEPKcJiSA_NS3_12basic_stringIcS6_S7_EESA_iEEEvRT_T0_DpT1_=so_stub_for_libtelux_qmi
-Wl,--defsym=_ZN5telux6common3Log16constructMessageINSt7__cxx1119basic_ostringstreamIcSt11char_traitsIcESaIcEEEPKcJiSA_NS3_12basic_stringIcS6_S7_EESA_SC_SA_bEEEvRT_T0_DpT1_=so_stub_for_libtelux_qmi
-Wl,--defsym=_ZN5telux6common3Log16constructMessageINSt7__cxx1119basic_ostringstreamIcSt11char_traitsIcESaIcEEEPKcJiSA_NS3_12basic_stringIcS6_S7_EESA_SC_SA_SC_SA_SC_SA_iSA_iEEEvRT_T0_DpT1_=so_stub_for_libtelux_qmi
-Wl,--defsym=_ZN5telux6common3Log16constructMessageINSt7__cxx1119basic_ostringstreamIcSt11char_traitsIcESaIcEEEPKcJjSA_iSA_NS3_12basic_stringIcS6_S7_EEEEEvRT_T0_DpT1_=so_stub_for_libtelux_qmi
-Wl,--defsym=_ZN5telux6common3Log16constructMessageINSt7__cxx1119basic_ostringstreamIcSt11char_traitsIcESaIcEEEPKcJNS3_12basic_stringIcS6_S7_EEEEEvRT_T0_DpT1_=so_stub_for_libtelux_qmi
-Wl,--defsym=_ZN5telux6common3Log16constructMessageINSt7__cxx1119basic_ostringstreamIcSt11char_traitsIcESaIcEEEPKcJNS3_12basic_stringIcS6_S7_EESA_bEEEvRT_T0_DpT1_=so_stub_for_libtelux_qmi
-Wl,--defsym=_ZN5telux6common3Log16constructMessageINSt7__cxx1119basic_ostringstreamIcSt11char_traitsIcESaIcEEEPKcJNS3_12basic_stringIcS6_S7_EESA_EEEvRT_T0_DpT1_=so_stub_for_libtelux_qmi
-Wl,--defsym=_ZN5telux6common3Log16constructMessageINSt7__cxx1119basic_ostringstreamIcSt11char_traitsIcESaIcEEEPKcJNS3_12basic_stringIcS6_S7_EESA_iEEEvRT_T0_DpT1_=so_stub_for_libtelux_qmi
-Wl,--defsym=_ZN5telux6common3Log16constructMessageINSt7__cxx1119basic_ostringstreamIcSt11char_traitsIcESaIcEEEPKcJNS3_12basic_stringIcS6_S7_EESA_iSA_iEEEvRT_T0_DpT1_=so_stub_for_libtelux_qmi
-Wl,--defsym=_ZN5telux6common3Log16constructMessageINSt7__cxx1119basic_ostringstreamIcSt11char_traitsIcESaIcEEEPKcJNS3_12basic_stringIcS6_S7_EESA_SC_SA_bEEEvRT_T0_DpT1_=so_stub_for_libtelux_qmi
-Wl,--defsym=_ZN5telux6common3Log16constructMessageINSt7__cxx1119basic_ostringstreamIcSt11char_traitsIcESaIcEEEPKcJNS3_12basic_stringIcS6_S7_EESA_SC_SA_iSA_iEEEvRT_T0_DpT1_=so_stub_for_libtelux_qmi
-Wl,--defsym=_ZN5telux6common3Log16constructMessageINSt7__cxx1119basic_ostringstreamIcSt11char_traitsIcESaIcEEEPKcJNS3_12basic_stringIcS6_S7_EESA_SC_SA_SC_SA_iSA_iEEEvRT_T0_DpT1_=so_stub_for_libtelux_qmi
-Wl,--defsym=_ZN5telux6common3Log16constructMessageINSt7__cxx1119basic_ostringstreamIcSt11char_traitsIcESaIcEEEPKcJNS3_12basic_stringIcS6_S7_EESA_SC_SA_SC_SA_SC_SA_iSA_iEEEvRT_T0_DpT1_=so_stub_for_libtelux_qmi
-Wl,--defsym=_ZN5telux6common3Log16constructMessageINSt7__cxx1119basic_ostringstreamIcSt11char_traitsIcESaIcEEEPKcJSA_18call_type_enum_v02SA_iSA_22ecall_variant_enum_v02EEEvRT_T0_DpT1_=so_stub_for_libtelux_qmi
-Wl,--defsym=_ZN5telux6common3Log16constructMessageINSt7__cxx1119basic_ostringstreamIcSt11char_traitsIcESaIcEEEPKcJSA_21data_ep_type_enum_v01SA_jSA_iEEEvRT_T0_DpT1_=so_stub_for_libtelux_qmi
-Wl,--defsym=_ZN5telux6common3Log16constructMessageINSt7__cxx1119basic_ostringstreamIcSt11char_traitsIcESaIcEEEPKcJSA_bSA_bEEEvRT_T0_DpT1_=so_stub_for_libtelux_qmi
-Wl,--defsym=_ZN5telux6common3Log16constructMessageINSt7__cxx1119basic_ostringstreamIcSt11char_traitsIcESaIcEEEPKcJSA_iSA_iEEEvRT_T0_DpT1_=so_stub_for_libtelux_qmi
-Wl,--defsym=_ZN5telux6common3Log16constructMessageINSt7__cxx1119basic_ostringstreamIcSt11char_traitsIcESaIcEEEPKcJSA_iSA_iSA_bEEEvRT_T0_DpT1_=so_stub_for_libtelux_qmi
-Wl,--defsym=_ZN5telux6common3Log16constructMessageINSt7__cxx1119basic_ostringstreamIcSt11char_traitsIcESaIcEEEPKcJSA_iSA_iSA_NS3_12basic_stringIcS6_S7_EEEEEvRT_T0_DpT1_=so_stub_for_libtelux_qmi
-Wl,--defsym=_ZN5telux6common3Log16constructMessageINSt7__cxx1119basic_ostringstreamIcSt11char_traitsIcESaIcEEEPKcJSA_iSA_iSA_NS3_12basic_stringIcS6_S7_EESA_SC_SA_SC_SA_SC_SA_iSA_iEEEvRT_T0_DpT1_=so_stub_for_libtelux_qmi
-Wl,--defsym=_ZN5telux6common3Log16constructMessageINSt7__cxx1119basic_ostringstreamIcSt11char_traitsIcESaIcEEEPKcJSA_iSA_NS3_12basic_stringIcS6_S7_EEEEEvRT_T0_DpT1_=so_stub_for_libtelux_qmi
-Wl,--defsym=_ZN5telux6common3Log16constructMessageINSt7__cxx1119basic_ostringstreamIcSt11char_traitsIcESaIcEEEPKcJSA_iSA_NS3_12basic_stringIcS6_S7_EESA_iEEEvRT_T0_DpT1_=so_stub_for_libtelux_qmi
-Wl,--defsym=_ZN5telux6common3Log16constructMessageINSt7__cxx1119basic_ostringstreamIcSt11char_traitsIcESaIcEEEPKcJSA_iSA_NS3_12basic_stringIcS6_S7_EESA_SC_SA_bEEEvRT_T0_DpT1_=so_stub_for_libtelux_qmi
-Wl,--defsym=_ZN5telux6common3Log16constructMessageINSt7__cxx1119basic_ostringstreamIcSt11char_traitsIcESaIcEEEPKcJSA_iSA_P17qmi_client_structEEEvRT_T0_DpT1_=so_stub_for_libtelux_qmi
-Wl,--defsym=_ZN5telux6common3Log16constructMessageINSt7__cxx1119basic_ostringstreamIcSt11char_traitsIcESaIcEEEPKcJSA_iSA_tSA_40wds_v2x_service_sub_action_type_enum_v01EEEvRT_T0_DpT1_=so_stub_for_libtelux_qmi
-Wl,--defsym=_ZN5telux6common3Log16constructMessageINSt7__cxx1119basic_ostringstreamIcSt11char_traitsIcESaIcEEEPKcJSA_jSA_iEEEvRT_T0_DpT1_=so_stub_for_libtelux_qmi
-Wl,--defsym=_ZN5telux6common3Log16constructMessageINSt7__cxx1119basic_ostringstreamIcSt11char_traitsIcESaIcEEEPKcJSA_jSA_iSA_NS3_12basic_stringIcS6_S7_EEEEEvRT_T0_DpT1_=so_stub_for_libtelux_qmi
-Wl,--defsym=_ZN5telux6common3Log16constructMessageINSt7__cxx1119basic_ostringstreamIcSt11char_traitsIcESaIcEEEPKcJSA_jSA_jSA_P17qmi_client_structEEEvRT_T0_DpT1_=so_stub_for_libtelux_qmi
-Wl,--defsym=_ZN5telux6common3Log16constructMessageINSt7__cxx1119basic_ostringstreamIcSt11char_traitsIcESaIcEEEPKcJSA_NS3_12basic_stringIcS6_S7_EESA_EEEvRT_T0_DpT1_=so_stub_for_libtelux_qmi
-Wl,--defsym=_ZN5telux6common3Log16constructMessageINSt7__cxx1119basic_ostringstreamIcSt11char_traitsIcESaIcEEEPKcJSA_SA_NS3_12basic_stringIcS6_S7_EESA_EEEvRT_T0_DpT1_=so_stub_for_libtelux_qmi
-Wl,--defsym=_ZNKSt13__future_base13_State_baseV221_M_is_deferred_futureEv=so_stub_for_libtelux_qmi
-Wl,--defsym=_ZNSt10_HashtableIiSt4pairIKiSt10shared_ptrIN5telux6common16ICommandCallbackEEESaIS7_ENSt8__detail10_Select1stESt8equal_toIiESt4hashIiENS9_18_Mod_range_hashingENS9_20_Default_ranged_hashENS9_20_Prime_rehash_policyENS9_17_Hashtable_traitsILb0ELb0ELb1EEEE13_M_rehash_auxEjSt17integral_constantIbLb1EE=so_stub_for_libtelux_qmi
-Wl,--defsym=_ZNSt10_HashtableIiSt4pairIKiSt10shared_ptrIN5telux6common16ICommandCallbackEEESaIS7_ENSt8__detail10_Select1stESt8equal_toIiESt4hashIiENS9_18_Mod_range_hashingENS9_20_Default_ranged_hashENS9_20_Prime_rehash_policyENS9_17_Hashtable_traitsILb0ELb0ELb1EEEE21_M_insert_unique_nodeEjjPNS9_10_Hash_nodeIS7_Lb0EEEj=so_stub_for_libtelux_qmi
-Wl,--defsym=_ZNSt10_HashtableIiSt4pairIKiSt10shared_ptrIN5telux6common16ICommandCallbackEEESaIS7_ENSt8__detail10_Select1stESt8equal_toIiESt4hashIiENS9_18_Mod_range_hashingENS9_20_Default_ranged_hashENS9_20_Prime_rehash_policyENS9_17_Hashtable_traitsILb0ELb0ELb1EEEE9_M_rehashEjRKj=so_stub_for_libtelux_qmi
-Wl,--defsym=_ZNSt11__copy_moveILb1ELb0ESt26random_access_iterator_tagE8__copy_mIPSt13shared_futureIvES5_EET0_T_S7_S6_=so_stub_for_libtelux_qmi
-Wl,--defsym=_ZNSt11__copy_moveILb1ELb0ESt26random_access_iterator_tagE8__copy_mIPSt8weak_ptrIN5telux3qmi12IQmiListenerEES8_EET0_T_SA_S9_=so_stub_for_libtelux_qmi
-Wl,--defsym=_ZNSt11_Deque_baseISt13shared_futureIvESaIS1_EE15_M_create_nodesEPPS1_S5_=so_stub_for_libtelux_qmi
-Wl,--defsym=_ZNSt11_Deque_baseISt13shared_futureIvESaIS1_EE17_M_initialize_mapEj=so_stub_for_libtelux_qmi
-Wl,--defsym=_ZNSt11_Deque_baseISt13shared_futureIvESaIS1_EED1Ev=so_stub_for_libtelux_qmi
-Wl,--defsym=_ZNSt11_Deque_baseISt13shared_futureIvESaIS1_EED2Ev=so_stub_for_libtelux_qmi
-Wl,--defsym=_ZNSt11this_thread9sleep_forIxSt5ratioILx1ELx1000EEEEvRKNSt6chrono8durationIT_T0_EE=so_stub_for_libtelux_qmi
-Wl,--defsym=_ZNSt12future_errorC1ESt10error_code=so_stub_for_libtelux_qmi
-Wl,--defsym=_ZNSt12future_errorC2ESt10error_code=so_stub_for_libtelux_qmi
-Wl,--defsym=_ZNSt12__shared_ptrIN5telux3qmi12DmsQmiClientELN9__gnu_cxx12_Lock_policyE2EEC1ISaIS2_EJRiEEESt19_Sp_make_shared_tagRKT_DpOT0_=so_stub_for_libtelux_qmi
-Wl,--defsym=_ZNSt12__shared_ptrIN5telux3qmi12DmsQmiClientELN9__gnu_cxx12_Lock_policyE2EEC2ISaIS2_EJRiEEESt19_Sp_make_shared_tagRKT_DpOT0_=so_stub_for_libtelux_qmi
-Wl,--defsym=_ZNSt12__shared_ptrIN5telux3qmi12IQmiListenerELN9__gnu_cxx12_Lock_policyE2EEC1ERKSt10__weak_ptrIS2_LS4_2EESt9nothrow_t=so_stub_for_libtelux_qmi
-Wl,--defsym=_ZNSt12__shared_ptrIN5telux3qmi12IQmiListenerELN9__gnu_cxx12_Lock_policyE2EEC2ERKSt10__weak_ptrIS2_LS4_2EESt9nothrow_t=so_stub_for_libtelux_qmi
-Wl,--defsym=_ZNSt12__shared_ptrIN5telux3qmi12NasQmiClientELN9__gnu_cxx12_Lock_policyE2EEC1ISaIS2_EJRiEEESt19_Sp_make_shared_tagRKT_DpOT0_=so_stub_for_libtelux_qmi
-Wl,--defsym=_ZNSt12__shared_ptrIN5telux3qmi12NasQmiClientELN9__gnu_cxx12_Lock_policyE2EEC2ISaIS2_EJRiEEESt19_Sp_make_shared_tagRKT_DpOT0_=so_stub_for_libtelux_qmi
-Wl,--defsym=_ZNSt12__shared_ptrIN5telux3qmi12WdsQmiClientELN9__gnu_cxx12_Lock_policyE2EEC1ISaIS2_EJR6SlotIdEEESt19_Sp_make_shared_tagRKT_DpOT0_=so_stub_for_libtelux_qmi
-Wl,--defsym=_ZNSt12__shared_ptrIN5telux3qmi12WdsQmiClientELN9__gnu_cxx12_Lock_policyE2EEC2ISaIS2_EJR6SlotIdEEESt19_Sp_make_shared_tagRKT_DpOT0_=so_stub_for_libtelux_qmi
-Wl,--defsym=_ZNSt12__shared_ptrIN5telux3qmi12WmsQmiClientELN9__gnu_cxx12_Lock_policyE2EEC1ISaIS2_EJR6SlotIdEEESt19_Sp_make_shared_tagRKT_DpOT0_=so_stub_for_libtelux_qmi
-Wl,--defsym=_ZNSt12__shared_ptrIN5telux3qmi12WmsQmiClientELN9__gnu_cxx12_Lock_policyE2EEC2ISaIS2_EJR6SlotIdEEESt19_Sp_make_shared_tagRKT_DpOT0_=so_stub_for_libtelux_qmi
-Wl,--defsym=_ZNSt12__shared_ptrIN5telux3qmi14VoiceQmiClientELN9__gnu_cxx12_Lock_policyE2EEC1ISaIS2_EJRiEEESt19_Sp_make_shared_tagRKT_DpOT0_=so_stub_for_libtelux_qmi
-Wl,--defsym=_ZNSt12__shared_ptrIN5telux3qmi14VoiceQmiClientELN9__gnu_cxx12_Lock_policyE2EEC2ISaIS2_EJRiEEESt19_Sp_make_shared_tagRKT_DpOT0_=so_stub_for_libtelux_qmi
-Wl,--defsym=_ZNSt12__shared_ptrIN5telux6common16ICommandCallbackELN9__gnu_cxx12_Lock_policyE2EEC1ERKSt10__weak_ptrIS2_LS4_2EESt9nothrow_t=so_stub_for_libtelux_qmi
-Wl,--defsym=_ZNSt12__shared_ptrIN5telux6common16ICommandCallbackELN9__gnu_cxx12_Lock_policyE2EEC2ERKSt10__weak_ptrIS2_LS4_2EESt9nothrow_t=so_stub_for_libtelux_qmi
-Wl,--defsym=_ZNSt13__future_base13_State_baseV210wait_untilINSt6chrono3_V212system_clockENS2_8durationIxSt5ratioILx1ELx1000000000EEEEEESt13future_statusRKNS2_10time_pointIT_T0_EE=so_stub_for_libtelux_qmi
-Wl,--defsym=_ZNSt13__future_base13_State_baseV213_M_set_resultESt8functionIFSt10unique_ptrINS_12_Result_baseENS3_8_DeleterEEvEEb=so_stub_for_libtelux_qmi
-Wl,--defsym=_ZNSt13__future_base13_State_baseV216_M_break_promiseESt10unique_ptrINS_12_Result_baseENS2_8_DeleterEE=so_stub_for_libtelux_qmi
-Wl,--defsym=_ZNSt13__future_base13_State_baseV217_M_complete_asyncEv=so_stub_for_libtelux_qmi
-Wl,--defsym=_ZNSt13__future_base13_State_baseV221_M_set_delayed_resultESt8functionIFSt10unique_ptrINS_12_Result_baseENS3_8_DeleterEEvEESt8weak_ptrIS0_E=so_stub_for_libtelux_qmi
-Wl,--defsym=_ZNSt13__future_base13_State_baseV29_M_do_setEPSt8functionIFSt10unique_ptrINS_12_Result_baseENS3_8_DeleterEEvEEPb=so_stub_for_libtelux_qmi
-Wl,--defsym=_ZNSt13__future_base13_State_baseV2D0Ev=so_stub_for_libtelux_qmi
-Wl,--defsym=_ZNSt13__future_base13_State_baseV2D1Ev=so_stub_for_libtelux_qmi
-Wl,--defsym=_ZNSt13__future_base13_State_baseV2D2Ev=so_stub_for_libtelux_qmi
-Wl,--defsym=_ZNSt13__future_base16_Task_state_baseIFvvEEC1ISaIiEEERKT_=so_stub_for_libtelux_qmi
-Wl,--defsym=_ZNSt13__future_base16_Task_state_baseIFvvEEC2ISaIiEEERKT_=so_stub_for_libtelux_qmi
-Wl,--defsym=_ZNSt13__future_base16_Task_state_baseIFvvEED0Ev=so_stub_for_libtelux_qmi
-Wl,--defsym=_ZNSt13__future_base16_Task_state_baseIFvvEED1Ev=so_stub_for_libtelux_qmi
-Wl,--defsym=_ZNSt13__future_base16_Task_state_baseIFvvEED2Ev=so_stub_for_libtelux_qmi
-Wl,--defsym=_ZNSt13__future_base21_Async_state_commonV217_M_complete_asyncEv=so_stub_for_libtelux_qmi
-Wl,--defsym=_ZNSt13__future_base21_Async_state_commonV2D0Ev=so_stub_for_libtelux_qmi
-Wl,--defsym=_ZNSt13__future_base21_Async_state_commonV2D1Ev=so_stub_for_libtelux_qmi
-Wl,--defsym=_ZNSt13__future_base21_Async_state_commonV2D2Ev=so_stub_for_libtelux_qmi
-Wl,--defsym=_ZNSt13__future_base7_ResultIbE10_M_destroyEv=so_stub_for_libtelux_qmi
-Wl,--defsym=_ZNSt13__future_base7_ResultIbED0Ev=so_stub_for_libtelux_qmi
-Wl,--defsym=_ZNSt13__future_base7_ResultIbED1Ev=so_stub_for_libtelux_qmi
-Wl,--defsym=_ZNSt13__future_base7_ResultIbED2Ev=so_stub_for_libtelux_qmi
-Wl,--defsym=_ZNSt13__future_base7_ResultIvE10_M_destroyEv=so_stub_for_libtelux_qmi
-Wl,--defsym=_ZNSt13__future_base7_ResultIvED0Ev=so_stub_for_libtelux_qmi
-Wl,--defsym=_ZNSt13__future_base7_ResultIvED1Ev=so_stub_for_libtelux_qmi
-Wl,--defsym=_ZNSt13__future_base7_ResultIvED2Ev=so_stub_for_libtelux_qmi
-Wl,--defsym=_ZNSt13packaged_taskIFvvEE10get_futureEv=so_stub_for_libtelux_qmi
-Wl,--defsym=_ZNSt13packaged_taskIFvvEED1Ev=so_stub_for_libtelux_qmi
-Wl,--defsym=_ZNSt13packaged_taskIFvvEED2Ev=so_stub_for_libtelux_qmi
-Wl,--defsym=_ZNSt14__basic_futureIbEC1ERKSt10shared_ptrINSt13__future_base13_State_baseV2EE=so_stub_for_libtelux_qmi
-Wl,--defsym=_ZNSt14__basic_futureIbEC2ERKSt10shared_ptrINSt13__future_base13_State_baseV2EE=so_stub_for_libtelux_qmi
-Wl,--defsym=_ZNSt14__basic_futureIvEC1ERKSt10shared_ptrINSt13__future_base13_State_baseV2EE=so_stub_for_libtelux_qmi
-Wl,--defsym=_ZNSt14__basic_futureIvEC2ERKSt10shared_ptrINSt13__future_base13_State_baseV2EE=so_stub_for_libtelux_qmi
-Wl,--defsym=_ZNSt14__shared_countILN9__gnu_cxx12_Lock_policyE2EEC1IN5telux3qmi12TmdQmiClientESaIS6_EJEEESt19_Sp_make_shared_tagPT_RKT0_DpOT1_=so_stub_for_libtelux_qmi
-Wl,--defsym=_ZNSt14__shared_countILN9__gnu_cxx12_Lock_policyE2EEC1IN5telux3qmi12UimQmiClientESaIS6_EJEEESt19_Sp_make_shared_tagPT_RKT0_DpOT1_=so_stub_for_libtelux_qmi
-Wl,--defsym=_ZNSt14__shared_countILN9__gnu_cxx12_Lock_policyE2EEC1IN5telux3qmi12WdsQmiClientESaIS6_EJEEESt19_Sp_make_shared_tagPT_RKT0_DpOT1_=so_stub_for_libtelux_qmi
-Wl,--defsym=_ZNSt14__shared_countILN9__gnu_cxx12_Lock_policyE2EEC1IN5telux3qmi14AudioQmiClientESaIS6_EJEEESt19_Sp_make_shared_tagPT_RKT0_DpOT1_=so_stub_for_libtelux_qmi
-Wl,--defsym=_ZNSt14__shared_countILN9__gnu_cxx12_Lock_policyE2EEC1IN5telux3qmi14PowerQmiClientESaIS6_EJEEESt19_Sp_make_shared_tagPT_RKT0_DpOT1_=so_stub_for_libtelux_qmi
-Wl,--defsym=_ZNSt14__shared_countILN9__gnu_cxx12_Lock_policyE2EEC1IN5telux3qmi14TsensQmiClientESaIS6_EJEEESt19_Sp_make_shared_tagPT_RKT0_DpOT1_=so_stub_for_libtelux_qmi
-Wl,--defsym=_ZNSt14__shared_countILN9__gnu_cxx12_Lock_policyE2EEC1IN5telux3qmi18UimRemoteQmiClientESaIS6_EJEEESt19_Sp_make_shared_tagPT_RKT0_DpOT1_=so_stub_for_libtelux_qmi
-Wl,--defsym=_ZNSt14__shared_countILN9__gnu_cxx12_Lock_policyE2EEC1IN5telux3qmi20ModemConfigQmiClientESaIS6_EJEEESt19_Sp_make_shared_tagPT_RKT0_DpOT1_=so_stub_for_libtelux_qmi
-Wl,--defsym=_ZNSt14__shared_countILN9__gnu_cxx12_Lock_policyE2EEC1IN5telux6common18FunctionalCallbackIJiiEEESaIS7_EJRSt8functionIFviiEEEEESt19_Sp_make_shared_tagPT_RKT0_DpOT1_=so_stub_for_libtelux_qmi
-Wl,--defsym=_ZNSt14__shared_countILN9__gnu_cxx12_Lock_policyE2EEC1IN5telux6common18FunctionalCallbackIJiPviEEESaIS8_EJRSt8functionIFviS7_iEEEEESt19_Sp_make_shared_tagPT_RKT0_DpOT1_=so_stub_for_libtelux_qmi
-Wl,--defsym=_ZNSt14__shared_countILN9__gnu_cxx12_Lock_policyE2EEC1IN5telux6common18FunctionalCallbackIJP24uim_get_eid_resp_msg_v01PviEEESaISA_EJRSt8functionIFvS8_S9_iEEEEESt19_Sp_make_shared_tagPT_RKT0_DpOT1_=so_stub_for_libtelux_qmi
-Wl,--defsym=_ZNSt14__shared_countILN9__gnu_cxx12_Lock_policyE2EEC1IN5telux6common18FunctionalCallbackIJP28uim_add_profile_resp_msg_v01PviEEESaISA_EJRSt8functionIFvS8_S9_iEEEEESt19_Sp_make_shared_tagPT_RKT0_DpOT1_=so_stub_for_libtelux_qmi
-Wl,--defsym=_ZNSt14__shared_countILN9__gnu_cxx12_Lock_policyE2EEC1IN5telux6common18FunctionalCallbackIJP28uim_remote_apdu_resp_msg_v01iPvEEESaISA_EJRSt8functionIFvS8_iS9_EEEEESt19_Sp_make_shared_tagPT_RKT0_DpOT1_=so_stub_for_libtelux_qmi
-Wl,--defsym=_ZNSt14__shared_countILN9__gnu_cxx12_Lock_policyE2EEC1IN5telux6common18FunctionalCallbackIJP29nas_get_sys_info_resp_msg_v01PviEEESaISA_EJRSt8functionIFvS8_S9_iEEEEESt19_Sp_make_shared_tagPT_RKT0_DpOT1_=so_stub_for_libtelux_qmi
-Wl,--defsym=_ZNSt14__shared_countILN9__gnu_cxx12_Lock_policyE2EEC1IN5telux6common18FunctionalCallbackIJP29uim_remote_event_resp_msg_v01iPvEEESaISA_EJRSt8functionIFvS8_iS9_EEEEESt19_Sp_make_shared_tagPT_RKT0_DpOT1_=so_stub_for_libtelux_qmi
-Wl,--defsym=_ZNSt14__shared_countILN9__gnu_cxx12_Lock_policyE2EEC1IN5telux6common18FunctionalCallbackIJP29uim_remote_reset_resp_msg_v01iPvEEESaISA_EJRSt8functionIFvS8_iS9_EEEEESt19_Sp_make_shared_tagPT_RKT0_DpOT1_=so_stub_for_libtelux_qmi
-Wl,--defsym=_ZNSt14__shared_countILN9__gnu_cxx12_Lock_policyE2EEC1IN5telux6common18FunctionalCallbackIJP31uim_delete_profile_resp_msg_v01PviEEESaISA_EJRSt8functionIFvS8_S9_iEEEEESt19_Sp_make_shared_tagPT_RKT0_DpOT1_=so_stub_for_libtelux_qmi
-Wl,--defsym=_ZNSt14__shared_countILN9__gnu_cxx12_Lock_policyE2EEC1IN5telux6common18FunctionalCallbackIJP32uim_get_sim_profile_resp_msg_v01PviEEESaISA_EJRSt8functionIFvS8_S9_iEEEEESt19_Sp_make_shared_tagPT_RKT0_DpOT1_=so_stub_for_libtelux_qmi
-Wl,--defsym=_ZNSt14__shared_countILN9__gnu_cxx12_Lock_policyE2EEC1IN5telux6common18FunctionalCallbackIJP32uim_set_sim_profile_resp_msg_v01PviEEESaISA_EJRSt8functionIFvS8_S9_iEEEEESt19_Sp_make_shared_tagPT_RKT0_DpOT1_=so_stub_for_libtelux_qmi
-Wl,--defsym=_ZNSt14__shared_countILN9__gnu_cxx12_Lock_policyE2EEC1IN5telux6common18FunctionalCallbackIJP33uim_get_profile_info_resp_msg_v01PviEEESaISA_EJRSt8functionIFvS8_S9_iEEEEESt19_Sp_make_shared_tagPT_RKT0_DpOT1_=so_stub_for_libtelux_qmi
-Wl,--defsym=_ZNSt14__shared_countILN9__gnu_cxx12_Lock_policyE2EEC1IN5telux6common18FunctionalCallbackIJP33uim_get_slots_status_resp_msg_v01PviEEESaISA_EJRSt8functionIFvS8_S9_iEEEEESt19_Sp_make_shared_tagPT_RKT0_DpOT1_=so_stub_for_libtelux_qmi
-Wl,--defsym=_ZNSt14__shared_countILN9__gnu_cxx12_Lock_policyE2EEC1IN5telux6common18FunctionalCallbackIJP33wms_set_event_report_resp_msg_v01PviEEESaISA_EJRSt8functionIFvS8_S9_iEEEEESt19_Sp_make_shared_tagPT_RKT0_DpOT1_=so_stub_for_libtelux_qmi
-Wl,--defsym=_ZNSt14__shared_countILN9__gnu_cxx12_Lock_policyE2EEC1IN5telux6common18FunctionalCallbackIJP36wms_indication_register_resp_msg_v01PviEEESaISA_EJRSt8functionIFvS8_S9_iEEEEESt19_Sp_make_shared_tagPT_RKT0_DpOT1_=so_stub_for_libtelux_qmi
-Wl,--defsym=_ZNSt14__shared_countILN9__gnu_cxx12_Lock_policyE2EEC1IN5telux6common18FunctionalCallbackIJP37uim_profile_user_consent_resp_msg_v01PviEEESaISA_EJRSt8functionIFvS8_S9_iEEEEESt19_Sp_make_shared_tagPT_RKT0_DpOT1_=so_stub_for_libtelux_qmi
-Wl,--defsym=_ZNSt14__shared_countILN9__gnu_cxx12_Lock_policyE2EEC1IN5telux6common18FunctionalCallbackIJP37wms_get_broadcast_config_resp_msg_v01PviEEESaISA_EJRSt8functionIFvS8_S9_iEEEEESt19_Sp_make_shared_tagPT_RKT0_DpOT1_=so_stub_for_libtelux_qmi
-Wl,--defsym=_ZNSt14__shared_countILN9__gnu_cxx12_Lock_policyE2EEC1IN5telux6common18FunctionalCallbackIJP37wms_set_broadcast_config_resp_msg_v01PviEEESaISA_EJRSt8functionIFvS8_S9_iEEEEESt19_Sp_make_shared_tagPT_RKT0_DpOT1_=so_stub_for_libtelux_qmi
-Wl,--defsym=_ZNSt14__shared_countILN9__gnu_cxx12_Lock_policyE2EEC1IN5telux6common18FunctionalCallbackIJP40nas_get_high_capability_sub_resp_msg_v01PviEEESaISA_EJRSt8functionIFvS8_S9_iEEEEESt19_Sp_make_shared_tagPT_RKT0_DpOT1_=so_stub_for_libtelux_qmi
-Wl,--defsym=_ZNSt14__shared_countILN9__gnu_cxx12_Lock_policyE2EEC1IN5telux6common18FunctionalCallbackIJP40uim_update_profile_nickname_resp_msg_v01PviEEESaISA_EJRSt8functionIFvS8_S9_iEEEEESt19_Sp_make_shared_tagPT_RKT0_DpOT1_=so_stub_for_libtelux_qmi
-Wl,--defsym=_ZNSt14__shared_countILN9__gnu_cxx12_Lock_policyE2EEC1IN5telux6common18FunctionalCallbackIJP41wms_set_broadcast_activation_resp_msg_v01PviEEESaISA_EJRSt8functionIFvS8_S9_iEEEEESt19_Sp_make_shared_tagPT_RKT0_DpOT1_=so_stub_for_libtelux_qmi
-Wl,--defsym=_ZNSt14__shared_countILN9__gnu_cxx12_Lock_policyE2EEC1IN5telux6common18FunctionalCallbackIJP48nas_get_system_selection_preference_resp_msg_v01PviEEESaISA_EJRSt8functionIFvS8_S9_iEEEEESt19_Sp_make_shared_tagPT_RKT0_DpOT1_=so_stub_for_libtelux_qmi
-Wl,--defsym=_ZNSt14__shared_countILN9__gnu_cxx12_Lock_policyE2EEC2IN5telux3qmi12TmdQmiClientESaIS6_EJEEESt19_Sp_make_shared_tagPT_RKT0_DpOT1_=so_stub_for_libtelux_qmi
-Wl,--defsym=_ZNSt14__shared_countILN9__gnu_cxx12_Lock_policyE2EEC2IN5telux3qmi12UimQmiClientESaIS6_EJEEESt19_Sp_make_shared_tagPT_RKT0_DpOT1_=so_stub_for_libtelux_qmi
-Wl,--defsym=_ZNSt14__shared_countILN9__gnu_cxx12_Lock_policyE2EEC2IN5telux3qmi12WdsQmiClientESaIS6_EJEEESt19_Sp_make_shared_tagPT_RKT0_DpOT1_=so_stub_for_libtelux_qmi
-Wl,--defsym=_ZNSt14__shared_countILN9__gnu_cxx12_Lock_policyE2EEC2IN5telux3qmi14AudioQmiClientESaIS6_EJEEESt19_Sp_make_shared_tagPT_RKT0_DpOT1_=so_stub_for_libtelux_qmi
-Wl,--defsym=_ZNSt14__shared_countILN9__gnu_cxx12_Lock_policyE2EEC2IN5telux3qmi14PowerQmiClientESaIS6_EJEEESt19_Sp_make_shared_tagPT_RKT0_DpOT1_=so_stub_for_libtelux_qmi
-Wl,--defsym=_ZNSt14__shared_countILN9__gnu_cxx12_Lock_policyE2EEC2IN5telux3qmi14TsensQmiClientESaIS6_EJEEESt19_Sp_make_shared_tagPT_RKT0_DpOT1_=so_stub_for_libtelux_qmi
-Wl,--defsym=_ZNSt14__shared_countILN9__gnu_cxx12_Lock_policyE2EEC2IN5telux3qmi18UimRemoteQmiClientESaIS6_EJEEESt19_Sp_make_shared_tagPT_RKT0_DpOT1_=so_stub_for_libtelux_qmi
-Wl,--defsym=_ZNSt14__shared_countILN9__gnu_cxx12_Lock_policyE2EEC2IN5telux3qmi20ModemConfigQmiClientESaIS6_EJEEESt19_Sp_make_shared_tagPT_RKT0_DpOT1_=so_stub_for_libtelux_qmi
-Wl,--defsym=_ZNSt14__shared_countILN9__gnu_cxx12_Lock_policyE2EEC2IN5telux6common18FunctionalCallbackIJiiEEESaIS7_EJRSt8functionIFviiEEEEESt19_Sp_make_shared_tagPT_RKT0_DpOT1_=so_stub_for_libtelux_qmi
-Wl,--defsym=_ZNSt14__shared_countILN9__gnu_cxx12_Lock_policyE2EEC2IN5telux6common18FunctionalCallbackIJiPviEEESaIS8_EJRSt8functionIFviS7_iEEEEESt19_Sp_make_shared_tagPT_RKT0_DpOT1_=so_stub_for_libtelux_qmi
-Wl,--defsym=_ZNSt14__shared_countILN9__gnu_cxx12_Lock_policyE2EEC2IN5telux6common18FunctionalCallbackIJP24uim_get_eid_resp_msg_v01PviEEESaISA_EJRSt8functionIFvS8_S9_iEEEEESt19_Sp_make_shared_tagPT_RKT0_DpOT1_=so_stub_for_libtelux_qmi
-Wl,--defsym=_ZNSt14__shared_countILN9__gnu_cxx12_Lock_policyE2EEC2IN5telux6common18FunctionalCallbackIJP28uim_add_profile_resp_msg_v01PviEEESaISA_EJRSt8functionIFvS8_S9_iEEEEESt19_Sp_make_shared_tagPT_RKT0_DpOT1_=so_stub_for_libtelux_qmi
-Wl,--defsym=_ZNSt14__shared_countILN9__gnu_cxx12_Lock_policyE2EEC2IN5telux6common18FunctionalCallbackIJP28uim_remote_apdu_resp_msg_v01iPvEEESaISA_EJRSt8functionIFvS8_iS9_EEEEESt19_Sp_make_shared_tagPT_RKT0_DpOT1_=so_stub_for_libtelux_qmi
-Wl,--defsym=_ZNSt14__shared_countILN9__gnu_cxx12_Lock_policyE2EEC2IN5telux6common18FunctionalCallbackIJP29nas_get_sys_info_resp_msg_v01PviEEESaISA_EJRSt8functionIFvS8_S9_iEEEEESt19_Sp_make_shared_tagPT_RKT0_DpOT1_=so_stub_for_libtelux_qmi
-Wl,--defsym=_ZNSt14__shared_countILN9__gnu_cxx12_Lock_policyE2EEC2IN5telux6common18FunctionalCallbackIJP29uim_remote_event_resp_msg_v01iPvEEESaISA_EJRSt8functionIFvS8_iS9_EEEEESt19_Sp_make_shared_tagPT_RKT0_DpOT1_=so_stub_for_libtelux_qmi
-Wl,--defsym=_ZNSt14__shared_countILN9__gnu_cxx12_Lock_policyE2EEC2IN5telux6common18FunctionalCallbackIJP29uim_remote_reset_resp_msg_v01iPvEEESaISA_EJRSt8functionIFvS8_iS9_EEEEESt19_Sp_make_shared_tagPT_RKT0_DpOT1_=so_stub_for_libtelux_qmi
-Wl,--defsym=_ZNSt14__shared_countILN9__gnu_cxx12_Lock_policyE2EEC2IN5telux6common18FunctionalCallbackIJP31uim_delete_profile_resp_msg_v01PviEEESaISA_EJRSt8functionIFvS8_S9_iEEEEESt19_Sp_make_shared_tagPT_RKT0_DpOT1_=so_stub_for_libtelux_qmi
-Wl,--defsym=_ZNSt14__shared_countILN9__gnu_cxx12_Lock_policyE2EEC2IN5telux6common18FunctionalCallbackIJP32uim_get_sim_profile_resp_msg_v01PviEEESaISA_EJRSt8functionIFvS8_S9_iEEEEESt19_Sp_make_shared_tagPT_RKT0_DpOT1_=so_stub_for_libtelux_qmi
-Wl,--defsym=_ZNSt14__shared_countILN9__gnu_cxx12_Lock_policyE2EEC2IN5telux6common18FunctionalCallbackIJP32uim_set_sim_profile_resp_msg_v01PviEEESaISA_EJRSt8functionIFvS8_S9_iEEEEESt19_Sp_make_shared_tagPT_RKT0_DpOT1_=so_stub_for_libtelux_qmi
-Wl,--defsym=_ZNSt14__shared_countILN9__gnu_cxx12_Lock_policyE2EEC2IN5telux6common18FunctionalCallbackIJP33uim_get_profile_info_resp_msg_v01PviEEESaISA_EJRSt8functionIFvS8_S9_iEEEEESt19_Sp_make_shared_tagPT_RKT0_DpOT1_=so_stub_for_libtelux_qmi
-Wl,--defsym=_ZNSt14__shared_countILN9__gnu_cxx12_Lock_policyE2EEC2IN5telux6common18FunctionalCallbackIJP33uim_get_slots_status_resp_msg_v01PviEEESaISA_EJRSt8functionIFvS8_S9_iEEEEESt19_Sp_make_shared_tagPT_RKT0_DpOT1_=so_stub_for_libtelux_qmi
-Wl,--defsym=_ZNSt14__shared_countILN9__gnu_cxx12_Lock_policyE2EEC2IN5telux6common18FunctionalCallbackIJP33wms_set_event_report_resp_msg_v01PviEEESaISA_EJRSt8functionIFvS8_S9_iEEEEESt19_Sp_make_shared_tagPT_RKT0_DpOT1_=so_stub_for_libtelux_qmi
-Wl,--defsym=_ZNSt14__shared_countILN9__gnu_cxx12_Lock_policyE2EEC2IN5telux6common18FunctionalCallbackIJP36wms_indication_register_resp_msg_v01PviEEESaISA_EJRSt8functionIFvS8_S9_iEEEEESt19_Sp_make_shared_tagPT_RKT0_DpOT1_=so_stub_for_libtelux_qmi
-Wl,--defsym=_ZNSt14__shared_countILN9__gnu_cxx12_Lock_policyE2EEC2IN5telux6common18FunctionalCallbackIJP37uim_profile_user_consent_resp_msg_v01PviEEESaISA_EJRSt8functionIFvS8_S9_iEEEEESt19_Sp_make_shared_tagPT_RKT0_DpOT1_=so_stub_for_libtelux_qmi
-Wl,--defsym=_ZNSt14__shared_countILN9__gnu_cxx12_Lock_policyE2EEC2IN5telux6common18FunctionalCallbackIJP37wms_get_broadcast_config_resp_msg_v01PviEEESaISA_EJRSt8functionIFvS8_S9_iEEEEESt19_Sp_make_shared_tagPT_RKT0_DpOT1_=so_stub_for_libtelux_qmi
-Wl,--defsym=_ZNSt14__shared_countILN9__gnu_cxx12_Lock_policyE2EEC2IN5telux6common18FunctionalCallbackIJP37wms_set_broadcast_config_resp_msg_v01PviEEESaISA_EJRSt8functionIFvS8_S9_iEEEEESt19_Sp_make_shared_tagPT_RKT0_DpOT1_=so_stub_for_libtelux_qmi
-Wl,--defsym=_ZNSt14__shared_countILN9__gnu_cxx12_Lock_policyE2EEC2IN5telux6common18FunctionalCallbackIJP40nas_get_high_capability_sub_resp_msg_v01PviEEESaISA_EJRSt8functionIFvS8_S9_iEEEEESt19_Sp_make_shared_tagPT_RKT0_DpOT1_=so_stub_for_libtelux_qmi
-Wl,--defsym=_ZNSt14__shared_countILN9__gnu_cxx12_Lock_policyE2EEC2IN5telux6common18FunctionalCallbackIJP40uim_update_profile_nickname_resp_msg_v01PviEEESaISA_EJRSt8functionIFvS8_S9_iEEEEESt19_Sp_make_shared_tagPT_RKT0_DpOT1_=so_stub_for_libtelux_qmi
-Wl,--defsym=_ZNSt14__shared_countILN9__gnu_cxx12_Lock_policyE2EEC2IN5telux6common18FunctionalCallbackIJP41wms_set_broadcast_activation_resp_msg_v01PviEEESaISA_EJRSt8functionIFvS8_S9_iEEEEESt19_Sp_make_shared_tagPT_RKT0_DpOT1_=so_stub_for_libtelux_qmi
-Wl,--defsym=_ZNSt14__shared_countILN9__gnu_cxx12_Lock_policyE2EEC2IN5telux6common18FunctionalCallbackIJP48nas_get_system_selection_preference_resp_msg_v01PviEEESaISA_EJRSt8functionIFvS8_S9_iEEEEESt19_Sp_make_shared_tagPT_RKT0_DpOT1_=so_stub_for_libtelux_qmi
-Wl,--defsym=_ZNSt15_Deque_iteratorISt13shared_futureIvERS1_PS1_EpLEi=so_stub_for_libtelux_qmi
-Wl,--defsym=_ZNSt15__exception_ptr12__dest_thunkISt12future_errorEEvPv=so_stub_for_libtelux_qmi
-Wl,--defsym=_ZNSt16_Sp_counted_baseILN9__gnu_cxx12_Lock_policyE2EE10_M_releaseEv=so_stub_for_libtelux_qmi
-Wl,--defsym=_ZNSt16_Sp_counted_baseILN9__gnu_cxx12_Lock_policyE2EE15_M_weak_releaseEv=so_stub_for_libtelux_qmi
-Wl,--defsym=_ZNSt20__copy_move_backwardILb1ELb0ESt26random_access_iterator_tagE13__copy_move_bIPSt13shared_futureIvES5_EET0_T_S7_S6_=so_stub_for_libtelux_qmi
-Wl,--defsym=_ZNSt23_Sp_counted_ptr_inplaceIN5telux3qmi12DmsQmiClientESaIS2_ELN9__gnu_cxx12_Lock_policyE2EE10_M_destroyEv=so_stub_for_libtelux_qmi
-Wl,--defsym=_ZNSt23_Sp_counted_ptr_inplaceIN5telux3qmi12DmsQmiClientESaIS2_ELN9__gnu_cxx12_Lock_policyE2EE10_M_disposeEv=so_stub_for_libtelux_qmi
-Wl,--defsym=_ZNSt23_Sp_counted_ptr_inplaceIN5telux3qmi12DmsQmiClientESaIS2_ELN9__gnu_cxx12_Lock_policyE2EE14_M_get_deleterERKSt9type_info=so_stub_for_libtelux_qmi
-Wl,--defsym=_ZNSt23_Sp_counted_ptr_inplaceIN5telux3qmi12DmsQmiClientESaIS2_ELN9__gnu_cxx12_Lock_policyE2EED0Ev=so_stub_for_libtelux_qmi
-Wl,--defsym=_ZNSt23_Sp_counted_ptr_inplaceIN5telux3qmi12DmsQmiClientESaIS2_ELN9__gnu_cxx12_Lock_policyE2EED1Ev=so_stub_for_libtelux_qmi
-Wl,--defsym=_ZNSt23_Sp_counted_ptr_inplaceIN5telux3qmi12DmsQmiClientESaIS2_ELN9__gnu_cxx12_Lock_policyE2EED2Ev=so_stub_for_libtelux_qmi
-Wl,--defsym=_ZNSt23_Sp_counted_ptr_inplaceIN5telux3qmi12NasQmiClientESaIS2_ELN9__gnu_cxx12_Lock_policyE2EE10_M_destroyEv=so_stub_for_libtelux_qmi
-Wl,--defsym=_ZNSt23_Sp_counted_ptr_inplaceIN5telux3qmi12NasQmiClientESaIS2_ELN9__gnu_cxx12_Lock_policyE2EE10_M_disposeEv=so_stub_for_libtelux_qmi
-Wl,--defsym=_ZNSt23_Sp_counted_ptr_inplaceIN5telux3qmi12NasQmiClientESaIS2_ELN9__gnu_cxx12_Lock_policyE2EE14_M_get_deleterERKSt9type_info=so_stub_for_libtelux_qmi
-Wl,--defsym=_ZNSt23_Sp_counted_ptr_inplaceIN5telux3qmi12NasQmiClientESaIS2_ELN9__gnu_cxx12_Lock_policyE2EED0Ev=so_stub_for_libtelux_qmi
-Wl,--defsym=_ZNSt23_Sp_counted_ptr_inplaceIN5telux3qmi12NasQmiClientESaIS2_ELN9__gnu_cxx12_Lock_policyE2EED1Ev=so_stub_for_libtelux_qmi
-Wl,--defsym=_ZNSt23_Sp_counted_ptr_inplaceIN5telux3qmi12NasQmiClientESaIS2_ELN9__gnu_cxx12_Lock_policyE2EED2Ev=so_stub_for_libtelux_qmi
-Wl,--defsym=_ZNSt23_Sp_counted_ptr_inplaceIN5telux3qmi12TmdQmiClientESaIS2_ELN9__gnu_cxx12_Lock_policyE2EE10_M_destroyEv=so_stub_for_libtelux_qmi
-Wl,--defsym=_ZNSt23_Sp_counted_ptr_inplaceIN5telux3qmi12TmdQmiClientESaIS2_ELN9__gnu_cxx12_Lock_policyE2EE10_M_disposeEv=so_stub_for_libtelux_qmi
-Wl,--defsym=_ZNSt23_Sp_counted_ptr_inplaceIN5telux3qmi12TmdQmiClientESaIS2_ELN9__gnu_cxx12_Lock_policyE2EE14_M_get_deleterERKSt9type_info=so_stub_for_libtelux_qmi
-Wl,--defsym=_ZNSt23_Sp_counted_ptr_inplaceIN5telux3qmi12TmdQmiClientESaIS2_ELN9__gnu_cxx12_Lock_policyE2EED0Ev=so_stub_for_libtelux_qmi
-Wl,--defsym=_ZNSt23_Sp_counted_ptr_inplaceIN5telux3qmi12TmdQmiClientESaIS2_ELN9__gnu_cxx12_Lock_policyE2EED1Ev=so_stub_for_libtelux_qmi
-Wl,--defsym=_ZNSt23_Sp_counted_ptr_inplaceIN5telux3qmi12TmdQmiClientESaIS2_ELN9__gnu_cxx12_Lock_policyE2EED2Ev=so_stub_for_libtelux_qmi
-Wl,--defsym=_ZNSt23_Sp_counted_ptr_inplaceIN5telux3qmi12UimQmiClientESaIS2_ELN9__gnu_cxx12_Lock_policyE2EE10_M_destroyEv=so_stub_for_libtelux_qmi
-Wl,--defsym=_ZNSt23_Sp_counted_ptr_inplaceIN5telux3qmi12UimQmiClientESaIS2_ELN9__gnu_cxx12_Lock_policyE2EE10_M_disposeEv=so_stub_for_libtelux_qmi
-Wl,--defsym=_ZNSt23_Sp_counted_ptr_inplaceIN5telux3qmi12UimQmiClientESaIS2_ELN9__gnu_cxx12_Lock_policyE2EE14_M_get_deleterERKSt9type_info=so_stub_for_libtelux_qmi
-Wl,--defsym=_ZNSt23_Sp_counted_ptr_inplaceIN5telux3qmi12UimQmiClientESaIS2_ELN9__gnu_cxx12_Lock_policyE2EED0Ev=so_stub_for_libtelux_qmi
-Wl,--defsym=_ZNSt23_Sp_counted_ptr_inplaceIN5telux3qmi12UimQmiClientESaIS2_ELN9__gnu_cxx12_Lock_policyE2EED1Ev=so_stub_for_libtelux_qmi
-Wl,--defsym=_ZNSt23_Sp_counted_ptr_inplaceIN5telux3qmi12UimQmiClientESaIS2_ELN9__gnu_cxx12_Lock_policyE2EED2Ev=so_stub_for_libtelux_qmi
-Wl,--defsym=_ZNSt23_Sp_counted_ptr_inplaceIN5telux3qmi12WdsQmiClientESaIS2_ELN9__gnu_cxx12_Lock_policyE2EE10_M_destroyEv=so_stub_for_libtelux_qmi
-Wl,--defsym=_ZNSt23_Sp_counted_ptr_inplaceIN5telux3qmi12WdsQmiClientESaIS2_ELN9__gnu_cxx12_Lock_policyE2EE10_M_disposeEv=so_stub_for_libtelux_qmi
-Wl,--defsym=_ZNSt23_Sp_counted_ptr_inplaceIN5telux3qmi12WdsQmiClientESaIS2_ELN9__gnu_cxx12_Lock_policyE2EE14_M_get_deleterERKSt9type_info=so_stub_for_libtelux_qmi
-Wl,--defsym=_ZNSt23_Sp_counted_ptr_inplaceIN5telux3qmi12WdsQmiClientESaIS2_ELN9__gnu_cxx12_Lock_policyE2EED0Ev=so_stub_for_libtelux_qmi
-Wl,--defsym=_ZNSt23_Sp_counted_ptr_inplaceIN5telux3qmi12WdsQmiClientESaIS2_ELN9__gnu_cxx12_Lock_policyE2EED1Ev=so_stub_for_libtelux_qmi
-Wl,--defsym=_ZNSt23_Sp_counted_ptr_inplaceIN5telux3qmi12WdsQmiClientESaIS2_ELN9__gnu_cxx12_Lock_policyE2EED2Ev=so_stub_for_libtelux_qmi
-Wl,--defsym=_ZNSt23_Sp_counted_ptr_inplaceIN5telux3qmi12WmsQmiClientESaIS2_ELN9__gnu_cxx12_Lock_policyE2EE10_M_destroyEv=so_stub_for_libtelux_qmi
-Wl,--defsym=_ZNSt23_Sp_counted_ptr_inplaceIN5telux3qmi12WmsQmiClientESaIS2_ELN9__gnu_cxx12_Lock_policyE2EE10_M_disposeEv=so_stub_for_libtelux_qmi
-Wl,--defsym=_ZNSt23_Sp_counted_ptr_inplaceIN5telux3qmi12WmsQmiClientESaIS2_ELN9__gnu_cxx12_Lock_policyE2EE14_M_get_deleterERKSt9type_info=so_stub_for_libtelux_qmi
-Wl,--defsym=_ZNSt23_Sp_counted_ptr_inplaceIN5telux3qmi12WmsQmiClientESaIS2_ELN9__gnu_cxx12_Lock_policyE2EED0Ev=so_stub_for_libtelux_qmi
-Wl,--defsym=_ZNSt23_Sp_counted_ptr_inplaceIN5telux3qmi12WmsQmiClientESaIS2_ELN9__gnu_cxx12_Lock_policyE2EED1Ev=so_stub_for_libtelux_qmi
-Wl,--defsym=_ZNSt23_Sp_counted_ptr_inplaceIN5telux3qmi12WmsQmiClientESaIS2_ELN9__gnu_cxx12_Lock_policyE2EED2Ev=so_stub_for_libtelux_qmi
-Wl,--defsym=_ZNSt23_Sp_counted_ptr_inplaceIN5telux3qmi14AudioQmiClientESaIS2_ELN9__gnu_cxx12_Lock_policyE2EE10_M_destroyEv=so_stub_for_libtelux_qmi
-Wl,--defsym=_ZNSt23_Sp_counted_ptr_inplaceIN5telux3qmi14AudioQmiClientESaIS2_ELN9__gnu_cxx12_Lock_policyE2EE10_M_disposeEv=so_stub_for_libtelux_qmi
-Wl,--defsym=_ZNSt23_Sp_counted_ptr_inplaceIN5telux3qmi14AudioQmiClientESaIS2_ELN9__gnu_cxx12_Lock_policyE2EE14_M_get_deleterERKSt9type_info=so_stub_for_libtelux_qmi
-Wl,--defsym=_ZNSt23_Sp_counted_ptr_inplaceIN5telux3qmi14AudioQmiClientESaIS2_ELN9__gnu_cxx12_Lock_policyE2EED0Ev=so_stub_for_libtelux_qmi
-Wl,--defsym=_ZNSt23_Sp_counted_ptr_inplaceIN5telux3qmi14AudioQmiClientESaIS2_ELN9__gnu_cxx12_Lock_policyE2EED1Ev=so_stub_for_libtelux_qmi
-Wl,--defsym=_ZNSt23_Sp_counted_ptr_inplaceIN5telux3qmi14AudioQmiClientESaIS2_ELN9__gnu_cxx12_Lock_policyE2EED2Ev=so_stub_for_libtelux_qmi
-Wl,--defsym=_ZNSt23_Sp_counted_ptr_inplaceIN5telux3qmi14PowerQmiClientESaIS2_ELN9__gnu_cxx12_Lock_policyE2EE10_M_destroyEv=so_stub_for_libtelux_qmi
-Wl,--defsym=_ZNSt23_Sp_counted_ptr_inplaceIN5telux3qmi14PowerQmiClientESaIS2_ELN9__gnu_cxx12_Lock_policyE2EE10_M_disposeEv=so_stub_for_libtelux_qmi
-Wl,--defsym=_ZNSt23_Sp_counted_ptr_inplaceIN5telux3qmi14PowerQmiClientESaIS2_ELN9__gnu_cxx12_Lock_policyE2EE14_M_get_deleterERKSt9type_info=so_stub_for_libtelux_qmi
-Wl,--defsym=_ZNSt23_Sp_counted_ptr_inplaceIN5telux3qmi14PowerQmiClientESaIS2_ELN9__gnu_cxx12_Lock_policyE2EED0Ev=so_stub_for_libtelux_qmi
-Wl,--defsym=_ZNSt23_Sp_counted_ptr_inplaceIN5telux3qmi14PowerQmiClientESaIS2_ELN9__gnu_cxx12_Lock_policyE2EED1Ev=so_stub_for_libtelux_qmi
-Wl,--defsym=_ZNSt23_Sp_counted_ptr_inplaceIN5telux3qmi14PowerQmiClientESaIS2_ELN9__gnu_cxx12_Lock_policyE2EED2Ev=so_stub_for_libtelux_qmi
-Wl,--defsym=_ZNSt23_Sp_counted_ptr_inplaceIN5telux3qmi14TsensQmiClientESaIS2_ELN9__gnu_cxx12_Lock_policyE2EE10_M_destroyEv=so_stub_for_libtelux_qmi
-Wl,--defsym=_ZNSt23_Sp_counted_ptr_inplaceIN5telux3qmi14TsensQmiClientESaIS2_ELN9__gnu_cxx12_Lock_policyE2EE10_M_disposeEv=so_stub_for_libtelux_qmi
-Wl,--defsym=_ZNSt23_Sp_counted_ptr_inplaceIN5telux3qmi14TsensQmiClientESaIS2_ELN9__gnu_cxx12_Lock_policyE2EE14_M_get_deleterERKSt9type_info=so_stub_for_libtelux_qmi
-Wl,--defsym=_ZNSt23_Sp_counted_ptr_inplaceIN5telux3qmi14TsensQmiClientESaIS2_ELN9__gnu_cxx12_Lock_policyE2EED0Ev=so_stub_for_libtelux_qmi
-Wl,--defsym=_ZNSt23_Sp_counted_ptr_inplaceIN5telux3qmi14TsensQmiClientESaIS2_ELN9__gnu_cxx12_Lock_policyE2EED1Ev=so_stub_for_libtelux_qmi
-Wl,--defsym=_ZNSt23_Sp_counted_ptr_inplaceIN5telux3qmi14TsensQmiClientESaIS2_ELN9__gnu_cxx12_Lock_policyE2EED2Ev=so_stub_for_libtelux_qmi
-Wl,--defsym=_ZNSt23_Sp_counted_ptr_inplaceIN5telux3qmi14VoiceQmiClientESaIS2_ELN9__gnu_cxx12_Lock_policyE2EE10_M_destroyEv=so_stub_for_libtelux_qmi
-Wl,--defsym=_ZNSt23_Sp_counted_ptr_inplaceIN5telux3qmi14VoiceQmiClientESaIS2_ELN9__gnu_cxx12_Lock_policyE2EE10_M_disposeEv=so_stub_for_libtelux_qmi
-Wl,--defsym=_ZNSt23_Sp_counted_ptr_inplaceIN5telux3qmi14VoiceQmiClientESaIS2_ELN9__gnu_cxx12_Lock_policyE2EE14_M_get_deleterERKSt9type_info=so_stub_for_libtelux_qmi
-Wl,--defsym=_ZNSt23_Sp_counted_ptr_inplaceIN5telux3qmi14VoiceQmiClientESaIS2_ELN9__gnu_cxx12_Lock_policyE2EED0Ev=so_stub_for_libtelux_qmi
-Wl,--defsym=_ZNSt23_Sp_counted_ptr_inplaceIN5telux3qmi14VoiceQmiClientESaIS2_ELN9__gnu_cxx12_Lock_policyE2EED1Ev=so_stub_for_libtelux_qmi
-Wl,--defsym=_ZNSt23_Sp_counted_ptr_inplaceIN5telux3qmi14VoiceQmiClientESaIS2_ELN9__gnu_cxx12_Lock_policyE2EED2Ev=so_stub_for_libtelux_qmi
-Wl,--defsym=_ZNSt23_Sp_counted_ptr_inplaceIN5telux3qmi18UimRemoteQmiClientESaIS2_ELN9__gnu_cxx12_Lock_policyE2EE10_M_destroyEv=so_stub_for_libtelux_qmi
-Wl,--defsym=_ZNSt23_Sp_counted_ptr_inplaceIN5telux3qmi18UimRemoteQmiClientESaIS2_ELN9__gnu_cxx12_Lock_policyE2EE10_M_disposeEv=so_stub_for_libtelux_qmi
-Wl,--defsym=_ZNSt23_Sp_counted_ptr_inplaceIN5telux3qmi18UimRemoteQmiClientESaIS2_ELN9__gnu_cxx12_Lock_policyE2EE14_M_get_deleterERKSt9type_info=so_stub_for_libtelux_qmi
-Wl,--defsym=_ZNSt23_Sp_counted_ptr_inplaceIN5telux3qmi18UimRemoteQmiClientESaIS2_ELN9__gnu_cxx12_Lock_policyE2EED0Ev=so_stub_for_libtelux_qmi
-Wl,--defsym=_ZNSt23_Sp_counted_ptr_inplaceIN5telux3qmi18UimRemoteQmiClientESaIS2_ELN9__gnu_cxx12_Lock_policyE2EED1Ev=so_stub_for_libtelux_qmi
-Wl,--defsym=_ZNSt23_Sp_counted_ptr_inplaceIN5telux3qmi18UimRemoteQmiClientESaIS2_ELN9__gnu_cxx12_Lock_policyE2EED2Ev=so_stub_for_libtelux_qmi
-Wl,--defsym=_ZNSt23_Sp_counted_ptr_inplaceIN5telux3qmi20ModemConfigQmiClientESaIS2_ELN9__gnu_cxx12_Lock_policyE2EE10_M_destroyEv=so_stub_for_libtelux_qmi
-Wl,--defsym=_ZNSt23_Sp_counted_ptr_inplaceIN5telux3qmi20ModemConfigQmiClientESaIS2_ELN9__gnu_cxx12_Lock_policyE2EE10_M_disposeEv=so_stub_for_libtelux_qmi
-Wl,--defsym=_ZNSt23_Sp_counted_ptr_inplaceIN5telux3qmi20ModemConfigQmiClientESaIS2_ELN9__gnu_cxx12_Lock_policyE2EE14_M_get_deleterERKSt9type_info=so_stub_for_libtelux_qmi
-Wl,--defsym=_ZNSt23_Sp_counted_ptr_inplaceIN5telux3qmi20ModemConfigQmiClientESaIS2_ELN9__gnu_cxx12_Lock_policyE2EED0Ev=so_stub_for_libtelux_qmi
-Wl,--defsym=_ZNSt23_Sp_counted_ptr_inplaceIN5telux3qmi20ModemConfigQmiClientESaIS2_ELN9__gnu_cxx12_Lock_policyE2EED1Ev=so_stub_for_libtelux_qmi
-Wl,--defsym=_ZNSt23_Sp_counted_ptr_inplaceIN5telux3qmi20ModemConfigQmiClientESaIS2_ELN9__gnu_cxx12_Lock_policyE2EED2Ev=so_stub_for_libtelux_qmi
-Wl,--defsym=_ZNSt23_Sp_counted_ptr_inplaceIN5telux3qmi9QmiClient12ServiceParamESaIS3_ELN9__gnu_cxx12_Lock_policyE2EE10_M_destroyEv=so_stub_for_libtelux_qmi
-Wl,--defsym=_ZNSt23_Sp_counted_ptr_inplaceIN5telux3qmi9QmiClient12ServiceParamESaIS3_ELN9__gnu_cxx12_Lock_policyE2EE10_M_disposeEv=so_stub_for_libtelux_qmi
-Wl,--defsym=_ZNSt23_Sp_counted_ptr_inplaceIN5telux3qmi9QmiClient12ServiceParamESaIS3_ELN9__gnu_cxx12_Lock_policyE2EE14_M_get_deleterERKSt9type_info=so_stub_for_libtelux_qmi
-Wl,--defsym=_ZNSt23_Sp_counted_ptr_inplaceIN5telux3qmi9QmiClient12ServiceParamESaIS3_ELN9__gnu_cxx12_Lock_policyE2EED0Ev=so_stub_for_libtelux_qmi
-Wl,--defsym=_ZNSt23_Sp_counted_ptr_inplaceIN5telux3qmi9QmiClient12ServiceParamESaIS3_ELN9__gnu_cxx12_Lock_policyE2EED1Ev=so_stub_for_libtelux_qmi
-Wl,--defsym=_ZNSt23_Sp_counted_ptr_inplaceIN5telux3qmi9QmiClient12ServiceParamESaIS3_ELN9__gnu_cxx12_Lock_policyE2EED2Ev=so_stub_for_libtelux_qmi
-Wl,--defsym=_ZNSt23_Sp_counted_ptr_inplaceIN5telux6common18FunctionalCallbackIJiiEEESaIS3_ELN9__gnu_cxx12_Lock_policyE2EE10_M_destroyEv=so_stub_for_libtelux_qmi
-Wl,--defsym=_ZNSt23_Sp_counted_ptr_inplaceIN5telux6common18FunctionalCallbackIJiiEEESaIS3_ELN9__gnu_cxx12_Lock_policyE2EE10_M_disposeEv=so_stub_for_libtelux_qmi
-Wl,--defsym=_ZNSt23_Sp_counted_ptr_inplaceIN5telux6common18FunctionalCallbackIJiiEEESaIS3_ELN9__gnu_cxx12_Lock_policyE2EE14_M_get_deleterERKSt9type_info=so_stub_for_libtelux_qmi
-Wl,--defsym=_ZNSt23_Sp_counted_ptr_inplaceIN5telux6common18FunctionalCallbackIJiiEEESaIS3_ELN9__gnu_cxx12_Lock_policyE2EED0Ev=so_stub_for_libtelux_qmi
-Wl,--defsym=_ZNSt23_Sp_counted_ptr_inplaceIN5telux6common18FunctionalCallbackIJiiEEESaIS3_ELN9__gnu_cxx12_Lock_policyE2EED1Ev=so_stub_for_libtelux_qmi
-Wl,--defsym=_ZNSt23_Sp_counted_ptr_inplaceIN5telux6common18FunctionalCallbackIJiiEEESaIS3_ELN9__gnu_cxx12_Lock_policyE2EED2Ev=so_stub_for_libtelux_qmi
-Wl,--defsym=_ZNSt23_Sp_counted_ptr_inplaceIN5telux6common18FunctionalCallbackIJiPviEEESaIS4_ELN9__gnu_cxx12_Lock_policyE2EE10_M_destroyEv=so_stub_for_libtelux_qmi
-Wl,--defsym=_ZNSt23_Sp_counted_ptr_inplaceIN5telux6common18FunctionalCallbackIJiPviEEESaIS4_ELN9__gnu_cxx12_Lock_policyE2EE10_M_disposeEv=so_stub_for_libtelux_qmi
-Wl,--defsym=_ZNSt23_Sp_counted_ptr_inplaceIN5telux6common18FunctionalCallbackIJiPviEEESaIS4_ELN9__gnu_cxx12_Lock_policyE2EE14_M_get_deleterERKSt9type_info=so_stub_for_libtelux_qmi
-Wl,--defsym=_ZNSt23_Sp_counted_ptr_inplaceIN5telux6common18FunctionalCallbackIJiPviEEESaIS4_ELN9__gnu_cxx12_Lock_policyE2EED0Ev=so_stub_for_libtelux_qmi
-Wl,--defsym=_ZNSt23_Sp_counted_ptr_inplaceIN5telux6common18FunctionalCallbackIJiPviEEESaIS4_ELN9__gnu_cxx12_Lock_policyE2EED1Ev=so_stub_for_libtelux_qmi
-Wl,--defsym=_ZNSt23_Sp_counted_ptr_inplaceIN5telux6common18FunctionalCallbackIJiPviEEESaIS4_ELN9__gnu_cxx12_Lock_policyE2EED2Ev=so_stub_for_libtelux_qmi
-Wl,--defsym=_ZNSt23_Sp_counted_ptr_inplaceIN5telux6common18FunctionalCallbackIJP24uim_get_eid_resp_msg_v01PviEEESaIS6_ELN9__gnu_cxx12_Lock_policyE2EE10_M_destroyEv=so_stub_for_libtelux_qmi
-Wl,--defsym=_ZNSt23_Sp_counted_ptr_inplaceIN5telux6common18FunctionalCallbackIJP24uim_get_eid_resp_msg_v01PviEEESaIS6_ELN9__gnu_cxx12_Lock_policyE2EE10_M_disposeEv=so_stub_for_libtelux_qmi
-Wl,--defsym=_ZNSt23_Sp_counted_ptr_inplaceIN5telux6common18FunctionalCallbackIJP24uim_get_eid_resp_msg_v01PviEEESaIS6_ELN9__gnu_cxx12_Lock_policyE2EE14_M_get_deleterERKSt9type_info=so_stub_for_libtelux_qmi
-Wl,--defsym=_ZNSt23_Sp_counted_ptr_inplaceIN5telux6common18FunctionalCallbackIJP24uim_get_eid_resp_msg_v01PviEEESaIS6_ELN9__gnu_cxx12_Lock_policyE2EED0Ev=so_stub_for_libtelux_qmi
-Wl,--defsym=_ZNSt23_Sp_counted_ptr_inplaceIN5telux6common18FunctionalCallbackIJP24uim_get_eid_resp_msg_v01PviEEESaIS6_ELN9__gnu_cxx12_Lock_policyE2EED1Ev=so_stub_for_libtelux_qmi
-Wl,--defsym=_ZNSt23_Sp_counted_ptr_inplaceIN5telux6common18FunctionalCallbackIJP24uim_get_eid_resp_msg_v01PviEEESaIS6_ELN9__gnu_cxx12_Lock_policyE2EED2Ev=so_stub_for_libtelux_qmi
-Wl,--defsym=_ZNSt23_Sp_counted_ptr_inplaceIN5telux6common18FunctionalCallbackIJP28uim_add_profile_resp_msg_v01PviEEESaIS6_ELN9__gnu_cxx12_Lock_policyE2EE10_M_destroyEv=so_stub_for_libtelux_qmi
-Wl,--defsym=_ZNSt23_Sp_counted_ptr_inplaceIN5telux6common18FunctionalCallbackIJP28uim_add_profile_resp_msg_v01PviEEESaIS6_ELN9__gnu_cxx12_Lock_policyE2EE10_M_disposeEv=so_stub_for_libtelux_qmi
-Wl,--defsym=_ZNSt23_Sp_counted_ptr_inplaceIN5telux6common18FunctionalCallbackIJP28uim_add_profile_resp_msg_v01PviEEESaIS6_ELN9__gnu_cxx12_Lock_policyE2EE14_M_get_deleterERKSt9type_info=so_stub_for_libtelux_qmi
-Wl,--defsym=_ZNSt23_Sp_counted_ptr_inplaceIN5telux6common18FunctionalCallbackIJP28uim_add_profile_resp_msg_v01PviEEESaIS6_ELN9__gnu_cxx12_Lock_policyE2EED0Ev=so_stub_for_libtelux_qmi
-Wl,--defsym=_ZNSt23_Sp_counted_ptr_inplaceIN5telux6common18FunctionalCallbackIJP28uim_add_profile_resp_msg_v01PviEEESaIS6_ELN9__gnu_cxx12_Lock_policyE2EED1Ev=so_stub_for_libtelux_qmi
-Wl,--defsym=_ZNSt23_Sp_counted_ptr_inplaceIN5telux6common18FunctionalCallbackIJP28uim_add_profile_resp_msg_v01PviEEESaIS6_ELN9__gnu_cxx12_Lock_policyE2EED2Ev=so_stub_for_libtelux_qmi
-Wl,--defsym=_ZNSt23_Sp_counted_ptr_inplaceIN5telux6common18FunctionalCallbackIJP28uim_remote_apdu_resp_msg_v01iPvEEESaIS6_ELN9__gnu_cxx12_Lock_policyE2EE10_M_destroyEv=so_stub_for_libtelux_qmi
-Wl,--defsym=_ZNSt23_Sp_counted_ptr_inplaceIN5telux6common18FunctionalCallbackIJP28uim_remote_apdu_resp_msg_v01iPvEEESaIS6_ELN9__gnu_cxx12_Lock_policyE2EE10_M_disposeEv=so_stub_for_libtelux_qmi
-Wl,--defsym=_ZNSt23_Sp_counted_ptr_inplaceIN5telux6common18FunctionalCallbackIJP28uim_remote_apdu_resp_msg_v01iPvEEESaIS6_ELN9__gnu_cxx12_Lock_policyE2EE14_M_get_deleterERKSt9type_info=so_stub_for_libtelux_qmi
-Wl,--defsym=_ZNSt23_Sp_counted_ptr_inplaceIN5telux6common18FunctionalCallbackIJP28uim_remote_apdu_resp_msg_v01iPvEEESaIS6_ELN9__gnu_cxx12_Lock_policyE2EED0Ev=so_stub_for_libtelux_qmi
-Wl,--defsym=_ZNSt23_Sp_counted_ptr_inplaceIN5telux6common18FunctionalCallbackIJP28uim_remote_apdu_resp_msg_v01iPvEEESaIS6_ELN9__gnu_cxx12_Lock_policyE2EED1Ev=so_stub_for_libtelux_qmi
-Wl,--defsym=_ZNSt23_Sp_counted_ptr_inplaceIN5telux6common18FunctionalCallbackIJP28uim_remote_apdu_resp_msg_v01iPvEEESaIS6_ELN9__gnu_cxx12_Lock_policyE2EED2Ev=so_stub_for_libtelux_qmi
-Wl,--defsym=_ZNSt23_Sp_counted_ptr_inplaceIN5telux6common18FunctionalCallbackIJP29nas_get_sys_info_resp_msg_v01PviEEESaIS6_ELN9__gnu_cxx12_Lock_policyE2EE10_M_destroyEv=so_stub_for_libtelux_qmi
-Wl,--defsym=_ZNSt23_Sp_counted_ptr_inplaceIN5telux6common18FunctionalCallbackIJP29nas_get_sys_info_resp_msg_v01PviEEESaIS6_ELN9__gnu_cxx12_Lock_policyE2EE10_M_disposeEv=so_stub_for_libtelux_qmi
-Wl,--defsym=_ZNSt23_Sp_counted_ptr_inplaceIN5telux6common18FunctionalCallbackIJP29nas_get_sys_info_resp_msg_v01PviEEESaIS6_ELN9__gnu_cxx12_Lock_policyE2EE14_M_get_deleterERKSt9type_info=so_stub_for_libtelux_qmi
-Wl,--defsym=_ZNSt23_Sp_counted_ptr_inplaceIN5telux6common18FunctionalCallbackIJP29nas_get_sys_info_resp_msg_v01PviEEESaIS6_ELN9__gnu_cxx12_Lock_policyE2EED0Ev=so_stub_for_libtelux_qmi
-Wl,--defsym=_ZNSt23_Sp_counted_ptr_inplaceIN5telux6common18FunctionalCallbackIJP29nas_get_sys_info_resp_msg_v01PviEEESaIS6_ELN9__gnu_cxx12_Lock_policyE2EED1Ev=so_stub_for_libtelux_qmi
-Wl,--defsym=_ZNSt23_Sp_counted_ptr_inplaceIN5telux6common18FunctionalCallbackIJP29nas_get_sys_info_resp_msg_v01PviEEESaIS6_ELN9__gnu_cxx12_Lock_policyE2EED2Ev=so_stub_for_libtelux_qmi
-Wl,--defsym=_ZNSt23_Sp_counted_ptr_inplaceIN5telux6common18FunctionalCallbackIJP29uim_remote_event_resp_msg_v01iPvEEESaIS6_ELN9__gnu_cxx12_Lock_policyE2EE10_M_destroyEv=so_stub_for_libtelux_qmi
-Wl,--defsym=_ZNSt23_Sp_counted_ptr_inplaceIN5telux6common18FunctionalCallbackIJP29uim_remote_event_resp_msg_v01iPvEEESaIS6_ELN9__gnu_cxx12_Lock_policyE2EE10_M_disposeEv=so_stub_for_libtelux_qmi
-Wl,--defsym=_ZNSt23_Sp_counted_ptr_inplaceIN5telux6common18FunctionalCallbackIJP29uim_remote_event_resp_msg_v01iPvEEESaIS6_ELN9__gnu_cxx12_Lock_policyE2EE14_M_get_deleterERKSt9type_info=so_stub_for_libtelux_qmi
-Wl,--defsym=_ZNSt23_Sp_counted_ptr_inplaceIN5telux6common18FunctionalCallbackIJP29uim_remote_event_resp_msg_v01iPvEEESaIS6_ELN9__gnu_cxx12_Lock_policyE2EED0Ev=so_stub_for_libtelux_qmi
-Wl,--defsym=_ZNSt23_Sp_counted_ptr_inplaceIN5telux6common18FunctionalCallbackIJP29uim_remote_event_resp_msg_v01iPvEEESaIS6_ELN9__gnu_cxx12_Lock_policyE2EED1Ev=so_stub_for_libtelux_qmi
-Wl,--defsym=_ZNSt23_Sp_counted_ptr_inplaceIN5telux6common18FunctionalCallbackIJP29uim_remote_event_resp_msg_v01iPvEEESaIS6_ELN9__gnu_cxx12_Lock_policyE2EED2Ev=so_stub_for_libtelux_qmi
-Wl,--defsym=_ZNSt23_Sp_counted_ptr_inplaceIN5telux6common18FunctionalCallbackIJP29uim_remote_reset_resp_msg_v01iPvEEESaIS6_ELN9__gnu_cxx12_Lock_policyE2EE10_M_destroyEv=so_stub_for_libtelux_qmi
-Wl,--defsym=_ZNSt23_Sp_counted_ptr_inplaceIN5telux6common18FunctionalCallbackIJP29uim_remote_reset_resp_msg_v01iPvEEESaIS6_ELN9__gnu_cxx12_Lock_policyE2EE10_M_disposeEv=so_stub_for_libtelux_qmi
-Wl,--defsym=_ZNSt23_Sp_counted_ptr_inplaceIN5telux6common18FunctionalCallbackIJP29uim_remote_reset_resp_msg_v01iPvEEESaIS6_ELN9__gnu_cxx12_Lock_policyE2EE14_M_get_deleterERKSt9type_info=so_stub_for_libtelux_qmi
-Wl,--defsym=_ZNSt23_Sp_counted_ptr_inplaceIN5telux6common18FunctionalCallbackIJP29uim_remote_reset_resp_msg_v01iPvEEESaIS6_ELN9__gnu_cxx12_Lock_policyE2EED0Ev=so_stub_for_libtelux_qmi
-Wl,--defsym=_ZNSt23_Sp_counted_ptr_inplaceIN5telux6common18FunctionalCallbackIJP29uim_remote_reset_resp_msg_v01iPvEEESaIS6_ELN9__gnu_cxx12_Lock_policyE2EED1Ev=so_stub_for_libtelux_qmi
-Wl,--defsym=_ZNSt23_Sp_counted_ptr_inplaceIN5telux6common18FunctionalCallbackIJP29uim_remote_reset_resp_msg_v01iPvEEESaIS6_ELN9__gnu_cxx12_Lock_policyE2EED2Ev=so_stub_for_libtelux_qmi
-Wl,--defsym=_ZNSt23_Sp_counted_ptr_inplaceIN5telux6common18FunctionalCallbackIJP31uim_delete_profile_resp_msg_v01PviEEESaIS6_ELN9__gnu_cxx12_Lock_policyE2EE10_M_destroyEv=so_stub_for_libtelux_qmi
-Wl,--defsym=_ZNSt23_Sp_counted_ptr_inplaceIN5telux6common18FunctionalCallbackIJP31uim_delete_profile_resp_msg_v01PviEEESaIS6_ELN9__gnu_cxx12_Lock_policyE2EE10_M_disposeEv=so_stub_for_libtelux_qmi
-Wl,--defsym=_ZNSt23_Sp_counted_ptr_inplaceIN5telux6common18FunctionalCallbackIJP31uim_delete_profile_resp_msg_v01PviEEESaIS6_ELN9__gnu_cxx12_Lock_policyE2EE14_M_get_deleterERKSt9type_info=so_stub_for_libtelux_qmi
-Wl,--defsym=_ZNSt23_Sp_counted_ptr_inplaceIN5telux6common18FunctionalCallbackIJP31uim_delete_profile_resp_msg_v01PviEEESaIS6_ELN9__gnu_cxx12_Lock_policyE2EED0Ev=so_stub_for_libtelux_qmi
-Wl,--defsym=_ZNSt23_Sp_counted_ptr_inplaceIN5telux6common18FunctionalCallbackIJP31uim_delete_profile_resp_msg_v01PviEEESaIS6_ELN9__gnu_cxx12_Lock_policyE2EED1Ev=so_stub_for_libtelux_qmi
-Wl,--defsym=_ZNSt23_Sp_counted_ptr_inplaceIN5telux6common18FunctionalCallbackIJP31uim_delete_profile_resp_msg_v01PviEEESaIS6_ELN9__gnu_cxx12_Lock_policyE2EED2Ev=so_stub_for_libtelux_qmi
-Wl,--defsym=_ZNSt23_Sp_counted_ptr_inplaceIN5telux6common18FunctionalCallbackIJP32uim_get_sim_profile_resp_msg_v01PviEEESaIS6_ELN9__gnu_cxx12_Lock_policyE2EE10_M_destroyEv=so_stub_for_libtelux_qmi
-Wl,--defsym=_ZNSt23_Sp_counted_ptr_inplaceIN5telux6common18FunctionalCallbackIJP32uim_get_sim_profile_resp_msg_v01PviEEESaIS6_ELN9__gnu_cxx12_Lock_policyE2EE10_M_disposeEv=so_stub_for_libtelux_qmi
-Wl,--defsym=_ZNSt23_Sp_counted_ptr_inplaceIN5telux6common18FunctionalCallbackIJP32uim_get_sim_profile_resp_msg_v01PviEEESaIS6_ELN9__gnu_cxx12_Lock_policyE2EE14_M_get_deleterERKSt9type_info=so_stub_for_libtelux_qmi
-Wl,--defsym=_ZNSt23_Sp_counted_ptr_inplaceIN5telux6common18FunctionalCallbackIJP32uim_get_sim_profile_resp_msg_v01PviEEESaIS6_ELN9__gnu_cxx12_Lock_policyE2EED0Ev=so_stub_for_libtelux_qmi
-Wl,--defsym=_ZNSt23_Sp_counted_ptr_inplaceIN5telux6common18FunctionalCallbackIJP32uim_get_sim_profile_resp_msg_v01PviEEESaIS6_ELN9__gnu_cxx12_Lock_policyE2EED1Ev=so_stub_for_libtelux_qmi
-Wl,--defsym=_ZNSt23_Sp_counted_ptr_inplaceIN5telux6common18FunctionalCallbackIJP32uim_get_sim_profile_resp_msg_v01PviEEESaIS6_ELN9__gnu_cxx12_Lock_policyE2EED2Ev=so_stub_for_libtelux_qmi
-Wl,--defsym=_ZNSt23_Sp_counted_ptr_inplaceIN5telux6common18FunctionalCallbackIJP32uim_set_sim_profile_resp_msg_v01PviEEESaIS6_ELN9__gnu_cxx12_Lock_policyE2EE10_M_destroyEv=so_stub_for_libtelux_qmi
-Wl,--defsym=_ZNSt23_Sp_counted_ptr_inplaceIN5telux6common18FunctionalCallbackIJP32uim_set_sim_profile_resp_msg_v01PviEEESaIS6_ELN9__gnu_cxx12_Lock_policyE2EE10_M_disposeEv=so_stub_for_libtelux_qmi
-Wl,--defsym=_ZNSt23_Sp_counted_ptr_inplaceIN5telux6common18FunctionalCallbackIJP32uim_set_sim_profile_resp_msg_v01PviEEESaIS6_ELN9__gnu_cxx12_Lock_policyE2EE14_M_get_deleterERKSt9type_info=so_stub_for_libtelux_qmi
-Wl,--defsym=_ZNSt23_Sp_counted_ptr_inplaceIN5telux6common18FunctionalCallbackIJP32uim_set_sim_profile_resp_msg_v01PviEEESaIS6_ELN9__gnu_cxx12_Lock_policyE2EED0Ev=so_stub_for_libtelux_qmi
-Wl,--defsym=_ZNSt23_Sp_counted_ptr_inplaceIN5telux6common18FunctionalCallbackIJP32uim_set_sim_profile_resp_msg_v01PviEEESaIS6_ELN9__gnu_cxx12_Lock_policyE2EED1Ev=so_stub_for_libtelux_qmi
-Wl,--defsym=_ZNSt23_Sp_counted_ptr_inplaceIN5telux6common18FunctionalCallbackIJP32uim_set_sim_profile_resp_msg_v01PviEEESaIS6_ELN9__gnu_cxx12_Lock_policyE2EED2Ev=so_stub_for_libtelux_qmi
-Wl,--defsym=_ZNSt23_Sp_counted_ptr_inplaceIN5telux6common18FunctionalCallbackIJP33uim_get_profile_info_resp_msg_v01PviEEESaIS6_ELN9__gnu_cxx12_Lock_policyE2EE10_M_destroyEv=so_stub_for_libtelux_qmi
-Wl,--defsym=_ZNSt23_Sp_counted_ptr_inplaceIN5telux6common18FunctionalCallbackIJP33uim_get_profile_info_resp_msg_v01PviEEESaIS6_ELN9__gnu_cxx12_Lock_policyE2EE10_M_disposeEv=so_stub_for_libtelux_qmi
-Wl,--defsym=_ZNSt23_Sp_counted_ptr_inplaceIN5telux6common18FunctionalCallbackIJP33uim_get_profile_info_resp_msg_v01PviEEESaIS6_ELN9__gnu_cxx12_Lock_policyE2EE14_M_get_deleterERKSt9type_info=so_stub_for_libtelux_qmi
-Wl,--defsym=_ZNSt23_Sp_counted_ptr_inplaceIN5telux6common18FunctionalCallbackIJP33uim_get_profile_info_resp_msg_v01PviEEESaIS6_ELN9__gnu_cxx12_Lock_policyE2EED0Ev=so_stub_for_libtelux_qmi
-Wl,--defsym=_ZNSt23_Sp_counted_ptr_inplaceIN5telux6common18FunctionalCallbackIJP33uim_get_profile_info_resp_msg_v01PviEEESaIS6_ELN9__gnu_cxx12_Lock_policyE2EED1Ev=so_stub_for_libtelux_qmi
-Wl,--defsym=_ZNSt23_Sp_counted_ptr_inplaceIN5telux6common18FunctionalCallbackIJP33uim_get_profile_info_resp_msg_v01PviEEESaIS6_ELN9__gnu_cxx12_Lock_policyE2EED2Ev=so_stub_for_libtelux_qmi
-Wl,--defsym=_ZNSt23_Sp_counted_ptr_inplaceIN5telux6common18FunctionalCallbackIJP33uim_get_slots_status_resp_msg_v01PviEEESaIS6_ELN9__gnu_cxx12_Lock_policyE2EE10_M_destroyEv=so_stub_for_libtelux_qmi
-Wl,--defsym=_ZNSt23_Sp_counted_ptr_inplaceIN5telux6common18FunctionalCallbackIJP33uim_get_slots_status_resp_msg_v01PviEEESaIS6_ELN9__gnu_cxx12_Lock_policyE2EE10_M_disposeEv=so_stub_for_libtelux_qmi
-Wl,--defsym=_ZNSt23_Sp_counted_ptr_inplaceIN5telux6common18FunctionalCallbackIJP33uim_get_slots_status_resp_msg_v01PviEEESaIS6_ELN9__gnu_cxx12_Lock_policyE2EE14_M_get_deleterERKSt9type_info=so_stub_for_libtelux_qmi
-Wl,--defsym=_ZNSt23_Sp_counted_ptr_inplaceIN5telux6common18FunctionalCallbackIJP33uim_get_slots_status_resp_msg_v01PviEEESaIS6_ELN9__gnu_cxx12_Lock_policyE2EED0Ev=so_stub_for_libtelux_qmi
-Wl,--defsym=_ZNSt23_Sp_counted_ptr_inplaceIN5telux6common18FunctionalCallbackIJP33uim_get_slots_status_resp_msg_v01PviEEESaIS6_ELN9__gnu_cxx12_Lock_policyE2EED1Ev=so_stub_for_libtelux_qmi
-Wl,--defsym=_ZNSt23_Sp_counted_ptr_inplaceIN5telux6common18FunctionalCallbackIJP33uim_get_slots_status_resp_msg_v01PviEEESaIS6_ELN9__gnu_cxx12_Lock_policyE2EED2Ev=so_stub_for_libtelux_qmi
-Wl,--defsym=_ZNSt23_Sp_counted_ptr_inplaceIN5telux6common18FunctionalCallbackIJP33wms_set_event_report_resp_msg_v01PviEEESaIS6_ELN9__gnu_cxx12_Lock_policyE2EE10_M_destroyEv=so_stub_for_libtelux_qmi
-Wl,--defsym=_ZNSt23_Sp_counted_ptr_inplaceIN5telux6common18FunctionalCallbackIJP33wms_set_event_report_resp_msg_v01PviEEESaIS6_ELN9__gnu_cxx12_Lock_policyE2EE10_M_disposeEv=so_stub_for_libtelux_qmi
-Wl,--defsym=_ZNSt23_Sp_counted_ptr_inplaceIN5telux6common18FunctionalCallbackIJP33wms_set_event_report_resp_msg_v01PviEEESaIS6_ELN9__gnu_cxx12_Lock_policyE2EE14_M_get_deleterERKSt9type_info=so_stub_for_libtelux_qmi
-Wl,--defsym=_ZNSt23_Sp_counted_ptr_inplaceIN5telux6common18FunctionalCallbackIJP33wms_set_event_report_resp_msg_v01PviEEESaIS6_ELN9__gnu_cxx12_Lock_policyE2EED0Ev=so_stub_for_libtelux_qmi
-Wl,--defsym=_ZNSt23_Sp_counted_ptr_inplaceIN5telux6common18FunctionalCallbackIJP33wms_set_event_report_resp_msg_v01PviEEESaIS6_ELN9__gnu_cxx12_Lock_policyE2EED1Ev=so_stub_for_libtelux_qmi
-Wl,--defsym=_ZNSt23_Sp_counted_ptr_inplaceIN5telux6common18FunctionalCallbackIJP33wms_set_event_report_resp_msg_v01PviEEESaIS6_ELN9__gnu_cxx12_Lock_policyE2EED2Ev=so_stub_for_libtelux_qmi
-Wl,--defsym=_ZNSt23_Sp_counted_ptr_inplaceIN5telux6common18FunctionalCallbackIJP36wms_indication_register_resp_msg_v01PviEEESaIS6_ELN9__gnu_cxx12_Lock_policyE2EE10_M_destroyEv=so_stub_for_libtelux_qmi
-Wl,--defsym=_ZNSt23_Sp_counted_ptr_inplaceIN5telux6common18FunctionalCallbackIJP36wms_indication_register_resp_msg_v01PviEEESaIS6_ELN9__gnu_cxx12_Lock_policyE2EE10_M_disposeEv=so_stub_for_libtelux_qmi
-Wl,--defsym=_ZNSt23_Sp_counted_ptr_inplaceIN5telux6common18FunctionalCallbackIJP36wms_indication_register_resp_msg_v01PviEEESaIS6_ELN9__gnu_cxx12_Lock_policyE2EE14_M_get_deleterERKSt9type_info=so_stub_for_libtelux_qmi
-Wl,--defsym=_ZNSt23_Sp_counted_ptr_inplaceIN5telux6common18FunctionalCallbackIJP36wms_indication_register_resp_msg_v01PviEEESaIS6_ELN9__gnu_cxx12_Lock_policyE2EED0Ev=so_stub_for_libtelux_qmi
-Wl,--defsym=_ZNSt23_Sp_counted_ptr_inplaceIN5telux6common18FunctionalCallbackIJP36wms_indication_register_resp_msg_v01PviEEESaIS6_ELN9__gnu_cxx12_Lock_policyE2EED1Ev=so_stub_for_libtelux_qmi
-Wl,--defsym=_ZNSt23_Sp_counted_ptr_inplaceIN5telux6common18FunctionalCallbackIJP36wms_indication_register_resp_msg_v01PviEEESaIS6_ELN9__gnu_cxx12_Lock_policyE2EED2Ev=so_stub_for_libtelux_qmi
-Wl,--defsym=_ZNSt23_Sp_counted_ptr_inplaceIN5telux6common18FunctionalCallbackIJP37uim_profile_user_consent_resp_msg_v01PviEEESaIS6_ELN9__gnu_cxx12_Lock_policyE2EE10_M_destroyEv=so_stub_for_libtelux_qmi
-Wl,--defsym=_ZNSt23_Sp_counted_ptr_inplaceIN5telux6common18FunctionalCallbackIJP37uim_profile_user_consent_resp_msg_v01PviEEESaIS6_ELN9__gnu_cxx12_Lock_policyE2EE10_M_disposeEv=so_stub_for_libtelux_qmi
-Wl,--defsym=_ZNSt23_Sp_counted_ptr_inplaceIN5telux6common18FunctionalCallbackIJP37uim_profile_user_consent_resp_msg_v01PviEEESaIS6_ELN9__gnu_cxx12_Lock_policyE2EE14_M_get_deleterERKSt9type_info=so_stub_for_libtelux_qmi
-Wl,--defsym=_ZNSt23_Sp_counted_ptr_inplaceIN5telux6common18FunctionalCallbackIJP37uim_profile_user_consent_resp_msg_v01PviEEESaIS6_ELN9__gnu_cxx12_Lock_policyE2EED0Ev=so_stub_for_libtelux_qmi
-Wl,--defsym=_ZNSt23_Sp_counted_ptr_inplaceIN5telux6common18FunctionalCallbackIJP37uim_profile_user_consent_resp_msg_v01PviEEESaIS6_ELN9__gnu_cxx12_Lock_policyE2EED1Ev=so_stub_for_libtelux_qmi
-Wl,--defsym=_ZNSt23_Sp_counted_ptr_inplaceIN5telux6common18FunctionalCallbackIJP37uim_profile_user_consent_resp_msg_v01PviEEESaIS6_ELN9__gnu_cxx12_Lock_policyE2EED2Ev=so_stub_for_libtelux_qmi
-Wl,--defsym=_ZNSt23_Sp_counted_ptr_inplaceIN5telux6common18FunctionalCallbackIJP37wms_get_broadcast_config_resp_msg_v01PviEEESaIS6_ELN9__gnu_cxx12_Lock_policyE2EE10_M_destroyEv=so_stub_for_libtelux_qmi
-Wl,--defsym=_ZNSt23_Sp_counted_ptr_inplaceIN5telux6common18FunctionalCallbackIJP37wms_get_broadcast_config_resp_msg_v01PviEEESaIS6_ELN9__gnu_cxx12_Lock_policyE2EE10_M_disposeEv=so_stub_for_libtelux_qmi
-Wl,--defsym=_ZNSt23_Sp_counted_ptr_inplaceIN5telux6common18FunctionalCallbackIJP37wms_get_broadcast_config_resp_msg_v01PviEEESaIS6_ELN9__gnu_cxx12_Lock_policyE2EE14_M_get_deleterERKSt9type_info=so_stub_for_libtelux_qmi
-Wl,--defsym=_ZNSt23_Sp_counted_ptr_inplaceIN5telux6common18FunctionalCallbackIJP37wms_get_broadcast_config_resp_msg_v01PviEEESaIS6_ELN9__gnu_cxx12_Lock_policyE2EED0Ev=so_stub_for_libtelux_qmi
-Wl,--defsym=_ZNSt23_Sp_counted_ptr_inplaceIN5telux6common18FunctionalCallbackIJP37wms_get_broadcast_config_resp_msg_v01PviEEESaIS6_ELN9__gnu_cxx12_Lock_policyE2EED1Ev=so_stub_for_libtelux_qmi
-Wl,--defsym=_ZNSt23_Sp_counted_ptr_inplaceIN5telux6common18FunctionalCallbackIJP37wms_get_broadcast_config_resp_msg_v01PviEEESaIS6_ELN9__gnu_cxx12_Lock_policyE2EED2Ev=so_stub_for_libtelux_qmi
-Wl,--defsym=_ZNSt23_Sp_counted_ptr_inplaceIN5telux6common18FunctionalCallbackIJP37wms_set_broadcast_config_resp_msg_v01PviEEESaIS6_ELN9__gnu_cxx12_Lock_policyE2EE10_M_destroyEv=so_stub_for_libtelux_qmi
-Wl,--defsym=_ZNSt23_Sp_counted_ptr_inplaceIN5telux6common18FunctionalCallbackIJP37wms_set_broadcast_config_resp_msg_v01PviEEESaIS6_ELN9__gnu_cxx12_Lock_policyE2EE10_M_disposeEv=so_stub_for_libtelux_qmi
-Wl,--defsym=_ZNSt23_Sp_counted_ptr_inplaceIN5telux6common18FunctionalCallbackIJP37wms_set_broadcast_config_resp_msg_v01PviEEESaIS6_ELN9__gnu_cxx12_Lock_policyE2EE14_M_get_deleterERKSt9type_info=so_stub_for_libtelux_qmi
-Wl,--defsym=_ZNSt23_Sp_counted_ptr_inplaceIN5telux6common18FunctionalCallbackIJP37wms_set_broadcast_config_resp_msg_v01PviEEESaIS6_ELN9__gnu_cxx12_Lock_policyE2EED0Ev=so_stub_for_libtelux_qmi
-Wl,--defsym=_ZNSt23_Sp_counted_ptr_inplaceIN5telux6common18FunctionalCallbackIJP37wms_set_broadcast_config_resp_msg_v01PviEEESaIS6_ELN9__gnu_cxx12_Lock_policyE2EED1Ev=so_stub_for_libtelux_qmi
-Wl,--defsym=_ZNSt23_Sp_counted_ptr_inplaceIN5telux6common18FunctionalCallbackIJP37wms_set_broadcast_config_resp_msg_v01PviEEESaIS6_ELN9__gnu_cxx12_Lock_policyE2EED2Ev=so_stub_for_libtelux_qmi
-Wl,--defsym=_ZNSt23_Sp_counted_ptr_inplaceIN5telux6common18FunctionalCallbackIJP40nas_get_high_capability_sub_resp_msg_v01PviEEESaIS6_ELN9__gnu_cxx12_Lock_policyE2EE10_M_destroyEv=so_stub_for_libtelux_qmi
-Wl,--defsym=_ZNSt23_Sp_counted_ptr_inplaceIN5telux6common18FunctionalCallbackIJP40nas_get_high_capability_sub_resp_msg_v01PviEEESaIS6_ELN9__gnu_cxx12_Lock_policyE2EE10_M_disposeEv=so_stub_for_libtelux_qmi
-Wl,--defsym=_ZNSt23_Sp_counted_ptr_inplaceIN5telux6common18FunctionalCallbackIJP40nas_get_high_capability_sub_resp_msg_v01PviEEESaIS6_ELN9__gnu_cxx12_Lock_policyE2EE14_M_get_deleterERKSt9type_info=so_stub_for_libtelux_qmi
-Wl,--defsym=_ZNSt23_Sp_counted_ptr_inplaceIN5telux6common18FunctionalCallbackIJP40nas_get_high_capability_sub_resp_msg_v01PviEEESaIS6_ELN9__gnu_cxx12_Lock_policyE2EED0Ev=so_stub_for_libtelux_qmi
-Wl,--defsym=_ZNSt23_Sp_counted_ptr_inplaceIN5telux6common18FunctionalCallbackIJP40nas_get_high_capability_sub_resp_msg_v01PviEEESaIS6_ELN9__gnu_cxx12_Lock_policyE2EED1Ev=so_stub_for_libtelux_qmi
-Wl,--defsym=_ZNSt23_Sp_counted_ptr_inplaceIN5telux6common18FunctionalCallbackIJP40nas_get_high_capability_sub_resp_msg_v01PviEEESaIS6_ELN9__gnu_cxx12_Lock_policyE2EED2Ev=so_stub_for_libtelux_qmi
-Wl,--defsym=_ZNSt23_Sp_counted_ptr_inplaceIN5telux6common18FunctionalCallbackIJP40uim_update_profile_nickname_resp_msg_v01PviEEESaIS6_ELN9__gnu_cxx12_Lock_policyE2EE10_M_destroyEv=so_stub_for_libtelux_qmi
-Wl,--defsym=_ZNSt23_Sp_counted_ptr_inplaceIN5telux6common18FunctionalCallbackIJP40uim_update_profile_nickname_resp_msg_v01PviEEESaIS6_ELN9__gnu_cxx12_Lock_policyE2EE10_M_disposeEv=so_stub_for_libtelux_qmi
-Wl,--defsym=_ZNSt23_Sp_counted_ptr_inplaceIN5telux6common18FunctionalCallbackIJP40uim_update_profile_nickname_resp_msg_v01PviEEESaIS6_ELN9__gnu_cxx12_Lock_policyE2EE14_M_get_deleterERKSt9type_info=so_stub_for_libtelux_qmi
-Wl,--defsym=_ZNSt23_Sp_counted_ptr_inplaceIN5telux6common18FunctionalCallbackIJP40uim_update_profile_nickname_resp_msg_v01PviEEESaIS6_ELN9__gnu_cxx12_Lock_policyE2EED0Ev=so_stub_for_libtelux_qmi
-Wl,--defsym=_ZNSt23_Sp_counted_ptr_inplaceIN5telux6common18FunctionalCallbackIJP40uim_update_profile_nickname_resp_msg_v01PviEEESaIS6_ELN9__gnu_cxx12_Lock_policyE2EED1Ev=so_stub_for_libtelux_qmi
-Wl,--defsym=_ZNSt23_Sp_counted_ptr_inplaceIN5telux6common18FunctionalCallbackIJP40uim_update_profile_nickname_resp_msg_v01PviEEESaIS6_ELN9__gnu_cxx12_Lock_policyE2EED2Ev=so_stub_for_libtelux_qmi
-Wl,--defsym=_ZNSt23_Sp_counted_ptr_inplaceIN5telux6common18FunctionalCallbackIJP41wms_set_broadcast_activation_resp_msg_v01PviEEESaIS6_ELN9__gnu_cxx12_Lock_policyE2EE10_M_destroyEv=so_stub_for_libtelux_qmi
-Wl,--defsym=_ZNSt23_Sp_counted_ptr_inplaceIN5telux6common18FunctionalCallbackIJP41wms_set_broadcast_activation_resp_msg_v01PviEEESaIS6_ELN9__gnu_cxx12_Lock_policyE2EE10_M_disposeEv=so_stub_for_libtelux_qmi
-Wl,--defsym=_ZNSt23_Sp_counted_ptr_inplaceIN5telux6common18FunctionalCallbackIJP41wms_set_broadcast_activation_resp_msg_v01PviEEESaIS6_ELN9__gnu_cxx12_Lock_policyE2EE14_M_get_deleterERKSt9type_info=so_stub_for_libtelux_qmi
-Wl,--defsym=_ZNSt23_Sp_counted_ptr_inplaceIN5telux6common18FunctionalCallbackIJP41wms_set_broadcast_activation_resp_msg_v01PviEEESaIS6_ELN9__gnu_cxx12_Lock_policyE2EED0Ev=so_stub_for_libtelux_qmi
-Wl,--defsym=_ZNSt23_Sp_counted_ptr_inplaceIN5telux6common18FunctionalCallbackIJP41wms_set_broadcast_activation_resp_msg_v01PviEEESaIS6_ELN9__gnu_cxx12_Lock_policyE2EED1Ev=so_stub_for_libtelux_qmi
-Wl,--defsym=_ZNSt23_Sp_counted_ptr_inplaceIN5telux6common18FunctionalCallbackIJP41wms_set_broadcast_activation_resp_msg_v01PviEEESaIS6_ELN9__gnu_cxx12_Lock_policyE2EED2Ev=so_stub_for_libtelux_qmi
-Wl,--defsym=_ZNSt23_Sp_counted_ptr_inplaceIN5telux6common18FunctionalCallbackIJP48nas_get_system_selection_preference_resp_msg_v01PviEEESaIS6_ELN9__gnu_cxx12_Lock_policyE2EE10_M_destroyEv=so_stub_for_libtelux_qmi
-Wl,--defsym=_ZNSt23_Sp_counted_ptr_inplaceIN5telux6common18FunctionalCallbackIJP48nas_get_system_selection_preference_resp_msg_v01PviEEESaIS6_ELN9__gnu_cxx12_Lock_policyE2EE10_M_disposeEv=so_stub_for_libtelux_qmi
-Wl,--defsym=_ZNSt23_Sp_counted_ptr_inplaceIN5telux6common18FunctionalCallbackIJP48nas_get_system_selection_preference_resp_msg_v01PviEEESaIS6_ELN9__gnu_cxx12_Lock_policyE2EE14_M_get_deleterERKSt9type_info=so_stub_for_libtelux_qmi
-Wl,--defsym=_ZNSt23_Sp_counted_ptr_inplaceIN5telux6common18FunctionalCallbackIJP48nas_get_system_selection_preference_resp_msg_v01PviEEESaIS6_ELN9__gnu_cxx12_Lock_policyE2EED0Ev=so_stub_for_libtelux_qmi
-Wl,--defsym=_ZNSt23_Sp_counted_ptr_inplaceIN5telux6common18FunctionalCallbackIJP48nas_get_system_selection_preference_resp_msg_v01PviEEESaIS6_ELN9__gnu_cxx12_Lock_policyE2EED1Ev=so_stub_for_libtelux_qmi
-Wl,--defsym=_ZNSt23_Sp_counted_ptr_inplaceIN5telux6common18FunctionalCallbackIJP48nas_get_system_selection_preference_resp_msg_v01PviEEESaIS6_ELN9__gnu_cxx12_Lock_policyE2EED2Ev=so_stub_for_libtelux_qmi
-Wl,--defsym=_ZNSt3mapI6SlotIdSt10shared_ptrIN5telux3qmi12WmsQmiClientEESt4lessIS0_ESaISt4pairIKS0_S5_EEEixERS9_=so_stub_for_libtelux_qmi
-Wl,--defsym=_ZNSt3mapIi21wds_pdp_type_enum_v01St4lessIiESaISt4pairIKiS0_EEEixEOi=so_stub_for_libtelux_qmi
-Wl,--defsym=_ZNSt3mapIi21wds_pdp_type_enum_v01St4lessIiESaISt4pairIKiS0_EEEixERS4_=so_stub_for_libtelux_qmi
-Wl,--defsym=_ZNSt3mapIi25wds_profile_type_enum_v01St4lessIiESaISt4pairIKiS0_EEEixEOi=so_stub_for_libtelux_qmi
-Wl,--defsym=_ZNSt3mapIi25wds_profile_type_enum_v01St4lessIiESaISt4pairIKiS0_EEEixERS4_=so_stub_for_libtelux_qmi
-Wl,--defsym=_ZNSt3mapIi34wds_profile_auth_protocol_enum_v01St4lessIiESaISt4pairIKiS0_EEEixEOi=so_stub_for_libtelux_qmi
-Wl,--defsym=_ZNSt3mapIi34wds_profile_auth_protocol_enum_v01St4lessIiESaISt4pairIKiS0_EEEixERS4_=so_stub_for_libtelux_qmi
-Wl,--defsym=_ZNSt3mapIiSt10shared_ptrIN5telux3qmi12DmsQmiClientEESt4lessIiESaISt4pairIKiS4_EEEixERS8_=so_stub_for_libtelux_qmi
-Wl,--defsym=_ZNSt3mapIiSt10shared_ptrIN5telux3qmi12NasQmiClientEESt4lessIiESaISt4pairIKiS4_EEEixERS8_=so_stub_for_libtelux_qmi
-Wl,--defsym=_ZNSt3mapIiSt10shared_ptrIN5telux3qmi12WdsQmiClientEESt4lessIiESaISt4pairIKiS4_EEEixEOi=so_stub_for_libtelux_qmi
-Wl,--defsym=_ZNSt3mapIiSt10shared_ptrIN5telux3qmi14VoiceQmiClientEESt4lessIiESaISt4pairIKiS4_EEEixERS8_=so_stub_for_libtelux_qmi
-Wl,--defsym=_ZNSt5dequeISt13packaged_taskIFvvEESaIS2_EE16_M_push_back_auxIJS2_EEEvDpOT_=so_stub_for_libtelux_qmi
-Wl,--defsym=_ZNSt5dequeISt13shared_futureIvESaIS1_EE16_M_push_back_auxIJRKS1_EEEvDpOT_=so_stub_for_libtelux_qmi
-Wl,--defsym=_ZNSt5dequeISt13shared_futureIvESaIS1_EE19_M_destroy_data_auxESt15_Deque_iteratorIS1_RS1_PS1_ES7_=so_stub_for_libtelux_qmi
-Wl,--defsym=_ZNSt5dequeISt13shared_futureIvESaIS1_EE8_M_eraseESt15_Deque_iteratorIS1_RS1_PS1_E=so_stub_for_libtelux_qmi
-Wl,--defsym=_ZNSt5dequeISt13shared_futureIvESaIS1_EE8pop_backEv=so_stub_for_libtelux_qmi
-Wl,--defsym=_ZNSt5dequeISt13shared_futureIvESaIS1_EE9pop_frontEv=so_stub_for_libtelux_qmi
-Wl,--defsym=_ZNSt5dequeISt13shared_futureIvESaIS1_EED1Ev=so_stub_for_libtelux_qmi
-Wl,--defsym=_ZNSt5dequeISt13shared_futureIvESaIS1_EED2Ev=so_stub_for_libtelux_qmi
-Wl,--defsym=_ZNSt6vectorIN5telux3qmi15ProfileListInfoESaIS2_EE17_M_realloc_insertIJRS2_EEEvN9__gnu_cxx17__normal_iteratorIPS2_S4_EEDpOT_=so_stub_for_libtelux_qmi
-Wl,--defsym=_ZNSt6vectorIN5telux3qmi15ProfileListInfoESaIS2_EED1Ev=so_stub_for_libtelux_qmi
-Wl,--defsym=_ZNSt6vectorIN5telux3qmi15ProfileListInfoESaIS2_EED2Ev=so_stub_for_libtelux_qmi
-Wl,--defsym=_ZNSt6vectorISt10shared_ptrIN5telux3qmi12IQmiListenerEESaIS4_EE17_M_realloc_insertIJRS4_EEEvN9__gnu_cxx17__normal_iteratorIPS4_S6_EEDpOT_=so_stub_for_libtelux_qmi
-Wl,--defsym=_ZNSt6vectorISt10shared_ptrIN5telux3qmi12IQmiListenerEESaIS4_EED1Ev=so_stub_for_libtelux_qmi
-Wl,--defsym=_ZNSt6vectorISt10shared_ptrIN5telux3qmi12IQmiListenerEESaIS4_EED2Ev=so_stub_for_libtelux_qmi
-Wl,--defsym=_ZNSt6vectorISt8weak_ptrIN5telux3qmi12IQmiListenerEESaIS4_EE17_M_realloc_insertIJRS4_EEEvN9__gnu_cxx17__normal_iteratorIPS4_S6_EEDpOT_=so_stub_for_libtelux_qmi
-Wl,--defsym=_ZNSt6vectorISt8weak_ptrIN5telux3qmi12IQmiListenerEESaIS4_EE8_M_eraseEN9__gnu_cxx17__normal_iteratorIPS4_S6_EE=so_stub_for_libtelux_qmi
-Wl,--defsym=_ZNSt6vectorISt8weak_ptrIN5telux3qmi12IQmiListenerEESaIS4_EED1Ev=so_stub_for_libtelux_qmi
-Wl,--defsym=_ZNSt6vectorISt8weak_ptrIN5telux3qmi12IQmiListenerEESaIS4_EED2Ev=so_stub_for_libtelux_qmi
-Wl,--defsym=_ZNSt7__cxx1112basic_stringIcSt11char_traitsIcESaIcEE12_M_constructIPcEEvT_S7_St20forward_iterator_tag=so_stub_for_libtelux_qmi
-Wl,--defsym=_ZNSt7__cxx1112basic_stringIcSt11char_traitsIcESaIcEE12_M_constructIPKcEEvT_S8_St20forward_iterator_tag=so_stub_for_libtelux_qmi
-Wl,--defsym=_ZNSt8__detail9_Map_baseIiSt4pairIKiSt10shared_ptrIN5telux6common16ICommandCallbackEEESaIS8_ENS_10_Select1stESt8equal_toIiESt4hashIiENS_18_Mod_range_hashingENS_20_Default_ranged_hashENS_20_Prime_rehash_policyENS_17_Hashtable_traitsILb0ELb0ELb1EEELb1EEixERS2_=so_stub_for_libtelux_qmi
-Wl,--defsym=_ZNSt8functionIFviiEEC1ERKS1_=so_stub_for_libtelux_qmi
-Wl,--defsym=_ZNSt8functionIFviiEEC2ERKS1_=so_stub_for_libtelux_qmi
-Wl,--defsym=_ZNSt8functionIFviPviEEC1ERKS2_=so_stub_for_libtelux_qmi
-Wl,--defsym=_ZNSt8functionIFviPviEEC2ERKS2_=so_stub_for_libtelux_qmi
-Wl,--defsym=_ZNSt8functionIFvP24uim_get_eid_resp_msg_v01PviEEC1ERKS4_=so_stub_for_libtelux_qmi
-Wl,--defsym=_ZNSt8functionIFvP24uim_get_eid_resp_msg_v01PviEEC2ERKS4_=so_stub_for_libtelux_qmi
-Wl,--defsym=_ZNSt8functionIFvP28uim_add_profile_resp_msg_v01PviEEC1ERKS4_=so_stub_for_libtelux_qmi
-Wl,--defsym=_ZNSt8functionIFvP28uim_add_profile_resp_msg_v01PviEEC2ERKS4_=so_stub_for_libtelux_qmi
-Wl,--defsym=_ZNSt8functionIFvP28uim_remote_apdu_resp_msg_v01iPvEEC1ERKS4_=so_stub_for_libtelux_qmi
-Wl,--defsym=_ZNSt8functionIFvP28uim_remote_apdu_resp_msg_v01iPvEEC2ERKS4_=so_stub_for_libtelux_qmi
-Wl,--defsym=_ZNSt8functionIFvP29nas_get_sys_info_resp_msg_v01PviEEC1ERKS4_=so_stub_for_libtelux_qmi
-Wl,--defsym=_ZNSt8functionIFvP29nas_get_sys_info_resp_msg_v01PviEEC2ERKS4_=so_stub_for_libtelux_qmi
-Wl,--defsym=_ZNSt8functionIFvP29uim_remote_event_resp_msg_v01iPvEEC1ERKS4_=so_stub_for_libtelux_qmi
-Wl,--defsym=_ZNSt8functionIFvP29uim_remote_event_resp_msg_v01iPvEEC2ERKS4_=so_stub_for_libtelux_qmi
-Wl,--defsym=_ZNSt8functionIFvP29uim_remote_reset_resp_msg_v01iPvEEC1ERKS4_=so_stub_for_libtelux_qmi
-Wl,--defsym=_ZNSt8functionIFvP29uim_remote_reset_resp_msg_v01iPvEEC2ERKS4_=so_stub_for_libtelux_qmi
-Wl,--defsym=_ZNSt8functionIFvP31uim_delete_profile_resp_msg_v01PviEEC1ERKS4_=so_stub_for_libtelux_qmi
-Wl,--defsym=_ZNSt8functionIFvP31uim_delete_profile_resp_msg_v01PviEEC2ERKS4_=so_stub_for_libtelux_qmi
-Wl,--defsym=_ZNSt8functionIFvP32uim_get_sim_profile_resp_msg_v01PviEEC1ERKS4_=so_stub_for_libtelux_qmi
-Wl,--defsym=_ZNSt8functionIFvP32uim_get_sim_profile_resp_msg_v01PviEEC2ERKS4_=so_stub_for_libtelux_qmi
-Wl,--defsym=_ZNSt8functionIFvP32uim_set_sim_profile_resp_msg_v01PviEEC1ERKS4_=so_stub_for_libtelux_qmi
-Wl,--defsym=_ZNSt8functionIFvP32uim_set_sim_profile_resp_msg_v01PviEEC2ERKS4_=so_stub_for_libtelux_qmi
-Wl,--defsym=_ZNSt8functionIFvP33uim_get_profile_info_resp_msg_v01PviEEC1ERKS4_=so_stub_for_libtelux_qmi
-Wl,--defsym=_ZNSt8functionIFvP33uim_get_profile_info_resp_msg_v01PviEEC2ERKS4_=so_stub_for_libtelux_qmi
-Wl,--defsym=_ZNSt8functionIFvP33uim_get_slots_status_resp_msg_v01PviEEC1ERKS4_=so_stub_for_libtelux_qmi
-Wl,--defsym=_ZNSt8functionIFvP33uim_get_slots_status_resp_msg_v01PviEEC2ERKS4_=so_stub_for_libtelux_qmi
-Wl,--defsym=_ZNSt8functionIFvP33wms_set_event_report_resp_msg_v01PviEEC1ERKS4_=so_stub_for_libtelux_qmi
-Wl,--defsym=_ZNSt8functionIFvP33wms_set_event_report_resp_msg_v01PviEEC2ERKS4_=so_stub_for_libtelux_qmi
-Wl,--defsym=_ZNSt8functionIFvP36wms_indication_register_resp_msg_v01PviEEC1ERKS4_=so_stub_for_libtelux_qmi
-Wl,--defsym=_ZNSt8functionIFvP36wms_indication_register_resp_msg_v01PviEEC2ERKS4_=so_stub_for_libtelux_qmi
-Wl,--defsym=_ZNSt8functionIFvP37uim_profile_user_consent_resp_msg_v01PviEEC1ERKS4_=so_stub_for_libtelux_qmi
-Wl,--defsym=_ZNSt8functionIFvP37uim_profile_user_consent_resp_msg_v01PviEEC2ERKS4_=so_stub_for_libtelux_qmi
-Wl,--defsym=_ZNSt8functionIFvP37wms_get_broadcast_config_resp_msg_v01PviEEC1ERKS4_=so_stub_for_libtelux_qmi
-Wl,--defsym=_ZNSt8functionIFvP37wms_get_broadcast_config_resp_msg_v01PviEEC2ERKS4_=so_stub_for_libtelux_qmi
-Wl,--defsym=_ZNSt8functionIFvP37wms_set_broadcast_config_resp_msg_v01PviEEC1ERKS4_=so_stub_for_libtelux_qmi
-Wl,--defsym=_ZNSt8functionIFvP37wms_set_broadcast_config_resp_msg_v01PviEEC2ERKS4_=so_stub_for_libtelux_qmi
-Wl,--defsym=_ZNSt8functionIFvP40nas_get_high_capability_sub_resp_msg_v01PviEEC1ERKS4_=so_stub_for_libtelux_qmi
-Wl,--defsym=_ZNSt8functionIFvP40nas_get_high_capability_sub_resp_msg_v01PviEEC2ERKS4_=so_stub_for_libtelux_qmi
-Wl,--defsym=_ZNSt8functionIFvP40uim_update_profile_nickname_resp_msg_v01PviEEC1ERKS4_=so_stub_for_libtelux_qmi
-Wl,--defsym=_ZNSt8functionIFvP40uim_update_profile_nickname_resp_msg_v01PviEEC2ERKS4_=so_stub_for_libtelux_qmi
-Wl,--defsym=_ZNSt8functionIFvP41wms_set_broadcast_activation_resp_msg_v01PviEEC1ERKS4_=so_stub_for_libtelux_qmi
-Wl,--defsym=_ZNSt8functionIFvP41wms_set_broadcast_activation_resp_msg_v01PviEEC2ERKS4_=so_stub_for_libtelux_qmi
-Wl,--defsym=_ZNSt8functionIFvP48nas_get_system_selection_preference_resp_msg_v01PviEEC1ERKS4_=so_stub_for_libtelux_qmi
-Wl,--defsym=_ZNSt8functionIFvP48nas_get_system_selection_preference_resp_msg_v01PviEEC2ERKS4_=so_stub_for_libtelux_qmi
-Wl,--defsym=_ZNSt8_Rb_treeI6SlotIdSt4pairIKS0_St10shared_ptrIN5telux3qmi12WmsQmiClientEEESt10_Select1stIS8_ESt4lessIS0_ESaIS8_EE14_M_insert_nodeEPSt18_Rb_tree_node_baseSG_PSt13_Rb_tree_nodeIS8_E=so_stub_for_libtelux_qmi
-Wl,--defsym=_ZNSt8_Rb_treeI6SlotIdSt4pairIKS0_St10shared_ptrIN5telux3qmi12WmsQmiClientEEESt10_Select1stIS8_ESt4lessIS0_ESaIS8_EE17_M_emplace_uniqueIJRS0_RS7_EEES1_ISt17_Rb_tree_iteratorIS8_EbEDpOT_=so_stub_for_libtelux_qmi
-Wl,--defsym=_ZNSt8_Rb_treeI6SlotIdSt4pairIKS0_St10shared_ptrIN5telux3qmi12WmsQmiClientEEESt10_Select1stIS8_ESt4lessIS0_ESaIS8_EE22_M_emplace_hint_uniqueIJRKSt21piecewise_construct_tSt5tupleIJRS2_EESJ_IJEEEEESt17_Rb_tree_iteratorIS8_ESt23_Rb_tree_const_iteratorIS8_EDpOT_=so_stub_for_libtelux_qmi
-Wl,--defsym=_ZNSt8_Rb_treeI6SlotIdSt4pairIKS0_St10shared_ptrIN5telux3qmi12WmsQmiClientEEESt10_Select1stIS8_ESt4lessIS0_ESaIS8_EE24_M_get_insert_unique_posERS2_=so_stub_for_libtelux_qmi
-Wl,--defsym=_ZNSt8_Rb_treeI6SlotIdSt4pairIKS0_St10shared_ptrIN5telux3qmi12WmsQmiClientEEESt10_Select1stIS8_ESt4lessIS0_ESaIS8_EE29_M_get_insert_hint_unique_posESt23_Rb_tree_const_iteratorIS8_ERS2_=so_stub_for_libtelux_qmi
-Wl,--defsym=_ZNSt8_Rb_treeI6SlotIdSt4pairIKS0_St10shared_ptrIN5telux3qmi12WmsQmiClientEEESt10_Select1stIS8_ESt4lessIS0_ESaIS8_EE8_M_eraseEPSt13_Rb_tree_nodeIS8_E=so_stub_for_libtelux_qmi
-Wl,--defsym=_ZNSt8_Rb_treeIiSt4pairIKi21wds_pdp_type_enum_v01ESt10_Select1stIS3_ESt4lessIiESaIS3_EE14_M_insert_nodeEPSt18_Rb_tree_node_baseSB_PSt13_Rb_tree_nodeIS3_E=so_stub_for_libtelux_qmi
-Wl,--defsym=_ZNSt8_Rb_treeIiSt4pairIKi21wds_pdp_type_enum_v01ESt10_Select1stIS3_ESt4lessIiESaIS3_EE22_M_emplace_hint_uniqueIJRKSt21piecewise_construct_tSt5tupleIJOiEESE_IJEEEEESt17_Rb_tree_iteratorIS3_ESt23_Rb_tree_const_iteratorIS3_EDpOT_=so_stub_for_libtelux_qmi
-Wl,--defsym=_ZNSt8_Rb_treeIiSt4pairIKi21wds_pdp_type_enum_v01ESt10_Select1stIS3_ESt4lessIiESaIS3_EE22_M_emplace_hint_uniqueIJRKSt21piecewise_construct_tSt5tupleIJRS1_EESE_IJEEEEESt17_Rb_tree_iteratorIS3_ESt23_Rb_tree_const_iteratorIS3_EDpOT_=so_stub_for_libtelux_qmi
-Wl,--defsym=_ZNSt8_Rb_treeIiSt4pairIKi21wds_pdp_type_enum_v01ESt10_Select1stIS3_ESt4lessIiESaIS3_EE24_M_get_insert_unique_posERS1_=so_stub_for_libtelux_qmi
-Wl,--defsym=_ZNSt8_Rb_treeIiSt4pairIKi21wds_pdp_type_enum_v01ESt10_Select1stIS3_ESt4lessIiESaIS3_EE29_M_get_insert_hint_unique_posESt23_Rb_tree_const_iteratorIS3_ERS1_=so_stub_for_libtelux_qmi
-Wl,--defsym=_ZNSt8_Rb_treeIiSt4pairIKi21wds_pdp_type_enum_v01ESt10_Select1stIS3_ESt4lessIiESaIS3_EE8_M_eraseEPSt13_Rb_tree_nodeIS3_E=so_stub_for_libtelux_qmi
-Wl,--defsym=_ZNSt8_Rb_treeIiSt4pairIKi25wds_profile_type_enum_v01ESt10_Select1stIS3_ESt4lessIiESaIS3_EE14_M_insert_nodeEPSt18_Rb_tree_node_baseSB_PSt13_Rb_tree_nodeIS3_E=so_stub_for_libtelux_qmi
-Wl,--defsym=_ZNSt8_Rb_treeIiSt4pairIKi25wds_profile_type_enum_v01ESt10_Select1stIS3_ESt4lessIiESaIS3_EE22_M_emplace_hint_uniqueIJRKSt21piecewise_construct_tSt5tupleIJOiEESE_IJEEEEESt17_Rb_tree_iteratorIS3_ESt23_Rb_tree_const_iteratorIS3_EDpOT_=so_stub_for_libtelux_qmi
-Wl,--defsym=_ZNSt8_Rb_treeIiSt4pairIKi25wds_profile_type_enum_v01ESt10_Select1stIS3_ESt4lessIiESaIS3_EE22_M_emplace_hint_uniqueIJRKSt21piecewise_construct_tSt5tupleIJRS1_EESE_IJEEEEESt17_Rb_tree_iteratorIS3_ESt23_Rb_tree_const_iteratorIS3_EDpOT_=so_stub_for_libtelux_qmi
-Wl,--defsym=_ZNSt8_Rb_treeIiSt4pairIKi25wds_profile_type_enum_v01ESt10_Select1stIS3_ESt4lessIiESaIS3_EE24_M_get_insert_unique_posERS1_=so_stub_for_libtelux_qmi
-Wl,--defsym=_ZNSt8_Rb_treeIiSt4pairIKi25wds_profile_type_enum_v01ESt10_Select1stIS3_ESt4lessIiESaIS3_EE29_M_get_insert_hint_unique_posESt23_Rb_tree_const_iteratorIS3_ERS1_=so_stub_for_libtelux_qmi
-Wl,--defsym=_ZNSt8_Rb_treeIiSt4pairIKi25wds_profile_type_enum_v01ESt10_Select1stIS3_ESt4lessIiESaIS3_EE8_M_eraseEPSt13_Rb_tree_nodeIS3_E=so_stub_for_libtelux_qmi
-Wl,--defsym=_ZNSt8_Rb_treeIiSt4pairIKi34wds_profile_auth_protocol_enum_v01ESt10_Select1stIS3_ESt4lessIiESaIS3_EE14_M_insert_nodeEPSt18_Rb_tree_node_baseSB_PSt13_Rb_tree_nodeIS3_E=so_stub_for_libtelux_qmi
-Wl,--defsym=_ZNSt8_Rb_treeIiSt4pairIKi34wds_profile_auth_protocol_enum_v01ESt10_Select1stIS3_ESt4lessIiESaIS3_EE22_M_emplace_hint_uniqueIJRKSt21piecewise_construct_tSt5tupleIJOiEESE_IJEEEEESt17_Rb_tree_iteratorIS3_ESt23_Rb_tree_const_iteratorIS3_EDpOT_=so_stub_for_libtelux_qmi
-Wl,--defsym=_ZNSt8_Rb_treeIiSt4pairIKi34wds_profile_auth_protocol_enum_v01ESt10_Select1stIS3_ESt4lessIiESaIS3_EE22_M_emplace_hint_uniqueIJRKSt21piecewise_construct_tSt5tupleIJRS1_EESE_IJEEEEESt17_Rb_tree_iteratorIS3_ESt23_Rb_tree_const_iteratorIS3_EDpOT_=so_stub_for_libtelux_qmi
-Wl,--defsym=_ZNSt8_Rb_treeIiSt4pairIKi34wds_profile_auth_protocol_enum_v01ESt10_Select1stIS3_ESt4lessIiESaIS3_EE24_M_get_insert_unique_posERS1_=so_stub_for_libtelux_qmi
-Wl,--defsym=_ZNSt8_Rb_treeIiSt4pairIKi34wds_profile_auth_protocol_enum_v01ESt10_Select1stIS3_ESt4lessIiESaIS3_EE29_M_get_insert_hint_unique_posESt23_Rb_tree_const_iteratorIS3_ERS1_=so_stub_for_libtelux_qmi
-Wl,--defsym=_ZNSt8_Rb_treeIiSt4pairIKi34wds_profile_auth_protocol_enum_v01ESt10_Select1stIS3_ESt4lessIiESaIS3_EE8_M_eraseEPSt13_Rb_tree_nodeIS3_E=so_stub_for_libtelux_qmi
-Wl,--defsym=_ZNSt8_Rb_treeIiSt4pairIKiSt10shared_ptrIN5telux3qmi12DmsQmiClientEEESt10_Select1stIS7_ESt4lessIiESaIS7_EE14_M_insert_nodeEPSt18_Rb_tree_node_baseSF_PSt13_Rb_tree_nodeIS7_E=so_stub_for_libtelux_qmi
-Wl,--defsym=_ZNSt8_Rb_treeIiSt4pairIKiSt10shared_ptrIN5telux3qmi12DmsQmiClientEEESt10_Select1stIS7_ESt4lessIiESaIS7_EE17_M_emplace_uniqueIJRiRS6_EEES0_ISt17_Rb_tree_iteratorIS7_EbEDpOT_=so_stub_for_libtelux_qmi
-Wl,--defsym=_ZNSt8_Rb_treeIiSt4pairIKiSt10shared_ptrIN5telux3qmi12DmsQmiClientEEESt10_Select1stIS7_ESt4lessIiESaIS7_EE22_M_emplace_hint_uniqueIJRKSt21piecewise_construct_tSt5tupleIJRS1_EESI_IJEEEEESt17_Rb_tree_iteratorIS7_ESt23_Rb_tree_const_iteratorIS7_EDpOT_=so_stub_for_libtelux_qmi
-Wl,--defsym=_ZNSt8_Rb_treeIiSt4pairIKiSt10shared_ptrIN5telux3qmi12DmsQmiClientEEESt10_Select1stIS7_ESt4lessIiESaIS7_EE24_M_get_insert_unique_posERS1_=so_stub_for_libtelux_qmi
-Wl,--defsym=_ZNSt8_Rb_treeIiSt4pairIKiSt10shared_ptrIN5telux3qmi12DmsQmiClientEEESt10_Select1stIS7_ESt4lessIiESaIS7_EE29_M_get_insert_hint_unique_posESt23_Rb_tree_const_iteratorIS7_ERS1_=so_stub_for_libtelux_qmi
-Wl,--defsym=_ZNSt8_Rb_treeIiSt4pairIKiSt10shared_ptrIN5telux3qmi12DmsQmiClientEEESt10_Select1stIS7_ESt4lessIiESaIS7_EE8_M_eraseEPSt13_Rb_tree_nodeIS7_E=so_stub_for_libtelux_qmi
-Wl,--defsym=_ZNSt8_Rb_treeIiSt4pairIKiSt10shared_ptrIN5telux3qmi12NasQmiClientEEESt10_Select1stIS7_ESt4lessIiESaIS7_EE14_M_insert_nodeEPSt18_Rb_tree_node_baseSF_PSt13_Rb_tree_nodeIS7_E=so_stub_for_libtelux_qmi
-Wl,--defsym=_ZNSt8_Rb_treeIiSt4pairIKiSt10shared_ptrIN5telux3qmi12NasQmiClientEEESt10_Select1stIS7_ESt4lessIiESaIS7_EE17_M_emplace_uniqueIJRiRS6_EEES0_ISt17_Rb_tree_iteratorIS7_EbEDpOT_=so_stub_for_libtelux_qmi
-Wl,--defsym=_ZNSt8_Rb_treeIiSt4pairIKiSt10shared_ptrIN5telux3qmi12NasQmiClientEEESt10_Select1stIS7_ESt4lessIiESaIS7_EE22_M_emplace_hint_uniqueIJRKSt21piecewise_construct_tSt5tupleIJRS1_EESI_IJEEEEESt17_Rb_tree_iteratorIS7_ESt23_Rb_tree_const_iteratorIS7_EDpOT_=so_stub_for_libtelux_qmi
-Wl,--defsym=_ZNSt8_Rb_treeIiSt4pairIKiSt10shared_ptrIN5telux3qmi12NasQmiClientEEESt10_Select1stIS7_ESt4lessIiESaIS7_EE24_M_get_insert_unique_posERS1_=so_stub_for_libtelux_qmi
-Wl,--defsym=_ZNSt8_Rb_treeIiSt4pairIKiSt10shared_ptrIN5telux3qmi12NasQmiClientEEESt10_Select1stIS7_ESt4lessIiESaIS7_EE29_M_get_insert_hint_unique_posESt23_Rb_tree_const_iteratorIS7_ERS1_=so_stub_for_libtelux_qmi
-Wl,--defsym=_ZNSt8_Rb_treeIiSt4pairIKiSt10shared_ptrIN5telux3qmi12NasQmiClientEEESt10_Select1stIS7_ESt4lessIiESaIS7_EE8_M_eraseEPSt13_Rb_tree_nodeIS7_E=so_stub_for_libtelux_qmi
-Wl,--defsym=_ZNSt8_Rb_treeIiSt4pairIKiSt10shared_ptrIN5telux3qmi12WdsQmiClientEEESt10_Select1stIS7_ESt4lessIiESaIS7_EE14_M_insert_nodeEPSt18_Rb_tree_node_baseSF_PSt13_Rb_tree_nodeIS7_E=so_stub_for_libtelux_qmi
-Wl,--defsym=_ZNSt8_Rb_treeIiSt4pairIKiSt10shared_ptrIN5telux3qmi12WdsQmiClientEEESt10_Select1stIS7_ESt4lessIiESaIS7_EE17_M_emplace_uniqueIJR6SlotIdRS6_EEES0_ISt17_Rb_tree_iteratorIS7_EbEDpOT_=so_stub_for_libtelux_qmi
-Wl,--defsym=_ZNSt8_Rb_treeIiSt4pairIKiSt10shared_ptrIN5telux3qmi12WdsQmiClientEEESt10_Select1stIS7_ESt4lessIiESaIS7_EE22_M_emplace_hint_uniqueIJRKSt21piecewise_construct_tSt5tupleIJOiEESI_IJEEEEESt17_Rb_tree_iteratorIS7_ESt23_Rb_tree_const_iteratorIS7_EDpOT_=so_stub_for_libtelux_qmi
-Wl,--defsym=_ZNSt8_Rb_treeIiSt4pairIKiSt10shared_ptrIN5telux3qmi12WdsQmiClientEEESt10_Select1stIS7_ESt4lessIiESaIS7_EE24_M_get_insert_unique_posERS1_=so_stub_for_libtelux_qmi
-Wl,--defsym=_ZNSt8_Rb_treeIiSt4pairIKiSt10shared_ptrIN5telux3qmi12WdsQmiClientEEESt10_Select1stIS7_ESt4lessIiESaIS7_EE29_M_get_insert_hint_unique_posESt23_Rb_tree_const_iteratorIS7_ERS1_=so_stub_for_libtelux_qmi
-Wl,--defsym=_ZNSt8_Rb_treeIiSt4pairIKiSt10shared_ptrIN5telux3qmi12WdsQmiClientEEESt10_Select1stIS7_ESt4lessIiESaIS7_EE8_M_eraseEPSt13_Rb_tree_nodeIS7_E=so_stub_for_libtelux_qmi
-Wl,--defsym=_ZNSt8_Rb_treeIiSt4pairIKiSt10shared_ptrIN5telux3qmi14VoiceQmiClientEEESt10_Select1stIS7_ESt4lessIiESaIS7_EE14_M_insert_nodeEPSt18_Rb_tree_node_baseSF_PSt13_Rb_tree_nodeIS7_E=so_stub_for_libtelux_qmi
-Wl,--defsym=_ZNSt8_Rb_treeIiSt4pairIKiSt10shared_ptrIN5telux3qmi14VoiceQmiClientEEESt10_Select1stIS7_ESt4lessIiESaIS7_EE17_M_emplace_uniqueIJRiRS6_EEES0_ISt17_Rb_tree_iteratorIS7_EbEDpOT_=so_stub_for_libtelux_qmi
-Wl,--defsym=_ZNSt8_Rb_treeIiSt4pairIKiSt10shared_ptrIN5telux3qmi14VoiceQmiClientEEESt10_Select1stIS7_ESt4lessIiESaIS7_EE22_M_emplace_hint_uniqueIJRKSt21piecewise_construct_tSt5tupleIJRS1_EESI_IJEEEEESt17_Rb_tree_iteratorIS7_ESt23_Rb_tree_const_iteratorIS7_EDpOT_=so_stub_for_libtelux_qmi
-Wl,--defsym=_ZNSt8_Rb_treeIiSt4pairIKiSt10shared_ptrIN5telux3qmi14VoiceQmiClientEEESt10_Select1stIS7_ESt4lessIiESaIS7_EE24_M_get_insert_unique_posERS1_=so_stub_for_libtelux_qmi
-Wl,--defsym=_ZNSt8_Rb_treeIiSt4pairIKiSt10shared_ptrIN5telux3qmi14VoiceQmiClientEEESt10_Select1stIS7_ESt4lessIiESaIS7_EE29_M_get_insert_hint_unique_posESt23_Rb_tree_const_iteratorIS7_ERS1_=so_stub_for_libtelux_qmi
-Wl,--defsym=_ZNSt8_Rb_treeIiSt4pairIKiSt10shared_ptrIN5telux3qmi14VoiceQmiClientEEESt10_Select1stIS7_ESt4lessIiESaIS7_EE8_M_eraseEPSt13_Rb_tree_nodeIS7_E=so_stub_for_libtelux_qmi
-Wl,--defsym=_ZSt13move_backwardISt13shared_futureIvEESt15_Deque_iteratorIT_RS3_PS3_ES2_IS3_RKS3_PS7_ESA_S6_=so_stub_for_libtelux_qmi
-Wl,--defsym=_ZSt18make_exception_ptrISt12future_errorENSt15__exception_ptr13exception_ptrET_=so_stub_for_libtelux_qmi
-Wl,--defsym=_ZSt20dynamic_pointer_castIN5telux3qmi15IQmiDmsListenerENS1_12IQmiListenerEESt10shared_ptrIT_ERKS4_IT0_E=so_stub_for_libtelux_qmi
-Wl,--defsym=_ZSt20dynamic_pointer_castIN5telux3qmi15IQmiNasListenerENS1_12IQmiListenerEESt10shared_ptrIT_ERKS4_IT0_E=so_stub_for_libtelux_qmi
-Wl,--defsym=_ZSt20dynamic_pointer_castIN5telux3qmi15IQmiUimListenerENS1_12IQmiListenerEESt10shared_ptrIT_ERKS4_IT0_E=so_stub_for_libtelux_qmi
-Wl,--defsym=_ZSt20dynamic_pointer_castIN5telux3qmi15IQmiWdsListenerENS1_12IQmiListenerEESt10shared_ptrIT_ERKS4_IT0_E=so_stub_for_libtelux_qmi
-Wl,--defsym=_ZSt20dynamic_pointer_castIN5telux3qmi15IQmiWmsListenerENS1_12IQmiListenerEESt10shared_ptrIT_ERKS4_IT0_E=so_stub_for_libtelux_qmi
-Wl,--defsym=_ZSt20dynamic_pointer_castIN5telux3qmi17IQmiVoiceListenerENS1_12IQmiListenerEESt10shared_ptrIT_ERKS4_IT0_E=so_stub_for_libtelux_qmi
-Wl,--defsym=_ZSt20dynamic_pointer_castIN5telux3qmi19IQmiV2xStopCallbackENS0_6common16ICommandCallbackEESt10shared_ptrIT_ERKS5_IT0_E=so_stub_for_libtelux_qmi
-Wl,--defsym=_ZSt20dynamic_pointer_castIN5telux3qmi20IQmiResponseCallbackENS0_6common16ICommandCallbackEESt10shared_ptrIT_ERKS5_IT0_E=so_stub_for_libtelux_qmi
-Wl,--defsym=_ZSt20dynamic_pointer_castIN5telux3qmi20IQmiSetPeakTxPowerCbENS0_6common16ICommandCallbackEESt10shared_ptrIT_ERKS5_IT0_E=so_stub_for_libtelux_qmi
-Wl,--defsym=_ZSt20dynamic_pointer_castIN5telux3qmi20IQmiV2xStartCallbackENS0_6common16ICommandCallbackEESt10shared_ptrIT_ERKS5_IT0_E=so_stub_for_libtelux_qmi
-Wl,--defsym=_ZSt20dynamic_pointer_castIN5telux3qmi21IQmiAudioPlayListenerENS1_12IQmiListenerEESt10shared_ptrIT_ERKS4_IT0_E=so_stub_for_libtelux_qmi
-Wl,--defsym=_ZSt20dynamic_pointer_castIN5telux3qmi21IQmiUimRemoteListenerENS1_12IQmiListenerEESt10shared_ptrIT_ERKS4_IT0_E=so_stub_for_libtelux_qmi
-Wl,--defsym=_ZSt20dynamic_pointer_castIN5telux3qmi21IQmiV2xStatusCallbackENS0_6common16ICommandCallbackEESt10shared_ptrIT_ERKS5_IT0_E=so_stub_for_libtelux_qmi
-Wl,--defsym=_ZSt20dynamic_pointer_castIN5telux3qmi23IQmiModemConfigListenerENS1_12IQmiListenerEESt10shared_ptrIT_ERKS4_IT0_E=so_stub_for_libtelux_qmi
-Wl,--defsym=_ZSt20dynamic_pointer_castIN5telux3qmi23IQmiTcuActivityListenerENS1_12IQmiListenerEESt10shared_ptrIT_ERKS4_IT0_E=so_stub_for_libtelux_qmi
-Wl,--defsym=_ZSt20dynamic_pointer_castIN5telux3qmi24IQmiAudioServiceListenerENS1_12IQmiListenerEESt10shared_ptrIT_ERKS4_IT0_E=so_stub_for_libtelux_qmi
-Wl,--defsym=_ZSt20dynamic_pointer_castIN5telux3qmi27IQmiCommandResponseCallbackENS0_6common16ICommandCallbackEESt10shared_ptrIT_ERKS5_IT0_E=so_stub_for_libtelux_qmi
-Wl,--defsym=_ZSt20dynamic_pointer_castIN5telux3qmi28IQmiAutoShutdownModeListenerENS1_12IQmiListenerEESt10shared_ptrIT_ERKS4_IT0_E=so_stub_for_libtelux_qmi
-Wl,--defsym=_ZSt20dynamic_pointer_castIN5telux3qmi28IQmiRegisterListenerCallbackENS0_6common16ICommandCallbackEESt10shared_ptrIT_ERKS5_IT0_E=so_stub_for_libtelux_qmi
-Wl,--defsym=_ZSt20dynamic_pointer_castIN5telux3qmi28IQmiWdsCreateProfileCallbackENS0_6common16ICommandCallbackEESt10shared_ptrIT_ERKS5_IT0_E=so_stub_for_libtelux_qmi
-Wl,--defsym=_ZSt20dynamic_pointer_castIN5telux3qmi29IQmiWdsGetProfileListCallbackENS0_6common16ICommandCallbackEESt10shared_ptrIT_ERKS5_IT0_E=so_stub_for_libtelux_qmi
-Wl,--defsym=_ZSt20dynamic_pointer_castIN5telux3qmi29IQmiWdsV2xSpsFlowInfoCallbackENS0_6common16ICommandCallbackEESt10shared_ptrIT_ERKS5_IT0_E=so_stub_for_libtelux_qmi
-Wl,--defsym=_ZSt20dynamic_pointer_castIN5telux3qmi30IQmiNasRegisterForIndsCallbackENS0_6common16ICommandCallbackEESt10shared_ptrIT_ERKS5_IT0_E=so_stub_for_libtelux_qmi
-Wl,--defsym=_ZSt20dynamic_pointer_castIN5telux3qmi30IQmiTmdMitigationLevelListenerENS1_12IQmiListenerEESt10shared_ptrIT_ERKS4_IT0_E=so_stub_for_libtelux_qmi
-Wl,--defsym=_ZSt20dynamic_pointer_castIN5telux3qmi30IQmiWdsRuntimeSettingsCallbackENS0_6common16ICommandCallbackEESt10shared_ptrIT_ERKS5_IT0_E=so_stub_for_libtelux_qmi
-Wl,--defsym=_ZSt20dynamic_pointer_castIN5telux3qmi32IQmiWdsV2xCapabilityInfoCallbackENS0_6common16ICommandCallbackEESt10shared_ptrIT_ERKS5_IT0_E=so_stub_for_libtelux_qmi
-Wl,--defsym=_ZSt20dynamic_pointer_castIN5telux3qmi33IQmiWdsGetProfileSettingsCallbackENS0_6common16ICommandCallbackEESt10shared_ptrIT_ERKS5_IT0_E=so_stub_for_libtelux_qmi
-Wl,--defsym=_ZSt20dynamic_pointer_castIN5telux3qmi33IQmiWdsV2xConfigRetrievalCallbackENS0_6common16ICommandCallbackEESt10shared_ptrIT_ERKS5_IT0_E=so_stub_for_libtelux_qmi
-Wl,--defsym=_ZSt20dynamic_pointer_castIN5telux3qmi34IQmiRegisterNasIndicationsCallbackENS0_6common16ICommandCallbackEESt10shared_ptrIT_ERKS5_IT0_E=so_stub_for_libtelux_qmi
-Wl,--defsym=_ZSt4moveISt13shared_futureIvEESt15_Deque_iteratorIT_RS3_PS3_ES6_S6_S6_=so_stub_for_libtelux_qmi
-Wl,--defsym=_ZSteqRKSt10error_codeRKSt15error_condition=so_stub_for_libtelux_qmi
-Wl,--defsym=_ZTIN5telux3qmi12DmsQmiClientE=so_stub_for_libtelux_qmi
-Wl,--defsym=_ZTIN5telux3qmi12IQmiListenerE=so_stub_for_libtelux_qmi
-Wl,--defsym=_ZTIN5telux3qmi12NasQmiClientE=so_stub_for_libtelux_qmi
-Wl,--defsym=_ZTIN5telux3qmi12TmdQmiClientE=so_stub_for_libtelux_qmi
-Wl,--defsym=_ZTIN5telux3qmi12UimQmiClientE=so_stub_for_libtelux_qmi
-Wl,--defsym=_ZTIN5telux3qmi12WdsQmiClientE=so_stub_for_libtelux_qmi
-Wl,--defsym=_ZTIN5telux3qmi12WmsQmiClientE=so_stub_for_libtelux_qmi
-Wl,--defsym=_ZTIN5telux3qmi14AudioQmiClientE=so_stub_for_libtelux_qmi
-Wl,--defsym=_ZTIN5telux3qmi14PowerQmiClientE=so_stub_for_libtelux_qmi
-Wl,--defsym=_ZTIN5telux3qmi14TsensQmiClientE=so_stub_for_libtelux_qmi
-Wl,--defsym=_ZTIN5telux3qmi14VoiceQmiClientE=so_stub_for_libtelux_qmi
-Wl,--defsym=_ZTIN5telux3qmi15IQmiDmsListenerE=so_stub_for_libtelux_qmi
-Wl,--defsym=_ZTIN5telux3qmi15IQmiNasListenerE=so_stub_for_libtelux_qmi
-Wl,--defsym=_ZTIN5telux3qmi15IQmiUimListenerE=so_stub_for_libtelux_qmi
-Wl,--defsym=_ZTIN5telux3qmi15IQmiWdsListenerE=so_stub_for_libtelux_qmi
-Wl,--defsym=_ZTIN5telux3qmi15IQmiWmsListenerE=so_stub_for_libtelux_qmi
-Wl,--defsym=_ZTIN5telux3qmi17IQmiVoiceListenerE=so_stub_for_libtelux_qmi
-Wl,--defsym=_ZTIN5telux3qmi18UimRemoteQmiClientE=so_stub_for_libtelux_qmi
-Wl,--defsym=_ZTIN5telux3qmi19IQmiV2xStopCallbackE=so_stub_for_libtelux_qmi
-Wl,--defsym=_ZTIN5telux3qmi20IQmiResponseCallbackE=so_stub_for_libtelux_qmi
-Wl,--defsym=_ZTIN5telux3qmi20IQmiSetPeakTxPowerCbE=so_stub_for_libtelux_qmi
-Wl,--defsym=_ZTIN5telux3qmi20IQmiV2xStartCallbackE=so_stub_for_libtelux_qmi
-Wl,--defsym=_ZTIN5telux3qmi20ModemConfigQmiClientE=so_stub_for_libtelux_qmi
-Wl,--defsym=_ZTIN5telux3qmi21IQmiAudioPlayListenerE=so_stub_for_libtelux_qmi
-Wl,--defsym=_ZTIN5telux3qmi21IQmiUimRemoteListenerE=so_stub_for_libtelux_qmi
-Wl,--defsym=_ZTIN5telux3qmi21IQmiV2xStatusCallbackE=so_stub_for_libtelux_qmi
-Wl,--defsym=_ZTIN5telux3qmi23IQmiModemConfigListenerE=so_stub_for_libtelux_qmi
-Wl,--defsym=_ZTIN5telux3qmi23IQmiTcuActivityListenerE=so_stub_for_libtelux_qmi
-Wl,--defsym=_ZTIN5telux3qmi24IQmiAudioServiceListenerE=so_stub_for_libtelux_qmi
-Wl,--defsym=_ZTIN5telux3qmi27IQmiCommandResponseCallbackE=so_stub_for_libtelux_qmi
-Wl,--defsym=_ZTIN5telux3qmi28IQmiAutoShutdownModeListenerE=so_stub_for_libtelux_qmi
-Wl,--defsym=_ZTIN5telux3qmi28IQmiRegisterListenerCallbackE=so_stub_for_libtelux_qmi
-Wl,--defsym=_ZTIN5telux3qmi28IQmiWdsCreateProfileCallbackE=so_stub_for_libtelux_qmi
-Wl,--defsym=_ZTIN5telux3qmi29IQmiWdsGetProfileListCallbackE=so_stub_for_libtelux_qmi
-Wl,--defsym=_ZTIN5telux3qmi29IQmiWdsV2xSpsFlowInfoCallbackE=so_stub_for_libtelux_qmi
-Wl,--defsym=_ZTIN5telux3qmi30IQmiNasRegisterForIndsCallbackE=so_stub_for_libtelux_qmi
-Wl,--defsym=_ZTIN5telux3qmi30IQmiTmdMitigationLevelListenerE=so_stub_for_libtelux_qmi
-Wl,--defsym=_ZTIN5telux3qmi30IQmiWdsRuntimeSettingsCallbackE=so_stub_for_libtelux_qmi
-Wl,--defsym=_ZTIN5telux3qmi32IQmiWdsV2xCapabilityInfoCallbackE=so_stub_for_libtelux_qmi
-Wl,--defsym=_ZTIN5telux3qmi33IQmiWdsGetProfileSettingsCallbackE=so_stub_for_libtelux_qmi
-Wl,--defsym=_ZTIN5telux3qmi33IQmiWdsV2xConfigRetrievalCallbackE=so_stub_for_libtelux_qmi
-Wl,--defsym=_ZTIN5telux3qmi34IQmiRegisterNasIndicationsCallbackE=so_stub_for_libtelux_qmi
-Wl,--defsym=_ZTIN5telux3qmi9QmiClientE=so_stub_for_libtelux_qmi
-Wl,--defsym=_ZTIN5telux6common16ICommandCallbackE=so_stub_for_libtelux_qmi
-Wl,--defsym=_ZTIN5telux6common18FunctionalCallbackIJiiEEE=so_stub_for_libtelux_qmi
-Wl,--defsym=_ZTIN5telux6common18FunctionalCallbackIJiPviEEE=so_stub_for_libtelux_qmi
-Wl,--defsym=_ZTIN5telux6common18FunctionalCallbackIJP24uim_get_eid_resp_msg_v01PviEEE=so_stub_for_libtelux_qmi
-Wl,--defsym=_ZTIN5telux6common18FunctionalCallbackIJP28uim_add_profile_resp_msg_v01PviEEE=so_stub_for_libtelux_qmi
-Wl,--defsym=_ZTIN5telux6common18FunctionalCallbackIJP28uim_remote_apdu_resp_msg_v01iPvEEE=so_stub_for_libtelux_qmi
-Wl,--defsym=_ZTIN5telux6common18FunctionalCallbackIJP29nas_get_sys_info_resp_msg_v01PviEEE=so_stub_for_libtelux_qmi
-Wl,--defsym=_ZTIN5telux6common18FunctionalCallbackIJP29uim_remote_event_resp_msg_v01iPvEEE=so_stub_for_libtelux_qmi
-Wl,--defsym=_ZTIN5telux6common18FunctionalCallbackIJP29uim_remote_reset_resp_msg_v01iPvEEE=so_stub_for_libtelux_qmi
-Wl,--defsym=_ZTIN5telux6common18FunctionalCallbackIJP31uim_delete_profile_resp_msg_v01PviEEE=so_stub_for_libtelux_qmi
-Wl,--defsym=_ZTIN5telux6common18FunctionalCallbackIJP32uim_get_sim_profile_resp_msg_v01PviEEE=so_stub_for_libtelux_qmi
-Wl,--defsym=_ZTIN5telux6common18FunctionalCallbackIJP32uim_set_sim_profile_resp_msg_v01PviEEE=so_stub_for_libtelux_qmi
-Wl,--defsym=_ZTIN5telux6common18FunctionalCallbackIJP33uim_get_profile_info_resp_msg_v01PviEEE=so_stub_for_libtelux_qmi
-Wl,--defsym=_ZTIN5telux6common18FunctionalCallbackIJP33uim_get_slots_status_resp_msg_v01PviEEE=so_stub_for_libtelux_qmi
-Wl,--defsym=_ZTIN5telux6common18FunctionalCallbackIJP33wms_set_event_report_resp_msg_v01PviEEE=so_stub_for_libtelux_qmi
-Wl,--defsym=_ZTIN5telux6common18FunctionalCallbackIJP36wms_indication_register_resp_msg_v01PviEEE=so_stub_for_libtelux_qmi
-Wl,--defsym=_ZTIN5telux6common18FunctionalCallbackIJP37uim_profile_user_consent_resp_msg_v01PviEEE=so_stub_for_libtelux_qmi
-Wl,--defsym=_ZTIN5telux6common18FunctionalCallbackIJP37wms_get_broadcast_config_resp_msg_v01PviEEE=so_stub_for_libtelux_qmi
-Wl,--defsym=_ZTIN5telux6common18FunctionalCallbackIJP37wms_set_broadcast_config_resp_msg_v01PviEEE=so_stub_for_libtelux_qmi
-Wl,--defsym=_ZTIN5telux6common18FunctionalCallbackIJP40nas_get_high_capability_sub_resp_msg_v01PviEEE=so_stub_for_libtelux_qmi
-Wl,--defsym=_ZTIN5telux6common18FunctionalCallbackIJP40uim_update_profile_nickname_resp_msg_v01PviEEE=so_stub_for_libtelux_qmi
-Wl,--defsym=_ZTIN5telux6common18FunctionalCallbackIJP41wms_set_broadcast_activation_resp_msg_v01PviEEE=so_stub_for_libtelux_qmi
-Wl,--defsym=_ZTIN5telux6common18FunctionalCallbackIJP48nas_get_system_selection_preference_resp_msg_v01PviEEE=so_stub_for_libtelux_qmi
-Wl,--defsym=_ZTINSt13__future_base13_State_baseV2E=so_stub_for_libtelux_qmi
-Wl,--defsym=_ZTINSt13__future_base16_Task_state_baseIFvvEEE=so_stub_for_libtelux_qmi
-Wl,--defsym=_ZTINSt13__future_base21_Async_state_commonV2E=so_stub_for_libtelux_qmi
-Wl,--defsym=_ZTINSt13__future_base7_ResultIbEE=so_stub_for_libtelux_qmi
-Wl,--defsym=_ZTINSt13__future_base7_ResultIvEE=so_stub_for_libtelux_qmi
-Wl,--defsym=_ZTISt11_Mutex_baseILN9__gnu_cxx12_Lock_policyE2EE=so_stub_for_libtelux_qmi
-Wl,--defsym=_ZTISt16_Sp_counted_baseILN9__gnu_cxx12_Lock_policyE2EE=so_stub_for_libtelux_qmi
-Wl,--defsym=_ZTISt19_Sp_make_shared_tag=so_stub_for_libtelux_qmi
-Wl,--defsym=_ZTISt23_Sp_counted_ptr_inplaceIN5telux3qmi12DmsQmiClientESaIS2_ELN9__gnu_cxx12_Lock_policyE2EE=so_stub_for_libtelux_qmi
-Wl,--defsym=_ZTISt23_Sp_counted_ptr_inplaceIN5telux3qmi12NasQmiClientESaIS2_ELN9__gnu_cxx12_Lock_policyE2EE=so_stub_for_libtelux_qmi
-Wl,--defsym=_ZTISt23_Sp_counted_ptr_inplaceIN5telux3qmi12TmdQmiClientESaIS2_ELN9__gnu_cxx12_Lock_policyE2EE=so_stub_for_libtelux_qmi
-Wl,--defsym=_ZTISt23_Sp_counted_ptr_inplaceIN5telux3qmi12UimQmiClientESaIS2_ELN9__gnu_cxx12_Lock_policyE2EE=so_stub_for_libtelux_qmi
-Wl,--defsym=_ZTISt23_Sp_counted_ptr_inplaceIN5telux3qmi12WdsQmiClientESaIS2_ELN9__gnu_cxx12_Lock_policyE2EE=so_stub_for_libtelux_qmi
-Wl,--defsym=_ZTISt23_Sp_counted_ptr_inplaceIN5telux3qmi12WmsQmiClientESaIS2_ELN9__gnu_cxx12_Lock_policyE2EE=so_stub_for_libtelux_qmi
-Wl,--defsym=_ZTISt23_Sp_counted_ptr_inplaceIN5telux3qmi14AudioQmiClientESaIS2_ELN9__gnu_cxx12_Lock_policyE2EE=so_stub_for_libtelux_qmi
-Wl,--defsym=_ZTISt23_Sp_counted_ptr_inplaceIN5telux3qmi14PowerQmiClientESaIS2_ELN9__gnu_cxx12_Lock_policyE2EE=so_stub_for_libtelux_qmi
-Wl,--defsym=_ZTISt23_Sp_counted_ptr_inplaceIN5telux3qmi14TsensQmiClientESaIS2_ELN9__gnu_cxx12_Lock_policyE2EE=so_stub_for_libtelux_qmi
-Wl,--defsym=_ZTISt23_Sp_counted_ptr_inplaceIN5telux3qmi14VoiceQmiClientESaIS2_ELN9__gnu_cxx12_Lock_policyE2EE=so_stub_for_libtelux_qmi
-Wl,--defsym=_ZTISt23_Sp_counted_ptr_inplaceIN5telux3qmi18UimRemoteQmiClientESaIS2_ELN9__gnu_cxx12_Lock_policyE2EE=so_stub_for_libtelux_qmi
-Wl,--defsym=_ZTISt23_Sp_counted_ptr_inplaceIN5telux3qmi20ModemConfigQmiClientESaIS2_ELN9__gnu_cxx12_Lock_policyE2EE=so_stub_for_libtelux_qmi
-Wl,--defsym=_ZTISt23_Sp_counted_ptr_inplaceIN5telux3qmi9QmiClient12ServiceParamESaIS3_ELN9__gnu_cxx12_Lock_policyE2EE=so_stub_for_libtelux_qmi
-Wl,--defsym=_ZTISt23_Sp_counted_ptr_inplaceIN5telux6common18FunctionalCallbackIJiiEEESaIS3_ELN9__gnu_cxx12_Lock_policyE2EE=so_stub_for_libtelux_qmi
-Wl,--defsym=_ZTISt23_Sp_counted_ptr_inplaceIN5telux6common18FunctionalCallbackIJiPviEEESaIS4_ELN9__gnu_cxx12_Lock_policyE2EE=so_stub_for_libtelux_qmi
-Wl,--defsym=_ZTISt23_Sp_counted_ptr_inplaceIN5telux6common18FunctionalCallbackIJP24uim_get_eid_resp_msg_v01PviEEESaIS6_ELN9__gnu_cxx12_Lock_policyE2EE=so_stub_for_libtelux_qmi
-Wl,--defsym=_ZTISt23_Sp_counted_ptr_inplaceIN5telux6common18FunctionalCallbackIJP28uim_add_profile_resp_msg_v01PviEEESaIS6_ELN9__gnu_cxx12_Lock_policyE2EE=so_stub_for_libtelux_qmi
-Wl,--defsym=_ZTISt23_Sp_counted_ptr_inplaceIN5telux6common18FunctionalCallbackIJP28uim_remote_apdu_resp_msg_v01iPvEEESaIS6_ELN9__gnu_cxx12_Lock_policyE2EE=so_stub_for_libtelux_qmi
-Wl,--defsym=_ZTISt23_Sp_counted_ptr_inplaceIN5telux6common18FunctionalCallbackIJP29nas_get_sys_info_resp_msg_v01PviEEESaIS6_ELN9__gnu_cxx12_Lock_policyE2EE=so_stub_for_libtelux_qmi
-Wl,--defsym=_ZTISt23_Sp_counted_ptr_inplaceIN5telux6common18FunctionalCallbackIJP29uim_remote_event_resp_msg_v01iPvEEESaIS6_ELN9__gnu_cxx12_Lock_policyE2EE=so_stub_for_libtelux_qmi
-Wl,--defsym=_ZTISt23_Sp_counted_ptr_inplaceIN5telux6common18FunctionalCallbackIJP29uim_remote_reset_resp_msg_v01iPvEEESaIS6_ELN9__gnu_cxx12_Lock_policyE2EE=so_stub_for_libtelux_qmi
-Wl,--defsym=_ZTISt23_Sp_counted_ptr_inplaceIN5telux6common18FunctionalCallbackIJP31uim_delete_profile_resp_msg_v01PviEEESaIS6_ELN9__gnu_cxx12_Lock_policyE2EE=so_stub_for_libtelux_qmi
-Wl,--defsym=_ZTISt23_Sp_counted_ptr_inplaceIN5telux6common18FunctionalCallbackIJP32uim_get_sim_profile_resp_msg_v01PviEEESaIS6_ELN9__gnu_cxx12_Lock_policyE2EE=so_stub_for_libtelux_qmi
-Wl,--defsym=_ZTISt23_Sp_counted_ptr_inplaceIN5telux6common18FunctionalCallbackIJP32uim_set_sim_profile_resp_msg_v01PviEEESaIS6_ELN9__gnu_cxx12_Lock_policyE2EE=so_stub_for_libtelux_qmi
-Wl,--defsym=_ZTISt23_Sp_counted_ptr_inplaceIN5telux6common18FunctionalCallbackIJP33uim_get_profile_info_resp_msg_v01PviEEESaIS6_ELN9__gnu_cxx12_Lock_policyE2EE=so_stub_for_libtelux_qmi
-Wl,--defsym=_ZTISt23_Sp_counted_ptr_inplaceIN5telux6common18FunctionalCallbackIJP33uim_get_slots_status_resp_msg_v01PviEEESaIS6_ELN9__gnu_cxx12_Lock_policyE2EE=so_stub_for_libtelux_qmi
-Wl,--defsym=_ZTISt23_Sp_counted_ptr_inplaceIN5telux6common18FunctionalCallbackIJP33wms_set_event_report_resp_msg_v01PviEEESaIS6_ELN9__gnu_cxx12_Lock_policyE2EE=so_stub_for_libtelux_qmi
-Wl,--defsym=_ZTISt23_Sp_counted_ptr_inplaceIN5telux6common18FunctionalCallbackIJP36wms_indication_register_resp_msg_v01PviEEESaIS6_ELN9__gnu_cxx12_Lock_policyE2EE=so_stub_for_libtelux_qmi
-Wl,--defsym=_ZTISt23_Sp_counted_ptr_inplaceIN5telux6common18FunctionalCallbackIJP37uim_profile_user_consent_resp_msg_v01PviEEESaIS6_ELN9__gnu_cxx12_Lock_policyE2EE=so_stub_for_libtelux_qmi
-Wl,--defsym=_ZTISt23_Sp_counted_ptr_inplaceIN5telux6common18FunctionalCallbackIJP37wms_get_broadcast_config_resp_msg_v01PviEEESaIS6_ELN9__gnu_cxx12_Lock_policyE2EE=so_stub_for_libtelux_qmi
-Wl,--defsym=_ZTISt23_Sp_counted_ptr_inplaceIN5telux6common18FunctionalCallbackIJP37wms_set_broadcast_config_resp_msg_v01PviEEESaIS6_ELN9__gnu_cxx12_Lock_policyE2EE=so_stub_for_libtelux_qmi
-Wl,--defsym=_ZTISt23_Sp_counted_ptr_inplaceIN5telux6common18FunctionalCallbackIJP40nas_get_high_capability_sub_resp_msg_v01PviEEESaIS6_ELN9__gnu_cxx12_Lock_policyE2EE=so_stub_for_libtelux_qmi
-Wl,--defsym=_ZTISt23_Sp_counted_ptr_inplaceIN5telux6common18FunctionalCallbackIJP40uim_update_profile_nickname_resp_msg_v01PviEEESaIS6_ELN9__gnu_cxx12_Lock_policyE2EE=so_stub_for_libtelux_qmi
-Wl,--defsym=_ZTISt23_Sp_counted_ptr_inplaceIN5telux6common18FunctionalCallbackIJP41wms_set_broadcast_activation_resp_msg_v01PviEEESaIS6_ELN9__gnu_cxx12_Lock_policyE2EE=so_stub_for_libtelux_qmi
-Wl,--defsym=_ZTISt23_Sp_counted_ptr_inplaceIN5telux6common18FunctionalCallbackIJP48nas_get_system_selection_preference_resp_msg_v01PviEEESaIS6_ELN9__gnu_cxx12_Lock_policyE2EE=so_stub_for_libtelux_qmi
-Wl,--defsym=_ZTSN5telux3qmi12DmsQmiClientE=so_stub_for_libtelux_qmi
-Wl,--defsym=_ZTSN5telux3qmi12IQmiListenerE=so_stub_for_libtelux_qmi
-Wl,--defsym=_ZTSN5telux3qmi12NasQmiClientE=so_stub_for_libtelux_qmi
-Wl,--defsym=_ZTSN5telux3qmi12TmdQmiClientE=so_stub_for_libtelux_qmi
-Wl,--defsym=_ZTSN5telux3qmi12UimQmiClientE=so_stub_for_libtelux_qmi
-Wl,--defsym=_ZTSN5telux3qmi12WdsQmiClientE=so_stub_for_libtelux_qmi
-Wl,--defsym=_ZTSN5telux3qmi12WmsQmiClientE=so_stub_for_libtelux_qmi
-Wl,--defsym=_ZTSN5telux3qmi14AudioQmiClientE=so_stub_for_libtelux_qmi
-Wl,--defsym=_ZTSN5telux3qmi14PowerQmiClientE=so_stub_for_libtelux_qmi
-Wl,--defsym=_ZTSN5telux3qmi14TsensQmiClientE=so_stub_for_libtelux_qmi
-Wl,--defsym=_ZTSN5telux3qmi14VoiceQmiClientE=so_stub_for_libtelux_qmi
-Wl,--defsym=_ZTSN5telux3qmi15IQmiDmsListenerE=so_stub_for_libtelux_qmi
-Wl,--defsym=_ZTSN5telux3qmi15IQmiNasListenerE=so_stub_for_libtelux_qmi
-Wl,--defsym=_ZTSN5telux3qmi15IQmiUimListenerE=so_stub_for_libtelux_qmi
-Wl,--defsym=_ZTSN5telux3qmi15IQmiWdsListenerE=so_stub_for_libtelux_qmi
-Wl,--defsym=_ZTSN5telux3qmi15IQmiWmsListenerE=so_stub_for_libtelux_qmi
-Wl,--defsym=_ZTSN5telux3qmi17IQmiVoiceListenerE=so_stub_for_libtelux_qmi
-Wl,--defsym=_ZTSN5telux3qmi18UimRemoteQmiClientE=so_stub_for_libtelux_qmi
-Wl,--defsym=_ZTSN5telux3qmi19IQmiV2xStopCallbackE=so_stub_for_libtelux_qmi
-Wl,--defsym=_ZTSN5telux3qmi20IQmiResponseCallbackE=so_stub_for_libtelux_qmi
-Wl,--defsym=_ZTSN5telux3qmi20IQmiSetPeakTxPowerCbE=so_stub_for_libtelux_qmi
-Wl,--defsym=_ZTSN5telux3qmi20IQmiV2xStartCallbackE=so_stub_for_libtelux_qmi
-Wl,--defsym=_ZTSN5telux3qmi20ModemConfigQmiClientE=so_stub_for_libtelux_qmi
-Wl,--defsym=_ZTSN5telux3qmi21IQmiAudioPlayListenerE=so_stub_for_libtelux_qmi
-Wl,--defsym=_ZTSN5telux3qmi21IQmiUimRemoteListenerE=so_stub_for_libtelux_qmi
-Wl,--defsym=_ZTSN5telux3qmi21IQmiV2xStatusCallbackE=so_stub_for_libtelux_qmi
-Wl,--defsym=_ZTSN5telux3qmi23IQmiModemConfigListenerE=so_stub_for_libtelux_qmi
-Wl,--defsym=_ZTSN5telux3qmi23IQmiTcuActivityListenerE=so_stub_for_libtelux_qmi
-Wl,--defsym=_ZTSN5telux3qmi24IQmiAudioServiceListenerE=so_stub_for_libtelux_qmi
-Wl,--defsym=_ZTSN5telux3qmi27IQmiCommandResponseCallbackE=so_stub_for_libtelux_qmi
-Wl,--defsym=_ZTSN5telux3qmi28IQmiAutoShutdownModeListenerE=so_stub_for_libtelux_qmi
-Wl,--defsym=_ZTSN5telux3qmi28IQmiRegisterListenerCallbackE=so_stub_for_libtelux_qmi
-Wl,--defsym=_ZTSN5telux3qmi28IQmiWdsCreateProfileCallbackE=so_stub_for_libtelux_qmi
-Wl,--defsym=_ZTSN5telux3qmi29IQmiWdsGetProfileListCallbackE=so_stub_for_libtelux_qmi
-Wl,--defsym=_ZTSN5telux3qmi29IQmiWdsV2xSpsFlowInfoCallbackE=so_stub_for_libtelux_qmi
-Wl,--defsym=_ZTSN5telux3qmi30IQmiNasRegisterForIndsCallbackE=so_stub_for_libtelux_qmi
-Wl,--defsym=_ZTSN5telux3qmi30IQmiTmdMitigationLevelListenerE=so_stub_for_libtelux_qmi
-Wl,--defsym=_ZTSN5telux3qmi30IQmiWdsRuntimeSettingsCallbackE=so_stub_for_libtelux_qmi
-Wl,--defsym=_ZTSN5telux3qmi32IQmiWdsV2xCapabilityInfoCallbackE=so_stub_for_libtelux_qmi
-Wl,--defsym=_ZTSN5telux3qmi33IQmiWdsGetProfileSettingsCallbackE=so_stub_for_libtelux_qmi
-Wl,--defsym=_ZTSN5telux3qmi33IQmiWdsV2xConfigRetrievalCallbackE=so_stub_for_libtelux_qmi
-Wl,--defsym=_ZTSN5telux3qmi34IQmiRegisterNasIndicationsCallbackE=so_stub_for_libtelux_qmi
-Wl,--defsym=_ZTSN5telux3qmi9QmiClientE=so_stub_for_libtelux_qmi
-Wl,--defsym=_ZTSN5telux6common16ICommandCallbackE=so_stub_for_libtelux_qmi
-Wl,--defsym=_ZTSN5telux6common18FunctionalCallbackIJiiEEE=so_stub_for_libtelux_qmi
-Wl,--defsym=_ZTSN5telux6common18FunctionalCallbackIJiPviEEE=so_stub_for_libtelux_qmi
-Wl,--defsym=_ZTSN5telux6common18FunctionalCallbackIJP24uim_get_eid_resp_msg_v01PviEEE=so_stub_for_libtelux_qmi
-Wl,--defsym=_ZTSN5telux6common18FunctionalCallbackIJP28uim_add_profile_resp_msg_v01PviEEE=so_stub_for_libtelux_qmi
-Wl,--defsym=_ZTSN5telux6common18FunctionalCallbackIJP28uim_remote_apdu_resp_msg_v01iPvEEE=so_stub_for_libtelux_qmi
-Wl,--defsym=_ZTSN5telux6common18FunctionalCallbackIJP29nas_get_sys_info_resp_msg_v01PviEEE=so_stub_for_libtelux_qmi
-Wl,--defsym=_ZTSN5telux6common18FunctionalCallbackIJP29uim_remote_event_resp_msg_v01iPvEEE=so_stub_for_libtelux_qmi
-Wl,--defsym=_ZTSN5telux6common18FunctionalCallbackIJP29uim_remote_reset_resp_msg_v01iPvEEE=so_stub_for_libtelux_qmi
-Wl,--defsym=_ZTSN5telux6common18FunctionalCallbackIJP31uim_delete_profile_resp_msg_v01PviEEE=so_stub_for_libtelux_qmi
-Wl,--defsym=_ZTSN5telux6common18FunctionalCallbackIJP32uim_get_sim_profile_resp_msg_v01PviEEE=so_stub_for_libtelux_qmi
-Wl,--defsym=_ZTSN5telux6common18FunctionalCallbackIJP32uim_set_sim_profile_resp_msg_v01PviEEE=so_stub_for_libtelux_qmi
-Wl,--defsym=_ZTSN5telux6common18FunctionalCallbackIJP33uim_get_profile_info_resp_msg_v01PviEEE=so_stub_for_libtelux_qmi
-Wl,--defsym=_ZTSN5telux6common18FunctionalCallbackIJP33uim_get_slots_status_resp_msg_v01PviEEE=so_stub_for_libtelux_qmi
-Wl,--defsym=_ZTSN5telux6common18FunctionalCallbackIJP33wms_set_event_report_resp_msg_v01PviEEE=so_stub_for_libtelux_qmi
-Wl,--defsym=_ZTSN5telux6common18FunctionalCallbackIJP36wms_indication_register_resp_msg_v01PviEEE=so_stub_for_libtelux_qmi
-Wl,--defsym=_ZTSN5telux6common18FunctionalCallbackIJP37uim_profile_user_consent_resp_msg_v01PviEEE=so_stub_for_libtelux_qmi
-Wl,--defsym=_ZTSN5telux6common18FunctionalCallbackIJP37wms_get_broadcast_config_resp_msg_v01PviEEE=so_stub_for_libtelux_qmi
-Wl,--defsym=_ZTSN5telux6common18FunctionalCallbackIJP37wms_set_broadcast_config_resp_msg_v01PviEEE=so_stub_for_libtelux_qmi
-Wl,--defsym=_ZTSN5telux6common18FunctionalCallbackIJP40nas_get_high_capability_sub_resp_msg_v01PviEEE=so_stub_for_libtelux_qmi
-Wl,--defsym=_ZTSN5telux6common18FunctionalCallbackIJP40uim_update_profile_nickname_resp_msg_v01PviEEE=so_stub_for_libtelux_qmi
-Wl,--defsym=_ZTSN5telux6common18FunctionalCallbackIJP41wms_set_broadcast_activation_resp_msg_v01PviEEE=so_stub_for_libtelux_qmi
-Wl,--defsym=_ZTSN5telux6common18FunctionalCallbackIJP48nas_get_system_selection_preference_resp_msg_v01PviEEE=so_stub_for_libtelux_qmi
-Wl,--defsym=_ZTSNSt13__future_base13_State_baseV2E=so_stub_for_libtelux_qmi
-Wl,--defsym=_ZTSNSt13__future_base16_Task_state_baseIFvvEEE=so_stub_for_libtelux_qmi
-Wl,--defsym=_ZTSNSt13__future_base21_Async_state_commonV2E=so_stub_for_libtelux_qmi
-Wl,--defsym=_ZTSNSt13__future_base7_ResultIbEE=so_stub_for_libtelux_qmi
-Wl,--defsym=_ZTSNSt13__future_base7_ResultIvEE=so_stub_for_libtelux_qmi
-Wl,--defsym=_ZTSSt11_Mutex_baseILN9__gnu_cxx12_Lock_policyE2EE=so_stub_for_libtelux_qmi
-Wl,--defsym=_ZTSSt16_Sp_counted_baseILN9__gnu_cxx12_Lock_policyE2EE=so_stub_for_libtelux_qmi
-Wl,--defsym=_ZTSSt19_Sp_make_shared_tag=so_stub_for_libtelux_qmi
-Wl,--defsym=_ZTSSt23_Sp_counted_ptr_inplaceIN5telux3qmi12DmsQmiClientESaIS2_ELN9__gnu_cxx12_Lock_policyE2EE=so_stub_for_libtelux_qmi
-Wl,--defsym=_ZTSSt23_Sp_counted_ptr_inplaceIN5telux3qmi12NasQmiClientESaIS2_ELN9__gnu_cxx12_Lock_policyE2EE=so_stub_for_libtelux_qmi
-Wl,--defsym=_ZTSSt23_Sp_counted_ptr_inplaceIN5telux3qmi12TmdQmiClientESaIS2_ELN9__gnu_cxx12_Lock_policyE2EE=so_stub_for_libtelux_qmi
-Wl,--defsym=_ZTSSt23_Sp_counted_ptr_inplaceIN5telux3qmi12UimQmiClientESaIS2_ELN9__gnu_cxx12_Lock_policyE2EE=so_stub_for_libtelux_qmi
-Wl,--defsym=_ZTSSt23_Sp_counted_ptr_inplaceIN5telux3qmi12WdsQmiClientESaIS2_ELN9__gnu_cxx12_Lock_policyE2EE=so_stub_for_libtelux_qmi
-Wl,--defsym=_ZTSSt23_Sp_counted_ptr_inplaceIN5telux3qmi12WmsQmiClientESaIS2_ELN9__gnu_cxx12_Lock_policyE2EE=so_stub_for_libtelux_qmi
-Wl,--defsym=_ZTSSt23_Sp_counted_ptr_inplaceIN5telux3qmi14AudioQmiClientESaIS2_ELN9__gnu_cxx12_Lock_policyE2EE=so_stub_for_libtelux_qmi
-Wl,--defsym=_ZTSSt23_Sp_counted_ptr_inplaceIN5telux3qmi14PowerQmiClientESaIS2_ELN9__gnu_cxx12_Lock_policyE2EE=so_stub_for_libtelux_qmi
-Wl,--defsym=_ZTSSt23_Sp_counted_ptr_inplaceIN5telux3qmi14TsensQmiClientESaIS2_ELN9__gnu_cxx12_Lock_policyE2EE=so_stub_for_libtelux_qmi
-Wl,--defsym=_ZTSSt23_Sp_counted_ptr_inplaceIN5telux3qmi14VoiceQmiClientESaIS2_ELN9__gnu_cxx12_Lock_policyE2EE=so_stub_for_libtelux_qmi
-Wl,--defsym=_ZTSSt23_Sp_counted_ptr_inplaceIN5telux3qmi18UimRemoteQmiClientESaIS2_ELN9__gnu_cxx12_Lock_policyE2EE=so_stub_for_libtelux_qmi
-Wl,--defsym=_ZTSSt23_Sp_counted_ptr_inplaceIN5telux3qmi20ModemConfigQmiClientESaIS2_ELN9__gnu_cxx12_Lock_policyE2EE=so_stub_for_libtelux_qmi
-Wl,--defsym=_ZTSSt23_Sp_counted_ptr_inplaceIN5telux3qmi9QmiClient12ServiceParamESaIS3_ELN9__gnu_cxx12_Lock_policyE2EE=so_stub_for_libtelux_qmi
-Wl,--defsym=_ZTSSt23_Sp_counted_ptr_inplaceIN5telux6common18FunctionalCallbackIJiiEEESaIS3_ELN9__gnu_cxx12_Lock_policyE2EE=so_stub_for_libtelux_qmi
-Wl,--defsym=_ZTSSt23_Sp_counted_ptr_inplaceIN5telux6common18FunctionalCallbackIJiPviEEESaIS4_ELN9__gnu_cxx12_Lock_policyE2EE=so_stub_for_libtelux_qmi
-Wl,--defsym=_ZTSSt23_Sp_counted_ptr_inplaceIN5telux6common18FunctionalCallbackIJP24uim_get_eid_resp_msg_v01PviEEESaIS6_ELN9__gnu_cxx12_Lock_policyE2EE=so_stub_for_libtelux_qmi
-Wl,--defsym=_ZTSSt23_Sp_counted_ptr_inplaceIN5telux6common18FunctionalCallbackIJP28uim_add_profile_resp_msg_v01PviEEESaIS6_ELN9__gnu_cxx12_Lock_policyE2EE=so_stub_for_libtelux_qmi
-Wl,--defsym=_ZTSSt23_Sp_counted_ptr_inplaceIN5telux6common18FunctionalCallbackIJP28uim_remote_apdu_resp_msg_v01iPvEEESaIS6_ELN9__gnu_cxx12_Lock_policyE2EE=so_stub_for_libtelux_qmi
-Wl,--defsym=_ZTSSt23_Sp_counted_ptr_inplaceIN5telux6common18FunctionalCallbackIJP29nas_get_sys_info_resp_msg_v01PviEEESaIS6_ELN9__gnu_cxx12_Lock_policyE2EE=so_stub_for_libtelux_qmi
-Wl,--defsym=_ZTSSt23_Sp_counted_ptr_inplaceIN5telux6common18FunctionalCallbackIJP29uim_remote_event_resp_msg_v01iPvEEESaIS6_ELN9__gnu_cxx12_Lock_policyE2EE=so_stub_for_libtelux_qmi
-Wl,--defsym=_ZTSSt23_Sp_counted_ptr_inplaceIN5telux6common18FunctionalCallbackIJP29uim_remote_reset_resp_msg_v01iPvEEESaIS6_ELN9__gnu_cxx12_Lock_policyE2EE=so_stub_for_libtelux_qmi
-Wl,--defsym=_ZTSSt23_Sp_counted_ptr_inplaceIN5telux6common18FunctionalCallbackIJP31uim_delete_profile_resp_msg_v01PviEEESaIS6_ELN9__gnu_cxx12_Lock_policyE2EE=so_stub_for_libtelux_qmi
-Wl,--defsym=_ZTSSt23_Sp_counted_ptr_inplaceIN5telux6common18FunctionalCallbackIJP32uim_get_sim_profile_resp_msg_v01PviEEESaIS6_ELN9__gnu_cxx12_Lock_policyE2EE=so_stub_for_libtelux_qmi
-Wl,--defsym=_ZTSSt23_Sp_counted_ptr_inplaceIN5telux6common18FunctionalCallbackIJP32uim_set_sim_profile_resp_msg_v01PviEEESaIS6_ELN9__gnu_cxx12_Lock_policyE2EE=so_stub_for_libtelux_qmi
-Wl,--defsym=_ZTSSt23_Sp_counted_ptr_inplaceIN5telux6common18FunctionalCallbackIJP33uim_get_profile_info_resp_msg_v01PviEEESaIS6_ELN9__gnu_cxx12_Lock_policyE2EE=so_stub_for_libtelux_qmi
-Wl,--defsym=_ZTSSt23_Sp_counted_ptr_inplaceIN5telux6common18FunctionalCallbackIJP33uim_get_slots_status_resp_msg_v01PviEEESaIS6_ELN9__gnu_cxx12_Lock_policyE2EE=so_stub_for_libtelux_qmi
-Wl,--defsym=_ZTSSt23_Sp_counted_ptr_inplaceIN5telux6common18FunctionalCallbackIJP33wms_set_event_report_resp_msg_v01PviEEESaIS6_ELN9__gnu_cxx12_Lock_policyE2EE=so_stub_for_libtelux_qmi
-Wl,--defsym=_ZTSSt23_Sp_counted_ptr_inplaceIN5telux6common18FunctionalCallbackIJP36wms_indication_register_resp_msg_v01PviEEESaIS6_ELN9__gnu_cxx12_Lock_policyE2EE=so_stub_for_libtelux_qmi
-Wl,--defsym=_ZTSSt23_Sp_counted_ptr_inplaceIN5telux6common18FunctionalCallbackIJP37uim_profile_user_consent_resp_msg_v01PviEEESaIS6_ELN9__gnu_cxx12_Lock_policyE2EE=so_stub_for_libtelux_qmi
-Wl,--defsym=_ZTSSt23_Sp_counted_ptr_inplaceIN5telux6common18FunctionalCallbackIJP37wms_get_broadcast_config_resp_msg_v01PviEEESaIS6_ELN9__gnu_cxx12_Lock_policyE2EE=so_stub_for_libtelux_qmi
-Wl,--defsym=_ZTSSt23_Sp_counted_ptr_inplaceIN5telux6common18FunctionalCallbackIJP37wms_set_broadcast_config_resp_msg_v01PviEEESaIS6_ELN9__gnu_cxx12_Lock_policyE2EE=so_stub_for_libtelux_qmi
-Wl,--defsym=_ZTSSt23_Sp_counted_ptr_inplaceIN5telux6common18FunctionalCallbackIJP40nas_get_high_capability_sub_resp_msg_v01PviEEESaIS6_ELN9__gnu_cxx12_Lock_policyE2EE=so_stub_for_libtelux_qmi
-Wl,--defsym=_ZTSSt23_Sp_counted_ptr_inplaceIN5telux6common18FunctionalCallbackIJP40uim_update_profile_nickname_resp_msg_v01PviEEESaIS6_ELN9__gnu_cxx12_Lock_policyE2EE=so_stub_for_libtelux_qmi
-Wl,--defsym=_ZTSSt23_Sp_counted_ptr_inplaceIN5telux6common18FunctionalCallbackIJP41wms_set_broadcast_activation_resp_msg_v01PviEEESaIS6_ELN9__gnu_cxx12_Lock_policyE2EE=so_stub_for_libtelux_qmi
-Wl,--defsym=_ZTSSt23_Sp_counted_ptr_inplaceIN5telux6common18FunctionalCallbackIJP48nas_get_system_selection_preference_resp_msg_v01PviEEESaIS6_ELN9__gnu_cxx12_Lock_policyE2EE=so_stub_for_libtelux_qmi
-Wl,--defsym=_ZTVN5telux3qmi12DmsQmiClientE=so_stub_for_libtelux_qmi
-Wl,--defsym=_ZTVN5telux3qmi12NasQmiClientE=so_stub_for_libtelux_qmi
-Wl,--defsym=_ZTVN5telux3qmi12TmdQmiClientE=so_stub_for_libtelux_qmi
-Wl,--defsym=_ZTVN5telux3qmi12UimQmiClientE=so_stub_for_libtelux_qmi
-Wl,--defsym=_ZTVN5telux3qmi12WdsQmiClientE=so_stub_for_libtelux_qmi
-Wl,--defsym=_ZTVN5telux3qmi12WmsQmiClientE=so_stub_for_libtelux_qmi
-Wl,--defsym=_ZTVN5telux3qmi14AudioQmiClientE=so_stub_for_libtelux_qmi
-Wl,--defsym=_ZTVN5telux3qmi14PowerQmiClientE=so_stub_for_libtelux_qmi
-Wl,--defsym=_ZTVN5telux3qmi14TsensQmiClientE=so_stub_for_libtelux_qmi
-Wl,--defsym=_ZTVN5telux3qmi14VoiceQmiClientE=so_stub_for_libtelux_qmi
-Wl,--defsym=_ZTVN5telux3qmi18UimRemoteQmiClientE=so_stub_for_libtelux_qmi
-Wl,--defsym=_ZTVN5telux3qmi20ModemConfigQmiClientE=so_stub_for_libtelux_qmi
-Wl,--defsym=_ZTVN5telux3qmi9QmiClientE=so_stub_for_libtelux_qmi
-Wl,--defsym=_ZTVN5telux6common18FunctionalCallbackIJiiEEE=so_stub_for_libtelux_qmi
-Wl,--defsym=_ZTVN5telux6common18FunctionalCallbackIJiPviEEE=so_stub_for_libtelux_qmi
-Wl,--defsym=_ZTVN5telux6common18FunctionalCallbackIJP24uim_get_eid_resp_msg_v01PviEEE=so_stub_for_libtelux_qmi
-Wl,--defsym=_ZTVN5telux6common18FunctionalCallbackIJP28uim_add_profile_resp_msg_v01PviEEE=so_stub_for_libtelux_qmi
-Wl,--defsym=_ZTVN5telux6common18FunctionalCallbackIJP28uim_remote_apdu_resp_msg_v01iPvEEE=so_stub_for_libtelux_qmi
-Wl,--defsym=_ZTVN5telux6common18FunctionalCallbackIJP29nas_get_sys_info_resp_msg_v01PviEEE=so_stub_for_libtelux_qmi
-Wl,--defsym=_ZTVN5telux6common18FunctionalCallbackIJP29uim_remote_event_resp_msg_v01iPvEEE=so_stub_for_libtelux_qmi
-Wl,--defsym=_ZTVN5telux6common18FunctionalCallbackIJP29uim_remote_reset_resp_msg_v01iPvEEE=so_stub_for_libtelux_qmi
-Wl,--defsym=_ZTVN5telux6common18FunctionalCallbackIJP31uim_delete_profile_resp_msg_v01PviEEE=so_stub_for_libtelux_qmi
-Wl,--defsym=_ZTVN5telux6common18FunctionalCallbackIJP32uim_get_sim_profile_resp_msg_v01PviEEE=so_stub_for_libtelux_qmi
-Wl,--defsym=_ZTVN5telux6common18FunctionalCallbackIJP32uim_set_sim_profile_resp_msg_v01PviEEE=so_stub_for_libtelux_qmi
-Wl,--defsym=_ZTVN5telux6common18FunctionalCallbackIJP33uim_get_profile_info_resp_msg_v01PviEEE=so_stub_for_libtelux_qmi
-Wl,--defsym=_ZTVN5telux6common18FunctionalCallbackIJP33uim_get_slots_status_resp_msg_v01PviEEE=so_stub_for_libtelux_qmi
-Wl,--defsym=_ZTVN5telux6common18FunctionalCallbackIJP33wms_set_event_report_resp_msg_v01PviEEE=so_stub_for_libtelux_qmi
-Wl,--defsym=_ZTVN5telux6common18FunctionalCallbackIJP36wms_indication_register_resp_msg_v01PviEEE=so_stub_for_libtelux_qmi
-Wl,--defsym=_ZTVN5telux6common18FunctionalCallbackIJP37uim_profile_user_consent_resp_msg_v01PviEEE=so_stub_for_libtelux_qmi
-Wl,--defsym=_ZTVN5telux6common18FunctionalCallbackIJP37wms_get_broadcast_config_resp_msg_v01PviEEE=so_stub_for_libtelux_qmi
-Wl,--defsym=_ZTVN5telux6common18FunctionalCallbackIJP37wms_set_broadcast_config_resp_msg_v01PviEEE=so_stub_for_libtelux_qmi
-Wl,--defsym=_ZTVN5telux6common18FunctionalCallbackIJP40nas_get_high_capability_sub_resp_msg_v01PviEEE=so_stub_for_libtelux_qmi
-Wl,--defsym=_ZTVN5telux6common18FunctionalCallbackIJP40uim_update_profile_nickname_resp_msg_v01PviEEE=so_stub_for_libtelux_qmi
-Wl,--defsym=_ZTVN5telux6common18FunctionalCallbackIJP41wms_set_broadcast_activation_resp_msg_v01PviEEE=so_stub_for_libtelux_qmi
-Wl,--defsym=_ZTVN5telux6common18FunctionalCallbackIJP48nas_get_system_selection_preference_resp_msg_v01PviEEE=so_stub_for_libtelux_qmi
-Wl,--defsym=_ZTVNSt13__future_base13_State_baseV2E=so_stub_for_libtelux_qmi
-Wl,--defsym=_ZTVNSt13__future_base16_Task_state_baseIFvvEEE=so_stub_for_libtelux_qmi
-Wl,--defsym=_ZTVNSt13__future_base21_Async_state_commonV2E=so_stub_for_libtelux_qmi
-Wl,--defsym=_ZTVNSt13__future_base7_ResultIbEE=so_stub_for_libtelux_qmi
-Wl,--defsym=_ZTVNSt13__future_base7_ResultIvEE=so_stub_for_libtelux_qmi
-Wl,--defsym=_ZTVSt23_Sp_counted_ptr_inplaceIN5telux3qmi12DmsQmiClientESaIS2_ELN9__gnu_cxx12_Lock_policyE2EE=so_stub_for_libtelux_qmi
-Wl,--defsym=_ZTVSt23_Sp_counted_ptr_inplaceIN5telux3qmi12NasQmiClientESaIS2_ELN9__gnu_cxx12_Lock_policyE2EE=so_stub_for_libtelux_qmi
-Wl,--defsym=_ZTVSt23_Sp_counted_ptr_inplaceIN5telux3qmi12TmdQmiClientESaIS2_ELN9__gnu_cxx12_Lock_policyE2EE=so_stub_for_libtelux_qmi
-Wl,--defsym=_ZTVSt23_Sp_counted_ptr_inplaceIN5telux3qmi12UimQmiClientESaIS2_ELN9__gnu_cxx12_Lock_policyE2EE=so_stub_for_libtelux_qmi
-Wl,--defsym=_ZTVSt23_Sp_counted_ptr_inplaceIN5telux3qmi12WdsQmiClientESaIS2_ELN9__gnu_cxx12_Lock_policyE2EE=so_stub_for_libtelux_qmi
-Wl,--defsym=_ZTVSt23_Sp_counted_ptr_inplaceIN5telux3qmi12WmsQmiClientESaIS2_ELN9__gnu_cxx12_Lock_policyE2EE=so_stub_for_libtelux_qmi
-Wl,--defsym=_ZTVSt23_Sp_counted_ptr_inplaceIN5telux3qmi14AudioQmiClientESaIS2_ELN9__gnu_cxx12_Lock_policyE2EE=so_stub_for_libtelux_qmi
-Wl,--defsym=_ZTVSt23_Sp_counted_ptr_inplaceIN5telux3qmi14PowerQmiClientESaIS2_ELN9__gnu_cxx12_Lock_policyE2EE=so_stub_for_libtelux_qmi
-Wl,--defsym=_ZTVSt23_Sp_counted_ptr_inplaceIN5telux3qmi14TsensQmiClientESaIS2_ELN9__gnu_cxx12_Lock_policyE2EE=so_stub_for_libtelux_qmi
-Wl,--defsym=_ZTVSt23_Sp_counted_ptr_inplaceIN5telux3qmi14VoiceQmiClientESaIS2_ELN9__gnu_cxx12_Lock_policyE2EE=so_stub_for_libtelux_qmi
-Wl,--defsym=_ZTVSt23_Sp_counted_ptr_inplaceIN5telux3qmi18UimRemoteQmiClientESaIS2_ELN9__gnu_cxx12_Lock_policyE2EE=so_stub_for_libtelux_qmi
-Wl,--defsym=_ZTVSt23_Sp_counted_ptr_inplaceIN5telux3qmi20ModemConfigQmiClientESaIS2_ELN9__gnu_cxx12_Lock_policyE2EE=so_stub_for_libtelux_qmi
-Wl,--defsym=_ZTVSt23_Sp_counted_ptr_inplaceIN5telux3qmi9QmiClient12ServiceParamESaIS3_ELN9__gnu_cxx12_Lock_policyE2EE=so_stub_for_libtelux_qmi
-Wl,--defsym=_ZTVSt23_Sp_counted_ptr_inplaceIN5telux6common18FunctionalCallbackIJiiEEESaIS3_ELN9__gnu_cxx12_Lock_policyE2EE=so_stub_for_libtelux_qmi
-Wl,--defsym=_ZTVSt23_Sp_counted_ptr_inplaceIN5telux6common18FunctionalCallbackIJiPviEEESaIS4_ELN9__gnu_cxx12_Lock_policyE2EE=so_stub_for_libtelux_qmi
-Wl,--defsym=_ZTVSt23_Sp_counted_ptr_inplaceIN5telux6common18FunctionalCallbackIJP24uim_get_eid_resp_msg_v01PviEEESaIS6_ELN9__gnu_cxx12_Lock_policyE2EE=so_stub_for_libtelux_qmi
-Wl,--defsym=_ZTVSt23_Sp_counted_ptr_inplaceIN5telux6common18FunctionalCallbackIJP28uim_add_profile_resp_msg_v01PviEEESaIS6_ELN9__gnu_cxx12_Lock_policyE2EE=so_stub_for_libtelux_qmi
-Wl,--defsym=_ZTVSt23_Sp_counted_ptr_inplaceIN5telux6common18FunctionalCallbackIJP28uim_remote_apdu_resp_msg_v01iPvEEESaIS6_ELN9__gnu_cxx12_Lock_policyE2EE=so_stub_for_libtelux_qmi
-Wl,--defsym=_ZTVSt23_Sp_counted_ptr_inplaceIN5telux6common18FunctionalCallbackIJP29nas_get_sys_info_resp_msg_v01PviEEESaIS6_ELN9__gnu_cxx12_Lock_policyE2EE=so_stub_for_libtelux_qmi
-Wl,--defsym=_ZTVSt23_Sp_counted_ptr_inplaceIN5telux6common18FunctionalCallbackIJP29uim_remote_event_resp_msg_v01iPvEEESaIS6_ELN9__gnu_cxx12_Lock_policyE2EE=so_stub_for_libtelux_qmi
-Wl,--defsym=_ZTVSt23_Sp_counted_ptr_inplaceIN5telux6common18FunctionalCallbackIJP29uim_remote_reset_resp_msg_v01iPvEEESaIS6_ELN9__gnu_cxx12_Lock_policyE2EE=so_stub_for_libtelux_qmi
-Wl,--defsym=_ZTVSt23_Sp_counted_ptr_inplaceIN5telux6common18FunctionalCallbackIJP31uim_delete_profile_resp_msg_v01PviEEESaIS6_ELN9__gnu_cxx12_Lock_policyE2EE=so_stub_for_libtelux_qmi
-Wl,--defsym=_ZTVSt23_Sp_counted_ptr_inplaceIN5telux6common18FunctionalCallbackIJP32uim_get_sim_profile_resp_msg_v01PviEEESaIS6_ELN9__gnu_cxx12_Lock_policyE2EE=so_stub_for_libtelux_qmi
-Wl,--defsym=_ZTVSt23_Sp_counted_ptr_inplaceIN5telux6common18FunctionalCallbackIJP32uim_set_sim_profile_resp_msg_v01PviEEESaIS6_ELN9__gnu_cxx12_Lock_policyE2EE=so_stub_for_libtelux_qmi
-Wl,--defsym=_ZTVSt23_Sp_counted_ptr_inplaceIN5telux6common18FunctionalCallbackIJP33uim_get_profile_info_resp_msg_v01PviEEESaIS6_ELN9__gnu_cxx12_Lock_policyE2EE=so_stub_for_libtelux_qmi
-Wl,--defsym=_ZTVSt23_Sp_counted_ptr_inplaceIN5telux6common18FunctionalCallbackIJP33uim_get_slots_status_resp_msg_v01PviEEESaIS6_ELN9__gnu_cxx12_Lock_policyE2EE=so_stub_for_libtelux_qmi
-Wl,--defsym=_ZTVSt23_Sp_counted_ptr_inplaceIN5telux6common18FunctionalCallbackIJP33wms_set_event_report_resp_msg_v01PviEEESaIS6_ELN9__gnu_cxx12_Lock_policyE2EE=so_stub_for_libtelux_qmi
-Wl,--defsym=_ZTVSt23_Sp_counted_ptr_inplaceIN5telux6common18FunctionalCallbackIJP36wms_indication_register_resp_msg_v01PviEEESaIS6_ELN9__gnu_cxx12_Lock_policyE2EE=so_stub_for_libtelux_qmi
-Wl,--defsym=_ZTVSt23_Sp_counted_ptr_inplaceIN5telux6common18FunctionalCallbackIJP37uim_profile_user_consent_resp_msg_v01PviEEESaIS6_ELN9__gnu_cxx12_Lock_policyE2EE=so_stub_for_libtelux_qmi
-Wl,--defsym=_ZTVSt23_Sp_counted_ptr_inplaceIN5telux6common18FunctionalCallbackIJP37wms_get_broadcast_config_resp_msg_v01PviEEESaIS6_ELN9__gnu_cxx12_Lock_policyE2EE=so_stub_for_libtelux_qmi
-Wl,--defsym=_ZTVSt23_Sp_counted_ptr_inplaceIN5telux6common18FunctionalCallbackIJP37wms_set_broadcast_config_resp_msg_v01PviEEESaIS6_ELN9__gnu_cxx12_Lock_policyE2EE=so_stub_for_libtelux_qmi
-Wl,--defsym=_ZTVSt23_Sp_counted_ptr_inplaceIN5telux6common18FunctionalCallbackIJP40nas_get_high_capability_sub_resp_msg_v01PviEEESaIS6_ELN9__gnu_cxx12_Lock_policyE2EE=so_stub_for_libtelux_qmi
-Wl,--defsym=_ZTVSt23_Sp_counted_ptr_inplaceIN5telux6common18FunctionalCallbackIJP40uim_update_profile_nickname_resp_msg_v01PviEEESaIS6_ELN9__gnu_cxx12_Lock_policyE2EE=so_stub_for_libtelux_qmi
-Wl,--defsym=_ZTVSt23_Sp_counted_ptr_inplaceIN5telux6common18FunctionalCallbackIJP41wms_set_broadcast_activation_resp_msg_v01PviEEESaIS6_ELN9__gnu_cxx12_Lock_policyE2EE=so_stub_for_libtelux_qmi
-Wl,--defsym=_ZTVSt23_Sp_counted_ptr_inplaceIN5telux6common18FunctionalCallbackIJP48nas_get_system_selection_preference_resp_msg_v01PviEEESaIS6_ELN9__gnu_cxx12_Lock_policyE2EE=so_stub_for_libtelux_qmi
-Wl,--defsym=_ZZSt9call_onceIMNSt13__future_base13_State_baseV2EFvPSt8functionIFSt10unique_ptrINS0_12_Result_baseENS4_8_DeleterEEvEEPbEJPS1_S9_SA_EEvRSt9once_flagOT_DpOT0_ENKUlvE0_clEv=so_stub_for_libtelux_qmi
-Wl,--defsym=_ZZSt9call_onceIMNSt13__future_base13_State_baseV2EFvPSt8functionIFSt10unique_ptrINS0_12_Result_baseENS4_8_DeleterEEvEEPbEJPS1_S9_SA_EEvRSt9once_flagOT_DpOT0_ENUlvE0_4_FUNEv=so_stub_for_libtelux_qmi
-Wl,--defsym=_ZZSt9call_onceIMSt6threadFvvEJPS0_EEvRSt9once_flagOT_DpOT0_ENKUlvE0_clEv=so_stub_for_libtelux_qmi
-Wl,--defsym=_ZZSt9call_onceIMSt6threadFvvEJPS0_EEvRSt9once_flagOT_DpOT0_ENUlvE0_4_FUNEv=so_stub_for_libtelux_qmi
