-Wl,--defsym=_ZdlPvS_=so_stub_for_libtelux_cv2x
-Wl,--defsym=_ZN5telux3qmi12IQmiListenerC1Ev=so_stub_for_libtelux_cv2x
-Wl,--defsym=_ZN5telux3qmi12IQmiListenerC2Ev=so_stub_for_libtelux_cv2x
-Wl,--defsym=_ZN5telux3qmi12IQmiListenerD0Ev=so_stub_for_libtelux_cv2x
-Wl,--defsym=_ZN5telux3qmi12IQmiListenerD1Ev=so_stub_for_libtelux_cv2x
-Wl,--defsym=_ZN5telux3qmi12IQmiListenerD2Ev=so_stub_for_libtelux_cv2x
-Wl,--defsym=_ZN5telux3qmi15IQmiDmsListener21onOperatingModeChangeEi=so_stub_for_libtelux_cv2x
-Wl,--defsym=_ZN5telux3qmi15IQmiDmsListener24onDmsServiceStatusChangeENS_6common13ServiceStatusEi=so_stub_for_libtelux_cv2x
-Wl,--defsym=_ZN5telux3qmi15IQmiDmsListener26onModemActivityClientReadyEb=so_stub_for_libtelux_cv2x
-Wl,--defsym=_ZN5telux3qmi15IQmiDmsListenerC1Ev=so_stub_for_libtelux_cv2x
-Wl,--defsym=_ZN5telux3qmi15IQmiDmsListenerC2Ev=so_stub_for_libtelux_cv2x
-Wl,--defsym=_ZN5telux3qmi15IQmiDmsListenerD0Ev=so_stub_for_libtelux_cv2x
-Wl,--defsym=_ZN5telux3qmi15IQmiDmsListenerD1Ev=so_stub_for_libtelux_cv2x
-Wl,--defsym=_ZN5telux3qmi15IQmiDmsListenerD2Ev=so_stub_for_libtelux_cv2x
-Wl,--defsym=_ZN5telux3qmi15IQmiNasListener19onSystemInfoChangedEP24nas_sys_info_ind_msg_v01=so_stub_for_libtelux_cv2x
-Wl,--defsym=_ZN5telux3qmi15IQmiNasListener20onV2xNotificationIndERK28nas_v2x_notification_ind_v01=so_stub_for_libtelux_cv2x
-Wl,--defsym=_ZN5telux3qmi15IQmiNasListener23onHighCapabilityChangedEP35nas_high_capability_sub_ind_msg_v01=so_stub_for_libtelux_cv2x
-Wl,--defsym=_ZN5telux3qmi15IQmiNasListener24onNasServiceStatusChangeENS_6common13ServiceStatusE=so_stub_for_libtelux_cv2x
-Wl,--defsym=_ZN5telux3qmi15IQmiNasListener34onSystemSelectionPreferenceChangedEP43nas_system_selection_preference_ind_msg_v01=so_stub_for_libtelux_cv2x
-Wl,--defsym=_ZN5telux3qmi15IQmiNasListenerC1Ev=so_stub_for_libtelux_cv2x
-Wl,--defsym=_ZN5telux3qmi15IQmiNasListenerC2Ev=so_stub_for_libtelux_cv2x
-Wl,--defsym=_ZN5telux3qmi15IQmiNasListenerD0Ev=so_stub_for_libtelux_cv2x
-Wl,--defsym=_ZN5telux3qmi15IQmiNasListenerD1Ev=so_stub_for_libtelux_cv2x
-Wl,--defsym=_ZN5telux3qmi15IQmiNasListenerD2Ev=so_stub_for_libtelux_cv2x
-Wl,--defsym=_ZN5telux3qmi15IQmiWdsListener15onProfileUpdateEP31wds_profile_changed_ind_msg_v01=so_stub_for_libtelux_cv2x
-Wl,--defsym=_ZN5telux3qmi15IQmiWdsListener17onV2xSrcL2InfoIndERK31wds_v2x_src_l2_info_ind_msg_v01=so_stub_for_libtelux_cv2x
-Wl,--defsym=_ZN5telux3qmi15IQmiWdsListener18onPktSrvcStatusIndERK31wds_pkt_srvc_status_ind_msg_v01=so_stub_for_libtelux_cv2x
-Wl,--defsym=_ZN5telux3qmi15IQmiWdsListener20onV2xConfigChangeIndERK34wds_v2x_config_changed_ind_msg_v01=so_stub_for_libtelux_cv2x
-Wl,--defsym=_ZN5telux3qmi15IQmiWdsListener22onV2xCapabilityInfoIndERK35wds_v2x_capability_info_ind_msg_v01=so_stub_for_libtelux_cv2x
-Wl,--defsym=_ZN5telux3qmi15IQmiWdsListener22onV2xSendConfigFileIndERK43wds_v2x_send_config_file_result_ind_msg_v01=so_stub_for_libtelux_cv2x
-Wl,--defsym=_ZN5telux3qmi15IQmiWdsListener24onV2xGetConfigurationIndERK31wds_v2x_config_file_ind_msg_v01=so_stub_for_libtelux_cv2x
-Wl,--defsym=_ZN5telux3qmi15IQmiWdsListener24onV2xSpsFlowRegResultIndERK39wds_v2x_sps_flow_reg_result_ind_msg_v01=so_stub_for_libtelux_cv2x
-Wl,--defsym=_ZN5telux3qmi15IQmiWdsListener24onWdsServiceStatusChangeENS_6common13ServiceStatusE=so_stub_for_libtelux_cv2x
-Wl,--defsym=_ZN5telux3qmi15IQmiWdsListener25onV2xSpsSchedulingInfoIndERK39wds_v2x_sps_scheduling_info_ind_msg_v01=so_stub_for_libtelux_cv2x
-Wl,--defsym=_ZN5telux3qmi15IQmiWdsListener26onV2xSpsFlowDeregResultIndERK41wds_v2x_sps_flow_dereg_result_ind_msg_v01=so_stub_for_libtelux_cv2x
-Wl,--defsym=_ZN5telux3qmi15IQmiWdsListener27onV2xSpsFlowUpdateResultIndERK42wds_v2x_sps_flow_update_result_ind_msg_v01=so_stub_for_libtelux_cv2x
-Wl,--defsym=_ZN5telux3qmi15IQmiWdsListener30onV2xServiceSubscribeResultIndERK44wds_v2x_service_subscribe_result_ind_msg_v01=so_stub_for_libtelux_cv2x
-Wl,--defsym=_ZN5telux3qmi15IQmiWdsListenerC1Ev=so_stub_for_libtelux_cv2x
-Wl,--defsym=_ZN5telux3qmi15IQmiWdsListenerC2Ev=so_stub_for_libtelux_cv2x
-Wl,--defsym=_ZN5telux3qmi15IQmiWdsListenerD0Ev=so_stub_for_libtelux_cv2x
-Wl,--defsym=_ZN5telux3qmi15IQmiWdsListenerD1Ev=so_stub_for_libtelux_cv2x
-Wl,--defsym=_ZN5telux3qmi15IQmiWdsListenerD2Ev=so_stub_for_libtelux_cv2x
-Wl,--defsym=_ZN5telux3qmi19IQmiV2xStopCallbackC1Ev=so_stub_for_libtelux_cv2x
-Wl,--defsym=_ZN5telux3qmi19IQmiV2xStopCallbackC2Ev=so_stub_for_libtelux_cv2x
-Wl,--defsym=_ZN5telux3qmi19IQmiV2xStopCallbackD0Ev=so_stub_for_libtelux_cv2x
-Wl,--defsym=_ZN5telux3qmi19IQmiV2xStopCallbackD1Ev=so_stub_for_libtelux_cv2x
-Wl,--defsym=_ZN5telux3qmi19IQmiV2xStopCallbackD2Ev=so_stub_for_libtelux_cv2x
-Wl,--defsym=_ZN5telux3qmi20IQmiSetPeakTxPowerCbC1Ev=so_stub_for_libtelux_cv2x
-Wl,--defsym=_ZN5telux3qmi20IQmiSetPeakTxPowerCbC2Ev=so_stub_for_libtelux_cv2x
-Wl,--defsym=_ZN5telux3qmi20IQmiSetPeakTxPowerCbD0Ev=so_stub_for_libtelux_cv2x
-Wl,--defsym=_ZN5telux3qmi20IQmiSetPeakTxPowerCbD1Ev=so_stub_for_libtelux_cv2x
-Wl,--defsym=_ZN5telux3qmi20IQmiSetPeakTxPowerCbD2Ev=so_stub_for_libtelux_cv2x
-Wl,--defsym=_ZN5telux3qmi20IQmiV2xStartCallbackC1Ev=so_stub_for_libtelux_cv2x
-Wl,--defsym=_ZN5telux3qmi20IQmiV2xStartCallbackC2Ev=so_stub_for_libtelux_cv2x
-Wl,--defsym=_ZN5telux3qmi20IQmiV2xStartCallbackD0Ev=so_stub_for_libtelux_cv2x
-Wl,--defsym=_ZN5telux3qmi20IQmiV2xStartCallbackD1Ev=so_stub_for_libtelux_cv2x
-Wl,--defsym=_ZN5telux3qmi20IQmiV2xStartCallbackD2Ev=so_stub_for_libtelux_cv2x
-Wl,--defsym=_ZN5telux3qmi21IQmiV2xStatusCallbackC1Ev=so_stub_for_libtelux_cv2x
-Wl,--defsym=_ZN5telux3qmi21IQmiV2xStatusCallbackC2Ev=so_stub_for_libtelux_cv2x
-Wl,--defsym=_ZN5telux3qmi21IQmiV2xStatusCallbackD0Ev=so_stub_for_libtelux_cv2x
-Wl,--defsym=_ZN5telux3qmi21IQmiV2xStatusCallbackD1Ev=so_stub_for_libtelux_cv2x
-Wl,--defsym=_ZN5telux3qmi21IQmiV2xStatusCallbackD2Ev=so_stub_for_libtelux_cv2x
-Wl,--defsym=_ZN5telux3qmi26IQmiSetEventReportCallbackC1Ev=so_stub_for_libtelux_cv2x
-Wl,--defsym=_ZN5telux3qmi26IQmiSetEventReportCallbackC2Ev=so_stub_for_libtelux_cv2x
-Wl,--defsym=_ZN5telux3qmi26IQmiSetEventReportCallbackD0Ev=so_stub_for_libtelux_cv2x
-Wl,--defsym=_ZN5telux3qmi26IQmiSetEventReportCallbackD1Ev=so_stub_for_libtelux_cv2x
-Wl,--defsym=_ZN5telux3qmi26IQmiSetEventReportCallbackD2Ev=so_stub_for_libtelux_cv2x
-Wl,--defsym=_ZN5telux3qmi27IQmiCommandResponseCallbackC1Ev=so_stub_for_libtelux_cv2x
-Wl,--defsym=_ZN5telux3qmi27IQmiCommandResponseCallbackC2Ev=so_stub_for_libtelux_cv2x
-Wl,--defsym=_ZN5telux3qmi27IQmiCommandResponseCallbackD0Ev=so_stub_for_libtelux_cv2x
-Wl,--defsym=_ZN5telux3qmi27IQmiCommandResponseCallbackD1Ev=so_stub_for_libtelux_cv2x
-Wl,--defsym=_ZN5telux3qmi27IQmiCommandResponseCallbackD2Ev=so_stub_for_libtelux_cv2x
-Wl,--defsym=_ZN5telux3qmi28IQmiGetOperatingModeCallbackC1Ev=so_stub_for_libtelux_cv2x
-Wl,--defsym=_ZN5telux3qmi28IQmiGetOperatingModeCallbackC2Ev=so_stub_for_libtelux_cv2x
-Wl,--defsym=_ZN5telux3qmi28IQmiGetOperatingModeCallbackD0Ev=so_stub_for_libtelux_cv2x
-Wl,--defsym=_ZN5telux3qmi28IQmiGetOperatingModeCallbackD1Ev=so_stub_for_libtelux_cv2x
-Wl,--defsym=_ZN5telux3qmi28IQmiGetOperatingModeCallbackD2Ev=so_stub_for_libtelux_cv2x
-Wl,--defsym=_ZN5telux3qmi28IQmiSetOperatingModeCallbackC1Ev=so_stub_for_libtelux_cv2x
-Wl,--defsym=_ZN5telux3qmi28IQmiSetOperatingModeCallbackC2Ev=so_stub_for_libtelux_cv2x
-Wl,--defsym=_ZN5telux3qmi28IQmiSetOperatingModeCallbackD0Ev=so_stub_for_libtelux_cv2x
-Wl,--defsym=_ZN5telux3qmi28IQmiSetOperatingModeCallbackD1Ev=so_stub_for_libtelux_cv2x
-Wl,--defsym=_ZN5telux3qmi28IQmiSetOperatingModeCallbackD2Ev=so_stub_for_libtelux_cv2x
-Wl,--defsym=_ZN5telux3qmi30IQmiNasRegisterForIndsCallbackC1Ev=so_stub_for_libtelux_cv2x
-Wl,--defsym=_ZN5telux3qmi30IQmiNasRegisterForIndsCallbackC2Ev=so_stub_for_libtelux_cv2x
-Wl,--defsym=_ZN5telux3qmi30IQmiNasRegisterForIndsCallbackD0Ev=so_stub_for_libtelux_cv2x
-Wl,--defsym=_ZN5telux3qmi30IQmiNasRegisterForIndsCallbackD1Ev=so_stub_for_libtelux_cv2x
-Wl,--defsym=_ZN5telux3qmi30IQmiNasRegisterForIndsCallbackD2Ev=so_stub_for_libtelux_cv2x
-Wl,--defsym=_ZN5telux3qmi33IQmiWdsV2xConfigRetrievalCallbackC1Ev=so_stub_for_libtelux_cv2x
-Wl,--defsym=_ZN5telux3qmi33IQmiWdsV2xConfigRetrievalCallbackC2Ev=so_stub_for_libtelux_cv2x
-Wl,--defsym=_ZN5telux3qmi33IQmiWdsV2xConfigRetrievalCallbackD0Ev=so_stub_for_libtelux_cv2x
-Wl,--defsym=_ZN5telux3qmi33IQmiWdsV2xConfigRetrievalCallbackD1Ev=so_stub_for_libtelux_cv2x
-Wl,--defsym=_ZN5telux3qmi33IQmiWdsV2xConfigRetrievalCallbackD2Ev=so_stub_for_libtelux_cv2x
-Wl,--defsym=_ZN5telux4cv2x10Cv2xConfig12getNextReqIdEv=so_stub_for_libtelux_cv2x
-Wl,--defsym=_ZN5telux4cv2x10Cv2xConfig16registerListenerESt8weak_ptrINS0_19ICv2xConfigListenerEE=so_stub_for_libtelux_cv2x
-Wl,--defsym=_ZN5telux4cv2x10Cv2xConfig17initWdsClientSyncEv=so_stub_for_libtelux_cv2x
-Wl,--defsym=_ZN5telux4cv2x10Cv2xConfig18deregisterListenerESt8weak_ptrINS0_19ICv2xConfigListenerEE=so_stub_for_libtelux_cv2x
-Wl,--defsym=_ZN5telux4cv2x10Cv2xConfig18sendConfigFileSyncERKNSt7__cxx1112basic_stringIcSt11char_traitsIcESaIcEEESt8functionIFvNS_6common9ErrorCodeEEE=so_stub_for_libtelux_cv2x
-Wl,--defsym=_ZN5telux4cv2x10Cv2xConfig19updateConfigurationERKNSt7__cxx1112basic_stringIcSt11char_traitsIcESaIcEEESt8functionIFvNS_6common9ErrorCodeEEE=so_stub_for_libtelux_cv2x
-Wl,--defsym=_ZN5telux4cv2x10Cv2xConfig20setInitializedStatusENS_6common6StatusE=so_stub_for_libtelux_cv2x
-Wl,--defsym=_ZN5telux4cv2x10Cv2xConfig21initSysCtrlClientSyncEv=so_stub_for_libtelux_cv2x
-Wl,--defsym=_ZN5telux4cv2x10Cv2xConfig21retrieveConfigurationERKNSt7__cxx1112basic_stringIcSt11char_traitsIcESaIcEEESt8functionIFvNS_6common9ErrorCodeEEE=so_stub_for_libtelux_cv2x
-Wl,--defsym=_ZN5telux4cv2x10Cv2xConfig21waitForInitializationEv=so_stub_for_libtelux_cv2x
-Wl,--defsym=_ZN5telux4cv2x10Cv2xConfig22retrieveConfigFileSyncERKNSt7__cxx1112basic_stringIcSt11char_traitsIcESaIcEEESt8functionIFvNS_6common9ErrorCodeEEE=so_stub_for_libtelux_cv2x
-Wl,--defsym=_ZN5telux4cv2x10Cv2xConfig4initEv=so_stub_for_libtelux_cv2x
-Wl,--defsym=_ZN5telux4cv2x10Cv2xConfig7isReadyEv=so_stub_for_libtelux_cv2x
-Wl,--defsym=_ZN5telux4cv2x10Cv2xConfig7onReadyEv=so_stub_for_libtelux_cv2x
-Wl,--defsym=_ZN5telux4cv2x10Cv2xConfig8initSyncEv=so_stub_for_libtelux_cv2x
-Wl,--defsym=_ZN5telux4cv2x10Cv2xConfigC1Ev=so_stub_for_libtelux_cv2x
-Wl,--defsym=_ZN5telux4cv2x10Cv2xConfigC2Ev=so_stub_for_libtelux_cv2x
-Wl,--defsym=_ZN5telux4cv2x10Cv2xConfigD0Ev=so_stub_for_libtelux_cv2x
-Wl,--defsym=_ZN5telux4cv2x10Cv2xConfigD1Ev=so_stub_for_libtelux_cv2x
-Wl,--defsym=_ZN5telux4cv2x10Cv2xConfigD2Ev=so_stub_for_libtelux_cv2x
-Wl,--defsym=_ZN5telux4cv2x10Cv2xStatusC1Ev=so_stub_for_libtelux_cv2x
-Wl,--defsym=_ZN5telux4cv2x10Cv2xStatusC2Ev=so_stub_for_libtelux_cv2x
-Wl,--defsym=_ZN5telux4cv2x10ICv2xRadioC1Ev=so_stub_for_libtelux_cv2x
-Wl,--defsym=_ZN5telux4cv2x10ICv2xRadioC2Ev=so_stub_for_libtelux_cv2x
-Wl,--defsym=_ZN5telux4cv2x10ICv2xRadioD0Ev=so_stub_for_libtelux_cv2x
-Wl,--defsym=_ZN5telux4cv2x10ICv2xRadioD1Ev=so_stub_for_libtelux_cv2x
-Wl,--defsym=_ZN5telux4cv2x10ICv2xRadioD2Ev=so_stub_for_libtelux_cv2x
-Wl,--defsym=_ZN5telux4cv2x11Cv2xFactory11getInstanceEv=so_stub_for_libtelux_cv2x
-Wl,--defsym=_ZN5telux4cv2x11Cv2xFactory13getCv2xConfigEv=so_stub_for_libtelux_cv2x
-Wl,--defsym=_ZN5telux4cv2x11Cv2xFactory19getCv2xRadioManagerEv=so_stub_for_libtelux_cv2x
-Wl,--defsym=_ZN5telux4cv2x11Cv2xFactoryC1Ev=so_stub_for_libtelux_cv2x
-Wl,--defsym=_ZN5telux4cv2x11Cv2xFactoryC2Ev=so_stub_for_libtelux_cv2x
-Wl,--defsym=_ZN5telux4cv2x11Cv2xFactoryD1Ev=so_stub_for_libtelux_cv2x
-Wl,--defsym=_ZN5telux4cv2x11Cv2xFactoryD2Ev=so_stub_for_libtelux_cv2x
-Wl,--defsym=_ZN5telux4cv2x11Cv2xSysCtrl11getInstanceEv=so_stub_for_libtelux_cv2x
-Wl,--defsym=_ZN5telux4cv2x11Cv2xSysCtrl13releaseHandleEPv=so_stub_for_libtelux_cv2x
-Wl,--defsym=_ZN5telux4cv2x11Cv2xSysCtrl18handleSrcL2InfoIndESt10shared_ptrINS0_14IndicationDataEE=so_stub_for_libtelux_cv2x
-Wl,--defsym=_ZN5telux4cv2x11Cv2xSysCtrl18sendConfigFileSyncERKNSt7__cxx1112basic_stringIcSt11char_traitsIcESaIcEEE=so_stub_for_libtelux_cv2x
-Wl,--defsym=_ZN5telux4cv2x11Cv2xSysCtrl19handleSendConfigIndESt10shared_ptrINS0_14IndicationDataEE=so_stub_for_libtelux_cv2x
-Wl,--defsym=_ZN5telux4cv2x11Cv2xSysCtrl19updateSrcL2InfoSyncEv=so_stub_for_libtelux_cv2x
-Wl,--defsym=_ZN5telux4cv2x11Cv2xSysCtrl20handleSpsScheduleIndESt10shared_ptrINS0_14IndicationDataEE=so_stub_for_libtelux_cv2x
-Wl,--defsym=_ZN5telux4cv2x11Cv2xSysCtrl21handleConfigChangeIndESt10shared_ptrINS0_14IndicationDataEE=so_stub_for_libtelux_cv2x
-Wl,--defsym=_ZN5telux4cv2x11Cv2xSysCtrl21serviceStatusCallbackEtPv=so_stub_for_libtelux_cv2x
-Wl,--defsym=_ZN5telux4cv2x11Cv2xSysCtrl22retrieveConfigFileSyncERh=so_stub_for_libtelux_cv2x
-Wl,--defsym=_ZN5telux4cv2x11Cv2xSysCtrl23handleCapabilityInfoIndESt10shared_ptrINS0_14IndicationDataEE=so_stub_for_libtelux_cv2x
-Wl,--defsym=_ZN5telux4cv2x11Cv2xSysCtrl23requestCapabilitiesSyncERNS0_21Cv2xRadioCapabilitiesE=so_stub_for_libtelux_cv2x
-Wl,--defsym=_ZN5telux4cv2x11Cv2xSysCtrl23updateTrustedUEListSyncERKNS0_17TrustedUEInfoListE=so_stub_for_libtelux_cv2x
-Wl,--defsym=_ZN5telux4cv2x11Cv2xSysCtrl24convertCapabilityInfoMsgERNS0_21Cv2xRadioCapabilitiesERK35cv2x_get_capability_info_resp_msg_t=so_stub_for_libtelux_cv2x
-Wl,--defsym=_ZN5telux4cv2x11Cv2xSysCtrl24initTunnelModeInfoReqMsgER31cv2x_tunnel_mode_info_req_msg_tRKNS0_17TrustedUEInfoListE=so_stub_for_libtelux_cv2x
-Wl,--defsym=_ZN5telux4cv2x11Cv2xSysCtrl27handleConfigFileRetrieveIndESt10shared_ptrINS0_14IndicationDataEE=so_stub_for_libtelux_cv2x
-Wl,--defsym=_ZN5telux4cv2x11Cv2xSysCtrl27handleServiceStatusCallbackESt10shared_ptrINS0_17ServiceStatusDataEE=so_stub_for_libtelux_cv2x
-Wl,--defsym=_ZN5telux4cv2x11Cv2xSysCtrl28spsSchedulingInfoIndToStringB5cxx11ERK34cv2x_sps_scheduling_info_ind_msg_t=so_stub_for_libtelux_cv2x
-Wl,--defsym=_ZN5telux4cv2x11Cv2xSysCtrl28tunnelModeInfoReqMsgToStringB5cxx11ERK31cv2x_tunnel_mode_info_req_msg_t=so_stub_for_libtelux_cv2x
-Wl,--defsym=_ZN5telux4cv2x11Cv2xSysCtrl4initEv=so_stub_for_libtelux_cv2x
-Wl,--defsym=_ZN5telux4cv2x11Cv2xSysCtrl9getHandleEPFvPv15cv2x_msg_type_tP15cv2x_msg_info_tS2_ES2_=so_stub_for_libtelux_cv2x
-Wl,--defsym=_ZN5telux4cv2x11Cv2xSysCtrl9postEventEPv15cv2x_msg_type_tP15cv2x_msg_info_tS2_=so_stub_for_libtelux_cv2x
-Wl,--defsym=_ZN5telux4cv2x11Cv2xSysCtrl9postEventEtPv=so_stub_for_libtelux_cv2x
-Wl,--defsym=_ZN5telux4cv2x11Cv2xSysCtrlC1Ev=so_stub_for_libtelux_cv2x
-Wl,--defsym=_ZN5telux4cv2x11Cv2xSysCtrlC2Ev=so_stub_for_libtelux_cv2x
-Wl,--defsym=_ZN5telux4cv2x11Cv2xSysCtrlD1Ev=so_stub_for_libtelux_cv2x
-Wl,--defsym=_ZN5telux4cv2x11Cv2xSysCtrlD2Ev=so_stub_for_libtelux_cv2x
-Wl,--defsym=_ZN5telux4cv2x11ICv2xConfigC1Ev=so_stub_for_libtelux_cv2x
-Wl,--defsym=_ZN5telux4cv2x11ICv2xConfigC2Ev=so_stub_for_libtelux_cv2x
-Wl,--defsym=_ZN5telux4cv2x11ICv2xConfigD0Ev=so_stub_for_libtelux_cv2x
-Wl,--defsym=_ZN5telux4cv2x11ICv2xConfigD1Ev=so_stub_for_libtelux_cv2x
-Wl,--defsym=_ZN5telux4cv2x11ICv2xConfigD2Ev=so_stub_for_libtelux_cv2x
-Wl,--defsym=_ZN5telux4cv2x11ICv2xTxFlowC1Ev=so_stub_for_libtelux_cv2x
-Wl,--defsym=_ZN5telux4cv2x11ICv2xTxFlowC2Ev=so_stub_for_libtelux_cv2x
-Wl,--defsym=_ZN5telux4cv2x11ICv2xTxFlowD0Ev=so_stub_for_libtelux_cv2x
-Wl,--defsym=_ZN5telux4cv2x11ICv2xTxFlowD1Ev=so_stub_for_libtelux_cv2x
-Wl,--defsym=_ZN5telux4cv2x11ICv2xTxFlowD2Ev=so_stub_for_libtelux_cv2x
-Wl,--defsym=_ZN5telux4cv2x11SpsFlowInfoC1Ev=so_stub_for_libtelux_cv2x
-Wl,--defsym=_ZN5telux4cv2x11SpsFlowInfoC2Ev=so_stub_for_libtelux_cv2x
-Wl,--defsym=_ZN5telux4cv2x12Cv2xStatusExC1ERKS1_=so_stub_for_libtelux_cv2x
-Wl,--defsym=_ZN5telux4cv2x12Cv2xStatusExC1Ev=so_stub_for_libtelux_cv2x
-Wl,--defsym=_ZN5telux4cv2x12Cv2xStatusExC2ERKS1_=so_stub_for_libtelux_cv2x
-Wl,--defsym=_ZN5telux4cv2x12Cv2xStatusExC2Ev=so_stub_for_libtelux_cv2x
-Wl,--defsym=_ZN5telux4cv2x12Cv2xStatusExD1Ev=so_stub_for_libtelux_cv2x
-Wl,--defsym=_ZN5telux4cv2x12Cv2xStatusExD2Ev=so_stub_for_libtelux_cv2x
-Wl,--defsym=_ZN5telux4cv2x12DsiCv2xRadio10initRxSockENS0_13TrafficIpTypeERitR12sockaddr_in6=so_stub_for_libtelux_cv2x
-Wl,--defsym=_ZN5telux4cv2x12DsiCv2xRadio10removeFlowINS0_13Cv2xTxSpsFlowEEENS_6common6StatusESt10shared_ptrIT_ERSt3mapIjS6_INS0_11ICv2xTxFlowEESt4lessIjESaISt4pairIKjSB_EEE=so_stub_for_libtelux_cv2x
-Wl,--defsym=_ZN5telux4cv2x12DsiCv2xRadio10removeFlowINS0_15Cv2xTxEventFlowEEENS_6common6StatusESt10shared_ptrIT_ERSt3mapIjS6_INS0_11ICv2xTxFlowEESt4lessIjESaISt4pairIKjSB_EEE=so_stub_for_libtelux_cv2x
-Wl,--defsym=_ZN5telux4cv2x12DsiCv2xRadio11closeTxFlowESt10shared_ptrINS0_11ICv2xTxFlowEESt8functionIFvS4_NS_6common9ErrorCodeEEE=so_stub_for_libtelux_cv2x
-Wl,--defsym=_ZN5telux4cv2x12DsiCv2xRadio11getSockAddrENS0_13TrafficIpTypeEtR12sockaddr_in6Rb=so_stub_for_libtelux_cv2x
-Wl,--defsym=_ZN5telux4cv2x12DsiCv2xRadio11initTcpSockERKNS0_10SocketInfoERiR12sockaddr_in6=so_stub_for_libtelux_cv2x
-Wl,--defsym=_ZN5telux4cv2x12DsiCv2xRadio12addTcpSocketESt10shared_ptrINS0_15ICv2xTxRxSocketEE=so_stub_for_libtelux_cv2x
-Wl,--defsym=_ZN5telux4cv2x12DsiCv2xRadio12closeTcpSockEi=so_stub_for_libtelux_cv2x
-Wl,--defsym=_ZN5telux4cv2x12DsiCv2xRadio12getNextReqIdEv=so_stub_for_libtelux_cv2x
-Wl,--defsym=_ZN5telux4cv2x12DsiCv2xRadio12showAllFlowsB5cxx11Ev=so_stub_for_libtelux_cv2x
-Wl,--defsym=_ZN5telux4cv2x12DsiCv2xRadio13initTxSpsFlowENS0_13TrafficIpTypeEjRKNS0_11SpsFlowInfoEtbtRSt10shared_ptrINS0_11ICv2xTxFlowEES9_RNS_6common6StatusESC_=so_stub_for_libtelux_cv2x
-Wl,--defsym=_ZN5telux4cv2x12DsiCv2xRadio13initTxSpsSockENS0_13TrafficIpTypeERitR12sockaddr_in6=so_stub_for_libtelux_cv2x
-Wl,--defsym=_ZN5telux4cv2x12DsiCv2xRadio14getIfaceNameIPB5cxx11Ev=so_stub_for_libtelux_cv2x
-Wl,--defsym=_ZN5telux4cv2x12DsiCv2xRadio14setIfaceNameIPENSt7__cxx1112basic_stringIcSt11char_traitsIcESaIcEEE=so_stub_for_libtelux_cv2x
-Wl,--defsym=_ZN5telux4cv2x12DsiCv2xRadio15addSubscriptionESt10shared_ptrINS0_19ICv2xRxSubscriptionEE=so_stub_for_libtelux_cv2x
-Wl,--defsym=_ZN5telux4cv2x12DsiCv2xRadio15createTxSpsFlowENS0_13TrafficIpTypeEjRKNS0_11SpsFlowInfoEtbtSt8functionIFvSt10shared_ptrINS0_11ICv2xTxFlowEES9_NS_6common9ErrorCodeESB_EE=so_stub_for_libtelux_cv2x
-Wl,--defsym=_ZN5telux4cv2x12DsiCv2xRadio15initTxEventFlowENS0_13TrafficIpTypeEjRKNS0_13EventFlowInfoEtRSt10shared_ptrINS0_11ICv2xTxFlowEE=so_stub_for_libtelux_cv2x
-Wl,--defsym=_ZN5telux4cv2x12DsiCv2xRadio15initTxEventSockENS0_13TrafficIpTypeERitR12sockaddr_in6=so_stub_for_libtelux_cv2x
-Wl,--defsym=_ZN5telux4cv2x12DsiCv2xRadio15removeTcpSocketESt10shared_ptrINS0_15ICv2xTxRxSocketEE=so_stub_for_libtelux_cv2x
-Wl,--defsym=_ZN5telux4cv2x12DsiCv2xRadio15updateSrcL2InfoESt8functionIFvNS_6common9ErrorCodeEEE=so_stub_for_libtelux_cv2x
-Wl,--defsym=_ZN5telux4cv2x12DsiCv2xRadio16getInterfaceDataENSt7__cxx1112basic_stringIcSt11char_traitsIcESaIcEEERjS8_=so_stub_for_libtelux_cv2x
-Wl,--defsym=_ZN5telux4cv2x12DsiCv2xRadio16registerListenerESt8weak_ptrINS0_18ICv2xRadioListenerEE=so_stub_for_libtelux_cv2x
-Wl,--defsym=_ZN5telux4cv2x12DsiCv2xRadio17changeSpsFlowInfoESt10shared_ptrINS0_11ICv2xTxFlowEERKNS0_11SpsFlowInfoESt8functionIFvS4_NS_6common9ErrorCodeEEE=so_stub_for_libtelux_cv2x
-Wl,--defsym=_ZN5telux4cv2x12DsiCv2xRadio17createTxEventFlowENS0_13TrafficIpTypeEjRKNS0_13EventFlowInfoEtSt8functionIFvSt10shared_ptrINS0_11ICv2xTxFlowEENS_6common9ErrorCodeEEE=so_stub_for_libtelux_cv2x
-Wl,--defsym=_ZN5telux4cv2x12DsiCv2xRadio17createTxEventFlowENS0_13TrafficIpTypeEjtSt8functionIFvSt10shared_ptrINS0_11ICv2xTxFlowEENS_6common9ErrorCodeEEE=so_stub_for_libtelux_cv2x
-Wl,--defsym=_ZN5telux4cv2x12DsiCv2xRadio17getCv2xIfaceNamesERNSt7__cxx1112basic_stringIcSt11char_traitsIcESaIcEEES8_=so_stub_for_libtelux_cv2x
-Wl,--defsym=_ZN5telux4cv2x12DsiCv2xRadio17getIfaceNameNonIPB5cxx11Ev=so_stub_for_libtelux_cv2x
-Wl,--defsym=_ZN5telux4cv2x12DsiCv2xRadio17getMaxPayloadSizeEjRj=so_stub_for_libtelux_cv2x
-Wl,--defsym=_ZN5telux4cv2x12DsiCv2xRadio17setIfaceNameNonIPENSt7__cxx1112basic_stringIcSt11char_traitsIcESaIcEEE=so_stub_for_libtelux_cv2x
-Wl,--defsym=_ZN5telux4cv2x12DsiCv2xRadio18closeCv2xTcpSocketESt10shared_ptrINS0_15ICv2xTxRxSocketEESt8functionIFvS4_NS_6common9ErrorCodeEEE=so_stub_for_libtelux_cv2x
-Wl,--defsym=_ZN5telux4cv2x12DsiCv2xRadio18closeTxSpsFlowSyncESt10shared_ptrINS0_11ICv2xTxFlowEESt8functionIFvS4_NS_6common9ErrorCodeEEE=so_stub_for_libtelux_cv2x
-Wl,--defsym=_ZN5telux4cv2x12DsiCv2xRadio18deregisterListenerESt8weak_ptrINS0_18ICv2xRadioListenerEE=so_stub_for_libtelux_cv2x
-Wl,--defsym=_ZN5telux4cv2x12DsiCv2xRadio18isTcpSocketPresentEjbj=so_stub_for_libtelux_cv2x
-Wl,--defsym=_ZN5telux4cv2x12DsiCv2xRadio18removeSubscriptionESt10shared_ptrINS0_19ICv2xRxSubscriptionEE=so_stub_for_libtelux_cv2x
-Wl,--defsym=_ZN5telux4cv2x12DsiCv2xRadio18requestSpsFlowInfoESt10shared_ptrINS0_11ICv2xTxFlowEESt8functionIFvS4_RKNS0_11SpsFlowInfoENS_6common9ErrorCodeEEE=so_stub_for_libtelux_cv2x
-Wl,--defsym=_ZN5telux4cv2x12DsiCv2xRadio19changeEventFlowInfoESt10shared_ptrINS0_11ICv2xTxFlowEERKNS0_13EventFlowInfoESt8functionIFvS4_NS_6common9ErrorCodeEEE=so_stub_for_libtelux_cv2x
-Wl,--defsym=_ZN5telux4cv2x12DsiCv2xRadio19closeRxSubscriptionESt10shared_ptrINS0_19ICv2xRxSubscriptionEESt8functionIFvS4_NS_6common9ErrorCodeEEE=so_stub_for_libtelux_cv2x
-Wl,--defsym=_ZN5telux4cv2x12DsiCv2xRadio19createCv2xTcpSocketERKNS0_13EventFlowInfoERKNS0_10SocketInfoESt8functionIFvSt10shared_ptrINS0_15ICv2xTxRxSocketEENS_6common9ErrorCodeEEE=so_stub_for_libtelux_cv2x
-Wl,--defsym=_ZN5telux4cv2x12DsiCv2xRadio19createTxSpsFlowSyncENS0_13TrafficIpTypeEjRKNS0_11SpsFlowInfoEtbtSt8functionIFvSt10shared_ptrINS0_11ICv2xTxFlowEES9_NS_6common9ErrorCodeESB_EE=so_stub_for_libtelux_cv2x
-Wl,--defsym=_ZN5telux4cv2x12DsiCv2xRadio19requestCapabilitiesESt8functionIFvRKNS0_21Cv2xRadioCapabilitiesENS_6common9ErrorCodeEEE=so_stub_for_libtelux_cv2x
-Wl,--defsym=_ZN5telux4cv2x12DsiCv2xRadio19updateSrcL2InfoSyncESt8functionIFvNS_6common9ErrorCodeEEE=so_stub_for_libtelux_cv2x
-Wl,--defsym=_ZN5telux4cv2x12DsiCv2xRadio19updateTrustedUEListERKNS0_17TrustedUEInfoListESt8functionIFvNS_6common9ErrorCodeEEE=so_stub_for_libtelux_cv2x
-Wl,--defsym=_ZN5telux4cv2x12DsiCv2xRadio20closeTxEventFlowSyncESt10shared_ptrINS0_11ICv2xTxFlowEESt8functionIFvS4_NS_6common9ErrorCodeEEE=so_stub_for_libtelux_cv2x
-Wl,--defsym=_ZN5telux4cv2x12DsiCv2xRadio20createRxSubscriptionENS0_13TrafficIpTypeEtSt8functionIFvSt10shared_ptrINS0_19ICv2xRxSubscriptionEENS_6common9ErrorCodeEEES4_ISt6vectorIjSaIjEEE=so_stub_for_libtelux_cv2x
-Wl,--defsym=_ZN5telux4cv2x12DsiCv2xRadio20DEFAULT_DEST_IP_ADDRB5cxx11E=so_stub_for_libtelux_cv2x
-Wl,--defsym=_ZN5telux4cv2x12DsiCv2xRadio20setInitializedStatusENS_6common6StatusE=so_stub_for_libtelux_cv2x
-Wl,--defsym=_ZN5telux4cv2x12DsiCv2xRadio20unsubscribeAllRxSubsEv=so_stub_for_libtelux_cv2x
-Wl,--defsym=_ZN5telux4cv2x12DsiCv2xRadio21changeSpsFlowInfoSyncESt10shared_ptrINS0_11ICv2xTxFlowEERKNS0_11SpsFlowInfoESt8functionIFvS4_NS_6common9ErrorCodeEEE=so_stub_for_libtelux_cv2x
-Wl,--defsym=_ZN5telux4cv2x12DsiCv2xRadio21closeTxEventFlowsSyncERSt6vectorISt10shared_ptrINS0_11ICv2xTxFlowEESaIS5_EE=so_stub_for_libtelux_cv2x
-Wl,--defsym=_ZN5telux4cv2x12DsiCv2xRadio21createTxEventFlowSyncENS0_13TrafficIpTypeEjRKNS0_13EventFlowInfoEtSt8functionIFvSt10shared_ptrINS0_11ICv2xTxFlowEENS_6common9ErrorCodeEEE=so_stub_for_libtelux_cv2x
-Wl,--defsym=_ZN5telux4cv2x12DsiCv2xRadio21deregisterAllSpsFlowsEv=so_stub_for_libtelux_cv2x
-Wl,--defsym=_ZN5telux4cv2x12DsiCv2xRadio21deregisterSpsFlowSyncENS0_13TrafficIpTypeEh=so_stub_for_libtelux_cv2x
-Wl,--defsym=_ZN5telux4cv2x12DsiCv2xRadio21registerEventFlowSyncESt10shared_ptrINS0_11ICv2xTxFlowEERKNS0_13EventFlowInfoE=so_stub_for_libtelux_cv2x
-Wl,--defsym=_ZN5telux4cv2x12DsiCv2xRadio21waitForInitializationEv=so_stub_for_libtelux_cv2x
-Wl,--defsym=_ZN5telux4cv2x12DsiCv2xRadio22closeAllCv2xTcpSocketsEv=so_stub_for_libtelux_cv2x
-Wl,--defsym=_ZN5telux4cv2x12DsiCv2xRadio22closeCv2xTcpSocketSyncESt10shared_ptrINS0_15ICv2xTxRxSocketEESt8functionIFvS4_NS_6common9ErrorCodeEEE=so_stub_for_libtelux_cv2x
-Wl,--defsym=_ZN5telux4cv2x12DsiCv2xRadio22getDestinationIPv6AddrB5cxx11Ev=so_stub_for_libtelux_cv2x
-Wl,--defsym=_ZN5telux4cv2x12DsiCv2xRadio22getIfaceNameFromIpTypeB5cxx11ENS0_13TrafficIpTypeE=so_stub_for_libtelux_cv2x
-Wl,--defsym=_ZN5telux4cv2x12DsiCv2xRadio22requestSpsFlowInfoSyncESt10shared_ptrINS0_11ICv2xTxFlowEESt8functionIFvS4_RKNS0_11SpsFlowInfoENS_6common9ErrorCodeEEE=so_stub_for_libtelux_cv2x
-Wl,--defsym=_ZN5telux4cv2x12DsiCv2xRadio22setDestinationIPv6AddrENSt7__cxx1112basic_stringIcSt11char_traitsIcESaIcEEE=so_stub_for_libtelux_cv2x
-Wl,--defsym=_ZN5telux4cv2x12DsiCv2xRadio23changeEventFlowInfoSyncESt10shared_ptrINS0_11ICv2xTxFlowEERKNS0_13EventFlowInfoESt8functionIFvS4_NS_6common9ErrorCodeEEE=so_stub_for_libtelux_cv2x
-Wl,--defsym=_ZN5telux4cv2x12DsiCv2xRadio23closeRxSubscriptionSyncESt10shared_ptrINS0_19ICv2xRxSubscriptionEESt8functionIFvS4_NS_6common9ErrorCodeEEE=so_stub_for_libtelux_cv2x
-Wl,--defsym=_ZN5telux4cv2x12DsiCv2xRadio23createCv2xTcpSocketSyncERKNS0_13EventFlowInfoERKNS0_10SocketInfoESt8functionIFvSt10shared_ptrINS0_15ICv2xTxRxSocketEENS_6common9ErrorCodeEEE=so_stub_for_libtelux_cv2x
-Wl,--defsym=_ZN5telux4cv2x12DsiCv2xRadio23deregisterAllEventFlowsEv=so_stub_for_libtelux_cv2x
-Wl,--defsym=_ZN5telux4cv2x12DsiCv2xRadio23requestCapabilitiesSyncESt8functionIFvRKNS0_21Cv2xRadioCapabilitiesENS_6common9ErrorCodeEEE=so_stub_for_libtelux_cv2x
-Wl,--defsym=_ZN5telux4cv2x12DsiCv2xRadio23updateTrustedUEListSyncERKNS0_17TrustedUEInfoListESt8functionIFvNS_6common9ErrorCodeEEE=so_stub_for_libtelux_cv2x
-Wl,--defsym=_ZN5telux4cv2x12DsiCv2xRadio24createRxSubscriptionSyncENS0_13TrafficIpTypeEtSt8functionIFvSt10shared_ptrINS0_19ICv2xRxSubscriptionEENS_6common9ErrorCodeEEES4_ISt6vectorIjSaIjEEE=so_stub_for_libtelux_cv2x
-Wl,--defsym=_ZN5telux4cv2x12DsiCv2xRadio25initCv2xRadioCapabilitiesERNS0_21Cv2xRadioCapabilitiesE=so_stub_for_libtelux_cv2x
-Wl,--defsym=_ZN5telux4cv2x12DsiCv2xRadio26requestDataSessionSettingsESt8functionIFvRKNS0_19DataSessionSettingsENS_6common9ErrorCodeEEE=so_stub_for_libtelux_cv2x
-Wl,--defsym=_ZN5telux4cv2x12DsiCv2xRadio29unsubscribeRxSubscriptionSyncENS0_13TrafficIpTypeESt10shared_ptrISt6vectorIjSaIjEEE=so_stub_for_libtelux_cv2x
-Wl,--defsym=_ZN5telux4cv2x12DsiCv2xRadio30requestDataSessionSettingsSyncESt8functionIFvRKNS0_19DataSessionSettingsENS_6common9ErrorCodeEEE=so_stub_for_libtelux_cv2x
-Wl,--defsym=_ZN5telux4cv2x12DsiCv2xRadio4initEv=so_stub_for_libtelux_cv2x
-Wl,--defsym=_ZN5telux4cv2x12DsiCv2xRadio6getMTUENSt7__cxx1112basic_stringIcSt11char_traitsIcESaIcEEERj=so_stub_for_libtelux_cv2x
-Wl,--defsym=_ZN5telux4cv2x12DsiCv2xRadio7addFlowINS0_13Cv2xTxSpsFlowELj2EEENS_6common6StatusESt10shared_ptrIT_ERSt3mapIjS6_INS0_11ICv2xTxFlowEESt4lessIjESaISt4pairIKjSB_EEE=so_stub_for_libtelux_cv2x
-Wl,--defsym=_ZN5telux4cv2x12DsiCv2xRadio7addFlowINS0_15Cv2xTxEventFlowELj255EEENS_6common6StatusESt10shared_ptrIT_ERSt3mapIjS6_INS0_11ICv2xTxFlowEESt4lessIjESaISt4pairIKjSB_EEE=so_stub_for_libtelux_cv2x
-Wl,--defsym=_ZN5telux4cv2x12DsiCv2xRadio7onReadyEv=so_stub_for_libtelux_cv2x
-Wl,--defsym=_ZN5telux4cv2x12DsiCv2xRadio8initSyncEv=so_stub_for_libtelux_cv2x
-Wl,--defsym=_ZN5telux4cv2x12DsiCv2xRadioC1Ev=so_stub_for_libtelux_cv2x
-Wl,--defsym=_ZN5telux4cv2x12DsiCv2xRadioC2Ev=so_stub_for_libtelux_cv2x
-Wl,--defsym=_ZN5telux4cv2x12DsiCv2xRadioD0Ev=so_stub_for_libtelux_cv2x
-Wl,--defsym=_ZN5telux4cv2x12DsiCv2xRadioD1Ev=so_stub_for_libtelux_cv2x
-Wl,--defsym=_ZN5telux4cv2x12DsiCv2xRadioD2Ev=so_stub_for_libtelux_cv2x
-Wl,--defsym=_ZN5telux4cv2x12EventHandler14eventProcessorEv=so_stub_for_libtelux_cv2x
-Wl,--defsym=_ZN5telux4cv2x12EventHandler4postESt10shared_ptrINS0_13EventInfoBaseEE=so_stub_for_libtelux_cv2x
-Wl,--defsym=_ZN5telux4cv2x12EventHandler4stopEv=so_stub_for_libtelux_cv2x
-Wl,--defsym=_ZN5telux4cv2x12EventHandler5startEv=so_stub_for_libtelux_cv2x
-Wl,--defsym=_ZN5telux4cv2x12EventHandlerC1Ev=so_stub_for_libtelux_cv2x
-Wl,--defsym=_ZN5telux4cv2x12EventHandlerC2Ev=so_stub_for_libtelux_cv2x
-Wl,--defsym=_ZN5telux4cv2x12EventHandlerD1Ev=so_stub_for_libtelux_cv2x
-Wl,--defsym=_ZN5telux4cv2x12EventHandlerD2Ev=so_stub_for_libtelux_cv2x
-Wl,--defsym=_ZN5telux4cv2x13Cv2xTxSpsFlow14getSpsFlowInfoEv=so_stub_for_libtelux_cv2x
-Wl,--defsym=_ZN5telux4cv2x13Cv2xTxSpsFlow14setSpsFlowInfoERKNS0_11SpsFlowInfoE=so_stub_for_libtelux_cv2x
-Wl,--defsym=_ZN5telux4cv2x13Cv2xTxSpsFlowC1EjNS0_13TrafficIpTypeEjiRK12sockaddr_in6RKNS0_11SpsFlowInfoE=so_stub_for_libtelux_cv2x
-Wl,--defsym=_ZN5telux4cv2x13Cv2xTxSpsFlowC2EjNS0_13TrafficIpTypeEjiRK12sockaddr_in6RKNS0_11SpsFlowInfoE=so_stub_for_libtelux_cv2x
-Wl,--defsym=_ZN5telux4cv2x13Cv2xTxSpsFlowD0Ev=so_stub_for_libtelux_cv2x
-Wl,--defsym=_ZN5telux4cv2x13Cv2xTxSpsFlowD1Ev=so_stub_for_libtelux_cv2x
-Wl,--defsym=_ZN5telux4cv2x13Cv2xTxSpsFlowD2Ev=so_stub_for_libtelux_cv2x
-Wl,--defsym=_ZN5telux4cv2x13EventFlowInfoC1Ev=so_stub_for_libtelux_cv2x
-Wl,--defsym=_ZN5telux4cv2x13EventFlowInfoC2Ev=so_stub_for_libtelux_cv2x
-Wl,--defsym=_ZN5telux4cv2x13EventInfoBaseC1Ev=so_stub_for_libtelux_cv2x
-Wl,--defsym=_ZN5telux4cv2x13EventInfoBaseC2Ev=so_stub_for_libtelux_cv2x
-Wl,--defsym=_ZN5telux4cv2x14Cv2xTxRxSocket2idE=so_stub_for_libtelux_cv2x
-Wl,--defsym=_ZN5telux4cv2x14Cv2xTxRxSocketC1EjiRK12sockaddr_in6=so_stub_for_libtelux_cv2x
-Wl,--defsym=_ZN5telux4cv2x14Cv2xTxRxSocketC2EjiRK12sockaddr_in6=so_stub_for_libtelux_cv2x
-Wl,--defsym=_ZN5telux4cv2x14Cv2xTxRxSocketD0Ev=so_stub_for_libtelux_cv2x
-Wl,--defsym=_ZN5telux4cv2x14Cv2xTxRxSocketD1Ev=so_stub_for_libtelux_cv2x
-Wl,--defsym=_ZN5telux4cv2x14Cv2xTxRxSocketD2Ev=so_stub_for_libtelux_cv2x
-Wl,--defsym=_ZN5telux4cv2x15Cv2xRadioHelper11getV2xIpApnB5cxx11Ev=so_stub_for_libtelux_cv2x
-Wl,--defsym=_ZN5telux4cv2x15Cv2xRadioHelper14getV2xNonIpApnB5cxx11Ev=so_stub_for_libtelux_cv2x
-Wl,--defsym=_ZN5telux4cv2x15Cv2xRadioHelper14getWdsErrorStrB5cxx11E25wds_v2x_err_type_enum_v01=so_stub_for_libtelux_cv2x
-Wl,--defsym=_ZN5telux4cv2x15Cv2xRadioHelper15APN_NAME_V2X_IPB5cxx11E=so_stub_for_libtelux_cv2x
-Wl,--defsym=_ZN5telux4cv2x15Cv2xRadioHelper15priorityToUint8ENS0_8PriorityERh=so_stub_for_libtelux_cv2x
-Wl,--defsym=_ZN5telux4cv2x15Cv2xRadioHelper15uint8ToPriorityEhRNS0_8PriorityE=so_stub_for_libtelux_cv2x
-Wl,--defsym=_ZN5telux4cv2x15Cv2xRadioHelper16resetV2xStatusExERNS0_12Cv2xStatusExE=so_stub_for_libtelux_cv2x
-Wl,--defsym=_ZN5telux4cv2x15Cv2xRadioHelper18getCv2xControlPathEv=so_stub_for_libtelux_cv2x
-Wl,--defsym=_ZN5telux4cv2x15Cv2xRadioHelper19APN_NAME_V2X_NON_IPB5cxx11E=so_stub_for_libtelux_cv2x
-Wl,--defsym=_ZN5telux4cv2x15Cv2xRadioHelper19periodicityToUint32ENS0_11PeriodicityE=so_stub_for_libtelux_cv2x
-Wl,--defsym=_ZN5telux4cv2x15Cv2xRadioHelper19periodicityToUint32ENS0_11PeriodicityERj=so_stub_for_libtelux_cv2x
-Wl,--defsym=_ZN5telux4cv2x15Cv2xRadioHelper19uint32ToPeriodicityEj=so_stub_for_libtelux_cv2x
-Wl,--defsym=_ZN5telux4cv2x15Cv2xRadioHelper19uint32ToPeriodicityEjRNS0_11PeriodicityE=so_stub_for_libtelux_cv2x
-Wl,--defsym=_ZN5telux4cv2x15Cv2xRadioHelper20priorityListToBitsetI19cv2x_pppp_info_typeEESt6bitsetILj8EEPKT_j=so_stub_for_libtelux_cv2x
-Wl,--defsym=_ZN5telux4cv2x15Cv2xRadioHelper21convertWdsIpv6AddressERK30wds_runtime_ipv6_addr_type_v01=so_stub_for_libtelux_cv2x
-Wl,--defsym=_ZN5telux4cv2x15Cv2xRadioHelper22convertNasV2xStatusMsgI28nas_v2x_notification_ind_v01EEbRNS0_12Cv2xStatusExERKT_=so_stub_for_libtelux_cv2x
-Wl,--defsym=_ZN5telux4cv2x15Cv2xRadioHelper22convertNasV2xStatusMsgI31nas_get_v2x_status_resp_msg_v01EEbRNS0_12Cv2xStatusExERKT_=so_stub_for_libtelux_cv2x
-Wl,--defsym=_ZN5telux4cv2x15Cv2xRadioHelper23multiPoolStatusToStringB5cxx11EPK34nas_v2x_multi_pool_status_type_v01j=so_stub_for_libtelux_cv2x
-Wl,--defsym=_ZN5telux4cv2x15Cv2xRadioHelper23nasV2xStatusMsgToStringI28nas_v2x_notification_ind_v01EENSt7__cxx1112basic_stringIcSt11char_traitsIcESaIcEEERKT_=so_stub_for_libtelux_cv2x
-Wl,--defsym=_ZN5telux4cv2x15Cv2xRadioHelper23periodicityListToBitsetEPKjj=so_stub_for_libtelux_cv2x
-Wl,--defsym=_ZN5telux4cv2x15Cv2xRadioHelper23periodicityListToVectorEPKjj=so_stub_for_libtelux_cv2x
-Wl,--defsym=_ZN5telux4cv2x15Cv2xRadioHelper23updateCv2xStatusFromIndERNS0_12Cv2xStatusExERK28nas_v2x_notification_ind_v01=so_stub_for_libtelux_cv2x
-Wl,--defsym=_ZN5telux4cv2x15Cv2xRadioHelper24updateCv2xStatusFromRespERNS0_12Cv2xStatusExERK31nas_get_v2x_status_resp_msg_v01=so_stub_for_libtelux_cv2x
-Wl,--defsym=_ZN5telux4cv2x15Cv2xRadioHelper26initWdsV2xSpsFlowRegReqMsgER32wds_v2x_sps_flow_reg_req_msg_v01jjRKNS0_11SpsFlowInfoEtbt=so_stub_for_libtelux_cv2x
-Wl,--defsym=_ZN5telux4cv2x15Cv2xRadioHelper27v2xSpsFlowRegReqMsgToStringB5cxx11ERK32wds_v2x_sps_flow_reg_req_msg_v01=so_stub_for_libtelux_cv2x
-Wl,--defsym=_ZN5telux4cv2x15Cv2xRadioHelper29initWdsV2xNonSpsFlowRegReqMsgER36wds_v2x_non_sps_flow_reg_req_msg_v01jjRKNS0_13EventFlowInfoEtb=so_stub_for_libtelux_cv2x
-Wl,--defsym=_ZN5telux4cv2x15Cv2xRadioHelper29initWdsV2xSpsFlowUpdateReqMsgER35wds_v2x_sps_flow_update_req_msg_v01jRKSt10shared_ptrINS0_11ICv2xTxFlowEERKNS0_11SpsFlowInfoE=so_stub_for_libtelux_cv2x
-Wl,--defsym=_ZN5telux4cv2x15Cv2xRadioHelper29nasV2xNotificationIndToStringB5cxx11ERK28nas_v2x_notification_ind_v01=so_stub_for_libtelux_cv2x
-Wl,--defsym=_ZN5telux4cv2x15Cv2xRadioHelper30initWdsV2xTunnelModeInfoReqMsgER36wds_v2x_tunnel_mode_info_req_msg_v01RKNS0_17TrustedUEInfoListE=so_stub_for_libtelux_cv2x
-Wl,--defsym=_ZN5telux4cv2x15Cv2xRadioHelper30v2xNonSpsFlowRegReqMsgToStringB5cxx11ERK36wds_v2x_non_sps_flow_reg_req_msg_v01=so_stub_for_libtelux_cv2x
-Wl,--defsym=_ZN5telux4cv2x15Cv2xRadioHelper30v2xSpsFlowUpdateReqMsgToStringB5cxx11ERK35wds_v2x_sps_flow_update_req_msg_v01=so_stub_for_libtelux_cv2x
-Wl,--defsym=_ZN5telux4cv2x15Cv2xRadioHelper31initWdsV2xNonSpsFlowDeregReqMsgER38wds_v2x_non_sps_flow_dereg_req_msg_v01jjt=so_stub_for_libtelux_cv2x
-Wl,--defsym=_ZN5telux4cv2x15Cv2xRadioHelper31initWdsV2xNonSpsFlowDeregReqMsgER38wds_v2x_non_sps_flow_dereg_req_msg_v01jRKSt6vectorISt10shared_ptrINS0_11ICv2xTxFlowEESaIS7_EE=so_stub_for_libtelux_cv2x
-Wl,--defsym=_ZN5telux4cv2x15Cv2xRadioHelper31v2xSpsSchedulingInfoIndToStringB5cxx11ERK39wds_v2x_sps_scheduling_info_ind_msg_v01=so_stub_for_libtelux_cv2x
-Wl,--defsym=_ZN5telux4cv2x15Cv2xRadioHelper31v2xTunnelModeInfoReqMsgToStringB5cxx11ERK36wds_v2x_tunnel_mode_info_req_msg_v01=so_stub_for_libtelux_cv2x
-Wl,--defsym=_ZN5telux4cv2x15Cv2xTxEventFlow2IdE=so_stub_for_libtelux_cv2x
-Wl,--defsym=_ZN5telux4cv2x15Cv2xTxEventFlow9closeSockEv=so_stub_for_libtelux_cv2x
-Wl,--defsym=_ZN5telux4cv2x15Cv2xTxEventFlowC1EjNS0_13TrafficIpTypeEjiRK12sockaddr_in6=so_stub_for_libtelux_cv2x
-Wl,--defsym=_ZN5telux4cv2x15Cv2xTxEventFlowC1ENS0_13TrafficIpTypeEjiRK12sockaddr_in6=so_stub_for_libtelux_cv2x
-Wl,--defsym=_ZN5telux4cv2x15Cv2xTxEventFlowC2EjNS0_13TrafficIpTypeEjiRK12sockaddr_in6=so_stub_for_libtelux_cv2x
-Wl,--defsym=_ZN5telux4cv2x15Cv2xTxEventFlowC2ENS0_13TrafficIpTypeEjiRK12sockaddr_in6=so_stub_for_libtelux_cv2x
-Wl,--defsym=_ZN5telux4cv2x15Cv2xTxEventFlowD0Ev=so_stub_for_libtelux_cv2x
-Wl,--defsym=_ZN5telux4cv2x15Cv2xTxEventFlowD1Ev=so_stub_for_libtelux_cv2x
-Wl,--defsym=_ZN5telux4cv2x15Cv2xTxEventFlowD2Ev=so_stub_for_libtelux_cv2x
-Wl,--defsym=_ZN5telux4cv2x15EventDispatcher9postEventESt10shared_ptrINS0_14IndicationDataEE=so_stub_for_libtelux_cv2x
-Wl,--defsym=_ZN5telux4cv2x15EventDispatcher9postEventESt10shared_ptrINS0_17ServiceStatusDataEE=so_stub_for_libtelux_cv2x
-Wl,--defsym=_ZN5telux4cv2x15EventDispatcherC1Ev=so_stub_for_libtelux_cv2x
-Wl,--defsym=_ZN5telux4cv2x15EventDispatcherC2Ev=so_stub_for_libtelux_cv2x
-Wl,--defsym=_ZN5telux4cv2x15EventDispatcherD1Ev=so_stub_for_libtelux_cv2x
-Wl,--defsym=_ZN5telux4cv2x15EventDispatcherD2Ev=so_stub_for_libtelux_cv2x
-Wl,--defsym=_ZN5telux4cv2x15ICv2xTxRxSocketC1Ev=so_stub_for_libtelux_cv2x
-Wl,--defsym=_ZN5telux4cv2x15ICv2xTxRxSocketC2Ev=so_stub_for_libtelux_cv2x
-Wl,--defsym=_ZN5telux4cv2x15ICv2xTxRxSocketD0Ev=so_stub_for_libtelux_cv2x
-Wl,--defsym=_ZN5telux4cv2x15ICv2xTxRxSocketD1Ev=so_stub_for_libtelux_cv2x
-Wl,--defsym=_ZN5telux4cv2x15ICv2xTxRxSocketD2Ev=so_stub_for_libtelux_cv2x
-Wl,--defsym=_ZN5telux4cv2x16Cv2xIndsListener15onL2AddrChangedEj=so_stub_for_libtelux_cv2x
-Wl,--defsym=_ZN5telux4cv2x16Cv2xIndsListener16registerListenerESt8weak_ptrINS0_18ICv2xRadioListenerEE=so_stub_for_libtelux_cv2x
-Wl,--defsym=_ZN5telux4cv2x16Cv2xIndsListener18deregisterListenerESt8weak_ptrINS0_18ICv2xRadioListenerEE=so_stub_for_libtelux_cv2x
-Wl,--defsym=_ZN5telux4cv2x16Cv2xIndsListener20onV2xNotificationIndERK28nas_v2x_notification_ind_v01=so_stub_for_libtelux_cv2x
-Wl,--defsym=_ZN5telux4cv2x16Cv2xIndsListener21onCapabilitiesChangedERKNS0_21Cv2xRadioCapabilitiesE=so_stub_for_libtelux_cv2x
-Wl,--defsym=_ZN5telux4cv2x16Cv2xIndsListenerC1Ev=so_stub_for_libtelux_cv2x
-Wl,--defsym=_ZN5telux4cv2x16Cv2xIndsListenerC2Ev=so_stub_for_libtelux_cv2x
-Wl,--defsym=_ZN5telux4cv2x16Cv2xIndsListenerD0Ev=so_stub_for_libtelux_cv2x
-Wl,--defsym=_ZN5telux4cv2x16Cv2xIndsListenerD1Ev=so_stub_for_libtelux_cv2x
-Wl,--defsym=_ZN5telux4cv2x16Cv2xIndsListenerD2Ev=so_stub_for_libtelux_cv2x
-Wl,--defsym=_ZN5telux4cv2x16Cv2xRadioManager12getCv2xRadioENS0_15TrafficCategoryE=so_stub_for_libtelux_cv2x
-Wl,--defsym=_ZN5telux4cv2x16Cv2xRadioManager12getNextReqIdEv=so_stub_for_libtelux_cv2x
-Wl,--defsym=_ZN5telux4cv2x16Cv2xRadioManager13initDmsClientEv=so_stub_for_libtelux_cv2x
-Wl,--defsym=_ZN5telux4cv2x16Cv2xRadioManager13initDsiClientEv=so_stub_for_libtelux_cv2x
-Wl,--defsym=_ZN5telux4cv2x16Cv2xRadioManager13initNasClientEv=so_stub_for_libtelux_cv2x
-Wl,--defsym=_ZN5telux4cv2x16Cv2xRadioManager14setPeakTxPowerEaSt8functionIFvNS_6common9ErrorCodeEEE=so_stub_for_libtelux_cv2x
-Wl,--defsym=_ZN5telux4cv2x16Cv2xRadioManager16registerListenerESt8weak_ptrINS0_13ICv2xListenerEE=so_stub_for_libtelux_cv2x
-Wl,--defsym=_ZN5telux4cv2x16Cv2xRadioManager17cv2xStartDecisionESt8functionIFvNS_6common9ErrorCodeEEE=so_stub_for_libtelux_cv2x
-Wl,--defsym=_ZN5telux4cv2x16Cv2xRadioManager17requestCv2xStatusESt8functionIFvNS0_10Cv2xStatusENS_6common9ErrorCodeEEE=so_stub_for_libtelux_cv2x
-Wl,--defsym=_ZN5telux4cv2x16Cv2xRadioManager17requestCv2xStatusESt8functionIFvNS0_12Cv2xStatusExENS_6common9ErrorCodeEEE=so_stub_for_libtelux_cv2x
-Wl,--defsym=_ZN5telux4cv2x16Cv2xRadioManager18deregisterListenerESt8weak_ptrINS0_13ICv2xListenerEE=so_stub_for_libtelux_cv2x
-Wl,--defsym=_ZN5telux4cv2x16Cv2xRadioManager18sendConfigFileSyncERKNSt7__cxx1112basic_stringIcSt11char_traitsIcESaIcEEEjSt8functionIFvNS_6common9ErrorCodeEEE=so_stub_for_libtelux_cv2x
-Wl,--defsym=_ZN5telux4cv2x16Cv2xRadioManager19updateConfigurationERKNSt7__cxx1112basic_stringIcSt11char_traitsIcESaIcEEESt8functionIFvNS_6common9ErrorCodeEEE=so_stub_for_libtelux_cv2x
-Wl,--defsym=_ZN5telux4cv2x16Cv2xRadioManager20setInitializedStatusENS_6common6StatusE=so_stub_for_libtelux_cv2x
-Wl,--defsym=_ZN5telux4cv2x16Cv2xRadioManager21initCv2xSysCtrlClientEv=so_stub_for_libtelux_cv2x
-Wl,--defsym=_ZN5telux4cv2x16Cv2xRadioManager21waitForInitializationEv=so_stub_for_libtelux_cv2x
-Wl,--defsym=_ZN5telux4cv2x16Cv2xRadioManager23updateOperatingModeSyncENS1_13OperatingModeE=so_stub_for_libtelux_cv2x
-Wl,--defsym=_ZN5telux4cv2x16Cv2xRadioManager25registerForNasIndicationsEv=so_stub_for_libtelux_cv2x
-Wl,--defsym=_ZN5telux4cv2x16Cv2xRadioManager25setServiceStatusCallbacksEv=so_stub_for_libtelux_cv2x
-Wl,--defsym=_ZN5telux4cv2x16Cv2xRadioManager29waitValidModeChangeIndicationEv=so_stub_for_libtelux_cv2x
-Wl,--defsym=_ZN5telux4cv2x16Cv2xRadioManager4initEv=so_stub_for_libtelux_cv2x
-Wl,--defsym=_ZN5telux4cv2x16Cv2xRadioManager7isReadyEv=so_stub_for_libtelux_cv2x
-Wl,--defsym=_ZN5telux4cv2x16Cv2xRadioManager7onReadyEv=so_stub_for_libtelux_cv2x
-Wl,--defsym=_ZN5telux4cv2x16Cv2xRadioManager8initSyncEv=so_stub_for_libtelux_cv2x
-Wl,--defsym=_ZN5telux4cv2x16Cv2xRadioManager8stopCv2xESt8functionIFvNS_6common9ErrorCodeEEE=so_stub_for_libtelux_cv2x
-Wl,--defsym=_ZN5telux4cv2x16Cv2xRadioManager9startCv2xESt8functionIFvNS_6common9ErrorCodeEEE=so_stub_for_libtelux_cv2x
-Wl,--defsym=_ZN5telux4cv2x16Cv2xRadioManagerC1Ev=so_stub_for_libtelux_cv2x
-Wl,--defsym=_ZN5telux4cv2x16Cv2xRadioManagerC2Ev=so_stub_for_libtelux_cv2x
-Wl,--defsym=_ZN5telux4cv2x16Cv2xRadioManagerD0Ev=so_stub_for_libtelux_cv2x
-Wl,--defsym=_ZN5telux4cv2x16Cv2xRadioManagerD1Ev=so_stub_for_libtelux_cv2x
-Wl,--defsym=_ZN5telux4cv2x16Cv2xRadioManagerD2Ev=so_stub_for_libtelux_cv2x
-Wl,--defsym=_ZN5telux4cv2x17ICv2xRadioManagerC1Ev=so_stub_for_libtelux_cv2x
-Wl,--defsym=_ZN5telux4cv2x17ICv2xRadioManagerC2Ev=so_stub_for_libtelux_cv2x
-Wl,--defsym=_ZN5telux4cv2x17ICv2xRadioManagerD0Ev=so_stub_for_libtelux_cv2x
-Wl,--defsym=_ZN5telux4cv2x17ICv2xRadioManagerD1Ev=so_stub_for_libtelux_cv2x
-Wl,--defsym=_ZN5telux4cv2x17ICv2xRadioManagerD2Ev=so_stub_for_libtelux_cv2x
-Wl,--defsym=_ZN5telux4cv2x17TrustedUEInfoListC1ERKS1_=so_stub_for_libtelux_cv2x
-Wl,--defsym=_ZN5telux4cv2x17TrustedUEInfoListC2ERKS1_=so_stub_for_libtelux_cv2x
-Wl,--defsym=_ZN5telux4cv2x17TrustedUEInfoListD1Ev=so_stub_for_libtelux_cv2x
-Wl,--defsym=_ZN5telux4cv2x17TrustedUEInfoListD2Ev=so_stub_for_libtelux_cv2x
-Wl,--defsym=_ZN5telux4cv2x18Cv2xConfigListener15onConfigChangedERKNS0_15ConfigEventInfoE=so_stub_for_libtelux_cv2x
-Wl,--defsym=_ZN5telux4cv2x18Cv2xConfigListener16registerListenerESt8weak_ptrINS0_19ICv2xConfigListenerEE=so_stub_for_libtelux_cv2x
-Wl,--defsym=_ZN5telux4cv2x18Cv2xConfigListener18deregisterListenerESt8weak_ptrINS0_19ICv2xConfigListenerEE=so_stub_for_libtelux_cv2x
-Wl,--defsym=_ZN5telux4cv2x18Cv2xConfigListener20onV2xConfigChangeIndERK34wds_v2x_config_changed_ind_msg_v01=so_stub_for_libtelux_cv2x
-Wl,--defsym=_ZN5telux4cv2x18Cv2xConfigListener24onWdsServiceStatusChangeENS_6common13ServiceStatusE=so_stub_for_libtelux_cv2x
-Wl,--defsym=_ZN5telux4cv2x18Cv2xConfigListener26setWdsStatusUpdateCallbackESt8functionIFvvEE=so_stub_for_libtelux_cv2x
-Wl,--defsym=_ZN5telux4cv2x18Cv2xConfigListenerC1Ev=so_stub_for_libtelux_cv2x
-Wl,--defsym=_ZN5telux4cv2x18Cv2xConfigListenerC2Ev=so_stub_for_libtelux_cv2x
-Wl,--defsym=_ZN5telux4cv2x18Cv2xConfigListenerD0Ev=so_stub_for_libtelux_cv2x
-Wl,--defsym=_ZN5telux4cv2x18Cv2xConfigListenerD1Ev=so_stub_for_libtelux_cv2x
-Wl,--defsym=_ZN5telux4cv2x18Cv2xConfigListenerD2Ev=so_stub_for_libtelux_cv2x
-Wl,--defsym=_ZN5telux4cv2x18Cv2xRxSubscription16setServiceIDListESt10shared_ptrISt6vectorIjSaIjEEE=so_stub_for_libtelux_cv2x
-Wl,--defsym=_ZN5telux4cv2x18Cv2xRxSubscription2IdE=so_stub_for_libtelux_cv2x
-Wl,--defsym=_ZN5telux4cv2x18Cv2xRxSubscription9closeSockEv=so_stub_for_libtelux_cv2x
-Wl,--defsym=_ZN5telux4cv2x18Cv2xRxSubscriptionC1EiRK12sockaddr_in6=so_stub_for_libtelux_cv2x
-Wl,--defsym=_ZN5telux4cv2x18Cv2xRxSubscriptionC2EiRK12sockaddr_in6=so_stub_for_libtelux_cv2x
-Wl,--defsym=_ZN5telux4cv2x18Cv2xRxSubscriptionD0Ev=so_stub_for_libtelux_cv2x
-Wl,--defsym=_ZN5telux4cv2x18Cv2xRxSubscriptionD1Ev=so_stub_for_libtelux_cv2x
-Wl,--defsym=_ZN5telux4cv2x18Cv2xRxSubscriptionD2Ev=so_stub_for_libtelux_cv2x
-Wl,--defsym=_ZN5telux4cv2x18ICv2xRadioListener15onL2AddrChangedEj=so_stub_for_libtelux_cv2x
-Wl,--defsym=_ZN5telux4cv2x18ICv2xRadioListener15onStatusChangedENS0_10Cv2xStatusE=so_stub_for_libtelux_cv2x
-Wl,--defsym=_ZN5telux4cv2x18ICv2xRadioListener15onStatusChangedENS0_12Cv2xStatusExE=so_stub_for_libtelux_cv2x
-Wl,--defsym=_ZN5telux4cv2x18ICv2xRadioListener18onSpsOffsetChangedEiNS0_10MacDetailsE=so_stub_for_libtelux_cv2x
-Wl,--defsym=_ZN5telux4cv2x18ICv2xRadioListener21onCapabilitiesChangedERKNS0_21Cv2xRadioCapabilitiesE=so_stub_for_libtelux_cv2x
-Wl,--defsym=_ZN5telux4cv2x18ICv2xRadioListener22onSpsSchedulingChangedERKNS0_17SpsSchedulingInfoE=so_stub_for_libtelux_cv2x
-Wl,--defsym=_ZN5telux4cv2x18ICv2xRadioListenerC1Ev=so_stub_for_libtelux_cv2x
-Wl,--defsym=_ZN5telux4cv2x18ICv2xRadioListenerC2Ev=so_stub_for_libtelux_cv2x
-Wl,--defsym=_ZN5telux4cv2x18ICv2xRadioListenerD0Ev=so_stub_for_libtelux_cv2x
-Wl,--defsym=_ZN5telux4cv2x18ICv2xRadioListenerD1Ev=so_stub_for_libtelux_cv2x
-Wl,--defsym=_ZN5telux4cv2x18ICv2xRadioListenerD2Ev=so_stub_for_libtelux_cv2x
-Wl,--defsym=_ZN5telux4cv2x18indicationCallbackEPv15cv2x_msg_type_tP15cv2x_msg_info_tS1_=so_stub_for_libtelux_cv2x
-Wl,--defsym=_ZN5telux4cv2x18QmiV2xStopCallback10onResponseEiPv=so_stub_for_libtelux_cv2x
-Wl,--defsym=_ZN5telux4cv2x18QmiV2xStopCallbackC1Ev=so_stub_for_libtelux_cv2x
-Wl,--defsym=_ZN5telux4cv2x18QmiV2xStopCallbackC2Ev=so_stub_for_libtelux_cv2x
-Wl,--defsym=_ZN5telux4cv2x18QmiV2xStopCallbackD0Ev=so_stub_for_libtelux_cv2x
-Wl,--defsym=_ZN5telux4cv2x18QmiV2xStopCallbackD1Ev=so_stub_for_libtelux_cv2x
-Wl,--defsym=_ZN5telux4cv2x18QmiV2xStopCallbackD2Ev=so_stub_for_libtelux_cv2x
-Wl,--defsym=_ZN5telux4cv2x19ICv2xConfigListener15onConfigChangedERKNS0_15ConfigEventInfoE=so_stub_for_libtelux_cv2x
-Wl,--defsym=_ZN5telux4cv2x19ICv2xConfigListenerC1Ev=so_stub_for_libtelux_cv2x
-Wl,--defsym=_ZN5telux4cv2x19ICv2xConfigListenerC2Ev=so_stub_for_libtelux_cv2x
-Wl,--defsym=_ZN5telux4cv2x19ICv2xConfigListenerD0Ev=so_stub_for_libtelux_cv2x
-Wl,--defsym=_ZN5telux4cv2x19ICv2xConfigListenerD1Ev=so_stub_for_libtelux_cv2x
-Wl,--defsym=_ZN5telux4cv2x19ICv2xConfigListenerD2Ev=so_stub_for_libtelux_cv2x
-Wl,--defsym=_ZN5telux4cv2x19ICv2xRxSubscriptionC1Ev=so_stub_for_libtelux_cv2x
-Wl,--defsym=_ZN5telux4cv2x19ICv2xRxSubscriptionC2Ev=so_stub_for_libtelux_cv2x
-Wl,--defsym=_ZN5telux4cv2x19ICv2xRxSubscriptionD0Ev=so_stub_for_libtelux_cv2x
-Wl,--defsym=_ZN5telux4cv2x19ICv2xRxSubscriptionD1Ev=so_stub_for_libtelux_cv2x
-Wl,--defsym=_ZN5telux4cv2x19ICv2xRxSubscriptionD2Ev=so_stub_for_libtelux_cv2x
-Wl,--defsym=_ZN5telux4cv2x19QmiV2xStartCallback10onResponseEiPv=so_stub_for_libtelux_cv2x
-Wl,--defsym=_ZN5telux4cv2x19QmiV2xStartCallbackC1ESt8functionIFvNS_6common9ErrorCodeEEE=so_stub_for_libtelux_cv2x
-Wl,--defsym=_ZN5telux4cv2x19QmiV2xStartCallbackC2ESt8functionIFvNS_6common9ErrorCodeEEE=so_stub_for_libtelux_cv2x
-Wl,--defsym=_ZN5telux4cv2x19QmiV2xStartCallbackD0Ev=so_stub_for_libtelux_cv2x
-Wl,--defsym=_ZN5telux4cv2x19QmiV2xStartCallbackD1Ev=so_stub_for_libtelux_cv2x
-Wl,--defsym=_ZN5telux4cv2x19QmiV2xStartCallbackD2Ev=so_stub_for_libtelux_cv2x
-Wl,--defsym=_ZN5telux4cv2x20ICv2xSysCtrlListener24onV2xGetConfigurationIndEhttjPh=so_stub_for_libtelux_cv2x
-Wl,--defsym=_ZN5telux4cv2x20ICv2xSysCtrlListenerC1Ev=so_stub_for_libtelux_cv2x
-Wl,--defsym=_ZN5telux4cv2x20ICv2xSysCtrlListenerC2Ev=so_stub_for_libtelux_cv2x
-Wl,--defsym=_ZN5telux4cv2x20ICv2xSysCtrlListenerD0Ev=so_stub_for_libtelux_cv2x
-Wl,--defsym=_ZN5telux4cv2x20ICv2xSysCtrlListenerD1Ev=so_stub_for_libtelux_cv2x
-Wl,--defsym=_ZN5telux4cv2x20ICv2xSysCtrlListenerD2Ev=so_stub_for_libtelux_cv2x
-Wl,--defsym=_ZN5telux4cv2x20QmiV2xStatusCallback10onResponseEP31nas_get_v2x_status_resp_msg_v01Pv=so_stub_for_libtelux_cv2x
-Wl,--defsym=_ZN5telux4cv2x20QmiV2xStatusCallbackC1Ev=so_stub_for_libtelux_cv2x
-Wl,--defsym=_ZN5telux4cv2x20QmiV2xStatusCallbackC2Ev=so_stub_for_libtelux_cv2x
-Wl,--defsym=_ZN5telux4cv2x20QmiV2xStatusCallbackD0Ev=so_stub_for_libtelux_cv2x
-Wl,--defsym=_ZN5telux4cv2x20QmiV2xStatusCallbackD1Ev=so_stub_for_libtelux_cv2x
-Wl,--defsym=_ZN5telux4cv2x20QmiV2xStatusCallbackD2Ev=so_stub_for_libtelux_cv2x
-Wl,--defsym=_ZN5telux4cv2x21Cv2xRadioCapabilitiesC1ERKS1_=so_stub_for_libtelux_cv2x
-Wl,--defsym=_ZN5telux4cv2x21Cv2xRadioCapabilitiesC1Ev=so_stub_for_libtelux_cv2x
-Wl,--defsym=_ZN5telux4cv2x21Cv2xRadioCapabilitiesC2ERKS1_=so_stub_for_libtelux_cv2x
-Wl,--defsym=_ZN5telux4cv2x21Cv2xRadioCapabilitiesC2Ev=so_stub_for_libtelux_cv2x
-Wl,--defsym=_ZN5telux4cv2x21Cv2xRadioCapabilitiesD1Ev=so_stub_for_libtelux_cv2x
-Wl,--defsym=_ZN5telux4cv2x21Cv2xRadioCapabilitiesD2Ev=so_stub_for_libtelux_cv2x
-Wl,--defsym=_ZN5telux4cv2x21QmiNasIndsRegCallback10onResponseEiPv=so_stub_for_libtelux_cv2x
-Wl,--defsym=_ZN5telux4cv2x21QmiNasIndsRegCallback9getFutureEv=so_stub_for_libtelux_cv2x
-Wl,--defsym=_ZN5telux4cv2x21QmiNasIndsRegCallbackC1Ev=so_stub_for_libtelux_cv2x
-Wl,--defsym=_ZN5telux4cv2x21QmiNasIndsRegCallbackC2Ev=so_stub_for_libtelux_cv2x
-Wl,--defsym=_ZN5telux4cv2x21QmiNasIndsRegCallbackD0Ev=so_stub_for_libtelux_cv2x
-Wl,--defsym=_ZN5telux4cv2x21QmiNasIndsRegCallbackD1Ev=so_stub_for_libtelux_cv2x
-Wl,--defsym=_ZN5telux4cv2x21QmiNasIndsRegCallbackD2Ev=so_stub_for_libtelux_cv2x
-Wl,--defsym=_ZN5telux4cv2x21ServiceStatusListener10onResponseEP31nas_get_v2x_status_resp_msg_v01Pv=so_stub_for_libtelux_cv2x
-Wl,--defsym=_ZN5telux4cv2x21ServiceStatusListener16registerListenerESt8weak_ptrINS0_13ICv2xListenerEE=so_stub_for_libtelux_cv2x
-Wl,--defsym=_ZN5telux4cv2x21ServiceStatusListener18deregisterListenerESt8weak_ptrINS0_13ICv2xListenerEE=so_stub_for_libtelux_cv2x
-Wl,--defsym=_ZN5telux4cv2x21ServiceStatusListener20onV2xNotificationIndERK28nas_v2x_notification_ind_v01=so_stub_for_libtelux_cv2x
-Wl,--defsym=_ZN5telux4cv2x21ServiceStatusListener21onOperatingModeChangeEi=so_stub_for_libtelux_cv2x
-Wl,--defsym=_ZN5telux4cv2x21ServiceStatusListener21onServiceStatusChangeENS_6common13ServiceStatusE=so_stub_for_libtelux_cv2x
-Wl,--defsym=_ZN5telux4cv2x21ServiceStatusListener22setServiceAvailabilityENS1_17ServiceStatusTypeENS_6common13ServiceStatusERb=so_stub_for_libtelux_cv2x
-Wl,--defsym=_ZN5telux4cv2x21ServiceStatusListener24onDmsServiceStatusChangeENS_6common13ServiceStatusEi=so_stub_for_libtelux_cv2x
-Wl,--defsym=_ZN5telux4cv2x21ServiceStatusListener24onNasServiceStatusChangeENS_6common13ServiceStatusE=so_stub_for_libtelux_cv2x
-Wl,--defsym=_ZN5telux4cv2x21ServiceStatusListener25setUpdateRequiredCallbackESt8functionIFvvEES2_IFbNS_6common13ServiceStatusEEES8_S2_IFviEE=so_stub_for_libtelux_cv2x
-Wl,--defsym=_ZN5telux4cv2x21ServiceStatusListener28onOverallServiceStatusChangeENS_6common13ServiceStatusE=so_stub_for_libtelux_cv2x
-Wl,--defsym=_ZN5telux4cv2x21ServiceStatusListenerC1Ev=so_stub_for_libtelux_cv2x
-Wl,--defsym=_ZN5telux4cv2x21ServiceStatusListenerC2Ev=so_stub_for_libtelux_cv2x
-Wl,--defsym=_ZN5telux4cv2x21ServiceStatusListenerD0Ev=so_stub_for_libtelux_cv2x
-Wl,--defsym=_ZN5telux4cv2x21ServiceStatusListenerD1Ev=so_stub_for_libtelux_cv2x
-Wl,--defsym=_ZN5telux4cv2x21ServiceStatusListenerD2Ev=so_stub_for_libtelux_cv2x
-Wl,--defsym=_ZN5telux4cv2x22Cv2xSysRequestResponse18indicationCallbackEPv15cv2x_msg_type_tP15cv2x_msg_info_tS2_=so_stub_for_libtelux_cv2x
-Wl,--defsym=_ZN5telux4cv2x22Cv2xSysRequestResponse9getFutureEv=so_stub_for_libtelux_cv2x
-Wl,--defsym=_ZN5telux4cv2x22Cv2xSysRequestResponseC1E15cv2x_msg_type_tSt8functionIFNS_6common9ErrorCodeEPK15cv2x_msg_info_tEE=so_stub_for_libtelux_cv2x
-Wl,--defsym=_ZN5telux4cv2x22Cv2xSysRequestResponseC2E15cv2x_msg_type_tSt8functionIFNS_6common9ErrorCodeEPK15cv2x_msg_info_tEE=so_stub_for_libtelux_cv2x
-Wl,--defsym=_ZN5telux4cv2x22Cv2xSysRequestResponseD1Ev=so_stub_for_libtelux_cv2x
-Wl,--defsym=_ZN5telux4cv2x22Cv2xSysRequestResponseD2Ev=so_stub_for_libtelux_cv2x
-Wl,--defsym=_ZN5telux4cv2x22QmiV2xStatusCallbackEx10onResponseEP31nas_get_v2x_status_resp_msg_v01Pv=so_stub_for_libtelux_cv2x
-Wl,--defsym=_ZN5telux4cv2x22QmiV2xStatusCallbackExC1Ev=so_stub_for_libtelux_cv2x
-Wl,--defsym=_ZN5telux4cv2x22QmiV2xStatusCallbackExC2Ev=so_stub_for_libtelux_cv2x
-Wl,--defsym=_ZN5telux4cv2x22QmiV2xStatusCallbackExD0Ev=so_stub_for_libtelux_cv2x
-Wl,--defsym=_ZN5telux4cv2x22QmiV2xStatusCallbackExD1Ev=so_stub_for_libtelux_cv2x
-Wl,--defsym=_ZN5telux4cv2x22QmiV2xStatusCallbackExD2Ev=so_stub_for_libtelux_cv2x
-Wl,--defsym=_ZN5telux4cv2x22requestResponseWrapperEPv15cv2x_msg_type_tP15cv2x_msg_info_tS1_=so_stub_for_libtelux_cv2x
-Wl,--defsym=_ZN5telux4cv2x22V2xWrConfigurationCtrl13setWrCallbackESt8functionIFbPKciEE=so_stub_for_libtelux_cv2x
-Wl,--defsym=_ZN5telux4cv2x22V2xWrConfigurationCtrl19cacheConfigAndWriteEttjPKc=so_stub_for_libtelux_cv2x
-Wl,--defsym=_ZN5telux4cv2x22V2xWrConfigurationCtrl9getFutureEv=so_stub_for_libtelux_cv2x
-Wl,--defsym=_ZN5telux4cv2x22V2xWrConfigurationCtrlC1Ev=so_stub_for_libtelux_cv2x
-Wl,--defsym=_ZN5telux4cv2x22V2xWrConfigurationCtrlC2Ev=so_stub_for_libtelux_cv2x
-Wl,--defsym=_ZN5telux4cv2x22V2xWrConfigurationCtrlD1Ev=so_stub_for_libtelux_cv2x
-Wl,--defsym=_ZN5telux4cv2x22V2xWrConfigurationCtrlD2Ev=so_stub_for_libtelux_cv2x
-Wl,--defsym=_ZN5telux4cv2x25QmiSetEventReportCallback22setEventReportResponseEiPv=so_stub_for_libtelux_cv2x
-Wl,--defsym=_ZN5telux4cv2x25QmiSetEventReportCallback24onDmsServiceStatusChangeENS_6common13ServiceStatusEi=so_stub_for_libtelux_cv2x
-Wl,--defsym=_ZN5telux4cv2x25QmiSetEventReportCallback9getFutureEv=so_stub_for_libtelux_cv2x
-Wl,--defsym=_ZN5telux4cv2x25QmiSetEventReportCallbackC1Ev=so_stub_for_libtelux_cv2x
-Wl,--defsym=_ZN5telux4cv2x25QmiSetEventReportCallbackC2Ev=so_stub_for_libtelux_cv2x
-Wl,--defsym=_ZN5telux4cv2x25QmiSetEventReportCallbackD0Ev=so_stub_for_libtelux_cv2x
-Wl,--defsym=_ZN5telux4cv2x25QmiSetEventReportCallbackD1Ev=so_stub_for_libtelux_cv2x
-Wl,--defsym=_ZN5telux4cv2x25QmiSetEventReportCallbackD2Ev=so_stub_for_libtelux_cv2x
-Wl,--defsym=_ZN5telux4cv2x25QmiSetPeakTxPowerCallback10onResponseEiPv=so_stub_for_libtelux_cv2x
-Wl,--defsym=_ZN5telux4cv2x25QmiSetPeakTxPowerCallbackC1Ev=so_stub_for_libtelux_cv2x
-Wl,--defsym=_ZN5telux4cv2x25QmiSetPeakTxPowerCallbackC2Ev=so_stub_for_libtelux_cv2x
-Wl,--defsym=_ZN5telux4cv2x25QmiSetPeakTxPowerCallbackD0Ev=so_stub_for_libtelux_cv2x
-Wl,--defsym=_ZN5telux4cv2x25QmiSetPeakTxPowerCallbackD1Ev=so_stub_for_libtelux_cv2x
-Wl,--defsym=_ZN5telux4cv2x25QmiSetPeakTxPowerCallbackD2Ev=so_stub_for_libtelux_cv2x
-Wl,--defsym=_ZN5telux4cv2x27QmiGetOperatingModeCallback24getOperatingModeResponseEiiPv=so_stub_for_libtelux_cv2x
-Wl,--defsym=_ZN5telux4cv2x27QmiGetOperatingModeCallback24onDmsServiceStatusChangeENS_6common13ServiceStatusEi=so_stub_for_libtelux_cv2x
-Wl,--defsym=_ZN5telux4cv2x27QmiGetOperatingModeCallback9getFutureEv=so_stub_for_libtelux_cv2x
-Wl,--defsym=_ZN5telux4cv2x27QmiGetOperatingModeCallbackC1Ev=so_stub_for_libtelux_cv2x
-Wl,--defsym=_ZN5telux4cv2x27QmiGetOperatingModeCallbackC2Ev=so_stub_for_libtelux_cv2x
-Wl,--defsym=_ZN5telux4cv2x27QmiGetOperatingModeCallbackD0Ev=so_stub_for_libtelux_cv2x
-Wl,--defsym=_ZN5telux4cv2x27QmiGetOperatingModeCallbackD1Ev=so_stub_for_libtelux_cv2x
-Wl,--defsym=_ZN5telux4cv2x27QmiGetOperatingModeCallbackD2Ev=so_stub_for_libtelux_cv2x
-Wl,--defsym=_ZN5telux4cv2x27QmiSetOperatingModeCallback24onDmsServiceStatusChangeENS_6common13ServiceStatusEi=so_stub_for_libtelux_cv2x
-Wl,--defsym=_ZN5telux4cv2x27QmiSetOperatingModeCallback24setOperatingModeResponseEiPv=so_stub_for_libtelux_cv2x
-Wl,--defsym=_ZN5telux4cv2x27QmiSetOperatingModeCallback9getFutureEv=so_stub_for_libtelux_cv2x
-Wl,--defsym=_ZN5telux4cv2x27QmiSetOperatingModeCallbackC1Ev=so_stub_for_libtelux_cv2x
-Wl,--defsym=_ZN5telux4cv2x27QmiSetOperatingModeCallbackC2Ev=so_stub_for_libtelux_cv2x
-Wl,--defsym=_ZN5telux4cv2x27QmiSetOperatingModeCallbackD0Ev=so_stub_for_libtelux_cv2x
-Wl,--defsym=_ZN5telux4cv2x27QmiSetOperatingModeCallbackD1Ev=so_stub_for_libtelux_cv2x
-Wl,--defsym=_ZN5telux4cv2x27QmiSetOperatingModeCallbackD2Ev=so_stub_for_libtelux_cv2x
-Wl,--defsym=_ZN5telux4cv2x30QmiV2xGetConfigurationCallback17v2xConfigResponseEiiRK36wds_v2x_get_config_file_resp_msg_v01Pv=so_stub_for_libtelux_cv2x
-Wl,--defsym=_ZN5telux4cv2x30QmiV2xGetConfigurationCallback24onV2xGetConfigurationIndERK31wds_v2x_config_file_ind_msg_v01=so_stub_for_libtelux_cv2x
-Wl,--defsym=_ZN5telux4cv2x30QmiV2xGetConfigurationCallback24onWdsServiceStatusChangeENS_6common13ServiceStatusE=so_stub_for_libtelux_cv2x
-Wl,--defsym=_ZN5telux4cv2x30QmiV2xGetConfigurationCallbackC1Ev=so_stub_for_libtelux_cv2x
-Wl,--defsym=_ZN5telux4cv2x30QmiV2xGetConfigurationCallbackC2Ev=so_stub_for_libtelux_cv2x
-Wl,--defsym=_ZN5telux4cv2x30QmiV2xGetConfigurationCallbackD0Ev=so_stub_for_libtelux_cv2x
-Wl,--defsym=_ZN5telux4cv2x30QmiV2xGetConfigurationCallbackD1Ev=so_stub_for_libtelux_cv2x
-Wl,--defsym=_ZN5telux4cv2x30QmiV2xGetConfigurationCallbackD2Ev=so_stub_for_libtelux_cv2x
-Wl,--defsym=_ZN5telux4cv2x31QmiV2xRegisterConfigIndCallback15commandResponseEiiPv=so_stub_for_libtelux_cv2x
-Wl,--defsym=_ZN5telux4cv2x31QmiV2xRegisterConfigIndCallback9getFutureEv=so_stub_for_libtelux_cv2x
-Wl,--defsym=_ZN5telux4cv2x31QmiV2xRegisterConfigIndCallbackC1Ev=so_stub_for_libtelux_cv2x
-Wl,--defsym=_ZN5telux4cv2x31QmiV2xRegisterConfigIndCallbackC2Ev=so_stub_for_libtelux_cv2x
-Wl,--defsym=_ZN5telux4cv2x31QmiV2xRegisterConfigIndCallbackD0Ev=so_stub_for_libtelux_cv2x
-Wl,--defsym=_ZN5telux4cv2x31QmiV2xRegisterConfigIndCallbackD1Ev=so_stub_for_libtelux_cv2x
-Wl,--defsym=_ZN5telux4cv2x31QmiV2xRegisterConfigIndCallbackD2Ev=so_stub_for_libtelux_cv2x
-Wl,--defsym=_ZN5telux4cv2x31SysctrlGetConfigurationCallback21onServiceStatusChangeENS_6common13ServiceStatusE=so_stub_for_libtelux_cv2x
-Wl,--defsym=_ZN5telux4cv2x31SysctrlGetConfigurationCallback24onV2xGetConfigurationIndEhttjPh=so_stub_for_libtelux_cv2x
-Wl,--defsym=_ZN5telux4cv2x31SysctrlGetConfigurationCallback7setTxIdEh=so_stub_for_libtelux_cv2x
-Wl,--defsym=_ZN5telux4cv2x31SysctrlGetConfigurationCallbackC1Ev=so_stub_for_libtelux_cv2x
-Wl,--defsym=_ZN5telux4cv2x31SysctrlGetConfigurationCallbackC2Ev=so_stub_for_libtelux_cv2x
-Wl,--defsym=_ZN5telux4cv2x31SysctrlGetConfigurationCallbackD0Ev=so_stub_for_libtelux_cv2x
-Wl,--defsym=_ZN5telux4cv2x31SysctrlGetConfigurationCallbackD1Ev=so_stub_for_libtelux_cv2x
-Wl,--defsym=_ZN5telux4cv2x31SysctrlGetConfigurationCallbackD2Ev=so_stub_for_libtelux_cv2x
-Wl,--defsym=_ZN5telux4cv2x35QmiV2xSendConfigurationFileCallback15commandResponseEiiPv=so_stub_for_libtelux_cv2x
-Wl,--defsym=_ZN5telux4cv2x35QmiV2xSendConfigurationFileCallback22onV2xSendConfigFileIndERK43wds_v2x_send_config_file_result_ind_msg_v01=so_stub_for_libtelux_cv2x
-Wl,--defsym=_ZN5telux4cv2x35QmiV2xSendConfigurationFileCallback24onWdsServiceStatusChangeENS_6common13ServiceStatusE=so_stub_for_libtelux_cv2x
-Wl,--defsym=_ZN5telux4cv2x35QmiV2xSendConfigurationFileCallback9getFutureEv=so_stub_for_libtelux_cv2x
-Wl,--defsym=_ZN5telux4cv2x35QmiV2xSendConfigurationFileCallbackC1Ej=so_stub_for_libtelux_cv2x
-Wl,--defsym=_ZN5telux4cv2x35QmiV2xSendConfigurationFileCallbackC2Ej=so_stub_for_libtelux_cv2x
-Wl,--defsym=_ZN5telux4cv2x35QmiV2xSendConfigurationFileCallbackD0Ev=so_stub_for_libtelux_cv2x
-Wl,--defsym=_ZN5telux4cv2x35QmiV2xSendConfigurationFileCallbackD1Ev=so_stub_for_libtelux_cv2x
-Wl,--defsym=_ZN5telux4cv2x35QmiV2xSendConfigurationFileCallbackD2Ev=so_stub_for_libtelux_cv2x
-Wl,--defsym=_ZN5telux4cv2x9EventInfoINS0_14IndicationDataEE7processEv=so_stub_for_libtelux_cv2x
-Wl,--defsym=_ZN5telux4cv2x9EventInfoINS0_14IndicationDataEEC1ESt10shared_ptrIS2_ESt8functionIFvS5_EE=so_stub_for_libtelux_cv2x
-Wl,--defsym=_ZN5telux4cv2x9EventInfoINS0_14IndicationDataEEC2ESt10shared_ptrIS2_ESt8functionIFvS5_EE=so_stub_for_libtelux_cv2x
-Wl,--defsym=_ZN5telux4cv2x9EventInfoINS0_14IndicationDataEED1Ev=so_stub_for_libtelux_cv2x
-Wl,--defsym=_ZN5telux4cv2x9EventInfoINS0_14IndicationDataEED2Ev=so_stub_for_libtelux_cv2x
-Wl,--defsym=_ZN5telux4cv2x9EventInfoINS0_17ServiceStatusDataEE7processEv=so_stub_for_libtelux_cv2x
-Wl,--defsym=_ZN5telux4cv2x9EventInfoINS0_17ServiceStatusDataEEC1ESt10shared_ptrIS2_ESt8functionIFvS5_EE=so_stub_for_libtelux_cv2x
-Wl,--defsym=_ZN5telux4cv2x9EventInfoINS0_17ServiceStatusDataEEC2ESt10shared_ptrIS2_ESt8functionIFvS5_EE=so_stub_for_libtelux_cv2x
-Wl,--defsym=_ZN5telux4cv2x9EventInfoINS0_17ServiceStatusDataEED1Ev=so_stub_for_libtelux_cv2x
-Wl,--defsym=_ZN5telux4cv2x9EventInfoINS0_17ServiceStatusDataEED2Ev=so_stub_for_libtelux_cv2x
-Wl,--defsym=_ZN5telux4data23IDataConnectionListener21onDataCallInfoChangedERKSt10shared_ptrINS0_9IDataCallEE=so_stub_for_libtelux_cv2x
-Wl,--defsym=_ZN5telux4data23IDataConnectionListenerC1Ev=so_stub_for_libtelux_cv2x
-Wl,--defsym=_ZN5telux4data23IDataConnectionListenerC2Ev=so_stub_for_libtelux_cv2x
-Wl,--defsym=_ZN5telux4data23IDataConnectionListenerD0Ev=so_stub_for_libtelux_cv2x
-Wl,--defsym=_ZN5telux4data23IDataConnectionListenerD1Ev=so_stub_for_libtelux_cv2x
-Wl,--defsym=_ZN5telux4data23IDataConnectionListenerD2Ev=so_stub_for_libtelux_cv2x
-Wl,--defsym=_ZN5telux5utils23getGlobalIn6AddrByIfaceERNSt7__cxx1112basic_stringIcSt11char_traitsIcESaIcEEER8in6_addr=so_stub_for_libtelux_cv2x
-Wl,--defsym=_ZN5telux6common14AsyncTaskQueueIvE14purgeCompletedEv=so_stub_for_libtelux_cv2x
-Wl,--defsym=_ZN5telux6common14AsyncTaskQueueIvE3addERSt13shared_futureIvE=so_stub_for_libtelux_cv2x
-Wl,--defsym=_ZN5telux6common14AsyncTaskQueueIvEC1Ev=so_stub_for_libtelux_cv2x
-Wl,--defsym=_ZN5telux6common14AsyncTaskQueueIvEC2Ev=so_stub_for_libtelux_cv2x
-Wl,--defsym=_ZN5telux6common14AsyncTaskQueueIvED1Ev=so_stub_for_libtelux_cv2x
-Wl,--defsym=_ZN5telux6common14AsyncTaskQueueIvED2Ev=so_stub_for_libtelux_cv2x
-Wl,--defsym=_ZN5telux6common15ListenerManagerINS_4cv2x13ICv2xListenerEE16registerListenerESt8weak_ptrIS3_E=so_stub_for_libtelux_cv2x
-Wl,--defsym=_ZN5telux6common15ListenerManagerINS_4cv2x13ICv2xListenerEE18deRegisterListenerESt8weak_ptrIS3_E=so_stub_for_libtelux_cv2x
-Wl,--defsym=_ZN5telux6common15ListenerManagerINS_4cv2x13ICv2xListenerEE21getAvailableListenersERSt6vectorISt8weak_ptrIS3_ESaIS7_EE=so_stub_for_libtelux_cv2x
-Wl,--defsym=_ZN5telux6common15ListenerManagerINS_4cv2x13ICv2xListenerEEC1Ev=so_stub_for_libtelux_cv2x
-Wl,--defsym=_ZN5telux6common15ListenerManagerINS_4cv2x13ICv2xListenerEEC2Ev=so_stub_for_libtelux_cv2x
-Wl,--defsym=_ZN5telux6common15ListenerManagerINS_4cv2x13ICv2xListenerEED1Ev=so_stub_for_libtelux_cv2x
-Wl,--defsym=_ZN5telux6common15ListenerManagerINS_4cv2x13ICv2xListenerEED2Ev=so_stub_for_libtelux_cv2x
-Wl,--defsym=_ZN5telux6common15ListenerManagerINS_4cv2x19ICv2xConfigListenerEE16registerListenerESt8weak_ptrIS3_E=so_stub_for_libtelux_cv2x
-Wl,--defsym=_ZN5telux6common15ListenerManagerINS_4cv2x19ICv2xConfigListenerEE18deRegisterListenerESt8weak_ptrIS3_E=so_stub_for_libtelux_cv2x
-Wl,--defsym=_ZN5telux6common15ListenerManagerINS_4cv2x19ICv2xConfigListenerEE21getAvailableListenersERSt6vectorISt8weak_ptrIS3_ESaIS7_EE=so_stub_for_libtelux_cv2x
-Wl,--defsym=_ZN5telux6common15ListenerManagerINS_4cv2x19ICv2xConfigListenerEEC1Ev=so_stub_for_libtelux_cv2x
-Wl,--defsym=_ZN5telux6common15ListenerManagerINS_4cv2x19ICv2xConfigListenerEEC2Ev=so_stub_for_libtelux_cv2x
-Wl,--defsym=_ZN5telux6common15ListenerManagerINS_4cv2x19ICv2xConfigListenerEED1Ev=so_stub_for_libtelux_cv2x
-Wl,--defsym=_ZN5telux6common15ListenerManagerINS_4cv2x19ICv2xConfigListenerEED2Ev=so_stub_for_libtelux_cv2x
-Wl,--defsym=_ZN5telux6common15ListenerManagerINS_4cv2x20ICv2xSysCtrlListenerEE16registerListenerESt8weak_ptrIS3_E=so_stub_for_libtelux_cv2x
-Wl,--defsym=_ZN5telux6common15ListenerManagerINS_4cv2x20ICv2xSysCtrlListenerEE18deRegisterListenerESt8weak_ptrIS3_E=so_stub_for_libtelux_cv2x
-Wl,--defsym=_ZN5telux6common15ListenerManagerINS_4cv2x20ICv2xSysCtrlListenerEE21getAvailableListenersERSt6vectorISt8weak_ptrIS3_ESaIS7_EE=so_stub_for_libtelux_cv2x
-Wl,--defsym=_ZN5telux6common15ListenerManagerINS_4cv2x20ICv2xSysCtrlListenerEEC1Ev=so_stub_for_libtelux_cv2x
-Wl,--defsym=_ZN5telux6common15ListenerManagerINS_4cv2x20ICv2xSysCtrlListenerEEC2Ev=so_stub_for_libtelux_cv2x
-Wl,--defsym=_ZN5telux6common15ListenerManagerINS_4cv2x20ICv2xSysCtrlListenerEED1Ev=so_stub_for_libtelux_cv2x
-Wl,--defsym=_ZN5telux6common15ListenerManagerINS_4cv2x20ICv2xSysCtrlListenerEED2Ev=so_stub_for_libtelux_cv2x
-Wl,--defsym=_ZN5telux6common16ICommandCallbackC1Ev=so_stub_for_libtelux_cv2x
-Wl,--defsym=_ZN5telux6common16ICommandCallbackC2Ev=so_stub_for_libtelux_cv2x
-Wl,--defsym=_ZN5telux6common16ICommandCallbackD0Ev=so_stub_for_libtelux_cv2x
-Wl,--defsym=_ZN5telux6common16ICommandCallbackD1Ev=so_stub_for_libtelux_cv2x
-Wl,--defsym=_ZN5telux6common16ICommandCallbackD2Ev=so_stub_for_libtelux_cv2x
-Wl,--defsym=_ZN5telux6common18getUnderlyingValueINS_4cv2x11ConfigEventEEENSt15underlying_typeIT_E4typeES5_=so_stub_for_libtelux_cv2x
-Wl,--defsym=_ZN5telux6common18getUnderlyingValueINS_4cv2x11PeriodicityEEENSt15underlying_typeIT_E4typeES5_=so_stub_for_libtelux_cv2x
-Wl,--defsym=_ZN5telux6common18getUnderlyingValueINS_4cv2x13TrafficIpTypeEEENSt15underlying_typeIT_E4typeES5_=so_stub_for_libtelux_cv2x
-Wl,--defsym=_ZN5telux6common18getUnderlyingValueINS_4cv2x16ConfigSourceTypeEEENSt15underlying_typeIT_E4typeES5_=so_stub_for_libtelux_cv2x
-Wl,--defsym=_ZN5telux6common18getUnderlyingValueINS_4cv2x8PriorityEEENSt15underlying_typeIT_E4typeES5_=so_stub_for_libtelux_cv2x
-Wl,--defsym=_ZN5telux6common22IServiceStatusListener21onServiceStatusChangeENS0_13ServiceStatusE=so_stub_for_libtelux_cv2x
-Wl,--defsym=_ZN5telux6common22IServiceStatusListenerC1Ev=so_stub_for_libtelux_cv2x
-Wl,--defsym=_ZN5telux6common22IServiceStatusListenerC2Ev=so_stub_for_libtelux_cv2x
-Wl,--defsym=_ZN5telux6common22IServiceStatusListenerD0Ev=so_stub_for_libtelux_cv2x
-Wl,--defsym=_ZN5telux6common22IServiceStatusListenerD1Ev=so_stub_for_libtelux_cv2x
-Wl,--defsym=_ZN5telux6common22IServiceStatusListenerD2Ev=so_stub_for_libtelux_cv2x
-Wl,--defsym=_ZN5telux6common3Log10logMessageIJPKc15cv2x_msg_type_tS4_EEEvNS0_8LogLevelERKNSt7__cxx1112basic_stringIcSt11char_traitsIcESaIcEEESE_RKiDpT_=so_stub_for_libtelux_cv2x
-Wl,--defsym=_ZN5telux6common3Log10logMessageIJPKc18qmi_error_type_v01EEEvNS0_8LogLevelERKNSt7__cxx1112basic_stringIcSt11char_traitsIcESaIcEEESE_RKiDpT_=so_stub_for_libtelux_cv2x
-Wl,--defsym=_ZN5telux6common3Log10logMessageIJPKc40wds_v2x_config_file_send_result_enum_v01EEEvNS0_8LogLevelERKNSt7__cxx1112basic_stringIcSt11char_traitsIcESaIcEEESE_RKiDpT_=so_stub_for_libtelux_cv2x
-Wl,--defsym=_ZN5telux6common3Log10logMessageIJPKcEEEvNS0_8LogLevelERKNSt7__cxx1112basic_stringIcSt11char_traitsIcESaIcEEESD_RKiDpT_=so_stub_for_libtelux_cv2x
-Wl,--defsym=_ZN5telux6common3Log10logMessageIJPKciEEEvNS0_8LogLevelERKNSt7__cxx1112basic_stringIcSt11char_traitsIcESaIcEEESD_RKiDpT_=so_stub_for_libtelux_cv2x
-Wl,--defsym=_ZN5telux6common3Log10logMessageIJPKciS4_EEEvNS0_8LogLevelERKNSt7__cxx1112basic_stringIcSt11char_traitsIcESaIcEEESD_RKiDpT_=so_stub_for_libtelux_cv2x
-Wl,--defsym=_ZN5telux6common3Log10logMessageIJPKciS4_tS4_EEEvNS0_8LogLevelERKNSt7__cxx1112basic_stringIcSt11char_traitsIcESaIcEEESD_RKiDpT_=so_stub_for_libtelux_cv2x
-Wl,--defsym=_ZN5telux6common3Log10logMessageIJPKcjEEEvNS0_8LogLevelERKNSt7__cxx1112basic_stringIcSt11char_traitsIcESaIcEEESD_RKiDpT_=so_stub_for_libtelux_cv2x
-Wl,--defsym=_ZN5telux6common3Log10logMessageIJPKcNSt7__cxx1112basic_stringIcSt11char_traitsIcESaIcEEEEEEvNS0_8LogLevelERKSA_SD_RKiDpT_=so_stub_for_libtelux_cv2x
-Wl,--defsym=_ZN5telux6common3Log10logMessageIJPKcS4_15cv2x_msg_type_tS4_EEEvNS0_8LogLevelERKNSt7__cxx1112basic_stringIcSt11char_traitsIcESaIcEEESE_RKiDpT_=so_stub_for_libtelux_cv2x
-Wl,--defsym=_ZN5telux6common3Log10logMessageIJPKcS4_EEEvNS0_8LogLevelERKNSt7__cxx1112basic_stringIcSt11char_traitsIcESaIcEEESD_RKiDpT_=so_stub_for_libtelux_cv2x
-Wl,--defsym=_ZN5telux6common3Log10logMessageIJPKcS4_iEEEvNS0_8LogLevelERKNSt7__cxx1112basic_stringIcSt11char_traitsIcESaIcEEESD_RKiDpT_=so_stub_for_libtelux_cv2x
-Wl,--defsym=_ZN5telux6common3Log10logMessageIJPKcS4_iS4_iEEEvNS0_8LogLevelERKNSt7__cxx1112basic_stringIcSt11char_traitsIcESaIcEEESD_RKiDpT_=so_stub_for_libtelux_cv2x
-Wl,--defsym=_ZN5telux6common3Log10logMessageIJPKcS4_iS4_NSt7__cxx1112basic_stringIcSt11char_traitsIcESaIcEEEEEEvNS0_8LogLevelERKSA_SD_RKiDpT_=so_stub_for_libtelux_cv2x
-Wl,--defsym=_ZN5telux6common3Log10logMessageIJPKcS4_iS4_PcEEEvNS0_8LogLevelERKNSt7__cxx1112basic_stringIcSt11char_traitsIcESaIcEEESE_RKiDpT_=so_stub_for_libtelux_cv2x
-Wl,--defsym=_ZN5telux6common3Log10logMessageIJPKcS4_iS4_tEEEvNS0_8LogLevelERKNSt7__cxx1112basic_stringIcSt11char_traitsIcESaIcEEESD_RKiDpT_=so_stub_for_libtelux_cv2x
-Wl,--defsym=_ZN5telux6common3Log10logMessageIJPKcS4_jEEEvNS0_8LogLevelERKNSt7__cxx1112basic_stringIcSt11char_traitsIcESaIcEEESD_RKiDpT_=so_stub_for_libtelux_cv2x
-Wl,--defsym=_ZN5telux6common3Log10logMessageIJPKcS4_jS4_EEEvNS0_8LogLevelERKNSt7__cxx1112basic_stringIcSt11char_traitsIcESaIcEEESD_RKiDpT_=so_stub_for_libtelux_cv2x
-Wl,--defsym=_ZN5telux6common3Log10logMessageIJPKcS4_jS4_iEEEvNS0_8LogLevelERKNSt7__cxx1112basic_stringIcSt11char_traitsIcESaIcEEESD_RKiDpT_=so_stub_for_libtelux_cv2x
-Wl,--defsym=_ZN5telux6common3Log10logMessageIJPKcS4_jS4_jS4_EEEvNS0_8LogLevelERKNSt7__cxx1112basic_stringIcSt11char_traitsIcESaIcEEESD_RKiDpT_=so_stub_for_libtelux_cv2x
-Wl,--defsym=_ZN5telux6common3Log10logMessageIJPKcS4_jS4_S4_EEEvNS0_8LogLevelERKNSt7__cxx1112basic_stringIcSt11char_traitsIcESaIcEEESD_RKiDpT_=so_stub_for_libtelux_cv2x
-Wl,--defsym=_ZN5telux6common3Log10logMessageIJPKcS4_jS4_tEEEvNS0_8LogLevelERKNSt7__cxx1112basic_stringIcSt11char_traitsIcESaIcEEESD_RKiDpT_=so_stub_for_libtelux_cv2x
-Wl,--defsym=_ZN5telux6common3Log10logMessageIJPKcS4_NSt7__cxx1112basic_stringIcSt11char_traitsIcESaIcEEEEEEvNS0_8LogLevelERKSA_SD_RKiDpT_=so_stub_for_libtelux_cv2x
-Wl,--defsym=_ZN5telux6common3Log10logMessageIJPKcS4_NSt7__cxx1112basic_stringIcSt11char_traitsIcESaIcEEES4_PcEEEvNS0_8LogLevelERKSA_SE_RKiDpT_=so_stub_for_libtelux_cv2x
-Wl,--defsym=_ZN5telux6common3Log10logMessageIJPKcS4_NSt7__cxx1112basic_stringIcSt11char_traitsIcESaIcEEES4_SA_EEEvNS0_8LogLevelERKSA_SD_RKiDpT_=so_stub_for_libtelux_cv2x
-Wl,--defsym=_ZN5telux6common3Log10logMessageIJPKcS4_PcEEEvNS0_8LogLevelERKNSt7__cxx1112basic_stringIcSt11char_traitsIcESaIcEEESE_RKiDpT_=so_stub_for_libtelux_cv2x
-Wl,--defsym=_ZN5telux6common3Log10logMessageIJPKcS4_PcS4_tEEEvNS0_8LogLevelERKNSt7__cxx1112basic_stringIcSt11char_traitsIcESaIcEEESE_RKiDpT_=so_stub_for_libtelux_cv2x
-Wl,--defsym=_ZN5telux6common3Log10logMessageIJPKcS4_S4_EEEvNS0_8LogLevelERKNSt7__cxx1112basic_stringIcSt11char_traitsIcESaIcEEESD_RKiDpT_=so_stub_for_libtelux_cv2x
-Wl,--defsym=_ZN5telux6common3Log10logMessageIJPKcS4_S4_iEEEvNS0_8LogLevelERKNSt7__cxx1112basic_stringIcSt11char_traitsIcESaIcEEESD_RKiDpT_=so_stub_for_libtelux_cv2x
-Wl,--defsym=_ZN5telux6common3Log10logMessageIJPKcS4_S4_iS4_iEEEvNS0_8LogLevelERKNSt7__cxx1112basic_stringIcSt11char_traitsIcESaIcEEESD_RKiDpT_=so_stub_for_libtelux_cv2x
-Wl,--defsym=_ZN5telux6common3Log10logMessageIJPKcS4_S4_jEEEvNS0_8LogLevelERKNSt7__cxx1112basic_stringIcSt11char_traitsIcESaIcEEESD_RKiDpT_=so_stub_for_libtelux_cv2x
-Wl,--defsym=_ZN5telux6common3Log10logMessageIJPKcS4_tEEEvNS0_8LogLevelERKNSt7__cxx1112basic_stringIcSt11char_traitsIcESaIcEEESD_RKiDpT_=so_stub_for_libtelux_cv2x
-Wl,--defsym=_ZN5telux6common3Log10logMessageIJPKcS4_ttEEEvNS0_8LogLevelERKNSt7__cxx1112basic_stringIcSt11char_traitsIcESaIcEEESD_RKiDpT_=so_stub_for_libtelux_cv2x
-Wl,--defsym=_ZN5telux6common3Log10logMessageIJPKctS4_EEEvNS0_8LogLevelERKNSt7__cxx1112basic_stringIcSt11char_traitsIcESaIcEEESD_RKiDpT_=so_stub_for_libtelux_cv2x
-Wl,--defsym=_ZN5telux6common3Log16constructMessageINSt7__cxx1119basic_ostringstreamIcSt11char_traitsIcESaIcEEE15cv2x_msg_type_tJPKcEEEvRT_T0_DpT1_=so_stub_for_libtelux_cv2x
-Wl,--defsym=_ZN5telux6common3Log16constructMessageINSt7__cxx1119basic_ostringstreamIcSt11char_traitsIcESaIcEEE18qmi_error_type_v01EEvRT_T0_=so_stub_for_libtelux_cv2x
-Wl,--defsym=_ZN5telux6common3Log16constructMessageINSt7__cxx1119basic_ostringstreamIcSt11char_traitsIcESaIcEEE40wds_v2x_config_file_send_result_enum_v01EEvRT_T0_=so_stub_for_libtelux_cv2x
-Wl,--defsym=_ZN5telux6common3Log16constructMessageINSt7__cxx1119basic_ostringstreamIcSt11char_traitsIcESaIcEEEiEEvRT_T0_=so_stub_for_libtelux_cv2x
-Wl,--defsym=_ZN5telux6common3Log16constructMessageINSt7__cxx1119basic_ostringstreamIcSt11char_traitsIcESaIcEEEiJPKcEEEvRT_T0_DpT1_=so_stub_for_libtelux_cv2x
-Wl,--defsym=_ZN5telux6common3Log16constructMessageINSt7__cxx1119basic_ostringstreamIcSt11char_traitsIcESaIcEEEiJPKciEEEvRT_T0_DpT1_=so_stub_for_libtelux_cv2x
-Wl,--defsym=_ZN5telux6common3Log16constructMessageINSt7__cxx1119basic_ostringstreamIcSt11char_traitsIcESaIcEEEiJPKcNS3_12basic_stringIcS6_S7_EEEEEvRT_T0_DpT1_=so_stub_for_libtelux_cv2x
-Wl,--defsym=_ZN5telux6common3Log16constructMessageINSt7__cxx1119basic_ostringstreamIcSt11char_traitsIcESaIcEEEiJPKcPcEEEvRT_T0_DpT1_=so_stub_for_libtelux_cv2x
-Wl,--defsym=_ZN5telux6common3Log16constructMessageINSt7__cxx1119basic_ostringstreamIcSt11char_traitsIcESaIcEEEiJPKctEEEvRT_T0_DpT1_=so_stub_for_libtelux_cv2x
-Wl,--defsym=_ZN5telux6common3Log16constructMessageINSt7__cxx1119basic_ostringstreamIcSt11char_traitsIcESaIcEEEiJPKctSA_EEEvRT_T0_DpT1_=so_stub_for_libtelux_cv2x
-Wl,--defsym=_ZN5telux6common3Log16constructMessageINSt7__cxx1119basic_ostringstreamIcSt11char_traitsIcESaIcEEEjEEvRT_T0_=so_stub_for_libtelux_cv2x
-Wl,--defsym=_ZN5telux6common3Log16constructMessageINSt7__cxx1119basic_ostringstreamIcSt11char_traitsIcESaIcEEEjJPKcEEEvRT_T0_DpT1_=so_stub_for_libtelux_cv2x
-Wl,--defsym=_ZN5telux6common3Log16constructMessageINSt7__cxx1119basic_ostringstreamIcSt11char_traitsIcESaIcEEEjJPKciEEEvRT_T0_DpT1_=so_stub_for_libtelux_cv2x
-Wl,--defsym=_ZN5telux6common3Log16constructMessageINSt7__cxx1119basic_ostringstreamIcSt11char_traitsIcESaIcEEEjJPKcjSA_EEEvRT_T0_DpT1_=so_stub_for_libtelux_cv2x
-Wl,--defsym=_ZN5telux6common3Log16constructMessageINSt7__cxx1119basic_ostringstreamIcSt11char_traitsIcESaIcEEEjJPKcSA_EEEvRT_T0_DpT1_=so_stub_for_libtelux_cv2x
-Wl,--defsym=_ZN5telux6common3Log16constructMessageINSt7__cxx1119basic_ostringstreamIcSt11char_traitsIcESaIcEEEjJPKctEEEvRT_T0_DpT1_=so_stub_for_libtelux_cv2x
-Wl,--defsym=_ZN5telux6common3Log16constructMessageINSt7__cxx1119basic_ostringstreamIcSt11char_traitsIcESaIcEEENS3_12basic_stringIcS6_S7_EEEEvRT_T0_=so_stub_for_libtelux_cv2x
-Wl,--defsym=_ZN5telux6common3Log16constructMessageINSt7__cxx1119basic_ostringstreamIcSt11char_traitsIcESaIcEEENS3_12basic_stringIcS6_S7_EEJPKcPcEEEvRT_T0_DpT1_=so_stub_for_libtelux_cv2x
-Wl,--defsym=_ZN5telux6common3Log16constructMessageINSt7__cxx1119basic_ostringstreamIcSt11char_traitsIcESaIcEEENS3_12basic_stringIcS6_S7_EEJPKcSA_EEEvRT_T0_DpT1_=so_stub_for_libtelux_cv2x
-Wl,--defsym=_ZN5telux6common3Log16constructMessageINSt7__cxx1119basic_ostringstreamIcSt11char_traitsIcESaIcEEEPcEEvRT_T0_=so_stub_for_libtelux_cv2x
-Wl,--defsym=_ZN5telux6common3Log16constructMessageINSt7__cxx1119basic_ostringstreamIcSt11char_traitsIcESaIcEEEPcJPKctEEEvRT_T0_DpT1_=so_stub_for_libtelux_cv2x
-Wl,--defsym=_ZN5telux6common3Log16constructMessageINSt7__cxx1119basic_ostringstreamIcSt11char_traitsIcESaIcEEEPKcEEvRT_T0_=so_stub_for_libtelux_cv2x
-Wl,--defsym=_ZN5telux6common3Log16constructMessageINSt7__cxx1119basic_ostringstreamIcSt11char_traitsIcESaIcEEEPKcJ15cv2x_msg_type_tSA_EEEvRT_T0_DpT1_=so_stub_for_libtelux_cv2x
-Wl,--defsym=_ZN5telux6common3Log16constructMessageINSt7__cxx1119basic_ostringstreamIcSt11char_traitsIcESaIcEEEPKcJ18qmi_error_type_v01EEEvRT_T0_DpT1_=so_stub_for_libtelux_cv2x
-Wl,--defsym=_ZN5telux6common3Log16constructMessageINSt7__cxx1119basic_ostringstreamIcSt11char_traitsIcESaIcEEEPKcJ40wds_v2x_config_file_send_result_enum_v01EEEvRT_T0_DpT1_=so_stub_for_libtelux_cv2x
-Wl,--defsym=_ZN5telux6common3Log16constructMessageINSt7__cxx1119basic_ostringstreamIcSt11char_traitsIcESaIcEEEPKcJiEEEvRT_T0_DpT1_=so_stub_for_libtelux_cv2x
-Wl,--defsym=_ZN5telux6common3Log16constructMessageINSt7__cxx1119basic_ostringstreamIcSt11char_traitsIcESaIcEEEPKcJiSA_EEEvRT_T0_DpT1_=so_stub_for_libtelux_cv2x
-Wl,--defsym=_ZN5telux6common3Log16constructMessageINSt7__cxx1119basic_ostringstreamIcSt11char_traitsIcESaIcEEEPKcJiSA_iEEEvRT_T0_DpT1_=so_stub_for_libtelux_cv2x
-Wl,--defsym=_ZN5telux6common3Log16constructMessageINSt7__cxx1119basic_ostringstreamIcSt11char_traitsIcESaIcEEEPKcJiSA_NS3_12basic_stringIcS6_S7_EEEEEvRT_T0_DpT1_=so_stub_for_libtelux_cv2x
-Wl,--defsym=_ZN5telux6common3Log16constructMessageINSt7__cxx1119basic_ostringstreamIcSt11char_traitsIcESaIcEEEPKcJiSA_PcEEEvRT_T0_DpT1_=so_stub_for_libtelux_cv2x
-Wl,--defsym=_ZN5telux6common3Log16constructMessageINSt7__cxx1119basic_ostringstreamIcSt11char_traitsIcESaIcEEEPKcJiSA_tEEEvRT_T0_DpT1_=so_stub_for_libtelux_cv2x
-Wl,--defsym=_ZN5telux6common3Log16constructMessageINSt7__cxx1119basic_ostringstreamIcSt11char_traitsIcESaIcEEEPKcJiSA_tSA_EEEvRT_T0_DpT1_=so_stub_for_libtelux_cv2x
-Wl,--defsym=_ZN5telux6common3Log16constructMessageINSt7__cxx1119basic_ostringstreamIcSt11char_traitsIcESaIcEEEPKcJjEEEvRT_T0_DpT1_=so_stub_for_libtelux_cv2x
-Wl,--defsym=_ZN5telux6common3Log16constructMessageINSt7__cxx1119basic_ostringstreamIcSt11char_traitsIcESaIcEEEPKcJjSA_EEEvRT_T0_DpT1_=so_stub_for_libtelux_cv2x
-Wl,--defsym=_ZN5telux6common3Log16constructMessageINSt7__cxx1119basic_ostringstreamIcSt11char_traitsIcESaIcEEEPKcJjSA_iEEEvRT_T0_DpT1_=so_stub_for_libtelux_cv2x
-Wl,--defsym=_ZN5telux6common3Log16constructMessageINSt7__cxx1119basic_ostringstreamIcSt11char_traitsIcESaIcEEEPKcJjSA_jSA_EEEvRT_T0_DpT1_=so_stub_for_libtelux_cv2x
-Wl,--defsym=_ZN5telux6common3Log16constructMessageINSt7__cxx1119basic_ostringstreamIcSt11char_traitsIcESaIcEEEPKcJjSA_SA_EEEvRT_T0_DpT1_=so_stub_for_libtelux_cv2x
-Wl,--defsym=_ZN5telux6common3Log16constructMessageINSt7__cxx1119basic_ostringstreamIcSt11char_traitsIcESaIcEEEPKcJjSA_tEEEvRT_T0_DpT1_=so_stub_for_libtelux_cv2x
-Wl,--defsym=_ZN5telux6common3Log16constructMessageINSt7__cxx1119basic_ostringstreamIcSt11char_traitsIcESaIcEEEPKcJNS3_12basic_stringIcS6_S7_EEEEEvRT_T0_DpT1_=so_stub_for_libtelux_cv2x
-Wl,--defsym=_ZN5telux6common3Log16constructMessageINSt7__cxx1119basic_ostringstreamIcSt11char_traitsIcESaIcEEEPKcJNS3_12basic_stringIcS6_S7_EESA_PcEEEvRT_T0_DpT1_=so_stub_for_libtelux_cv2x
-Wl,--defsym=_ZN5telux6common3Log16constructMessageINSt7__cxx1119basic_ostringstreamIcSt11char_traitsIcESaIcEEEPKcJNS3_12basic_stringIcS6_S7_EESA_SC_EEEvRT_T0_DpT1_=so_stub_for_libtelux_cv2x
-Wl,--defsym=_ZN5telux6common3Log16constructMessageINSt7__cxx1119basic_ostringstreamIcSt11char_traitsIcESaIcEEEPKcJPcEEEvRT_T0_DpT1_=so_stub_for_libtelux_cv2x
-Wl,--defsym=_ZN5telux6common3Log16constructMessageINSt7__cxx1119basic_ostringstreamIcSt11char_traitsIcESaIcEEEPKcJPcSA_tEEEvRT_T0_DpT1_=so_stub_for_libtelux_cv2x
-Wl,--defsym=_ZN5telux6common3Log16constructMessageINSt7__cxx1119basic_ostringstreamIcSt11char_traitsIcESaIcEEEPKcJSA_15cv2x_msg_type_tSA_EEEvRT_T0_DpT1_=so_stub_for_libtelux_cv2x
-Wl,--defsym=_ZN5telux6common3Log16constructMessageINSt7__cxx1119basic_ostringstreamIcSt11char_traitsIcESaIcEEEPKcJSA_EEEvRT_T0_DpT1_=so_stub_for_libtelux_cv2x
-Wl,--defsym=_ZN5telux6common3Log16constructMessageINSt7__cxx1119basic_ostringstreamIcSt11char_traitsIcESaIcEEEPKcJSA_iEEEvRT_T0_DpT1_=so_stub_for_libtelux_cv2x
-Wl,--defsym=_ZN5telux6common3Log16constructMessageINSt7__cxx1119basic_ostringstreamIcSt11char_traitsIcESaIcEEEPKcJSA_iSA_iEEEvRT_T0_DpT1_=so_stub_for_libtelux_cv2x
-Wl,--defsym=_ZN5telux6common3Log16constructMessageINSt7__cxx1119basic_ostringstreamIcSt11char_traitsIcESaIcEEEPKcJSA_iSA_NS3_12basic_stringIcS6_S7_EEEEEvRT_T0_DpT1_=so_stub_for_libtelux_cv2x
-Wl,--defsym=_ZN5telux6common3Log16constructMessageINSt7__cxx1119basic_ostringstreamIcSt11char_traitsIcESaIcEEEPKcJSA_iSA_PcEEEvRT_T0_DpT1_=so_stub_for_libtelux_cv2x
-Wl,--defsym=_ZN5telux6common3Log16constructMessageINSt7__cxx1119basic_ostringstreamIcSt11char_traitsIcESaIcEEEPKcJSA_iSA_tEEEvRT_T0_DpT1_=so_stub_for_libtelux_cv2x
-Wl,--defsym=_ZN5telux6common3Log16constructMessageINSt7__cxx1119basic_ostringstreamIcSt11char_traitsIcESaIcEEEPKcJSA_jEEEvRT_T0_DpT1_=so_stub_for_libtelux_cv2x
-Wl,--defsym=_ZN5telux6common3Log16constructMessageINSt7__cxx1119basic_ostringstreamIcSt11char_traitsIcESaIcEEEPKcJSA_jSA_EEEvRT_T0_DpT1_=so_stub_for_libtelux_cv2x
-Wl,--defsym=_ZN5telux6common3Log16constructMessageINSt7__cxx1119basic_ostringstreamIcSt11char_traitsIcESaIcEEEPKcJSA_jSA_iEEEvRT_T0_DpT1_=so_stub_for_libtelux_cv2x
-Wl,--defsym=_ZN5telux6common3Log16constructMessageINSt7__cxx1119basic_ostringstreamIcSt11char_traitsIcESaIcEEEPKcJSA_jSA_jSA_EEEvRT_T0_DpT1_=so_stub_for_libtelux_cv2x
-Wl,--defsym=_ZN5telux6common3Log16constructMessageINSt7__cxx1119basic_ostringstreamIcSt11char_traitsIcESaIcEEEPKcJSA_jSA_SA_EEEvRT_T0_DpT1_=so_stub_for_libtelux_cv2x
-Wl,--defsym=_ZN5telux6common3Log16constructMessageINSt7__cxx1119basic_ostringstreamIcSt11char_traitsIcESaIcEEEPKcJSA_jSA_tEEEvRT_T0_DpT1_=so_stub_for_libtelux_cv2x
-Wl,--defsym=_ZN5telux6common3Log16constructMessageINSt7__cxx1119basic_ostringstreamIcSt11char_traitsIcESaIcEEEPKcJSA_NS3_12basic_stringIcS6_S7_EEEEEvRT_T0_DpT1_=so_stub_for_libtelux_cv2x
-Wl,--defsym=_ZN5telux6common3Log16constructMessageINSt7__cxx1119basic_ostringstreamIcSt11char_traitsIcESaIcEEEPKcJSA_NS3_12basic_stringIcS6_S7_EESA_PcEEEvRT_T0_DpT1_=so_stub_for_libtelux_cv2x
-Wl,--defsym=_ZN5telux6common3Log16constructMessageINSt7__cxx1119basic_ostringstreamIcSt11char_traitsIcESaIcEEEPKcJSA_NS3_12basic_stringIcS6_S7_EESA_SC_EEEvRT_T0_DpT1_=so_stub_for_libtelux_cv2x
-Wl,--defsym=_ZN5telux6common3Log16constructMessageINSt7__cxx1119basic_ostringstreamIcSt11char_traitsIcESaIcEEEPKcJSA_PcEEEvRT_T0_DpT1_=so_stub_for_libtelux_cv2x
-Wl,--defsym=_ZN5telux6common3Log16constructMessageINSt7__cxx1119basic_ostringstreamIcSt11char_traitsIcESaIcEEEPKcJSA_PcSA_tEEEvRT_T0_DpT1_=so_stub_for_libtelux_cv2x
-Wl,--defsym=_ZN5telux6common3Log16constructMessageINSt7__cxx1119basic_ostringstreamIcSt11char_traitsIcESaIcEEEPKcJSA_SA_EEEvRT_T0_DpT1_=so_stub_for_libtelux_cv2x
-Wl,--defsym=_ZN5telux6common3Log16constructMessageINSt7__cxx1119basic_ostringstreamIcSt11char_traitsIcESaIcEEEPKcJSA_SA_iEEEvRT_T0_DpT1_=so_stub_for_libtelux_cv2x
-Wl,--defsym=_ZN5telux6common3Log16constructMessageINSt7__cxx1119basic_ostringstreamIcSt11char_traitsIcESaIcEEEPKcJSA_SA_iSA_iEEEvRT_T0_DpT1_=so_stub_for_libtelux_cv2x
-Wl,--defsym=_ZN5telux6common3Log16constructMessageINSt7__cxx1119basic_ostringstreamIcSt11char_traitsIcESaIcEEEPKcJSA_SA_jEEEvRT_T0_DpT1_=so_stub_for_libtelux_cv2x
-Wl,--defsym=_ZN5telux6common3Log16constructMessageINSt7__cxx1119basic_ostringstreamIcSt11char_traitsIcESaIcEEEPKcJSA_tEEEvRT_T0_DpT1_=so_stub_for_libtelux_cv2x
-Wl,--defsym=_ZN5telux6common3Log16constructMessageINSt7__cxx1119basic_ostringstreamIcSt11char_traitsIcESaIcEEEPKcJSA_ttEEEvRT_T0_DpT1_=so_stub_for_libtelux_cv2x
-Wl,--defsym=_ZN5telux6common3Log16constructMessageINSt7__cxx1119basic_ostringstreamIcSt11char_traitsIcESaIcEEEPKcJtEEEvRT_T0_DpT1_=so_stub_for_libtelux_cv2x
-Wl,--defsym=_ZN5telux6common3Log16constructMessageINSt7__cxx1119basic_ostringstreamIcSt11char_traitsIcESaIcEEEPKcJtSA_EEEvRT_T0_DpT1_=so_stub_for_libtelux_cv2x
-Wl,--defsym=_ZN5telux6common3Log16constructMessageINSt7__cxx1119basic_ostringstreamIcSt11char_traitsIcESaIcEEEPKcJttEEEvRT_T0_DpT1_=so_stub_for_libtelux_cv2x
-Wl,--defsym=_ZN5telux6common3Log16constructMessageINSt7__cxx1119basic_ostringstreamIcSt11char_traitsIcESaIcEEEtEEvRT_T0_=so_stub_for_libtelux_cv2x
-Wl,--defsym=_ZN5telux6common3Log16constructMessageINSt7__cxx1119basic_ostringstreamIcSt11char_traitsIcESaIcEEEtJPKcEEEvRT_T0_DpT1_=so_stub_for_libtelux_cv2x
-Wl,--defsym=_ZN5telux6common3Log16constructMessageINSt7__cxx1119basic_ostringstreamIcSt11char_traitsIcESaIcEEEtJtEEEvRT_T0_DpT1_=so_stub_for_libtelux_cv2x
-Wl,--defsym=_ZN9__gnu_cxx13new_allocatorIjE10deallocateEPjj=so_stub_for_libtelux_cv2x
-Wl,--defsym=_ZN9__gnu_cxx13new_allocatorIjE7destroyIjEEvPT_=so_stub_for_libtelux_cv2x
-Wl,--defsym=_ZN9__gnu_cxx13new_allocatorIjE8allocateEjPKv=so_stub_for_libtelux_cv2x
-Wl,--defsym=_ZN9__gnu_cxx13new_allocatorIjE9constructIjJjEEEvPT_DpOT0_=so_stub_for_libtelux_cv2x
-Wl,--defsym=_ZN9__gnu_cxx13new_allocatorIjE9constructIjJRKjEEEvPT_DpOT0_=so_stub_for_libtelux_cv2x
-Wl,--defsym=_ZN9__gnu_cxx13new_allocatorIjEC1ERKS1_=so_stub_for_libtelux_cv2x
-Wl,--defsym=_ZN9__gnu_cxx13new_allocatorIjEC1Ev=so_stub_for_libtelux_cv2x
-Wl,--defsym=_ZN9__gnu_cxx13new_allocatorIjEC2ERKS1_=so_stub_for_libtelux_cv2x
-Wl,--defsym=_ZN9__gnu_cxx13new_allocatorIjEC2Ev=so_stub_for_libtelux_cv2x
-Wl,--defsym=_ZN9__gnu_cxx13new_allocatorIjED1Ev=so_stub_for_libtelux_cv2x
-Wl,--defsym=_ZN9__gnu_cxx13new_allocatorIjED2Ev=so_stub_for_libtelux_cv2x
-Wl,--defsym=_ZN9__gnu_cxx13new_allocatorIN5telux4cv2x10Cv2xConfigEE7destroyIS3_EEvPT_=so_stub_for_libtelux_cv2x
-Wl,--defsym=_ZN9__gnu_cxx13new_allocatorIN5telux4cv2x10Cv2xConfigEE9constructIS3_JEEEvPT_DpOT0_=so_stub_for_libtelux_cv2x
-Wl,--defsym=_ZN9__gnu_cxx13new_allocatorIN5telux4cv2x10Cv2xConfigEEC1ERKS4_=so_stub_for_libtelux_cv2x
-Wl,--defsym=_ZN9__gnu_cxx13new_allocatorIN5telux4cv2x10Cv2xConfigEEC1Ev=so_stub_for_libtelux_cv2x
-Wl,--defsym=_ZN9__gnu_cxx13new_allocatorIN5telux4cv2x10Cv2xConfigEEC2ERKS4_=so_stub_for_libtelux_cv2x
-Wl,--defsym=_ZN9__gnu_cxx13new_allocatorIN5telux4cv2x10Cv2xConfigEEC2Ev=so_stub_for_libtelux_cv2x
-Wl,--defsym=_ZN9__gnu_cxx13new_allocatorIN5telux4cv2x10Cv2xConfigEED1Ev=so_stub_for_libtelux_cv2x
-Wl,--defsym=_ZN9__gnu_cxx13new_allocatorIN5telux4cv2x10Cv2xConfigEED2Ev=so_stub_for_libtelux_cv2x
-Wl,--defsym=_ZN9__gnu_cxx13new_allocatorIN5telux4cv2x11Cv2xSysCtrlEE7destroyIS3_EEvPT_=so_stub_for_libtelux_cv2x
-Wl,--defsym=_ZN9__gnu_cxx13new_allocatorIN5telux4cv2x11Cv2xSysCtrlEE9constructIS3_JEEEvPT_DpOT0_=so_stub_for_libtelux_cv2x
-Wl,--defsym=_ZN9__gnu_cxx13new_allocatorIN5telux4cv2x11Cv2xSysCtrlEEC1ERKS4_=so_stub_for_libtelux_cv2x
-Wl,--defsym=_ZN9__gnu_cxx13new_allocatorIN5telux4cv2x11Cv2xSysCtrlEEC1Ev=so_stub_for_libtelux_cv2x
-Wl,--defsym=_ZN9__gnu_cxx13new_allocatorIN5telux4cv2x11Cv2xSysCtrlEEC2ERKS4_=so_stub_for_libtelux_cv2x
-Wl,--defsym=_ZN9__gnu_cxx13new_allocatorIN5telux4cv2x11Cv2xSysCtrlEEC2Ev=so_stub_for_libtelux_cv2x
-Wl,--defsym=_ZN9__gnu_cxx13new_allocatorIN5telux4cv2x11Cv2xSysCtrlEED1Ev=so_stub_for_libtelux_cv2x
-Wl,--defsym=_ZN9__gnu_cxx13new_allocatorIN5telux4cv2x11Cv2xSysCtrlEED2Ev=so_stub_for_libtelux_cv2x
-Wl,--defsym=_ZN9__gnu_cxx13new_allocatorIN5telux4cv2x12DsiCv2xRadioEE7destroyIS3_EEvPT_=so_stub_for_libtelux_cv2x
-Wl,--defsym=_ZN9__gnu_cxx13new_allocatorIN5telux4cv2x12DsiCv2xRadioEE9constructIS3_JEEEvPT_DpOT0_=so_stub_for_libtelux_cv2x
-Wl,--defsym=_ZN9__gnu_cxx13new_allocatorIN5telux4cv2x12DsiCv2xRadioEEC1ERKS4_=so_stub_for_libtelux_cv2x
-Wl,--defsym=_ZN9__gnu_cxx13new_allocatorIN5telux4cv2x12DsiCv2xRadioEEC1Ev=so_stub_for_libtelux_cv2x
-Wl,--defsym=_ZN9__gnu_cxx13new_allocatorIN5telux4cv2x12DsiCv2xRadioEEC2ERKS4_=so_stub_for_libtelux_cv2x
-Wl,--defsym=_ZN9__gnu_cxx13new_allocatorIN5telux4cv2x12DsiCv2xRadioEEC2Ev=so_stub_for_libtelux_cv2x
-Wl,--defsym=_ZN9__gnu_cxx13new_allocatorIN5telux4cv2x12DsiCv2xRadioEED1Ev=so_stub_for_libtelux_cv2x
-Wl,--defsym=_ZN9__gnu_cxx13new_allocatorIN5telux4cv2x12DsiCv2xRadioEED2Ev=so_stub_for_libtelux_cv2x
-Wl,--defsym=_ZN9__gnu_cxx13new_allocatorIN5telux4cv2x12EventHandlerEE7destroyIS3_EEvPT_=so_stub_for_libtelux_cv2x
-Wl,--defsym=_ZN9__gnu_cxx13new_allocatorIN5telux4cv2x12EventHandlerEE9constructIS3_JEEEvPT_DpOT0_=so_stub_for_libtelux_cv2x
-Wl,--defsym=_ZN9__gnu_cxx13new_allocatorIN5telux4cv2x12EventHandlerEEC1ERKS4_=so_stub_for_libtelux_cv2x
-Wl,--defsym=_ZN9__gnu_cxx13new_allocatorIN5telux4cv2x12EventHandlerEEC1Ev=so_stub_for_libtelux_cv2x
-Wl,--defsym=_ZN9__gnu_cxx13new_allocatorIN5telux4cv2x12EventHandlerEEC2ERKS4_=so_stub_for_libtelux_cv2x
-Wl,--defsym=_ZN9__gnu_cxx13new_allocatorIN5telux4cv2x12EventHandlerEEC2Ev=so_stub_for_libtelux_cv2x
-Wl,--defsym=_ZN9__gnu_cxx13new_allocatorIN5telux4cv2x12EventHandlerEED1Ev=so_stub_for_libtelux_cv2x
-Wl,--defsym=_ZN9__gnu_cxx13new_allocatorIN5telux4cv2x12EventHandlerEED2Ev=so_stub_for_libtelux_cv2x
-Wl,--defsym=_ZN9__gnu_cxx13new_allocatorIN5telux4cv2x12TxPoolIdInfoEE10deallocateEPS3_j=so_stub_for_libtelux_cv2x
-Wl,--defsym=_ZN9__gnu_cxx13new_allocatorIN5telux4cv2x12TxPoolIdInfoEE7destroyIS3_EEvPT_=so_stub_for_libtelux_cv2x
-Wl,--defsym=_ZN9__gnu_cxx13new_allocatorIN5telux4cv2x12TxPoolIdInfoEE8allocateEjPKv=so_stub_for_libtelux_cv2x
-Wl,--defsym=_ZN9__gnu_cxx13new_allocatorIN5telux4cv2x12TxPoolIdInfoEE9constructIS3_JRKS3_EEEvPT_DpOT0_=so_stub_for_libtelux_cv2x
-Wl,--defsym=_ZN9__gnu_cxx13new_allocatorIN5telux4cv2x12TxPoolIdInfoEEC1ERKS4_=so_stub_for_libtelux_cv2x
-Wl,--defsym=_ZN9__gnu_cxx13new_allocatorIN5telux4cv2x12TxPoolIdInfoEEC1Ev=so_stub_for_libtelux_cv2x
-Wl,--defsym=_ZN9__gnu_cxx13new_allocatorIN5telux4cv2x12TxPoolIdInfoEEC2ERKS4_=so_stub_for_libtelux_cv2x
-Wl,--defsym=_ZN9__gnu_cxx13new_allocatorIN5telux4cv2x12TxPoolIdInfoEEC2Ev=so_stub_for_libtelux_cv2x
-Wl,--defsym=_ZN9__gnu_cxx13new_allocatorIN5telux4cv2x12TxPoolIdInfoEED1Ev=so_stub_for_libtelux_cv2x
-Wl,--defsym=_ZN9__gnu_cxx13new_allocatorIN5telux4cv2x12TxPoolIdInfoEED2Ev=so_stub_for_libtelux_cv2x
-Wl,--defsym=_ZN9__gnu_cxx13new_allocatorIN5telux4cv2x13Cv2xTxSpsFlowEE7destroyIS3_EEvPT_=so_stub_for_libtelux_cv2x
-Wl,--defsym=_ZN9__gnu_cxx13new_allocatorIN5telux4cv2x13Cv2xTxSpsFlowEE9constructIS3_JRhRNS2_13TrafficIpTypeERjRiR12sockaddr_in6RKNS2_11SpsFlowInfoEEEEvPT_DpOT0_=so_stub_for_libtelux_cv2x
-Wl,--defsym=_ZN9__gnu_cxx13new_allocatorIN5telux4cv2x13Cv2xTxSpsFlowEEC1ERKS4_=so_stub_for_libtelux_cv2x
-Wl,--defsym=_ZN9__gnu_cxx13new_allocatorIN5telux4cv2x13Cv2xTxSpsFlowEEC1Ev=so_stub_for_libtelux_cv2x
-Wl,--defsym=_ZN9__gnu_cxx13new_allocatorIN5telux4cv2x13Cv2xTxSpsFlowEEC2ERKS4_=so_stub_for_libtelux_cv2x
-Wl,--defsym=_ZN9__gnu_cxx13new_allocatorIN5telux4cv2x13Cv2xTxSpsFlowEEC2Ev=so_stub_for_libtelux_cv2x
-Wl,--defsym=_ZN9__gnu_cxx13new_allocatorIN5telux4cv2x13Cv2xTxSpsFlowEED1Ev=so_stub_for_libtelux_cv2x
-Wl,--defsym=_ZN9__gnu_cxx13new_allocatorIN5telux4cv2x13Cv2xTxSpsFlowEED2Ev=so_stub_for_libtelux_cv2x
-Wl,--defsym=_ZN9__gnu_cxx13new_allocatorIN5telux4cv2x13TrustedUEInfoEE10deallocateEPS3_j=so_stub_for_libtelux_cv2x
-Wl,--defsym=_ZN9__gnu_cxx13new_allocatorIN5telux4cv2x13TrustedUEInfoEE8allocateEjPKv=so_stub_for_libtelux_cv2x
-Wl,--defsym=_ZN9__gnu_cxx13new_allocatorIN5telux4cv2x13TrustedUEInfoEEC1ERKS4_=so_stub_for_libtelux_cv2x
-Wl,--defsym=_ZN9__gnu_cxx13new_allocatorIN5telux4cv2x13TrustedUEInfoEEC2ERKS4_=so_stub_for_libtelux_cv2x
-Wl,--defsym=_ZN9__gnu_cxx13new_allocatorIN5telux4cv2x13TrustedUEInfoEED1Ev=so_stub_for_libtelux_cv2x
-Wl,--defsym=_ZN9__gnu_cxx13new_allocatorIN5telux4cv2x13TrustedUEInfoEED2Ev=so_stub_for_libtelux_cv2x
-Wl,--defsym=_ZN9__gnu_cxx13new_allocatorIN5telux4cv2x14Cv2xPoolStatusEE10deallocateEPS3_j=so_stub_for_libtelux_cv2x
-Wl,--defsym=_ZN9__gnu_cxx13new_allocatorIN5telux4cv2x14Cv2xPoolStatusEE7destroyIS3_EEvPT_=so_stub_for_libtelux_cv2x
-Wl,--defsym=_ZN9__gnu_cxx13new_allocatorIN5telux4cv2x14Cv2xPoolStatusEE8allocateEjPKv=so_stub_for_libtelux_cv2x
-Wl,--defsym=_ZN9__gnu_cxx13new_allocatorIN5telux4cv2x14Cv2xPoolStatusEE9constructIS3_JRKS3_EEEvPT_DpOT0_=so_stub_for_libtelux_cv2x
-Wl,--defsym=_ZN9__gnu_cxx13new_allocatorIN5telux4cv2x14Cv2xPoolStatusEEC1ERKS4_=so_stub_for_libtelux_cv2x
-Wl,--defsym=_ZN9__gnu_cxx13new_allocatorIN5telux4cv2x14Cv2xPoolStatusEEC1Ev=so_stub_for_libtelux_cv2x
-Wl,--defsym=_ZN9__gnu_cxx13new_allocatorIN5telux4cv2x14Cv2xPoolStatusEEC2ERKS4_=so_stub_for_libtelux_cv2x
-Wl,--defsym=_ZN9__gnu_cxx13new_allocatorIN5telux4cv2x14Cv2xPoolStatusEEC2Ev=so_stub_for_libtelux_cv2x
-Wl,--defsym=_ZN9__gnu_cxx13new_allocatorIN5telux4cv2x14Cv2xPoolStatusEED1Ev=so_stub_for_libtelux_cv2x
-Wl,--defsym=_ZN9__gnu_cxx13new_allocatorIN5telux4cv2x14Cv2xPoolStatusEED2Ev=so_stub_for_libtelux_cv2x
-Wl,--defsym=_ZN9__gnu_cxx13new_allocatorIN5telux4cv2x14Cv2xTxRxSocketEE7destroyIS3_EEvPT_=so_stub_for_libtelux_cv2x
-Wl,--defsym=_ZN9__gnu_cxx13new_allocatorIN5telux4cv2x14Cv2xTxRxSocketEE9constructIS3_JRKjRiR12sockaddr_in6EEEvPT_DpOT0_=so_stub_for_libtelux_cv2x
-Wl,--defsym=_ZN9__gnu_cxx13new_allocatorIN5telux4cv2x14Cv2xTxRxSocketEEC1ERKS4_=so_stub_for_libtelux_cv2x
-Wl,--defsym=_ZN9__gnu_cxx13new_allocatorIN5telux4cv2x14Cv2xTxRxSocketEEC1Ev=so_stub_for_libtelux_cv2x
-Wl,--defsym=_ZN9__gnu_cxx13new_allocatorIN5telux4cv2x14Cv2xTxRxSocketEEC2ERKS4_=so_stub_for_libtelux_cv2x
-Wl,--defsym=_ZN9__gnu_cxx13new_allocatorIN5telux4cv2x14Cv2xTxRxSocketEEC2Ev=so_stub_for_libtelux_cv2x
-Wl,--defsym=_ZN9__gnu_cxx13new_allocatorIN5telux4cv2x14Cv2xTxRxSocketEED1Ev=so_stub_for_libtelux_cv2x
-Wl,--defsym=_ZN9__gnu_cxx13new_allocatorIN5telux4cv2x14Cv2xTxRxSocketEED2Ev=so_stub_for_libtelux_cv2x
-Wl,--defsym=_ZN9__gnu_cxx13new_allocatorIN5telux4cv2x14IndicationDataEE7destroyIS3_EEvPT_=so_stub_for_libtelux_cv2x
-Wl,--defsym=_ZN9__gnu_cxx13new_allocatorIN5telux4cv2x14IndicationDataEE9constructIS3_JEEEvPT_DpOT0_=so_stub_for_libtelux_cv2x
-Wl,--defsym=_ZN9__gnu_cxx13new_allocatorIN5telux4cv2x14IndicationDataEEC1ERKS4_=so_stub_for_libtelux_cv2x
-Wl,--defsym=_ZN9__gnu_cxx13new_allocatorIN5telux4cv2x14IndicationDataEEC1Ev=so_stub_for_libtelux_cv2x
-Wl,--defsym=_ZN9__gnu_cxx13new_allocatorIN5telux4cv2x14IndicationDataEEC2ERKS4_=so_stub_for_libtelux_cv2x
-Wl,--defsym=_ZN9__gnu_cxx13new_allocatorIN5telux4cv2x14IndicationDataEEC2Ev=so_stub_for_libtelux_cv2x
-Wl,--defsym=_ZN9__gnu_cxx13new_allocatorIN5telux4cv2x14IndicationDataEED1Ev=so_stub_for_libtelux_cv2x
-Wl,--defsym=_ZN9__gnu_cxx13new_allocatorIN5telux4cv2x14IndicationDataEED2Ev=so_stub_for_libtelux_cv2x
-Wl,--defsym=_ZN9__gnu_cxx13new_allocatorIN5telux4cv2x15Cv2xTxEventFlowEE7destroyIS3_EEvPT_=so_stub_for_libtelux_cv2x
-Wl,--defsym=_ZN9__gnu_cxx13new_allocatorIN5telux4cv2x15Cv2xTxEventFlowEE9constructIS3_JRNS2_13TrafficIpTypeERjRiR12sockaddr_in6EEEvPT_DpOT0_=so_stub_for_libtelux_cv2x
-Wl,--defsym=_ZN9__gnu_cxx13new_allocatorIN5telux4cv2x15Cv2xTxEventFlowEEC1ERKS4_=so_stub_for_libtelux_cv2x
-Wl,--defsym=_ZN9__gnu_cxx13new_allocatorIN5telux4cv2x15Cv2xTxEventFlowEEC1Ev=so_stub_for_libtelux_cv2x
-Wl,--defsym=_ZN9__gnu_cxx13new_allocatorIN5telux4cv2x15Cv2xTxEventFlowEEC2ERKS4_=so_stub_for_libtelux_cv2x
-Wl,--defsym=_ZN9__gnu_cxx13new_allocatorIN5telux4cv2x15Cv2xTxEventFlowEEC2Ev=so_stub_for_libtelux_cv2x
-Wl,--defsym=_ZN9__gnu_cxx13new_allocatorIN5telux4cv2x15Cv2xTxEventFlowEED1Ev=so_stub_for_libtelux_cv2x
-Wl,--defsym=_ZN9__gnu_cxx13new_allocatorIN5telux4cv2x15Cv2xTxEventFlowEED2Ev=so_stub_for_libtelux_cv2x
-Wl,--defsym=_ZN9__gnu_cxx13new_allocatorIN5telux4cv2x15EventDispatcherEE7destroyIS3_EEvPT_=so_stub_for_libtelux_cv2x
-Wl,--defsym=_ZN9__gnu_cxx13new_allocatorIN5telux4cv2x15EventDispatcherEE9constructIS3_JEEEvPT_DpOT0_=so_stub_for_libtelux_cv2x
-Wl,--defsym=_ZN9__gnu_cxx13new_allocatorIN5telux4cv2x15EventDispatcherEEC1ERKS4_=so_stub_for_libtelux_cv2x
-Wl,--defsym=_ZN9__gnu_cxx13new_allocatorIN5telux4cv2x15EventDispatcherEEC1Ev=so_stub_for_libtelux_cv2x
-Wl,--defsym=_ZN9__gnu_cxx13new_allocatorIN5telux4cv2x15EventDispatcherEEC2ERKS4_=so_stub_for_libtelux_cv2x
-Wl,--defsym=_ZN9__gnu_cxx13new_allocatorIN5telux4cv2x15EventDispatcherEEC2Ev=so_stub_for_libtelux_cv2x
-Wl,--defsym=_ZN9__gnu_cxx13new_allocatorIN5telux4cv2x15EventDispatcherEED1Ev=so_stub_for_libtelux_cv2x
-Wl,--defsym=_ZN9__gnu_cxx13new_allocatorIN5telux4cv2x15EventDispatcherEED2Ev=so_stub_for_libtelux_cv2x
-Wl,--defsym=_ZN9__gnu_cxx13new_allocatorIN5telux4cv2x16Cv2xIndsListenerEE7destroyIS3_EEvPT_=so_stub_for_libtelux_cv2x
-Wl,--defsym=_ZN9__gnu_cxx13new_allocatorIN5telux4cv2x16Cv2xIndsListenerEE9constructIS3_JEEEvPT_DpOT0_=so_stub_for_libtelux_cv2x
-Wl,--defsym=_ZN9__gnu_cxx13new_allocatorIN5telux4cv2x16Cv2xIndsListenerEEC1ERKS4_=so_stub_for_libtelux_cv2x
-Wl,--defsym=_ZN9__gnu_cxx13new_allocatorIN5telux4cv2x16Cv2xIndsListenerEEC1Ev=so_stub_for_libtelux_cv2x
-Wl,--defsym=_ZN9__gnu_cxx13new_allocatorIN5telux4cv2x16Cv2xIndsListenerEEC2ERKS4_=so_stub_for_libtelux_cv2x
-Wl,--defsym=_ZN9__gnu_cxx13new_allocatorIN5telux4cv2x16Cv2xIndsListenerEEC2Ev=so_stub_for_libtelux_cv2x
-Wl,--defsym=_ZN9__gnu_cxx13new_allocatorIN5telux4cv2x16Cv2xIndsListenerEED1Ev=so_stub_for_libtelux_cv2x
-Wl,--defsym=_ZN9__gnu_cxx13new_allocatorIN5telux4cv2x16Cv2xIndsListenerEED2Ev=so_stub_for_libtelux_cv2x
-Wl,--defsym=_ZN9__gnu_cxx13new_allocatorIN5telux4cv2x16Cv2xRadioManagerEE7destroyIS3_EEvPT_=so_stub_for_libtelux_cv2x
-Wl,--defsym=_ZN9__gnu_cxx13new_allocatorIN5telux4cv2x16Cv2xRadioManagerEE9constructIS3_JEEEvPT_DpOT0_=so_stub_for_libtelux_cv2x
-Wl,--defsym=_ZN9__gnu_cxx13new_allocatorIN5telux4cv2x16Cv2xRadioManagerEEC1ERKS4_=so_stub_for_libtelux_cv2x
-Wl,--defsym=_ZN9__gnu_cxx13new_allocatorIN5telux4cv2x16Cv2xRadioManagerEEC1Ev=so_stub_for_libtelux_cv2x
-Wl,--defsym=_ZN9__gnu_cxx13new_allocatorIN5telux4cv2x16Cv2xRadioManagerEEC2ERKS4_=so_stub_for_libtelux_cv2x
-Wl,--defsym=_ZN9__gnu_cxx13new_allocatorIN5telux4cv2x16Cv2xRadioManagerEEC2Ev=so_stub_for_libtelux_cv2x
-Wl,--defsym=_ZN9__gnu_cxx13new_allocatorIN5telux4cv2x16Cv2xRadioManagerEED1Ev=so_stub_for_libtelux_cv2x
-Wl,--defsym=_ZN9__gnu_cxx13new_allocatorIN5telux4cv2x16Cv2xRadioManagerEED2Ev=so_stub_for_libtelux_cv2x
-Wl,--defsym=_ZN9__gnu_cxx13new_allocatorIN5telux4cv2x17ServiceStatusDataEE7destroyIS3_EEvPT_=so_stub_for_libtelux_cv2x
-Wl,--defsym=_ZN9__gnu_cxx13new_allocatorIN5telux4cv2x17ServiceStatusDataEE9constructIS3_JEEEvPT_DpOT0_=so_stub_for_libtelux_cv2x
-Wl,--defsym=_ZN9__gnu_cxx13new_allocatorIN5telux4cv2x17ServiceStatusDataEEC1ERKS4_=so_stub_for_libtelux_cv2x
-Wl,--defsym=_ZN9__gnu_cxx13new_allocatorIN5telux4cv2x17ServiceStatusDataEEC1Ev=so_stub_for_libtelux_cv2x
-Wl,--defsym=_ZN9__gnu_cxx13new_allocatorIN5telux4cv2x17ServiceStatusDataEEC2ERKS4_=so_stub_for_libtelux_cv2x
-Wl,--defsym=_ZN9__gnu_cxx13new_allocatorIN5telux4cv2x17ServiceStatusDataEEC2Ev=so_stub_for_libtelux_cv2x
-Wl,--defsym=_ZN9__gnu_cxx13new_allocatorIN5telux4cv2x17ServiceStatusDataEED1Ev=so_stub_for_libtelux_cv2x
-Wl,--defsym=_ZN9__gnu_cxx13new_allocatorIN5telux4cv2x17ServiceStatusDataEED2Ev=so_stub_for_libtelux_cv2x
-Wl,--defsym=_ZN9__gnu_cxx13new_allocatorIN5telux4cv2x18Cv2xConfigListenerEE7destroyIS3_EEvPT_=so_stub_for_libtelux_cv2x
-Wl,--defsym=_ZN9__gnu_cxx13new_allocatorIN5telux4cv2x18Cv2xConfigListenerEE9constructIS3_JEEEvPT_DpOT0_=so_stub_for_libtelux_cv2x
-Wl,--defsym=_ZN9__gnu_cxx13new_allocatorIN5telux4cv2x18Cv2xConfigListenerEEC1ERKS4_=so_stub_for_libtelux_cv2x
-Wl,--defsym=_ZN9__gnu_cxx13new_allocatorIN5telux4cv2x18Cv2xConfigListenerEEC1Ev=so_stub_for_libtelux_cv2x
-Wl,--defsym=_ZN9__gnu_cxx13new_allocatorIN5telux4cv2x18Cv2xConfigListenerEEC2ERKS4_=so_stub_for_libtelux_cv2x
-Wl,--defsym=_ZN9__gnu_cxx13new_allocatorIN5telux4cv2x18Cv2xConfigListenerEEC2Ev=so_stub_for_libtelux_cv2x
-Wl,--defsym=_ZN9__gnu_cxx13new_allocatorIN5telux4cv2x18Cv2xConfigListenerEED1Ev=so_stub_for_libtelux_cv2x
-Wl,--defsym=_ZN9__gnu_cxx13new_allocatorIN5telux4cv2x18Cv2xConfigListenerEED2Ev=so_stub_for_libtelux_cv2x
-Wl,--defsym=_ZN9__gnu_cxx13new_allocatorIN5telux4cv2x18Cv2xRxSubscriptionEE7destroyIS3_EEvPT_=so_stub_for_libtelux_cv2x
-Wl,--defsym=_ZN9__gnu_cxx13new_allocatorIN5telux4cv2x18Cv2xRxSubscriptionEE9constructIS3_JRiR12sockaddr_in6EEEvPT_DpOT0_=so_stub_for_libtelux_cv2x
-Wl,--defsym=_ZN9__gnu_cxx13new_allocatorIN5telux4cv2x18Cv2xRxSubscriptionEEC1ERKS4_=so_stub_for_libtelux_cv2x
-Wl,--defsym=_ZN9__gnu_cxx13new_allocatorIN5telux4cv2x18Cv2xRxSubscriptionEEC1Ev=so_stub_for_libtelux_cv2x
-Wl,--defsym=_ZN9__gnu_cxx13new_allocatorIN5telux4cv2x18Cv2xRxSubscriptionEEC2ERKS4_=so_stub_for_libtelux_cv2x
-Wl,--defsym=_ZN9__gnu_cxx13new_allocatorIN5telux4cv2x18Cv2xRxSubscriptionEEC2Ev=so_stub_for_libtelux_cv2x
-Wl,--defsym=_ZN9__gnu_cxx13new_allocatorIN5telux4cv2x18Cv2xRxSubscriptionEED1Ev=so_stub_for_libtelux_cv2x
-Wl,--defsym=_ZN9__gnu_cxx13new_allocatorIN5telux4cv2x18Cv2xRxSubscriptionEED2Ev=so_stub_for_libtelux_cv2x
-Wl,--defsym=_ZN9__gnu_cxx13new_allocatorIN5telux4cv2x18QmiV2xStopCallbackEE7destroyIS3_EEvPT_=so_stub_for_libtelux_cv2x
-Wl,--defsym=_ZN9__gnu_cxx13new_allocatorIN5telux4cv2x18QmiV2xStopCallbackEE9constructIS3_JEEEvPT_DpOT0_=so_stub_for_libtelux_cv2x
-Wl,--defsym=_ZN9__gnu_cxx13new_allocatorIN5telux4cv2x18QmiV2xStopCallbackEEC1ERKS4_=so_stub_for_libtelux_cv2x
-Wl,--defsym=_ZN9__gnu_cxx13new_allocatorIN5telux4cv2x18QmiV2xStopCallbackEEC1Ev=so_stub_for_libtelux_cv2x
-Wl,--defsym=_ZN9__gnu_cxx13new_allocatorIN5telux4cv2x18QmiV2xStopCallbackEEC2ERKS4_=so_stub_for_libtelux_cv2x
-Wl,--defsym=_ZN9__gnu_cxx13new_allocatorIN5telux4cv2x18QmiV2xStopCallbackEEC2Ev=so_stub_for_libtelux_cv2x
-Wl,--defsym=_ZN9__gnu_cxx13new_allocatorIN5telux4cv2x18QmiV2xStopCallbackEED1Ev=so_stub_for_libtelux_cv2x
-Wl,--defsym=_ZN9__gnu_cxx13new_allocatorIN5telux4cv2x18QmiV2xStopCallbackEED2Ev=so_stub_for_libtelux_cv2x
-Wl,--defsym=_ZN9__gnu_cxx13new_allocatorIN5telux4cv2x19DataSessionSettingsEE10deallocateEPS3_j=so_stub_for_libtelux_cv2x
-Wl,--defsym=_ZN9__gnu_cxx13new_allocatorIN5telux4cv2x19DataSessionSettingsEEC1Ev=so_stub_for_libtelux_cv2x
-Wl,--defsym=_ZN9__gnu_cxx13new_allocatorIN5telux4cv2x19DataSessionSettingsEEC2Ev=so_stub_for_libtelux_cv2x
-Wl,--defsym=_ZN9__gnu_cxx13new_allocatorIN5telux4cv2x19DataSessionSettingsEED1Ev=so_stub_for_libtelux_cv2x
-Wl,--defsym=_ZN9__gnu_cxx13new_allocatorIN5telux4cv2x19DataSessionSettingsEED2Ev=so_stub_for_libtelux_cv2x
-Wl,--defsym=_ZN9__gnu_cxx13new_allocatorIN5telux4cv2x19QmiV2xStartCallbackEE7destroyIS3_EEvPT_=so_stub_for_libtelux_cv2x
-Wl,--defsym=_ZN9__gnu_cxx13new_allocatorIN5telux4cv2x19QmiV2xStartCallbackEEC1ERKS4_=so_stub_for_libtelux_cv2x
-Wl,--defsym=_ZN9__gnu_cxx13new_allocatorIN5telux4cv2x19QmiV2xStartCallbackEEC1Ev=so_stub_for_libtelux_cv2x
-Wl,--defsym=_ZN9__gnu_cxx13new_allocatorIN5telux4cv2x19QmiV2xStartCallbackEEC2ERKS4_=so_stub_for_libtelux_cv2x
-Wl,--defsym=_ZN9__gnu_cxx13new_allocatorIN5telux4cv2x19QmiV2xStartCallbackEEC2Ev=so_stub_for_libtelux_cv2x
-Wl,--defsym=_ZN9__gnu_cxx13new_allocatorIN5telux4cv2x19QmiV2xStartCallbackEED1Ev=so_stub_for_libtelux_cv2x
-Wl,--defsym=_ZN9__gnu_cxx13new_allocatorIN5telux4cv2x19QmiV2xStartCallbackEED2Ev=so_stub_for_libtelux_cv2x
-Wl,--defsym=_ZN9__gnu_cxx13new_allocatorIN5telux4cv2x20QmiV2xStatusCallbackEE7destroyIS3_EEvPT_=so_stub_for_libtelux_cv2x
-Wl,--defsym=_ZN9__gnu_cxx13new_allocatorIN5telux4cv2x20QmiV2xStatusCallbackEE9constructIS3_JEEEvPT_DpOT0_=so_stub_for_libtelux_cv2x
-Wl,--defsym=_ZN9__gnu_cxx13new_allocatorIN5telux4cv2x20QmiV2xStatusCallbackEEC1ERKS4_=so_stub_for_libtelux_cv2x
-Wl,--defsym=_ZN9__gnu_cxx13new_allocatorIN5telux4cv2x20QmiV2xStatusCallbackEEC1Ev=so_stub_for_libtelux_cv2x
-Wl,--defsym=_ZN9__gnu_cxx13new_allocatorIN5telux4cv2x20QmiV2xStatusCallbackEEC2ERKS4_=so_stub_for_libtelux_cv2x
-Wl,--defsym=_ZN9__gnu_cxx13new_allocatorIN5telux4cv2x20QmiV2xStatusCallbackEEC2Ev=so_stub_for_libtelux_cv2x
-Wl,--defsym=_ZN9__gnu_cxx13new_allocatorIN5telux4cv2x20QmiV2xStatusCallbackEED1Ev=so_stub_for_libtelux_cv2x
-Wl,--defsym=_ZN9__gnu_cxx13new_allocatorIN5telux4cv2x20QmiV2xStatusCallbackEED2Ev=so_stub_for_libtelux_cv2x
-Wl,--defsym=_ZN9__gnu_cxx13new_allocatorIN5telux4cv2x21QmiNasIndsRegCallbackEE7destroyIS3_EEvPT_=so_stub_for_libtelux_cv2x
-Wl,--defsym=_ZN9__gnu_cxx13new_allocatorIN5telux4cv2x21QmiNasIndsRegCallbackEE9constructIS3_JEEEvPT_DpOT0_=so_stub_for_libtelux_cv2x
-Wl,--defsym=_ZN9__gnu_cxx13new_allocatorIN5telux4cv2x21QmiNasIndsRegCallbackEEC1ERKS4_=so_stub_for_libtelux_cv2x
-Wl,--defsym=_ZN9__gnu_cxx13new_allocatorIN5telux4cv2x21QmiNasIndsRegCallbackEEC1Ev=so_stub_for_libtelux_cv2x
-Wl,--defsym=_ZN9__gnu_cxx13new_allocatorIN5telux4cv2x21QmiNasIndsRegCallbackEEC2ERKS4_=so_stub_for_libtelux_cv2x
-Wl,--defsym=_ZN9__gnu_cxx13new_allocatorIN5telux4cv2x21QmiNasIndsRegCallbackEEC2Ev=so_stub_for_libtelux_cv2x
-Wl,--defsym=_ZN9__gnu_cxx13new_allocatorIN5telux4cv2x21QmiNasIndsRegCallbackEED1Ev=so_stub_for_libtelux_cv2x
-Wl,--defsym=_ZN9__gnu_cxx13new_allocatorIN5telux4cv2x21QmiNasIndsRegCallbackEED2Ev=so_stub_for_libtelux_cv2x
-Wl,--defsym=_ZN9__gnu_cxx13new_allocatorIN5telux4cv2x21ServiceStatusListenerEE7destroyIS3_EEvPT_=so_stub_for_libtelux_cv2x
-Wl,--defsym=_ZN9__gnu_cxx13new_allocatorIN5telux4cv2x21ServiceStatusListenerEE9constructIS3_JEEEvPT_DpOT0_=so_stub_for_libtelux_cv2x
-Wl,--defsym=_ZN9__gnu_cxx13new_allocatorIN5telux4cv2x21ServiceStatusListenerEEC1ERKS4_=so_stub_for_libtelux_cv2x
-Wl,--defsym=_ZN9__gnu_cxx13new_allocatorIN5telux4cv2x21ServiceStatusListenerEEC1Ev=so_stub_for_libtelux_cv2x
-Wl,--defsym=_ZN9__gnu_cxx13new_allocatorIN5telux4cv2x21ServiceStatusListenerEEC2ERKS4_=so_stub_for_libtelux_cv2x
-Wl,--defsym=_ZN9__gnu_cxx13new_allocatorIN5telux4cv2x21ServiceStatusListenerEEC2Ev=so_stub_for_libtelux_cv2x
-Wl,--defsym=_ZN9__gnu_cxx13new_allocatorIN5telux4cv2x21ServiceStatusListenerEED1Ev=so_stub_for_libtelux_cv2x
-Wl,--defsym=_ZN9__gnu_cxx13new_allocatorIN5telux4cv2x21ServiceStatusListenerEED2Ev=so_stub_for_libtelux_cv2x
-Wl,--defsym=_ZN9__gnu_cxx13new_allocatorIN5telux4cv2x22QmiV2xStatusCallbackExEE7destroyIS3_EEvPT_=so_stub_for_libtelux_cv2x
-Wl,--defsym=_ZN9__gnu_cxx13new_allocatorIN5telux4cv2x22QmiV2xStatusCallbackExEE9constructIS3_JEEEvPT_DpOT0_=so_stub_for_libtelux_cv2x
-Wl,--defsym=_ZN9__gnu_cxx13new_allocatorIN5telux4cv2x22QmiV2xStatusCallbackExEEC1ERKS4_=so_stub_for_libtelux_cv2x
-Wl,--defsym=_ZN9__gnu_cxx13new_allocatorIN5telux4cv2x22QmiV2xStatusCallbackExEEC1Ev=so_stub_for_libtelux_cv2x
-Wl,--defsym=_ZN9__gnu_cxx13new_allocatorIN5telux4cv2x22QmiV2xStatusCallbackExEEC2ERKS4_=so_stub_for_libtelux_cv2x
-Wl,--defsym=_ZN9__gnu_cxx13new_allocatorIN5telux4cv2x22QmiV2xStatusCallbackExEEC2Ev=so_stub_for_libtelux_cv2x
-Wl,--defsym=_ZN9__gnu_cxx13new_allocatorIN5telux4cv2x22QmiV2xStatusCallbackExEED1Ev=so_stub_for_libtelux_cv2x
-Wl,--defsym=_ZN9__gnu_cxx13new_allocatorIN5telux4cv2x22QmiV2xStatusCallbackExEED2Ev=so_stub_for_libtelux_cv2x
-Wl,--defsym=_ZN9__gnu_cxx13new_allocatorIN5telux4cv2x25QmiSetEventReportCallbackEE7destroyIS3_EEvPT_=so_stub_for_libtelux_cv2x
-Wl,--defsym=_ZN9__gnu_cxx13new_allocatorIN5telux4cv2x25QmiSetEventReportCallbackEE9constructIS3_JEEEvPT_DpOT0_=so_stub_for_libtelux_cv2x
-Wl,--defsym=_ZN9__gnu_cxx13new_allocatorIN5telux4cv2x25QmiSetEventReportCallbackEEC1ERKS4_=so_stub_for_libtelux_cv2x
-Wl,--defsym=_ZN9__gnu_cxx13new_allocatorIN5telux4cv2x25QmiSetEventReportCallbackEEC1Ev=so_stub_for_libtelux_cv2x
-Wl,--defsym=_ZN9__gnu_cxx13new_allocatorIN5telux4cv2x25QmiSetEventReportCallbackEEC2ERKS4_=so_stub_for_libtelux_cv2x
-Wl,--defsym=_ZN9__gnu_cxx13new_allocatorIN5telux4cv2x25QmiSetEventReportCallbackEEC2Ev=so_stub_for_libtelux_cv2x
-Wl,--defsym=_ZN9__gnu_cxx13new_allocatorIN5telux4cv2x25QmiSetEventReportCallbackEED1Ev=so_stub_for_libtelux_cv2x
-Wl,--defsym=_ZN9__gnu_cxx13new_allocatorIN5telux4cv2x25QmiSetEventReportCallbackEED2Ev=so_stub_for_libtelux_cv2x
-Wl,--defsym=_ZN9__gnu_cxx13new_allocatorIN5telux4cv2x25QmiSetPeakTxPowerCallbackEE7destroyIS3_EEvPT_=so_stub_for_libtelux_cv2x
-Wl,--defsym=_ZN9__gnu_cxx13new_allocatorIN5telux4cv2x25QmiSetPeakTxPowerCallbackEE9constructIS3_JEEEvPT_DpOT0_=so_stub_for_libtelux_cv2x
-Wl,--defsym=_ZN9__gnu_cxx13new_allocatorIN5telux4cv2x25QmiSetPeakTxPowerCallbackEEC1ERKS4_=so_stub_for_libtelux_cv2x
-Wl,--defsym=_ZN9__gnu_cxx13new_allocatorIN5telux4cv2x25QmiSetPeakTxPowerCallbackEEC1Ev=so_stub_for_libtelux_cv2x
-Wl,--defsym=_ZN9__gnu_cxx13new_allocatorIN5telux4cv2x25QmiSetPeakTxPowerCallbackEEC2ERKS4_=so_stub_for_libtelux_cv2x
-Wl,--defsym=_ZN9__gnu_cxx13new_allocatorIN5telux4cv2x25QmiSetPeakTxPowerCallbackEEC2Ev=so_stub_for_libtelux_cv2x
-Wl,--defsym=_ZN9__gnu_cxx13new_allocatorIN5telux4cv2x25QmiSetPeakTxPowerCallbackEED1Ev=so_stub_for_libtelux_cv2x
-Wl,--defsym=_ZN9__gnu_cxx13new_allocatorIN5telux4cv2x25QmiSetPeakTxPowerCallbackEED2Ev=so_stub_for_libtelux_cv2x
-Wl,--defsym=_ZN9__gnu_cxx13new_allocatorIN5telux4cv2x27QmiGetOperatingModeCallbackEE7destroyIS3_EEvPT_=so_stub_for_libtelux_cv2x
-Wl,--defsym=_ZN9__gnu_cxx13new_allocatorIN5telux4cv2x27QmiGetOperatingModeCallbackEE9constructIS3_JEEEvPT_DpOT0_=so_stub_for_libtelux_cv2x
-Wl,--defsym=_ZN9__gnu_cxx13new_allocatorIN5telux4cv2x27QmiGetOperatingModeCallbackEEC1ERKS4_=so_stub_for_libtelux_cv2x
-Wl,--defsym=_ZN9__gnu_cxx13new_allocatorIN5telux4cv2x27QmiGetOperatingModeCallbackEEC1Ev=so_stub_for_libtelux_cv2x
-Wl,--defsym=_ZN9__gnu_cxx13new_allocatorIN5telux4cv2x27QmiGetOperatingModeCallbackEEC2ERKS4_=so_stub_for_libtelux_cv2x
-Wl,--defsym=_ZN9__gnu_cxx13new_allocatorIN5telux4cv2x27QmiGetOperatingModeCallbackEEC2Ev=so_stub_for_libtelux_cv2x
-Wl,--defsym=_ZN9__gnu_cxx13new_allocatorIN5telux4cv2x27QmiGetOperatingModeCallbackEED1Ev=so_stub_for_libtelux_cv2x
-Wl,--defsym=_ZN9__gnu_cxx13new_allocatorIN5telux4cv2x27QmiGetOperatingModeCallbackEED2Ev=so_stub_for_libtelux_cv2x
-Wl,--defsym=_ZN9__gnu_cxx13new_allocatorIN5telux4cv2x27QmiSetOperatingModeCallbackEE7destroyIS3_EEvPT_=so_stub_for_libtelux_cv2x
-Wl,--defsym=_ZN9__gnu_cxx13new_allocatorIN5telux4cv2x27QmiSetOperatingModeCallbackEE9constructIS3_JEEEvPT_DpOT0_=so_stub_for_libtelux_cv2x
-Wl,--defsym=_ZN9__gnu_cxx13new_allocatorIN5telux4cv2x27QmiSetOperatingModeCallbackEEC1ERKS4_=so_stub_for_libtelux_cv2x
-Wl,--defsym=_ZN9__gnu_cxx13new_allocatorIN5telux4cv2x27QmiSetOperatingModeCallbackEEC1Ev=so_stub_for_libtelux_cv2x
-Wl,--defsym=_ZN9__gnu_cxx13new_allocatorIN5telux4cv2x27QmiSetOperatingModeCallbackEEC2ERKS4_=so_stub_for_libtelux_cv2x
-Wl,--defsym=_ZN9__gnu_cxx13new_allocatorIN5telux4cv2x27QmiSetOperatingModeCallbackEEC2Ev=so_stub_for_libtelux_cv2x
-Wl,--defsym=_ZN9__gnu_cxx13new_allocatorIN5telux4cv2x27QmiSetOperatingModeCallbackEED1Ev=so_stub_for_libtelux_cv2x
-Wl,--defsym=_ZN9__gnu_cxx13new_allocatorIN5telux4cv2x27QmiSetOperatingModeCallbackEED2Ev=so_stub_for_libtelux_cv2x
-Wl,--defsym=_ZN9__gnu_cxx13new_allocatorIN5telux4cv2x30QmiV2xGetConfigurationCallbackEE7destroyIS3_EEvPT_=so_stub_for_libtelux_cv2x
-Wl,--defsym=_ZN9__gnu_cxx13new_allocatorIN5telux4cv2x30QmiV2xGetConfigurationCallbackEE9constructIS3_JEEEvPT_DpOT0_=so_stub_for_libtelux_cv2x
-Wl,--defsym=_ZN9__gnu_cxx13new_allocatorIN5telux4cv2x30QmiV2xGetConfigurationCallbackEEC1ERKS4_=so_stub_for_libtelux_cv2x
-Wl,--defsym=_ZN9__gnu_cxx13new_allocatorIN5telux4cv2x30QmiV2xGetConfigurationCallbackEEC1Ev=so_stub_for_libtelux_cv2x
-Wl,--defsym=_ZN9__gnu_cxx13new_allocatorIN5telux4cv2x30QmiV2xGetConfigurationCallbackEEC2ERKS4_=so_stub_for_libtelux_cv2x
-Wl,--defsym=_ZN9__gnu_cxx13new_allocatorIN5telux4cv2x30QmiV2xGetConfigurationCallbackEEC2Ev=so_stub_for_libtelux_cv2x
-Wl,--defsym=_ZN9__gnu_cxx13new_allocatorIN5telux4cv2x30QmiV2xGetConfigurationCallbackEED1Ev=so_stub_for_libtelux_cv2x
-Wl,--defsym=_ZN9__gnu_cxx13new_allocatorIN5telux4cv2x30QmiV2xGetConfigurationCallbackEED2Ev=so_stub_for_libtelux_cv2x
-Wl,--defsym=_ZN9__gnu_cxx13new_allocatorIN5telux4cv2x31QmiV2xRegisterConfigIndCallbackEE7destroyIS3_EEvPT_=so_stub_for_libtelux_cv2x
-Wl,--defsym=_ZN9__gnu_cxx13new_allocatorIN5telux4cv2x31QmiV2xRegisterConfigIndCallbackEE9constructIS3_JEEEvPT_DpOT0_=so_stub_for_libtelux_cv2x
-Wl,--defsym=_ZN9__gnu_cxx13new_allocatorIN5telux4cv2x31QmiV2xRegisterConfigIndCallbackEEC1ERKS4_=so_stub_for_libtelux_cv2x
-Wl,--defsym=_ZN9__gnu_cxx13new_allocatorIN5telux4cv2x31QmiV2xRegisterConfigIndCallbackEEC1Ev=so_stub_for_libtelux_cv2x
-Wl,--defsym=_ZN9__gnu_cxx13new_allocatorIN5telux4cv2x31QmiV2xRegisterConfigIndCallbackEEC2ERKS4_=so_stub_for_libtelux_cv2x
-Wl,--defsym=_ZN9__gnu_cxx13new_allocatorIN5telux4cv2x31QmiV2xRegisterConfigIndCallbackEEC2Ev=so_stub_for_libtelux_cv2x
-Wl,--defsym=_ZN9__gnu_cxx13new_allocatorIN5telux4cv2x31QmiV2xRegisterConfigIndCallbackEED1Ev=so_stub_for_libtelux_cv2x
-Wl,--defsym=_ZN9__gnu_cxx13new_allocatorIN5telux4cv2x31QmiV2xRegisterConfigIndCallbackEED2Ev=so_stub_for_libtelux_cv2x
-Wl,--defsym=_ZN9__gnu_cxx13new_allocatorIN5telux4cv2x31SysctrlGetConfigurationCallbackEE7destroyIS3_EEvPT_=so_stub_for_libtelux_cv2x
-Wl,--defsym=_ZN9__gnu_cxx13new_allocatorIN5telux4cv2x31SysctrlGetConfigurationCallbackEE9constructIS3_JEEEvPT_DpOT0_=so_stub_for_libtelux_cv2x
-Wl,--defsym=_ZN9__gnu_cxx13new_allocatorIN5telux4cv2x31SysctrlGetConfigurationCallbackEEC1ERKS4_=so_stub_for_libtelux_cv2x
-Wl,--defsym=_ZN9__gnu_cxx13new_allocatorIN5telux4cv2x31SysctrlGetConfigurationCallbackEEC1Ev=so_stub_for_libtelux_cv2x
-Wl,--defsym=_ZN9__gnu_cxx13new_allocatorIN5telux4cv2x31SysctrlGetConfigurationCallbackEEC2ERKS4_=so_stub_for_libtelux_cv2x
-Wl,--defsym=_ZN9__gnu_cxx13new_allocatorIN5telux4cv2x31SysctrlGetConfigurationCallbackEEC2Ev=so_stub_for_libtelux_cv2x
-Wl,--defsym=_ZN9__gnu_cxx13new_allocatorIN5telux4cv2x31SysctrlGetConfigurationCallbackEED1Ev=so_stub_for_libtelux_cv2x
-Wl,--defsym=_ZN9__gnu_cxx13new_allocatorIN5telux4cv2x31SysctrlGetConfigurationCallbackEED2Ev=so_stub_for_libtelux_cv2x
-Wl,--defsym=_ZN9__gnu_cxx13new_allocatorIN5telux4cv2x35QmiV2xSendConfigurationFileCallbackEE7destroyIS3_EEvPT_=so_stub_for_libtelux_cv2x
-Wl,--defsym=_ZN9__gnu_cxx13new_allocatorIN5telux4cv2x35QmiV2xSendConfigurationFileCallbackEE9constructIS3_JRjEEEvPT_DpOT0_=so_stub_for_libtelux_cv2x
-Wl,--defsym=_ZN9__gnu_cxx13new_allocatorIN5telux4cv2x35QmiV2xSendConfigurationFileCallbackEEC1ERKS4_=so_stub_for_libtelux_cv2x
-Wl,--defsym=_ZN9__gnu_cxx13new_allocatorIN5telux4cv2x35QmiV2xSendConfigurationFileCallbackEEC1Ev=so_stub_for_libtelux_cv2x
-Wl,--defsym=_ZN9__gnu_cxx13new_allocatorIN5telux4cv2x35QmiV2xSendConfigurationFileCallbackEEC2ERKS4_=so_stub_for_libtelux_cv2x
-Wl,--defsym=_ZN9__gnu_cxx13new_allocatorIN5telux4cv2x35QmiV2xSendConfigurationFileCallbackEEC2Ev=so_stub_for_libtelux_cv2x
-Wl,--defsym=_ZN9__gnu_cxx13new_allocatorIN5telux4cv2x35QmiV2xSendConfigurationFileCallbackEED1Ev=so_stub_for_libtelux_cv2x
-Wl,--defsym=_ZN9__gnu_cxx13new_allocatorIN5telux4cv2x35QmiV2xSendConfigurationFileCallbackEED2Ev=so_stub_for_libtelux_cv2x
-Wl,--defsym=_ZN9__gnu_cxx13new_allocatorIN5telux4cv2x9EventInfoINS2_14IndicationDataEEEE7destroyIS5_EEvPT_=so_stub_for_libtelux_cv2x
-Wl,--defsym=_ZN9__gnu_cxx13new_allocatorIN5telux4cv2x9EventInfoINS2_14IndicationDataEEEE9constructIS5_JRKSt10shared_ptrIS4_ERSt8functionIFvS9_EEEEEvPT_DpOT0_=so_stub_for_libtelux_cv2x
-Wl,--defsym=_ZN9__gnu_cxx13new_allocatorIN5telux4cv2x9EventInfoINS2_14IndicationDataEEEEC1ERKS6_=so_stub_for_libtelux_cv2x
-Wl,--defsym=_ZN9__gnu_cxx13new_allocatorIN5telux4cv2x9EventInfoINS2_14IndicationDataEEEEC1Ev=so_stub_for_libtelux_cv2x
-Wl,--defsym=_ZN9__gnu_cxx13new_allocatorIN5telux4cv2x9EventInfoINS2_14IndicationDataEEEEC2ERKS6_=so_stub_for_libtelux_cv2x
-Wl,--defsym=_ZN9__gnu_cxx13new_allocatorIN5telux4cv2x9EventInfoINS2_14IndicationDataEEEEC2Ev=so_stub_for_libtelux_cv2x
-Wl,--defsym=_ZN9__gnu_cxx13new_allocatorIN5telux4cv2x9EventInfoINS2_14IndicationDataEEEED1Ev=so_stub_for_libtelux_cv2x
-Wl,--defsym=_ZN9__gnu_cxx13new_allocatorIN5telux4cv2x9EventInfoINS2_14IndicationDataEEEED2Ev=so_stub_for_libtelux_cv2x
-Wl,--defsym=_ZN9__gnu_cxx13new_allocatorIN5telux4cv2x9EventInfoINS2_17ServiceStatusDataEEEE7destroyIS5_EEvPT_=so_stub_for_libtelux_cv2x
-Wl,--defsym=_ZN9__gnu_cxx13new_allocatorIN5telux4cv2x9EventInfoINS2_17ServiceStatusDataEEEE9constructIS5_JRKSt10shared_ptrIS4_ERSt8functionIFvS9_EEEEEvPT_DpOT0_=so_stub_for_libtelux_cv2x
-Wl,--defsym=_ZN9__gnu_cxx13new_allocatorIN5telux4cv2x9EventInfoINS2_17ServiceStatusDataEEEEC1ERKS6_=so_stub_for_libtelux_cv2x
-Wl,--defsym=_ZN9__gnu_cxx13new_allocatorIN5telux4cv2x9EventInfoINS2_17ServiceStatusDataEEEEC1Ev=so_stub_for_libtelux_cv2x
-Wl,--defsym=_ZN9__gnu_cxx13new_allocatorIN5telux4cv2x9EventInfoINS2_17ServiceStatusDataEEEEC2ERKS6_=so_stub_for_libtelux_cv2x
-Wl,--defsym=_ZN9__gnu_cxx13new_allocatorIN5telux4cv2x9EventInfoINS2_17ServiceStatusDataEEEEC2Ev=so_stub_for_libtelux_cv2x
-Wl,--defsym=_ZN9__gnu_cxx13new_allocatorIN5telux4cv2x9EventInfoINS2_17ServiceStatusDataEEEED1Ev=so_stub_for_libtelux_cv2x
-Wl,--defsym=_ZN9__gnu_cxx13new_allocatorIN5telux4cv2x9EventInfoINS2_17ServiceStatusDataEEEED2Ev=so_stub_for_libtelux_cv2x
-Wl,--defsym=_ZN9__gnu_cxx13new_allocatorIN5telux6common15ListenerManagerINS1_4cv2x13ICv2xListenerEEEE7destroyIS6_EEvPT_=so_stub_for_libtelux_cv2x
-Wl,--defsym=_ZN9__gnu_cxx13new_allocatorIN5telux6common15ListenerManagerINS1_4cv2x13ICv2xListenerEEEE9constructIS6_JEEEvPT_DpOT0_=so_stub_for_libtelux_cv2x
-Wl,--defsym=_ZN9__gnu_cxx13new_allocatorIN5telux6common15ListenerManagerINS1_4cv2x13ICv2xListenerEEEEC1ERKS7_=so_stub_for_libtelux_cv2x
-Wl,--defsym=_ZN9__gnu_cxx13new_allocatorIN5telux6common15ListenerManagerINS1_4cv2x13ICv2xListenerEEEEC1Ev=so_stub_for_libtelux_cv2x
-Wl,--defsym=_ZN9__gnu_cxx13new_allocatorIN5telux6common15ListenerManagerINS1_4cv2x13ICv2xListenerEEEEC2ERKS7_=so_stub_for_libtelux_cv2x
-Wl,--defsym=_ZN9__gnu_cxx13new_allocatorIN5telux6common15ListenerManagerINS1_4cv2x13ICv2xListenerEEEEC2Ev=so_stub_for_libtelux_cv2x
-Wl,--defsym=_ZN9__gnu_cxx13new_allocatorIN5telux6common15ListenerManagerINS1_4cv2x13ICv2xListenerEEEED1Ev=so_stub_for_libtelux_cv2x
-Wl,--defsym=_ZN9__gnu_cxx13new_allocatorIN5telux6common15ListenerManagerINS1_4cv2x13ICv2xListenerEEEED2Ev=so_stub_for_libtelux_cv2x
-Wl,--defsym=_ZN9__gnu_cxx13new_allocatorIN5telux6common15ListenerManagerINS1_4cv2x19ICv2xConfigListenerEEEE7destroyIS6_EEvPT_=so_stub_for_libtelux_cv2x
-Wl,--defsym=_ZN9__gnu_cxx13new_allocatorIN5telux6common15ListenerManagerINS1_4cv2x19ICv2xConfigListenerEEEE9constructIS6_JEEEvPT_DpOT0_=so_stub_for_libtelux_cv2x
-Wl,--defsym=_ZN9__gnu_cxx13new_allocatorIN5telux6common15ListenerManagerINS1_4cv2x19ICv2xConfigListenerEEEEC1ERKS7_=so_stub_for_libtelux_cv2x
-Wl,--defsym=_ZN9__gnu_cxx13new_allocatorIN5telux6common15ListenerManagerINS1_4cv2x19ICv2xConfigListenerEEEEC1Ev=so_stub_for_libtelux_cv2x
-Wl,--defsym=_ZN9__gnu_cxx13new_allocatorIN5telux6common15ListenerManagerINS1_4cv2x19ICv2xConfigListenerEEEEC2ERKS7_=so_stub_for_libtelux_cv2x
-Wl,--defsym=_ZN9__gnu_cxx13new_allocatorIN5telux6common15ListenerManagerINS1_4cv2x19ICv2xConfigListenerEEEEC2Ev=so_stub_for_libtelux_cv2x
-Wl,--defsym=_ZN9__gnu_cxx13new_allocatorIN5telux6common15ListenerManagerINS1_4cv2x19ICv2xConfigListenerEEEED1Ev=so_stub_for_libtelux_cv2x
-Wl,--defsym=_ZN9__gnu_cxx13new_allocatorIN5telux6common15ListenerManagerINS1_4cv2x19ICv2xConfigListenerEEEED2Ev=so_stub_for_libtelux_cv2x
-Wl,--defsym=_ZN9__gnu_cxx13new_allocatorINSt13__future_base13_State_baseV2EE7destroyIS2_EEvPT_=so_stub_for_libtelux_cv2x
-Wl,--defsym=_ZN9__gnu_cxx13new_allocatorINSt13__future_base13_State_baseV2EE9constructIS2_JEEEvPT_DpOT0_=so_stub_for_libtelux_cv2x
-Wl,--defsym=_ZN9__gnu_cxx13new_allocatorINSt13__future_base13_State_baseV2EEC1ERKS3_=so_stub_for_libtelux_cv2x
-Wl,--defsym=_ZN9__gnu_cxx13new_allocatorINSt13__future_base13_State_baseV2EEC1Ev=so_stub_for_libtelux_cv2x
-Wl,--defsym=_ZN9__gnu_cxx13new_allocatorINSt13__future_base13_State_baseV2EEC2ERKS3_=so_stub_for_libtelux_cv2x
-Wl,--defsym=_ZN9__gnu_cxx13new_allocatorINSt13__future_base13_State_baseV2EEC2Ev=so_stub_for_libtelux_cv2x
-Wl,--defsym=_ZN9__gnu_cxx13new_allocatorINSt13__future_base13_State_baseV2EED1Ev=so_stub_for_libtelux_cv2x
-Wl,--defsym=_ZN9__gnu_cxx13new_allocatorINSt13__future_base13_State_baseV2EED2Ev=so_stub_for_libtelux_cv2x
-Wl,--defsym=_ZN9__gnu_cxx13new_allocatorIPSt13shared_futureIvEE10deallocateEPS3_j=so_stub_for_libtelux_cv2x
-Wl,--defsym=_ZN9__gnu_cxx13new_allocatorIPSt13shared_futureIvEE8allocateEjPKv=so_stub_for_libtelux_cv2x
-Wl,--defsym=_ZN9__gnu_cxx13new_allocatorIPSt13shared_futureIvEEC1Ev=so_stub_for_libtelux_cv2x
-Wl,--defsym=_ZN9__gnu_cxx13new_allocatorIPSt13shared_futureIvEEC2Ev=so_stub_for_libtelux_cv2x
-Wl,--defsym=_ZN9__gnu_cxx13new_allocatorIPSt13shared_futureIvEED1Ev=so_stub_for_libtelux_cv2x
-Wl,--defsym=_ZN9__gnu_cxx13new_allocatorIPSt13shared_futureIvEED2Ev=so_stub_for_libtelux_cv2x
-Wl,--defsym=_ZN9__gnu_cxx13new_allocatorISt10_List_nodeISt10shared_ptrIN5telux4cv2x13EventInfoBaseEEEE10deallocateEPS7_j=so_stub_for_libtelux_cv2x
-Wl,--defsym=_ZN9__gnu_cxx13new_allocatorISt10_List_nodeISt10shared_ptrIN5telux4cv2x13EventInfoBaseEEEE7destroyIS6_EEvPT_=so_stub_for_libtelux_cv2x
-Wl,--defsym=_ZN9__gnu_cxx13new_allocatorISt10_List_nodeISt10shared_ptrIN5telux4cv2x13EventInfoBaseEEEE8allocateEjPKv=so_stub_for_libtelux_cv2x
-Wl,--defsym=_ZN9__gnu_cxx13new_allocatorISt10_List_nodeISt10shared_ptrIN5telux4cv2x13EventInfoBaseEEEE9constructIS6_JRS6_EEEvPT_DpOT0_=so_stub_for_libtelux_cv2x
-Wl,--defsym=_ZN9__gnu_cxx13new_allocatorISt10_List_nodeISt10shared_ptrIN5telux4cv2x13EventInfoBaseEEEEC1Ev=so_stub_for_libtelux_cv2x
-Wl,--defsym=_ZN9__gnu_cxx13new_allocatorISt10_List_nodeISt10shared_ptrIN5telux4cv2x13EventInfoBaseEEEEC2Ev=so_stub_for_libtelux_cv2x
-Wl,--defsym=_ZN9__gnu_cxx13new_allocatorISt10_List_nodeISt10shared_ptrIN5telux4cv2x13EventInfoBaseEEEED1Ev=so_stub_for_libtelux_cv2x
-Wl,--defsym=_ZN9__gnu_cxx13new_allocatorISt10_List_nodeISt10shared_ptrIN5telux4cv2x13EventInfoBaseEEEED2Ev=so_stub_for_libtelux_cv2x
-Wl,--defsym=_ZN9__gnu_cxx13new_allocatorISt10shared_ptrIN5telux4cv2x11ICv2xTxFlowEEE10deallocateEPS5_j=so_stub_for_libtelux_cv2x
-Wl,--defsym=_ZN9__gnu_cxx13new_allocatorISt10shared_ptrIN5telux4cv2x11ICv2xTxFlowEEE7destroyIS5_EEvPT_=so_stub_for_libtelux_cv2x
-Wl,--defsym=_ZN9__gnu_cxx13new_allocatorISt10shared_ptrIN5telux4cv2x11ICv2xTxFlowEEE8allocateEjPKv=so_stub_for_libtelux_cv2x
-Wl,--defsym=_ZN9__gnu_cxx13new_allocatorISt10shared_ptrIN5telux4cv2x11ICv2xTxFlowEEE9constructIS5_JRKS5_EEEvPT_DpOT0_=so_stub_for_libtelux_cv2x
-Wl,--defsym=_ZN9__gnu_cxx13new_allocatorISt10shared_ptrIN5telux4cv2x11ICv2xTxFlowEEEC1ERKS6_=so_stub_for_libtelux_cv2x
-Wl,--defsym=_ZN9__gnu_cxx13new_allocatorISt10shared_ptrIN5telux4cv2x11ICv2xTxFlowEEEC1Ev=so_stub_for_libtelux_cv2x
-Wl,--defsym=_ZN9__gnu_cxx13new_allocatorISt10shared_ptrIN5telux4cv2x11ICv2xTxFlowEEEC2ERKS6_=so_stub_for_libtelux_cv2x
-Wl,--defsym=_ZN9__gnu_cxx13new_allocatorISt10shared_ptrIN5telux4cv2x11ICv2xTxFlowEEEC2Ev=so_stub_for_libtelux_cv2x
-Wl,--defsym=_ZN9__gnu_cxx13new_allocatorISt10shared_ptrIN5telux4cv2x11ICv2xTxFlowEEED1Ev=so_stub_for_libtelux_cv2x
-Wl,--defsym=_ZN9__gnu_cxx13new_allocatorISt10shared_ptrIN5telux4cv2x11ICv2xTxFlowEEED2Ev=so_stub_for_libtelux_cv2x
-Wl,--defsym=_ZN9__gnu_cxx13new_allocatorISt13_Rb_tree_nodeISt4pairIKhN5telux4cv2x17SpsSchedulingInfoEEEE10deallocateEPS8_j=so_stub_for_libtelux_cv2x
-Wl,--defsym=_ZN9__gnu_cxx13new_allocatorISt13_Rb_tree_nodeISt4pairIKhN5telux4cv2x17SpsSchedulingInfoEEEE7destroyIS7_EEvPT_=so_stub_for_libtelux_cv2x
-Wl,--defsym=_ZN9__gnu_cxx13new_allocatorISt13_Rb_tree_nodeISt4pairIKhN5telux4cv2x17SpsSchedulingInfoEEEEC1Ev=so_stub_for_libtelux_cv2x
-Wl,--defsym=_ZN9__gnu_cxx13new_allocatorISt13_Rb_tree_nodeISt4pairIKhN5telux4cv2x17SpsSchedulingInfoEEEEC2Ev=so_stub_for_libtelux_cv2x
-Wl,--defsym=_ZN9__gnu_cxx13new_allocatorISt13_Rb_tree_nodeISt4pairIKhN5telux4cv2x17SpsSchedulingInfoEEEED1Ev=so_stub_for_libtelux_cv2x
-Wl,--defsym=_ZN9__gnu_cxx13new_allocatorISt13_Rb_tree_nodeISt4pairIKhN5telux4cv2x17SpsSchedulingInfoEEEED2Ev=so_stub_for_libtelux_cv2x
-Wl,--defsym=_ZN9__gnu_cxx13new_allocatorISt13_Rb_tree_nodeISt4pairIKjSt10shared_ptrIN5telux4cv2x11ICv2xTxFlowEEEEE10deallocateEPSA_j=so_stub_for_libtelux_cv2x
-Wl,--defsym=_ZN9__gnu_cxx13new_allocatorISt13_Rb_tree_nodeISt4pairIKjSt10shared_ptrIN5telux4cv2x11ICv2xTxFlowEEEEE7destroyIS9_EEvPT_=so_stub_for_libtelux_cv2x
-Wl,--defsym=_ZN9__gnu_cxx13new_allocatorISt13_Rb_tree_nodeISt4pairIKjSt10shared_ptrIN5telux4cv2x11ICv2xTxFlowEEEEE8allocateEjPKv=so_stub_for_libtelux_cv2x
-Wl,--defsym=_ZN9__gnu_cxx13new_allocatorISt13_Rb_tree_nodeISt4pairIKjSt10shared_ptrIN5telux4cv2x11ICv2xTxFlowEEEEE9constructIS9_JRKSt21piecewise_construct_tSt5tupleIJRS3_EESG_IJEEEEEvPT_DpOT0_=so_stub_for_libtelux_cv2x
-Wl,--defsym=_ZN9__gnu_cxx13new_allocatorISt13_Rb_tree_nodeISt4pairIKjSt10shared_ptrIN5telux4cv2x11ICv2xTxFlowEEEEEC1Ev=so_stub_for_libtelux_cv2x
-Wl,--defsym=_ZN9__gnu_cxx13new_allocatorISt13_Rb_tree_nodeISt4pairIKjSt10shared_ptrIN5telux4cv2x11ICv2xTxFlowEEEEEC2Ev=so_stub_for_libtelux_cv2x
-Wl,--defsym=_ZN9__gnu_cxx13new_allocatorISt13_Rb_tree_nodeISt4pairIKjSt10shared_ptrIN5telux4cv2x11ICv2xTxFlowEEEEED1Ev=so_stub_for_libtelux_cv2x
-Wl,--defsym=_ZN9__gnu_cxx13new_allocatorISt13_Rb_tree_nodeISt4pairIKjSt10shared_ptrIN5telux4cv2x11ICv2xTxFlowEEEEED2Ev=so_stub_for_libtelux_cv2x
-Wl,--defsym=_ZN9__gnu_cxx13new_allocatorISt13_Rb_tree_nodeISt4pairIKjSt10shared_ptrIN5telux4cv2x15ICv2xTxRxSocketEEEEE10deallocateEPSA_j=so_stub_for_libtelux_cv2x
-Wl,--defsym=_ZN9__gnu_cxx13new_allocatorISt13_Rb_tree_nodeISt4pairIKjSt10shared_ptrIN5telux4cv2x15ICv2xTxRxSocketEEEEE7destroyIS9_EEvPT_=so_stub_for_libtelux_cv2x
-Wl,--defsym=_ZN9__gnu_cxx13new_allocatorISt13_Rb_tree_nodeISt4pairIKjSt10shared_ptrIN5telux4cv2x15ICv2xTxRxSocketEEEEE8allocateEjPKv=so_stub_for_libtelux_cv2x
-Wl,--defsym=_ZN9__gnu_cxx13new_allocatorISt13_Rb_tree_nodeISt4pairIKjSt10shared_ptrIN5telux4cv2x15ICv2xTxRxSocketEEEEE9constructIS9_JRKSt21piecewise_construct_tSt5tupleIJRS3_EESG_IJEEEEEvPT_DpOT0_=so_stub_for_libtelux_cv2x
-Wl,--defsym=_ZN9__gnu_cxx13new_allocatorISt13_Rb_tree_nodeISt4pairIKjSt10shared_ptrIN5telux4cv2x15ICv2xTxRxSocketEEEEEC1Ev=so_stub_for_libtelux_cv2x
-Wl,--defsym=_ZN9__gnu_cxx13new_allocatorISt13_Rb_tree_nodeISt4pairIKjSt10shared_ptrIN5telux4cv2x15ICv2xTxRxSocketEEEEEC2Ev=so_stub_for_libtelux_cv2x
-Wl,--defsym=_ZN9__gnu_cxx13new_allocatorISt13_Rb_tree_nodeISt4pairIKjSt10shared_ptrIN5telux4cv2x15ICv2xTxRxSocketEEEEED1Ev=so_stub_for_libtelux_cv2x
-Wl,--defsym=_ZN9__gnu_cxx13new_allocatorISt13_Rb_tree_nodeISt4pairIKjSt10shared_ptrIN5telux4cv2x15ICv2xTxRxSocketEEEEED2Ev=so_stub_for_libtelux_cv2x
-Wl,--defsym=_ZN9__gnu_cxx13new_allocatorISt13_Rb_tree_nodeISt4pairIKjSt10shared_ptrIN5telux4cv2x19ICv2xRxSubscriptionEEEEE10deallocateEPSA_j=so_stub_for_libtelux_cv2x
-Wl,--defsym=_ZN9__gnu_cxx13new_allocatorISt13_Rb_tree_nodeISt4pairIKjSt10shared_ptrIN5telux4cv2x19ICv2xRxSubscriptionEEEEE7destroyIS9_EEvPT_=so_stub_for_libtelux_cv2x
-Wl,--defsym=_ZN9__gnu_cxx13new_allocatorISt13_Rb_tree_nodeISt4pairIKjSt10shared_ptrIN5telux4cv2x19ICv2xRxSubscriptionEEEEE8allocateEjPKv=so_stub_for_libtelux_cv2x
-Wl,--defsym=_ZN9__gnu_cxx13new_allocatorISt13_Rb_tree_nodeISt4pairIKjSt10shared_ptrIN5telux4cv2x19ICv2xRxSubscriptionEEEEE9constructIS9_JRKSt21piecewise_construct_tSt5tupleIJRS3_EESG_IJEEEEEvPT_DpOT0_=so_stub_for_libtelux_cv2x
-Wl,--defsym=_ZN9__gnu_cxx13new_allocatorISt13_Rb_tree_nodeISt4pairIKjSt10shared_ptrIN5telux4cv2x19ICv2xRxSubscriptionEEEEEC1Ev=so_stub_for_libtelux_cv2x
-Wl,--defsym=_ZN9__gnu_cxx13new_allocatorISt13_Rb_tree_nodeISt4pairIKjSt10shared_ptrIN5telux4cv2x19ICv2xRxSubscriptionEEEEEC2Ev=so_stub_for_libtelux_cv2x
-Wl,--defsym=_ZN9__gnu_cxx13new_allocatorISt13_Rb_tree_nodeISt4pairIKjSt10shared_ptrIN5telux4cv2x19ICv2xRxSubscriptionEEEEED1Ev=so_stub_for_libtelux_cv2x
-Wl,--defsym=_ZN9__gnu_cxx13new_allocatorISt13_Rb_tree_nodeISt4pairIKjSt10shared_ptrIN5telux4cv2x19ICv2xRxSubscriptionEEEEED2Ev=so_stub_for_libtelux_cv2x
-Wl,--defsym=_ZN9__gnu_cxx13new_allocatorISt13_Rb_tree_nodeISt4pairIKjSt10unique_ptrINSt7__cxx1112basic_stringIcSt11char_traitsIcESaIcEEESt14default_deleteISA_EEEEE10deallocateEPSF_j=so_stub_for_libtelux_cv2x
-Wl,--defsym=_ZN9__gnu_cxx13new_allocatorISt13_Rb_tree_nodeISt4pairIKjSt10unique_ptrINSt7__cxx1112basic_stringIcSt11char_traitsIcESaIcEEESt14default_deleteISA_EEEEE7destroyISE_EEvPT_=so_stub_for_libtelux_cv2x
-Wl,--defsym=_ZN9__gnu_cxx13new_allocatorISt13_Rb_tree_nodeISt4pairIKjSt10unique_ptrINSt7__cxx1112basic_stringIcSt11char_traitsIcESaIcEEESt14default_deleteISA_EEEEE8allocateEjPKv=so_stub_for_libtelux_cv2x
-Wl,--defsym=_ZN9__gnu_cxx13new_allocatorISt13_Rb_tree_nodeISt4pairIKjSt10unique_ptrINSt7__cxx1112basic_stringIcSt11char_traitsIcESaIcEEESt14default_deleteISA_EEEEE9constructISE_JRKSt21piecewise_construct_tSt5tupleIJOjEESL_IJEEEEEvPT_DpOT0_=so_stub_for_libtelux_cv2x
-Wl,--defsym=_ZN9__gnu_cxx13new_allocatorISt13_Rb_tree_nodeISt4pairIKjSt10unique_ptrINSt7__cxx1112basic_stringIcSt11char_traitsIcESaIcEEESt14default_deleteISA_EEEEEC1Ev=so_stub_for_libtelux_cv2x
-Wl,--defsym=_ZN9__gnu_cxx13new_allocatorISt13_Rb_tree_nodeISt4pairIKjSt10unique_ptrINSt7__cxx1112basic_stringIcSt11char_traitsIcESaIcEEESt14default_deleteISA_EEEEEC2Ev=so_stub_for_libtelux_cv2x
-Wl,--defsym=_ZN9__gnu_cxx13new_allocatorISt13_Rb_tree_nodeISt4pairIKjSt10unique_ptrINSt7__cxx1112basic_stringIcSt11char_traitsIcESaIcEEESt14default_deleteISA_EEEEED1Ev=so_stub_for_libtelux_cv2x
-Wl,--defsym=_ZN9__gnu_cxx13new_allocatorISt13_Rb_tree_nodeISt4pairIKjSt10unique_ptrINSt7__cxx1112basic_stringIcSt11char_traitsIcESaIcEEESt14default_deleteISA_EEEEED2Ev=so_stub_for_libtelux_cv2x
-Wl,--defsym=_ZN9__gnu_cxx13new_allocatorISt13shared_futureIvEE10deallocateEPS2_j=so_stub_for_libtelux_cv2x
-Wl,--defsym=_ZN9__gnu_cxx13new_allocatorISt13shared_futureIvEE7destroyIS2_EEvPT_=so_stub_for_libtelux_cv2x
-Wl,--defsym=_ZN9__gnu_cxx13new_allocatorISt13shared_futureIvEE8allocateEjPKv=so_stub_for_libtelux_cv2x
-Wl,--defsym=_ZN9__gnu_cxx13new_allocatorISt13shared_futureIvEE9constructIS2_JRKS2_EEEvPT_DpOT0_=so_stub_for_libtelux_cv2x
-Wl,--defsym=_ZN9__gnu_cxx13new_allocatorISt13shared_futureIvEEC1Ev=so_stub_for_libtelux_cv2x
-Wl,--defsym=_ZN9__gnu_cxx13new_allocatorISt13shared_futureIvEEC2Ev=so_stub_for_libtelux_cv2x
-Wl,--defsym=_ZN9__gnu_cxx13new_allocatorISt13shared_futureIvEED1Ev=so_stub_for_libtelux_cv2x
-Wl,--defsym=_ZN9__gnu_cxx13new_allocatorISt13shared_futureIvEED2Ev=so_stub_for_libtelux_cv2x
-Wl,--defsym=_ZN9__gnu_cxx13new_allocatorISt23_Sp_counted_ptr_inplaceIN5telux4cv2x10Cv2xConfigESaIS4_ELNS_12_Lock_policyE2EEE10deallocateEPS7_j=so_stub_for_libtelux_cv2x
-Wl,--defsym=_ZN9__gnu_cxx13new_allocatorISt23_Sp_counted_ptr_inplaceIN5telux4cv2x10Cv2xConfigESaIS4_ELNS_12_Lock_policyE2EEE8allocateEjPKv=so_stub_for_libtelux_cv2x
-Wl,--defsym=_ZN9__gnu_cxx13new_allocatorISt23_Sp_counted_ptr_inplaceIN5telux4cv2x10Cv2xConfigESaIS4_ELNS_12_Lock_policyE2EEEC1Ev=so_stub_for_libtelux_cv2x
-Wl,--defsym=_ZN9__gnu_cxx13new_allocatorISt23_Sp_counted_ptr_inplaceIN5telux4cv2x10Cv2xConfigESaIS4_ELNS_12_Lock_policyE2EEEC2Ev=so_stub_for_libtelux_cv2x
-Wl,--defsym=_ZN9__gnu_cxx13new_allocatorISt23_Sp_counted_ptr_inplaceIN5telux4cv2x10Cv2xConfigESaIS4_ELNS_12_Lock_policyE2EEED1Ev=so_stub_for_libtelux_cv2x
-Wl,--defsym=_ZN9__gnu_cxx13new_allocatorISt23_Sp_counted_ptr_inplaceIN5telux4cv2x10Cv2xConfigESaIS4_ELNS_12_Lock_policyE2EEED2Ev=so_stub_for_libtelux_cv2x
-Wl,--defsym=_ZN9__gnu_cxx13new_allocatorISt23_Sp_counted_ptr_inplaceIN5telux4cv2x11Cv2xSysCtrlESaIS4_ELNS_12_Lock_policyE2EEE10deallocateEPS7_j=so_stub_for_libtelux_cv2x
-Wl,--defsym=_ZN9__gnu_cxx13new_allocatorISt23_Sp_counted_ptr_inplaceIN5telux4cv2x11Cv2xSysCtrlESaIS4_ELNS_12_Lock_policyE2EEE8allocateEjPKv=so_stub_for_libtelux_cv2x
-Wl,--defsym=_ZN9__gnu_cxx13new_allocatorISt23_Sp_counted_ptr_inplaceIN5telux4cv2x11Cv2xSysCtrlESaIS4_ELNS_12_Lock_policyE2EEEC1Ev=so_stub_for_libtelux_cv2x
-Wl,--defsym=_ZN9__gnu_cxx13new_allocatorISt23_Sp_counted_ptr_inplaceIN5telux4cv2x11Cv2xSysCtrlESaIS4_ELNS_12_Lock_policyE2EEEC2Ev=so_stub_for_libtelux_cv2x
-Wl,--defsym=_ZN9__gnu_cxx13new_allocatorISt23_Sp_counted_ptr_inplaceIN5telux4cv2x11Cv2xSysCtrlESaIS4_ELNS_12_Lock_policyE2EEED1Ev=so_stub_for_libtelux_cv2x
-Wl,--defsym=_ZN9__gnu_cxx13new_allocatorISt23_Sp_counted_ptr_inplaceIN5telux4cv2x11Cv2xSysCtrlESaIS4_ELNS_12_Lock_policyE2EEED2Ev=so_stub_for_libtelux_cv2x
-Wl,--defsym=_ZN9__gnu_cxx13new_allocatorISt23_Sp_counted_ptr_inplaceIN5telux4cv2x12DsiCv2xRadioESaIS4_ELNS_12_Lock_policyE2EEE10deallocateEPS7_j=so_stub_for_libtelux_cv2x
-Wl,--defsym=_ZN9__gnu_cxx13new_allocatorISt23_Sp_counted_ptr_inplaceIN5telux4cv2x12DsiCv2xRadioESaIS4_ELNS_12_Lock_policyE2EEE8allocateEjPKv=so_stub_for_libtelux_cv2x
-Wl,--defsym=_ZN9__gnu_cxx13new_allocatorISt23_Sp_counted_ptr_inplaceIN5telux4cv2x12DsiCv2xRadioESaIS4_ELNS_12_Lock_policyE2EEEC1Ev=so_stub_for_libtelux_cv2x
-Wl,--defsym=_ZN9__gnu_cxx13new_allocatorISt23_Sp_counted_ptr_inplaceIN5telux4cv2x12DsiCv2xRadioESaIS4_ELNS_12_Lock_policyE2EEEC2Ev=so_stub_for_libtelux_cv2x
-Wl,--defsym=_ZN9__gnu_cxx13new_allocatorISt23_Sp_counted_ptr_inplaceIN5telux4cv2x12DsiCv2xRadioESaIS4_ELNS_12_Lock_policyE2EEED1Ev=so_stub_for_libtelux_cv2x
-Wl,--defsym=_ZN9__gnu_cxx13new_allocatorISt23_Sp_counted_ptr_inplaceIN5telux4cv2x12DsiCv2xRadioESaIS4_ELNS_12_Lock_policyE2EEED2Ev=so_stub_for_libtelux_cv2x
-Wl,--defsym=_ZN9__gnu_cxx13new_allocatorISt23_Sp_counted_ptr_inplaceIN5telux4cv2x12EventHandlerESaIS4_ELNS_12_Lock_policyE2EEE10deallocateEPS7_j=so_stub_for_libtelux_cv2x
-Wl,--defsym=_ZN9__gnu_cxx13new_allocatorISt23_Sp_counted_ptr_inplaceIN5telux4cv2x12EventHandlerESaIS4_ELNS_12_Lock_policyE2EEE8allocateEjPKv=so_stub_for_libtelux_cv2x
-Wl,--defsym=_ZN9__gnu_cxx13new_allocatorISt23_Sp_counted_ptr_inplaceIN5telux4cv2x12EventHandlerESaIS4_ELNS_12_Lock_policyE2EEEC1Ev=so_stub_for_libtelux_cv2x
-Wl,--defsym=_ZN9__gnu_cxx13new_allocatorISt23_Sp_counted_ptr_inplaceIN5telux4cv2x12EventHandlerESaIS4_ELNS_12_Lock_policyE2EEEC2Ev=so_stub_for_libtelux_cv2x
-Wl,--defsym=_ZN9__gnu_cxx13new_allocatorISt23_Sp_counted_ptr_inplaceIN5telux4cv2x12EventHandlerESaIS4_ELNS_12_Lock_policyE2EEED1Ev=so_stub_for_libtelux_cv2x
-Wl,--defsym=_ZN9__gnu_cxx13new_allocatorISt23_Sp_counted_ptr_inplaceIN5telux4cv2x12EventHandlerESaIS4_ELNS_12_Lock_policyE2EEED2Ev=so_stub_for_libtelux_cv2x
-Wl,--defsym=_ZN9__gnu_cxx13new_allocatorISt23_Sp_counted_ptr_inplaceIN5telux4cv2x13Cv2xTxSpsFlowESaIS4_ELNS_12_Lock_policyE2EEE10deallocateEPS7_j=so_stub_for_libtelux_cv2x
-Wl,--defsym=_ZN9__gnu_cxx13new_allocatorISt23_Sp_counted_ptr_inplaceIN5telux4cv2x13Cv2xTxSpsFlowESaIS4_ELNS_12_Lock_policyE2EEE8allocateEjPKv=so_stub_for_libtelux_cv2x
-Wl,--defsym=_ZN9__gnu_cxx13new_allocatorISt23_Sp_counted_ptr_inplaceIN5telux4cv2x13Cv2xTxSpsFlowESaIS4_ELNS_12_Lock_policyE2EEEC1Ev=so_stub_for_libtelux_cv2x
-Wl,--defsym=_ZN9__gnu_cxx13new_allocatorISt23_Sp_counted_ptr_inplaceIN5telux4cv2x13Cv2xTxSpsFlowESaIS4_ELNS_12_Lock_policyE2EEEC2Ev=so_stub_for_libtelux_cv2x
-Wl,--defsym=_ZN9__gnu_cxx13new_allocatorISt23_Sp_counted_ptr_inplaceIN5telux4cv2x13Cv2xTxSpsFlowESaIS4_ELNS_12_Lock_policyE2EEED1Ev=so_stub_for_libtelux_cv2x
-Wl,--defsym=_ZN9__gnu_cxx13new_allocatorISt23_Sp_counted_ptr_inplaceIN5telux4cv2x13Cv2xTxSpsFlowESaIS4_ELNS_12_Lock_policyE2EEED2Ev=so_stub_for_libtelux_cv2x
-Wl,--defsym=_ZN9__gnu_cxx13new_allocatorISt23_Sp_counted_ptr_inplaceIN5telux4cv2x14Cv2xTxRxSocketESaIS4_ELNS_12_Lock_policyE2EEE10deallocateEPS7_j=so_stub_for_libtelux_cv2x
-Wl,--defsym=_ZN9__gnu_cxx13new_allocatorISt23_Sp_counted_ptr_inplaceIN5telux4cv2x14Cv2xTxRxSocketESaIS4_ELNS_12_Lock_policyE2EEE8allocateEjPKv=so_stub_for_libtelux_cv2x
-Wl,--defsym=_ZN9__gnu_cxx13new_allocatorISt23_Sp_counted_ptr_inplaceIN5telux4cv2x14Cv2xTxRxSocketESaIS4_ELNS_12_Lock_policyE2EEEC1Ev=so_stub_for_libtelux_cv2x
-Wl,--defsym=_ZN9__gnu_cxx13new_allocatorISt23_Sp_counted_ptr_inplaceIN5telux4cv2x14Cv2xTxRxSocketESaIS4_ELNS_12_Lock_policyE2EEEC2Ev=so_stub_for_libtelux_cv2x
-Wl,--defsym=_ZN9__gnu_cxx13new_allocatorISt23_Sp_counted_ptr_inplaceIN5telux4cv2x14Cv2xTxRxSocketESaIS4_ELNS_12_Lock_policyE2EEED1Ev=so_stub_for_libtelux_cv2x
-Wl,--defsym=_ZN9__gnu_cxx13new_allocatorISt23_Sp_counted_ptr_inplaceIN5telux4cv2x14Cv2xTxRxSocketESaIS4_ELNS_12_Lock_policyE2EEED2Ev=so_stub_for_libtelux_cv2x
-Wl,--defsym=_ZN9__gnu_cxx13new_allocatorISt23_Sp_counted_ptr_inplaceIN5telux4cv2x14IndicationDataESaIS4_ELNS_12_Lock_policyE2EEE10deallocateEPS7_j=so_stub_for_libtelux_cv2x
-Wl,--defsym=_ZN9__gnu_cxx13new_allocatorISt23_Sp_counted_ptr_inplaceIN5telux4cv2x14IndicationDataESaIS4_ELNS_12_Lock_policyE2EEE8allocateEjPKv=so_stub_for_libtelux_cv2x
-Wl,--defsym=_ZN9__gnu_cxx13new_allocatorISt23_Sp_counted_ptr_inplaceIN5telux4cv2x14IndicationDataESaIS4_ELNS_12_Lock_policyE2EEEC1Ev=so_stub_for_libtelux_cv2x
-Wl,--defsym=_ZN9__gnu_cxx13new_allocatorISt23_Sp_counted_ptr_inplaceIN5telux4cv2x14IndicationDataESaIS4_ELNS_12_Lock_policyE2EEEC2Ev=so_stub_for_libtelux_cv2x
-Wl,--defsym=_ZN9__gnu_cxx13new_allocatorISt23_Sp_counted_ptr_inplaceIN5telux4cv2x14IndicationDataESaIS4_ELNS_12_Lock_policyE2EEED1Ev=so_stub_for_libtelux_cv2x
-Wl,--defsym=_ZN9__gnu_cxx13new_allocatorISt23_Sp_counted_ptr_inplaceIN5telux4cv2x14IndicationDataESaIS4_ELNS_12_Lock_policyE2EEED2Ev=so_stub_for_libtelux_cv2x
-Wl,--defsym=_ZN9__gnu_cxx13new_allocatorISt23_Sp_counted_ptr_inplaceIN5telux4cv2x15Cv2xTxEventFlowESaIS4_ELNS_12_Lock_policyE2EEE10deallocateEPS7_j=so_stub_for_libtelux_cv2x
-Wl,--defsym=_ZN9__gnu_cxx13new_allocatorISt23_Sp_counted_ptr_inplaceIN5telux4cv2x15Cv2xTxEventFlowESaIS4_ELNS_12_Lock_policyE2EEE8allocateEjPKv=so_stub_for_libtelux_cv2x
-Wl,--defsym=_ZN9__gnu_cxx13new_allocatorISt23_Sp_counted_ptr_inplaceIN5telux4cv2x15Cv2xTxEventFlowESaIS4_ELNS_12_Lock_policyE2EEEC1Ev=so_stub_for_libtelux_cv2x
-Wl,--defsym=_ZN9__gnu_cxx13new_allocatorISt23_Sp_counted_ptr_inplaceIN5telux4cv2x15Cv2xTxEventFlowESaIS4_ELNS_12_Lock_policyE2EEEC2Ev=so_stub_for_libtelux_cv2x
-Wl,--defsym=_ZN9__gnu_cxx13new_allocatorISt23_Sp_counted_ptr_inplaceIN5telux4cv2x15Cv2xTxEventFlowESaIS4_ELNS_12_Lock_policyE2EEED1Ev=so_stub_for_libtelux_cv2x
-Wl,--defsym=_ZN9__gnu_cxx13new_allocatorISt23_Sp_counted_ptr_inplaceIN5telux4cv2x15Cv2xTxEventFlowESaIS4_ELNS_12_Lock_policyE2EEED2Ev=so_stub_for_libtelux_cv2x
-Wl,--defsym=_ZN9__gnu_cxx13new_allocatorISt23_Sp_counted_ptr_inplaceIN5telux4cv2x15EventDispatcherESaIS4_ELNS_12_Lock_policyE2EEE10deallocateEPS7_j=so_stub_for_libtelux_cv2x
-Wl,--defsym=_ZN9__gnu_cxx13new_allocatorISt23_Sp_counted_ptr_inplaceIN5telux4cv2x15EventDispatcherESaIS4_ELNS_12_Lock_policyE2EEE8allocateEjPKv=so_stub_for_libtelux_cv2x
-Wl,--defsym=_ZN9__gnu_cxx13new_allocatorISt23_Sp_counted_ptr_inplaceIN5telux4cv2x15EventDispatcherESaIS4_ELNS_12_Lock_policyE2EEEC1Ev=so_stub_for_libtelux_cv2x
-Wl,--defsym=_ZN9__gnu_cxx13new_allocatorISt23_Sp_counted_ptr_inplaceIN5telux4cv2x15EventDispatcherESaIS4_ELNS_12_Lock_policyE2EEEC2Ev=so_stub_for_libtelux_cv2x
-Wl,--defsym=_ZN9__gnu_cxx13new_allocatorISt23_Sp_counted_ptr_inplaceIN5telux4cv2x15EventDispatcherESaIS4_ELNS_12_Lock_policyE2EEED1Ev=so_stub_for_libtelux_cv2x
-Wl,--defsym=_ZN9__gnu_cxx13new_allocatorISt23_Sp_counted_ptr_inplaceIN5telux4cv2x15EventDispatcherESaIS4_ELNS_12_Lock_policyE2EEED2Ev=so_stub_for_libtelux_cv2x
-Wl,--defsym=_ZN9__gnu_cxx13new_allocatorISt23_Sp_counted_ptr_inplaceIN5telux4cv2x16Cv2xIndsListenerESaIS4_ELNS_12_Lock_policyE2EEE10deallocateEPS7_j=so_stub_for_libtelux_cv2x
-Wl,--defsym=_ZN9__gnu_cxx13new_allocatorISt23_Sp_counted_ptr_inplaceIN5telux4cv2x16Cv2xIndsListenerESaIS4_ELNS_12_Lock_policyE2EEE8allocateEjPKv=so_stub_for_libtelux_cv2x
-Wl,--defsym=_ZN9__gnu_cxx13new_allocatorISt23_Sp_counted_ptr_inplaceIN5telux4cv2x16Cv2xIndsListenerESaIS4_ELNS_12_Lock_policyE2EEEC1Ev=so_stub_for_libtelux_cv2x
-Wl,--defsym=_ZN9__gnu_cxx13new_allocatorISt23_Sp_counted_ptr_inplaceIN5telux4cv2x16Cv2xIndsListenerESaIS4_ELNS_12_Lock_policyE2EEEC2Ev=so_stub_for_libtelux_cv2x
-Wl,--defsym=_ZN9__gnu_cxx13new_allocatorISt23_Sp_counted_ptr_inplaceIN5telux4cv2x16Cv2xIndsListenerESaIS4_ELNS_12_Lock_policyE2EEED1Ev=so_stub_for_libtelux_cv2x
-Wl,--defsym=_ZN9__gnu_cxx13new_allocatorISt23_Sp_counted_ptr_inplaceIN5telux4cv2x16Cv2xIndsListenerESaIS4_ELNS_12_Lock_policyE2EEED2Ev=so_stub_for_libtelux_cv2x
-Wl,--defsym=_ZN9__gnu_cxx13new_allocatorISt23_Sp_counted_ptr_inplaceIN5telux4cv2x16Cv2xRadioManagerESaIS4_ELNS_12_Lock_policyE2EEE10deallocateEPS7_j=so_stub_for_libtelux_cv2x
-Wl,--defsym=_ZN9__gnu_cxx13new_allocatorISt23_Sp_counted_ptr_inplaceIN5telux4cv2x16Cv2xRadioManagerESaIS4_ELNS_12_Lock_policyE2EEE8allocateEjPKv=so_stub_for_libtelux_cv2x
-Wl,--defsym=_ZN9__gnu_cxx13new_allocatorISt23_Sp_counted_ptr_inplaceIN5telux4cv2x16Cv2xRadioManagerESaIS4_ELNS_12_Lock_policyE2EEEC1Ev=so_stub_for_libtelux_cv2x
-Wl,--defsym=_ZN9__gnu_cxx13new_allocatorISt23_Sp_counted_ptr_inplaceIN5telux4cv2x16Cv2xRadioManagerESaIS4_ELNS_12_Lock_policyE2EEEC2Ev=so_stub_for_libtelux_cv2x
-Wl,--defsym=_ZN9__gnu_cxx13new_allocatorISt23_Sp_counted_ptr_inplaceIN5telux4cv2x16Cv2xRadioManagerESaIS4_ELNS_12_Lock_policyE2EEED1Ev=so_stub_for_libtelux_cv2x
-Wl,--defsym=_ZN9__gnu_cxx13new_allocatorISt23_Sp_counted_ptr_inplaceIN5telux4cv2x16Cv2xRadioManagerESaIS4_ELNS_12_Lock_policyE2EEED2Ev=so_stub_for_libtelux_cv2x
-Wl,--defsym=_ZN9__gnu_cxx13new_allocatorISt23_Sp_counted_ptr_inplaceIN5telux4cv2x17ServiceStatusDataESaIS4_ELNS_12_Lock_policyE2EEE10deallocateEPS7_j=so_stub_for_libtelux_cv2x
-Wl,--defsym=_ZN9__gnu_cxx13new_allocatorISt23_Sp_counted_ptr_inplaceIN5telux4cv2x17ServiceStatusDataESaIS4_ELNS_12_Lock_policyE2EEE8allocateEjPKv=so_stub_for_libtelux_cv2x
-Wl,--defsym=_ZN9__gnu_cxx13new_allocatorISt23_Sp_counted_ptr_inplaceIN5telux4cv2x17ServiceStatusDataESaIS4_ELNS_12_Lock_policyE2EEEC1Ev=so_stub_for_libtelux_cv2x
-Wl,--defsym=_ZN9__gnu_cxx13new_allocatorISt23_Sp_counted_ptr_inplaceIN5telux4cv2x17ServiceStatusDataESaIS4_ELNS_12_Lock_policyE2EEEC2Ev=so_stub_for_libtelux_cv2x
-Wl,--defsym=_ZN9__gnu_cxx13new_allocatorISt23_Sp_counted_ptr_inplaceIN5telux4cv2x17ServiceStatusDataESaIS4_ELNS_12_Lock_policyE2EEED1Ev=so_stub_for_libtelux_cv2x
-Wl,--defsym=_ZN9__gnu_cxx13new_allocatorISt23_Sp_counted_ptr_inplaceIN5telux4cv2x17ServiceStatusDataESaIS4_ELNS_12_Lock_policyE2EEED2Ev=so_stub_for_libtelux_cv2x
-Wl,--defsym=_ZN9__gnu_cxx13new_allocatorISt23_Sp_counted_ptr_inplaceIN5telux4cv2x18Cv2xConfigListenerESaIS4_ELNS_12_Lock_policyE2EEE10deallocateEPS7_j=so_stub_for_libtelux_cv2x
-Wl,--defsym=_ZN9__gnu_cxx13new_allocatorISt23_Sp_counted_ptr_inplaceIN5telux4cv2x18Cv2xConfigListenerESaIS4_ELNS_12_Lock_policyE2EEE8allocateEjPKv=so_stub_for_libtelux_cv2x
-Wl,--defsym=_ZN9__gnu_cxx13new_allocatorISt23_Sp_counted_ptr_inplaceIN5telux4cv2x18Cv2xConfigListenerESaIS4_ELNS_12_Lock_policyE2EEEC1Ev=so_stub_for_libtelux_cv2x
-Wl,--defsym=_ZN9__gnu_cxx13new_allocatorISt23_Sp_counted_ptr_inplaceIN5telux4cv2x18Cv2xConfigListenerESaIS4_ELNS_12_Lock_policyE2EEEC2Ev=so_stub_for_libtelux_cv2x
-Wl,--defsym=_ZN9__gnu_cxx13new_allocatorISt23_Sp_counted_ptr_inplaceIN5telux4cv2x18Cv2xConfigListenerESaIS4_ELNS_12_Lock_policyE2EEED1Ev=so_stub_for_libtelux_cv2x
-Wl,--defsym=_ZN9__gnu_cxx13new_allocatorISt23_Sp_counted_ptr_inplaceIN5telux4cv2x18Cv2xConfigListenerESaIS4_ELNS_12_Lock_policyE2EEED2Ev=so_stub_for_libtelux_cv2x
-Wl,--defsym=_ZN9__gnu_cxx13new_allocatorISt23_Sp_counted_ptr_inplaceIN5telux4cv2x18Cv2xRxSubscriptionESaIS4_ELNS_12_Lock_policyE2EEE10deallocateEPS7_j=so_stub_for_libtelux_cv2x
-Wl,--defsym=_ZN9__gnu_cxx13new_allocatorISt23_Sp_counted_ptr_inplaceIN5telux4cv2x18Cv2xRxSubscriptionESaIS4_ELNS_12_Lock_policyE2EEE8allocateEjPKv=so_stub_for_libtelux_cv2x
-Wl,--defsym=_ZN9__gnu_cxx13new_allocatorISt23_Sp_counted_ptr_inplaceIN5telux4cv2x18Cv2xRxSubscriptionESaIS4_ELNS_12_Lock_policyE2EEEC1Ev=so_stub_for_libtelux_cv2x
-Wl,--defsym=_ZN9__gnu_cxx13new_allocatorISt23_Sp_counted_ptr_inplaceIN5telux4cv2x18Cv2xRxSubscriptionESaIS4_ELNS_12_Lock_policyE2EEEC2Ev=so_stub_for_libtelux_cv2x
-Wl,--defsym=_ZN9__gnu_cxx13new_allocatorISt23_Sp_counted_ptr_inplaceIN5telux4cv2x18Cv2xRxSubscriptionESaIS4_ELNS_12_Lock_policyE2EEED1Ev=so_stub_for_libtelux_cv2x
-Wl,--defsym=_ZN9__gnu_cxx13new_allocatorISt23_Sp_counted_ptr_inplaceIN5telux4cv2x18Cv2xRxSubscriptionESaIS4_ELNS_12_Lock_policyE2EEED2Ev=so_stub_for_libtelux_cv2x
-Wl,--defsym=_ZN9__gnu_cxx13new_allocatorISt23_Sp_counted_ptr_inplaceIN5telux4cv2x18QmiV2xStopCallbackESaIS4_ELNS_12_Lock_policyE2EEE10deallocateEPS7_j=so_stub_for_libtelux_cv2x
-Wl,--defsym=_ZN9__gnu_cxx13new_allocatorISt23_Sp_counted_ptr_inplaceIN5telux4cv2x18QmiV2xStopCallbackESaIS4_ELNS_12_Lock_policyE2EEE8allocateEjPKv=so_stub_for_libtelux_cv2x
-Wl,--defsym=_ZN9__gnu_cxx13new_allocatorISt23_Sp_counted_ptr_inplaceIN5telux4cv2x18QmiV2xStopCallbackESaIS4_ELNS_12_Lock_policyE2EEEC1Ev=so_stub_for_libtelux_cv2x
-Wl,--defsym=_ZN9__gnu_cxx13new_allocatorISt23_Sp_counted_ptr_inplaceIN5telux4cv2x18QmiV2xStopCallbackESaIS4_ELNS_12_Lock_policyE2EEEC2Ev=so_stub_for_libtelux_cv2x
-Wl,--defsym=_ZN9__gnu_cxx13new_allocatorISt23_Sp_counted_ptr_inplaceIN5telux4cv2x18QmiV2xStopCallbackESaIS4_ELNS_12_Lock_policyE2EEED1Ev=so_stub_for_libtelux_cv2x
-Wl,--defsym=_ZN9__gnu_cxx13new_allocatorISt23_Sp_counted_ptr_inplaceIN5telux4cv2x18QmiV2xStopCallbackESaIS4_ELNS_12_Lock_policyE2EEED2Ev=so_stub_for_libtelux_cv2x
-Wl,--defsym=_ZN9__gnu_cxx13new_allocatorISt23_Sp_counted_ptr_inplaceIN5telux4cv2x19QmiV2xStartCallbackESaIS4_ELNS_12_Lock_policyE2EEE10deallocateEPS7_j=so_stub_for_libtelux_cv2x
-Wl,--defsym=_ZN9__gnu_cxx13new_allocatorISt23_Sp_counted_ptr_inplaceIN5telux4cv2x19QmiV2xStartCallbackESaIS4_ELNS_12_Lock_policyE2EEE8allocateEjPKv=so_stub_for_libtelux_cv2x
-Wl,--defsym=_ZN9__gnu_cxx13new_allocatorISt23_Sp_counted_ptr_inplaceIN5telux4cv2x19QmiV2xStartCallbackESaIS4_ELNS_12_Lock_policyE2EEEC1Ev=so_stub_for_libtelux_cv2x
-Wl,--defsym=_ZN9__gnu_cxx13new_allocatorISt23_Sp_counted_ptr_inplaceIN5telux4cv2x19QmiV2xStartCallbackESaIS4_ELNS_12_Lock_policyE2EEEC2Ev=so_stub_for_libtelux_cv2x
-Wl,--defsym=_ZN9__gnu_cxx13new_allocatorISt23_Sp_counted_ptr_inplaceIN5telux4cv2x19QmiV2xStartCallbackESaIS4_ELNS_12_Lock_policyE2EEED1Ev=so_stub_for_libtelux_cv2x
-Wl,--defsym=_ZN9__gnu_cxx13new_allocatorISt23_Sp_counted_ptr_inplaceIN5telux4cv2x19QmiV2xStartCallbackESaIS4_ELNS_12_Lock_policyE2EEED2Ev=so_stub_for_libtelux_cv2x
-Wl,--defsym=_ZN9__gnu_cxx13new_allocatorISt23_Sp_counted_ptr_inplaceIN5telux4cv2x20QmiV2xStatusCallbackESaIS4_ELNS_12_Lock_policyE2EEE10deallocateEPS7_j=so_stub_for_libtelux_cv2x
-Wl,--defsym=_ZN9__gnu_cxx13new_allocatorISt23_Sp_counted_ptr_inplaceIN5telux4cv2x20QmiV2xStatusCallbackESaIS4_ELNS_12_Lock_policyE2EEE8allocateEjPKv=so_stub_for_libtelux_cv2x
-Wl,--defsym=_ZN9__gnu_cxx13new_allocatorISt23_Sp_counted_ptr_inplaceIN5telux4cv2x20QmiV2xStatusCallbackESaIS4_ELNS_12_Lock_policyE2EEEC1Ev=so_stub_for_libtelux_cv2x
-Wl,--defsym=_ZN9__gnu_cxx13new_allocatorISt23_Sp_counted_ptr_inplaceIN5telux4cv2x20QmiV2xStatusCallbackESaIS4_ELNS_12_Lock_policyE2EEEC2Ev=so_stub_for_libtelux_cv2x
-Wl,--defsym=_ZN9__gnu_cxx13new_allocatorISt23_Sp_counted_ptr_inplaceIN5telux4cv2x20QmiV2xStatusCallbackESaIS4_ELNS_12_Lock_policyE2EEED1Ev=so_stub_for_libtelux_cv2x
-Wl,--defsym=_ZN9__gnu_cxx13new_allocatorISt23_Sp_counted_ptr_inplaceIN5telux4cv2x20QmiV2xStatusCallbackESaIS4_ELNS_12_Lock_policyE2EEED2Ev=so_stub_for_libtelux_cv2x
-Wl,--defsym=_ZN9__gnu_cxx13new_allocatorISt23_Sp_counted_ptr_inplaceIN5telux4cv2x21QmiNasIndsRegCallbackESaIS4_ELNS_12_Lock_policyE2EEE10deallocateEPS7_j=so_stub_for_libtelux_cv2x
-Wl,--defsym=_ZN9__gnu_cxx13new_allocatorISt23_Sp_counted_ptr_inplaceIN5telux4cv2x21QmiNasIndsRegCallbackESaIS4_ELNS_12_Lock_policyE2EEE8allocateEjPKv=so_stub_for_libtelux_cv2x
-Wl,--defsym=_ZN9__gnu_cxx13new_allocatorISt23_Sp_counted_ptr_inplaceIN5telux4cv2x21QmiNasIndsRegCallbackESaIS4_ELNS_12_Lock_policyE2EEEC1Ev=so_stub_for_libtelux_cv2x
-Wl,--defsym=_ZN9__gnu_cxx13new_allocatorISt23_Sp_counted_ptr_inplaceIN5telux4cv2x21QmiNasIndsRegCallbackESaIS4_ELNS_12_Lock_policyE2EEEC2Ev=so_stub_for_libtelux_cv2x
-Wl,--defsym=_ZN9__gnu_cxx13new_allocatorISt23_Sp_counted_ptr_inplaceIN5telux4cv2x21QmiNasIndsRegCallbackESaIS4_ELNS_12_Lock_policyE2EEED1Ev=so_stub_for_libtelux_cv2x
-Wl,--defsym=_ZN9__gnu_cxx13new_allocatorISt23_Sp_counted_ptr_inplaceIN5telux4cv2x21QmiNasIndsRegCallbackESaIS4_ELNS_12_Lock_policyE2EEED2Ev=so_stub_for_libtelux_cv2x
-Wl,--defsym=_ZN9__gnu_cxx13new_allocatorISt23_Sp_counted_ptr_inplaceIN5telux4cv2x21ServiceStatusListenerESaIS4_ELNS_12_Lock_policyE2EEE10deallocateEPS7_j=so_stub_for_libtelux_cv2x
-Wl,--defsym=_ZN9__gnu_cxx13new_allocatorISt23_Sp_counted_ptr_inplaceIN5telux4cv2x21ServiceStatusListenerESaIS4_ELNS_12_Lock_policyE2EEE8allocateEjPKv=so_stub_for_libtelux_cv2x
-Wl,--defsym=_ZN9__gnu_cxx13new_allocatorISt23_Sp_counted_ptr_inplaceIN5telux4cv2x21ServiceStatusListenerESaIS4_ELNS_12_Lock_policyE2EEEC1Ev=so_stub_for_libtelux_cv2x
-Wl,--defsym=_ZN9__gnu_cxx13new_allocatorISt23_Sp_counted_ptr_inplaceIN5telux4cv2x21ServiceStatusListenerESaIS4_ELNS_12_Lock_policyE2EEEC2Ev=so_stub_for_libtelux_cv2x
-Wl,--defsym=_ZN9__gnu_cxx13new_allocatorISt23_Sp_counted_ptr_inplaceIN5telux4cv2x21ServiceStatusListenerESaIS4_ELNS_12_Lock_policyE2EEED1Ev=so_stub_for_libtelux_cv2x
-Wl,--defsym=_ZN9__gnu_cxx13new_allocatorISt23_Sp_counted_ptr_inplaceIN5telux4cv2x21ServiceStatusListenerESaIS4_ELNS_12_Lock_policyE2EEED2Ev=so_stub_for_libtelux_cv2x
-Wl,--defsym=_ZN9__gnu_cxx13new_allocatorISt23_Sp_counted_ptr_inplaceIN5telux4cv2x22QmiV2xStatusCallbackExESaIS4_ELNS_12_Lock_policyE2EEE10deallocateEPS7_j=so_stub_for_libtelux_cv2x
-Wl,--defsym=_ZN9__gnu_cxx13new_allocatorISt23_Sp_counted_ptr_inplaceIN5telux4cv2x22QmiV2xStatusCallbackExESaIS4_ELNS_12_Lock_policyE2EEE8allocateEjPKv=so_stub_for_libtelux_cv2x
-Wl,--defsym=_ZN9__gnu_cxx13new_allocatorISt23_Sp_counted_ptr_inplaceIN5telux4cv2x22QmiV2xStatusCallbackExESaIS4_ELNS_12_Lock_policyE2EEEC1Ev=so_stub_for_libtelux_cv2x
-Wl,--defsym=_ZN9__gnu_cxx13new_allocatorISt23_Sp_counted_ptr_inplaceIN5telux4cv2x22QmiV2xStatusCallbackExESaIS4_ELNS_12_Lock_policyE2EEEC2Ev=so_stub_for_libtelux_cv2x
-Wl,--defsym=_ZN9__gnu_cxx13new_allocatorISt23_Sp_counted_ptr_inplaceIN5telux4cv2x22QmiV2xStatusCallbackExESaIS4_ELNS_12_Lock_policyE2EEED1Ev=so_stub_for_libtelux_cv2x
-Wl,--defsym=_ZN9__gnu_cxx13new_allocatorISt23_Sp_counted_ptr_inplaceIN5telux4cv2x22QmiV2xStatusCallbackExESaIS4_ELNS_12_Lock_policyE2EEED2Ev=so_stub_for_libtelux_cv2x
-Wl,--defsym=_ZN9__gnu_cxx13new_allocatorISt23_Sp_counted_ptr_inplaceIN5telux4cv2x25QmiSetEventReportCallbackESaIS4_ELNS_12_Lock_policyE2EEE10deallocateEPS7_j=so_stub_for_libtelux_cv2x
-Wl,--defsym=_ZN9__gnu_cxx13new_allocatorISt23_Sp_counted_ptr_inplaceIN5telux4cv2x25QmiSetEventReportCallbackESaIS4_ELNS_12_Lock_policyE2EEE8allocateEjPKv=so_stub_for_libtelux_cv2x
-Wl,--defsym=_ZN9__gnu_cxx13new_allocatorISt23_Sp_counted_ptr_inplaceIN5telux4cv2x25QmiSetEventReportCallbackESaIS4_ELNS_12_Lock_policyE2EEEC1Ev=so_stub_for_libtelux_cv2x
-Wl,--defsym=_ZN9__gnu_cxx13new_allocatorISt23_Sp_counted_ptr_inplaceIN5telux4cv2x25QmiSetEventReportCallbackESaIS4_ELNS_12_Lock_policyE2EEEC2Ev=so_stub_for_libtelux_cv2x
-Wl,--defsym=_ZN9__gnu_cxx13new_allocatorISt23_Sp_counted_ptr_inplaceIN5telux4cv2x25QmiSetEventReportCallbackESaIS4_ELNS_12_Lock_policyE2EEED1Ev=so_stub_for_libtelux_cv2x
-Wl,--defsym=_ZN9__gnu_cxx13new_allocatorISt23_Sp_counted_ptr_inplaceIN5telux4cv2x25QmiSetEventReportCallbackESaIS4_ELNS_12_Lock_policyE2EEED2Ev=so_stub_for_libtelux_cv2x
-Wl,--defsym=_ZN9__gnu_cxx13new_allocatorISt23_Sp_counted_ptr_inplaceIN5telux4cv2x25QmiSetPeakTxPowerCallbackESaIS4_ELNS_12_Lock_policyE2EEE10deallocateEPS7_j=so_stub_for_libtelux_cv2x
-Wl,--defsym=_ZN9__gnu_cxx13new_allocatorISt23_Sp_counted_ptr_inplaceIN5telux4cv2x25QmiSetPeakTxPowerCallbackESaIS4_ELNS_12_Lock_policyE2EEE8allocateEjPKv=so_stub_for_libtelux_cv2x
-Wl,--defsym=_ZN9__gnu_cxx13new_allocatorISt23_Sp_counted_ptr_inplaceIN5telux4cv2x25QmiSetPeakTxPowerCallbackESaIS4_ELNS_12_Lock_policyE2EEEC1Ev=so_stub_for_libtelux_cv2x
-Wl,--defsym=_ZN9__gnu_cxx13new_allocatorISt23_Sp_counted_ptr_inplaceIN5telux4cv2x25QmiSetPeakTxPowerCallbackESaIS4_ELNS_12_Lock_policyE2EEEC2Ev=so_stub_for_libtelux_cv2x
-Wl,--defsym=_ZN9__gnu_cxx13new_allocatorISt23_Sp_counted_ptr_inplaceIN5telux4cv2x25QmiSetPeakTxPowerCallbackESaIS4_ELNS_12_Lock_policyE2EEED1Ev=so_stub_for_libtelux_cv2x
-Wl,--defsym=_ZN9__gnu_cxx13new_allocatorISt23_Sp_counted_ptr_inplaceIN5telux4cv2x25QmiSetPeakTxPowerCallbackESaIS4_ELNS_12_Lock_policyE2EEED2Ev=so_stub_for_libtelux_cv2x
-Wl,--defsym=_ZN9__gnu_cxx13new_allocatorISt23_Sp_counted_ptr_inplaceIN5telux4cv2x27QmiGetOperatingModeCallbackESaIS4_ELNS_12_Lock_policyE2EEE10deallocateEPS7_j=so_stub_for_libtelux_cv2x
-Wl,--defsym=_ZN9__gnu_cxx13new_allocatorISt23_Sp_counted_ptr_inplaceIN5telux4cv2x27QmiGetOperatingModeCallbackESaIS4_ELNS_12_Lock_policyE2EEE8allocateEjPKv=so_stub_for_libtelux_cv2x
-Wl,--defsym=_ZN9__gnu_cxx13new_allocatorISt23_Sp_counted_ptr_inplaceIN5telux4cv2x27QmiGetOperatingModeCallbackESaIS4_ELNS_12_Lock_policyE2EEEC1Ev=so_stub_for_libtelux_cv2x
-Wl,--defsym=_ZN9__gnu_cxx13new_allocatorISt23_Sp_counted_ptr_inplaceIN5telux4cv2x27QmiGetOperatingModeCallbackESaIS4_ELNS_12_Lock_policyE2EEEC2Ev=so_stub_for_libtelux_cv2x
-Wl,--defsym=_ZN9__gnu_cxx13new_allocatorISt23_Sp_counted_ptr_inplaceIN5telux4cv2x27QmiGetOperatingModeCallbackESaIS4_ELNS_12_Lock_policyE2EEED1Ev=so_stub_for_libtelux_cv2x
-Wl,--defsym=_ZN9__gnu_cxx13new_allocatorISt23_Sp_counted_ptr_inplaceIN5telux4cv2x27QmiGetOperatingModeCallbackESaIS4_ELNS_12_Lock_policyE2EEED2Ev=so_stub_for_libtelux_cv2x
-Wl,--defsym=_ZN9__gnu_cxx13new_allocatorISt23_Sp_counted_ptr_inplaceIN5telux4cv2x27QmiSetOperatingModeCallbackESaIS4_ELNS_12_Lock_policyE2EEE10deallocateEPS7_j=so_stub_for_libtelux_cv2x
-Wl,--defsym=_ZN9__gnu_cxx13new_allocatorISt23_Sp_counted_ptr_inplaceIN5telux4cv2x27QmiSetOperatingModeCallbackESaIS4_ELNS_12_Lock_policyE2EEE8allocateEjPKv=so_stub_for_libtelux_cv2x
-Wl,--defsym=_ZN9__gnu_cxx13new_allocatorISt23_Sp_counted_ptr_inplaceIN5telux4cv2x27QmiSetOperatingModeCallbackESaIS4_ELNS_12_Lock_policyE2EEEC1Ev=so_stub_for_libtelux_cv2x
-Wl,--defsym=_ZN9__gnu_cxx13new_allocatorISt23_Sp_counted_ptr_inplaceIN5telux4cv2x27QmiSetOperatingModeCallbackESaIS4_ELNS_12_Lock_policyE2EEEC2Ev=so_stub_for_libtelux_cv2x
-Wl,--defsym=_ZN9__gnu_cxx13new_allocatorISt23_Sp_counted_ptr_inplaceIN5telux4cv2x27QmiSetOperatingModeCallbackESaIS4_ELNS_12_Lock_policyE2EEED1Ev=so_stub_for_libtelux_cv2x
-Wl,--defsym=_ZN9__gnu_cxx13new_allocatorISt23_Sp_counted_ptr_inplaceIN5telux4cv2x27QmiSetOperatingModeCallbackESaIS4_ELNS_12_Lock_policyE2EEED2Ev=so_stub_for_libtelux_cv2x
-Wl,--defsym=_ZN9__gnu_cxx13new_allocatorISt23_Sp_counted_ptr_inplaceIN5telux4cv2x30QmiV2xGetConfigurationCallbackESaIS4_ELNS_12_Lock_policyE2EEE10deallocateEPS7_j=so_stub_for_libtelux_cv2x
-Wl,--defsym=_ZN9__gnu_cxx13new_allocatorISt23_Sp_counted_ptr_inplaceIN5telux4cv2x30QmiV2xGetConfigurationCallbackESaIS4_ELNS_12_Lock_policyE2EEE8allocateEjPKv=so_stub_for_libtelux_cv2x
-Wl,--defsym=_ZN9__gnu_cxx13new_allocatorISt23_Sp_counted_ptr_inplaceIN5telux4cv2x30QmiV2xGetConfigurationCallbackESaIS4_ELNS_12_Lock_policyE2EEEC1Ev=so_stub_for_libtelux_cv2x
-Wl,--defsym=_ZN9__gnu_cxx13new_allocatorISt23_Sp_counted_ptr_inplaceIN5telux4cv2x30QmiV2xGetConfigurationCallbackESaIS4_ELNS_12_Lock_policyE2EEEC2Ev=so_stub_for_libtelux_cv2x
-Wl,--defsym=_ZN9__gnu_cxx13new_allocatorISt23_Sp_counted_ptr_inplaceIN5telux4cv2x30QmiV2xGetConfigurationCallbackESaIS4_ELNS_12_Lock_policyE2EEED1Ev=so_stub_for_libtelux_cv2x
-Wl,--defsym=_ZN9__gnu_cxx13new_allocatorISt23_Sp_counted_ptr_inplaceIN5telux4cv2x30QmiV2xGetConfigurationCallbackESaIS4_ELNS_12_Lock_policyE2EEED2Ev=so_stub_for_libtelux_cv2x
-Wl,--defsym=_ZN9__gnu_cxx13new_allocatorISt23_Sp_counted_ptr_inplaceIN5telux4cv2x31QmiV2xRegisterConfigIndCallbackESaIS4_ELNS_12_Lock_policyE2EEE10deallocateEPS7_j=so_stub_for_libtelux_cv2x
-Wl,--defsym=_ZN9__gnu_cxx13new_allocatorISt23_Sp_counted_ptr_inplaceIN5telux4cv2x31QmiV2xRegisterConfigIndCallbackESaIS4_ELNS_12_Lock_policyE2EEE8allocateEjPKv=so_stub_for_libtelux_cv2x
-Wl,--defsym=_ZN9__gnu_cxx13new_allocatorISt23_Sp_counted_ptr_inplaceIN5telux4cv2x31QmiV2xRegisterConfigIndCallbackESaIS4_ELNS_12_Lock_policyE2EEEC1Ev=so_stub_for_libtelux_cv2x
-Wl,--defsym=_ZN9__gnu_cxx13new_allocatorISt23_Sp_counted_ptr_inplaceIN5telux4cv2x31QmiV2xRegisterConfigIndCallbackESaIS4_ELNS_12_Lock_policyE2EEEC2Ev=so_stub_for_libtelux_cv2x
-Wl,--defsym=_ZN9__gnu_cxx13new_allocatorISt23_Sp_counted_ptr_inplaceIN5telux4cv2x31QmiV2xRegisterConfigIndCallbackESaIS4_ELNS_12_Lock_policyE2EEED1Ev=so_stub_for_libtelux_cv2x
-Wl,--defsym=_ZN9__gnu_cxx13new_allocatorISt23_Sp_counted_ptr_inplaceIN5telux4cv2x31QmiV2xRegisterConfigIndCallbackESaIS4_ELNS_12_Lock_policyE2EEED2Ev=so_stub_for_libtelux_cv2x
-Wl,--defsym=_ZN9__gnu_cxx13new_allocatorISt23_Sp_counted_ptr_inplaceIN5telux4cv2x31SysctrlGetConfigurationCallbackESaIS4_ELNS_12_Lock_policyE2EEE10deallocateEPS7_j=so_stub_for_libtelux_cv2x
-Wl,--defsym=_ZN9__gnu_cxx13new_allocatorISt23_Sp_counted_ptr_inplaceIN5telux4cv2x31SysctrlGetConfigurationCallbackESaIS4_ELNS_12_Lock_policyE2EEE8allocateEjPKv=so_stub_for_libtelux_cv2x
-Wl,--defsym=_ZN9__gnu_cxx13new_allocatorISt23_Sp_counted_ptr_inplaceIN5telux4cv2x31SysctrlGetConfigurationCallbackESaIS4_ELNS_12_Lock_policyE2EEEC1Ev=so_stub_for_libtelux_cv2x
-Wl,--defsym=_ZN9__gnu_cxx13new_allocatorISt23_Sp_counted_ptr_inplaceIN5telux4cv2x31SysctrlGetConfigurationCallbackESaIS4_ELNS_12_Lock_policyE2EEEC2Ev=so_stub_for_libtelux_cv2x
-Wl,--defsym=_ZN9__gnu_cxx13new_allocatorISt23_Sp_counted_ptr_inplaceIN5telux4cv2x31SysctrlGetConfigurationCallbackESaIS4_ELNS_12_Lock_policyE2EEED1Ev=so_stub_for_libtelux_cv2x
-Wl,--defsym=_ZN9__gnu_cxx13new_allocatorISt23_Sp_counted_ptr_inplaceIN5telux4cv2x31SysctrlGetConfigurationCallbackESaIS4_ELNS_12_Lock_policyE2EEED2Ev=so_stub_for_libtelux_cv2x
-Wl,--defsym=_ZN9__gnu_cxx13new_allocatorISt23_Sp_counted_ptr_inplaceIN5telux4cv2x35QmiV2xSendConfigurationFileCallbackESaIS4_ELNS_12_Lock_policyE2EEE10deallocateEPS7_j=so_stub_for_libtelux_cv2x
-Wl,--defsym=_ZN9__gnu_cxx13new_allocatorISt23_Sp_counted_ptr_inplaceIN5telux4cv2x35QmiV2xSendConfigurationFileCallbackESaIS4_ELNS_12_Lock_policyE2EEE8allocateEjPKv=so_stub_for_libtelux_cv2x
-Wl,--defsym=_ZN9__gnu_cxx13new_allocatorISt23_Sp_counted_ptr_inplaceIN5telux4cv2x35QmiV2xSendConfigurationFileCallbackESaIS4_ELNS_12_Lock_policyE2EEEC1Ev=so_stub_for_libtelux_cv2x
-Wl,--defsym=_ZN9__gnu_cxx13new_allocatorISt23_Sp_counted_ptr_inplaceIN5telux4cv2x35QmiV2xSendConfigurationFileCallbackESaIS4_ELNS_12_Lock_policyE2EEEC2Ev=so_stub_for_libtelux_cv2x
-Wl,--defsym=_ZN9__gnu_cxx13new_allocatorISt23_Sp_counted_ptr_inplaceIN5telux4cv2x35QmiV2xSendConfigurationFileCallbackESaIS4_ELNS_12_Lock_policyE2EEED1Ev=so_stub_for_libtelux_cv2x
-Wl,--defsym=_ZN9__gnu_cxx13new_allocatorISt23_Sp_counted_ptr_inplaceIN5telux4cv2x35QmiV2xSendConfigurationFileCallbackESaIS4_ELNS_12_Lock_policyE2EEED2Ev=so_stub_for_libtelux_cv2x
-Wl,--defsym=_ZN9__gnu_cxx13new_allocatorISt23_Sp_counted_ptr_inplaceIN5telux4cv2x9EventInfoINS3_14IndicationDataEEESaIS6_ELNS_12_Lock_policyE2EEE10deallocateEPS9_j=so_stub_for_libtelux_cv2x
-Wl,--defsym=_ZN9__gnu_cxx13new_allocatorISt23_Sp_counted_ptr_inplaceIN5telux4cv2x9EventInfoINS3_14IndicationDataEEESaIS6_ELNS_12_Lock_policyE2EEE8allocateEjPKv=so_stub_for_libtelux_cv2x
-Wl,--defsym=_ZN9__gnu_cxx13new_allocatorISt23_Sp_counted_ptr_inplaceIN5telux4cv2x9EventInfoINS3_14IndicationDataEEESaIS6_ELNS_12_Lock_policyE2EEEC1Ev=so_stub_for_libtelux_cv2x
-Wl,--defsym=_ZN9__gnu_cxx13new_allocatorISt23_Sp_counted_ptr_inplaceIN5telux4cv2x9EventInfoINS3_14IndicationDataEEESaIS6_ELNS_12_Lock_policyE2EEEC2Ev=so_stub_for_libtelux_cv2x
-Wl,--defsym=_ZN9__gnu_cxx13new_allocatorISt23_Sp_counted_ptr_inplaceIN5telux4cv2x9EventInfoINS3_14IndicationDataEEESaIS6_ELNS_12_Lock_policyE2EEED1Ev=so_stub_for_libtelux_cv2x
-Wl,--defsym=_ZN9__gnu_cxx13new_allocatorISt23_Sp_counted_ptr_inplaceIN5telux4cv2x9EventInfoINS3_14IndicationDataEEESaIS6_ELNS_12_Lock_policyE2EEED2Ev=so_stub_for_libtelux_cv2x
-Wl,--defsym=_ZN9__gnu_cxx13new_allocatorISt23_Sp_counted_ptr_inplaceIN5telux4cv2x9EventInfoINS3_17ServiceStatusDataEEESaIS6_ELNS_12_Lock_policyE2EEE10deallocateEPS9_j=so_stub_for_libtelux_cv2x
-Wl,--defsym=_ZN9__gnu_cxx13new_allocatorISt23_Sp_counted_ptr_inplaceIN5telux4cv2x9EventInfoINS3_17ServiceStatusDataEEESaIS6_ELNS_12_Lock_policyE2EEE8allocateEjPKv=so_stub_for_libtelux_cv2x
-Wl,--defsym=_ZN9__gnu_cxx13new_allocatorISt23_Sp_counted_ptr_inplaceIN5telux4cv2x9EventInfoINS3_17ServiceStatusDataEEESaIS6_ELNS_12_Lock_policyE2EEEC1Ev=so_stub_for_libtelux_cv2x
-Wl,--defsym=_ZN9__gnu_cxx13new_allocatorISt23_Sp_counted_ptr_inplaceIN5telux4cv2x9EventInfoINS3_17ServiceStatusDataEEESaIS6_ELNS_12_Lock_policyE2EEEC2Ev=so_stub_for_libtelux_cv2x
-Wl,--defsym=_ZN9__gnu_cxx13new_allocatorISt23_Sp_counted_ptr_inplaceIN5telux4cv2x9EventInfoINS3_17ServiceStatusDataEEESaIS6_ELNS_12_Lock_policyE2EEED1Ev=so_stub_for_libtelux_cv2x
-Wl,--defsym=_ZN9__gnu_cxx13new_allocatorISt23_Sp_counted_ptr_inplaceIN5telux4cv2x9EventInfoINS3_17ServiceStatusDataEEESaIS6_ELNS_12_Lock_policyE2EEED2Ev=so_stub_for_libtelux_cv2x
-Wl,--defsym=_ZN9__gnu_cxx13new_allocatorISt23_Sp_counted_ptr_inplaceIN5telux6common15ListenerManagerINS2_4cv2x13ICv2xListenerEEESaIS7_ELNS_12_Lock_policyE2EEE10deallocateEPSA_j=so_stub_for_libtelux_cv2x
-Wl,--defsym=_ZN9__gnu_cxx13new_allocatorISt23_Sp_counted_ptr_inplaceIN5telux6common15ListenerManagerINS2_4cv2x13ICv2xListenerEEESaIS7_ELNS_12_Lock_policyE2EEE8allocateEjPKv=so_stub_for_libtelux_cv2x
-Wl,--defsym=_ZN9__gnu_cxx13new_allocatorISt23_Sp_counted_ptr_inplaceIN5telux6common15ListenerManagerINS2_4cv2x13ICv2xListenerEEESaIS7_ELNS_12_Lock_policyE2EEEC1Ev=so_stub_for_libtelux_cv2x
-Wl,--defsym=_ZN9__gnu_cxx13new_allocatorISt23_Sp_counted_ptr_inplaceIN5telux6common15ListenerManagerINS2_4cv2x13ICv2xListenerEEESaIS7_ELNS_12_Lock_policyE2EEEC2Ev=so_stub_for_libtelux_cv2x
-Wl,--defsym=_ZN9__gnu_cxx13new_allocatorISt23_Sp_counted_ptr_inplaceIN5telux6common15ListenerManagerINS2_4cv2x13ICv2xListenerEEESaIS7_ELNS_12_Lock_policyE2EEED1Ev=so_stub_for_libtelux_cv2x
-Wl,--defsym=_ZN9__gnu_cxx13new_allocatorISt23_Sp_counted_ptr_inplaceIN5telux6common15ListenerManagerINS2_4cv2x13ICv2xListenerEEESaIS7_ELNS_12_Lock_policyE2EEED2Ev=so_stub_for_libtelux_cv2x
-Wl,--defsym=_ZN9__gnu_cxx13new_allocatorISt23_Sp_counted_ptr_inplaceIN5telux6common15ListenerManagerINS2_4cv2x19ICv2xConfigListenerEEESaIS7_ELNS_12_Lock_policyE2EEE10deallocateEPSA_j=so_stub_for_libtelux_cv2x
-Wl,--defsym=_ZN9__gnu_cxx13new_allocatorISt23_Sp_counted_ptr_inplaceIN5telux6common15ListenerManagerINS2_4cv2x19ICv2xConfigListenerEEESaIS7_ELNS_12_Lock_policyE2EEE8allocateEjPKv=so_stub_for_libtelux_cv2x
-Wl,--defsym=_ZN9__gnu_cxx13new_allocatorISt23_Sp_counted_ptr_inplaceIN5telux6common15ListenerManagerINS2_4cv2x19ICv2xConfigListenerEEESaIS7_ELNS_12_Lock_policyE2EEEC1Ev=so_stub_for_libtelux_cv2x
-Wl,--defsym=_ZN9__gnu_cxx13new_allocatorISt23_Sp_counted_ptr_inplaceIN5telux6common15ListenerManagerINS2_4cv2x19ICv2xConfigListenerEEESaIS7_ELNS_12_Lock_policyE2EEEC2Ev=so_stub_for_libtelux_cv2x
-Wl,--defsym=_ZN9__gnu_cxx13new_allocatorISt23_Sp_counted_ptr_inplaceIN5telux6common15ListenerManagerINS2_4cv2x19ICv2xConfigListenerEEESaIS7_ELNS_12_Lock_policyE2EEED1Ev=so_stub_for_libtelux_cv2x
-Wl,--defsym=_ZN9__gnu_cxx13new_allocatorISt23_Sp_counted_ptr_inplaceIN5telux6common15ListenerManagerINS2_4cv2x19ICv2xConfigListenerEEESaIS7_ELNS_12_Lock_policyE2EEED2Ev=so_stub_for_libtelux_cv2x
-Wl,--defsym=_ZN9__gnu_cxx13new_allocatorISt23_Sp_counted_ptr_inplaceINSt13__future_base13_State_baseV2ESaIS3_ELNS_12_Lock_policyE2EEE10deallocateEPS6_j=so_stub_for_libtelux_cv2x
-Wl,--defsym=_ZN9__gnu_cxx13new_allocatorISt23_Sp_counted_ptr_inplaceINSt13__future_base13_State_baseV2ESaIS3_ELNS_12_Lock_policyE2EEE8allocateEjPKv=so_stub_for_libtelux_cv2x
-Wl,--defsym=_ZN9__gnu_cxx13new_allocatorISt23_Sp_counted_ptr_inplaceINSt13__future_base13_State_baseV2ESaIS3_ELNS_12_Lock_policyE2EEEC1Ev=so_stub_for_libtelux_cv2x
-Wl,--defsym=_ZN9__gnu_cxx13new_allocatorISt23_Sp_counted_ptr_inplaceINSt13__future_base13_State_baseV2ESaIS3_ELNS_12_Lock_policyE2EEEC2Ev=so_stub_for_libtelux_cv2x
-Wl,--defsym=_ZN9__gnu_cxx13new_allocatorISt23_Sp_counted_ptr_inplaceINSt13__future_base13_State_baseV2ESaIS3_ELNS_12_Lock_policyE2EEED1Ev=so_stub_for_libtelux_cv2x
-Wl,--defsym=_ZN9__gnu_cxx13new_allocatorISt23_Sp_counted_ptr_inplaceINSt13__future_base13_State_baseV2ESaIS3_ELNS_12_Lock_policyE2EEED2Ev=so_stub_for_libtelux_cv2x
-Wl,--defsym=_ZN9__gnu_cxx13new_allocatorISt23_Sp_counted_ptr_inplaceISt6threadSaIS2_ELNS_12_Lock_policyE2EEE10deallocateEPS5_j=so_stub_for_libtelux_cv2x
-Wl,--defsym=_ZN9__gnu_cxx13new_allocatorISt23_Sp_counted_ptr_inplaceISt6threadSaIS2_ELNS_12_Lock_policyE2EEE8allocateEjPKv=so_stub_for_libtelux_cv2x
-Wl,--defsym=_ZN9__gnu_cxx13new_allocatorISt23_Sp_counted_ptr_inplaceISt6threadSaIS2_ELNS_12_Lock_policyE2EEEC1Ev=so_stub_for_libtelux_cv2x
-Wl,--defsym=_ZN9__gnu_cxx13new_allocatorISt23_Sp_counted_ptr_inplaceISt6threadSaIS2_ELNS_12_Lock_policyE2EEEC2Ev=so_stub_for_libtelux_cv2x
-Wl,--defsym=_ZN9__gnu_cxx13new_allocatorISt23_Sp_counted_ptr_inplaceISt6threadSaIS2_ELNS_12_Lock_policyE2EEED1Ev=so_stub_for_libtelux_cv2x
-Wl,--defsym=_ZN9__gnu_cxx13new_allocatorISt23_Sp_counted_ptr_inplaceISt6threadSaIS2_ELNS_12_Lock_policyE2EEED2Ev=so_stub_for_libtelux_cv2x
-Wl,--defsym=_ZN9__gnu_cxx13new_allocatorISt23_Sp_counted_ptr_inplaceISt6vectorIjSaIjEESaIS4_ELNS_12_Lock_policyE2EEE10deallocateEPS7_j=so_stub_for_libtelux_cv2x
-Wl,--defsym=_ZN9__gnu_cxx13new_allocatorISt23_Sp_counted_ptr_inplaceISt6vectorIjSaIjEESaIS4_ELNS_12_Lock_policyE2EEE8allocateEjPKv=so_stub_for_libtelux_cv2x
-Wl,--defsym=_ZN9__gnu_cxx13new_allocatorISt23_Sp_counted_ptr_inplaceISt6vectorIjSaIjEESaIS4_ELNS_12_Lock_policyE2EEEC1Ev=so_stub_for_libtelux_cv2x
-Wl,--defsym=_ZN9__gnu_cxx13new_allocatorISt23_Sp_counted_ptr_inplaceISt6vectorIjSaIjEESaIS4_ELNS_12_Lock_policyE2EEEC2Ev=so_stub_for_libtelux_cv2x
-Wl,--defsym=_ZN9__gnu_cxx13new_allocatorISt23_Sp_counted_ptr_inplaceISt6vectorIjSaIjEESaIS4_ELNS_12_Lock_policyE2EEED1Ev=so_stub_for_libtelux_cv2x
-Wl,--defsym=_ZN9__gnu_cxx13new_allocatorISt23_Sp_counted_ptr_inplaceISt6vectorIjSaIjEESaIS4_ELNS_12_Lock_policyE2EEED2Ev=so_stub_for_libtelux_cv2x
-Wl,--defsym=_ZN9__gnu_cxx13new_allocatorISt4pairIbSt8weak_ptrIN5telux4cv2x18ICv2xRadioListenerEEEE10deallocateEPS7_j=so_stub_for_libtelux_cv2x
-Wl,--defsym=_ZN9__gnu_cxx13new_allocatorISt4pairIbSt8weak_ptrIN5telux4cv2x18ICv2xRadioListenerEEEE7destroyIS7_EEvPT_=so_stub_for_libtelux_cv2x
-Wl,--defsym=_ZN9__gnu_cxx13new_allocatorISt4pairIbSt8weak_ptrIN5telux4cv2x18ICv2xRadioListenerEEEE8allocateEjPKv=so_stub_for_libtelux_cv2x
-Wl,--defsym=_ZN9__gnu_cxx13new_allocatorISt4pairIbSt8weak_ptrIN5telux4cv2x18ICv2xRadioListenerEEEE9constructIS7_JS7_EEEvPT_DpOT0_=so_stub_for_libtelux_cv2x
-Wl,--defsym=_ZN9__gnu_cxx13new_allocatorISt4pairIbSt8weak_ptrIN5telux4cv2x18ICv2xRadioListenerEEEEC1Ev=so_stub_for_libtelux_cv2x
-Wl,--defsym=_ZN9__gnu_cxx13new_allocatorISt4pairIbSt8weak_ptrIN5telux4cv2x18ICv2xRadioListenerEEEEC2Ev=so_stub_for_libtelux_cv2x
-Wl,--defsym=_ZN9__gnu_cxx13new_allocatorISt4pairIbSt8weak_ptrIN5telux4cv2x18ICv2xRadioListenerEEEED1Ev=so_stub_for_libtelux_cv2x
-Wl,--defsym=_ZN9__gnu_cxx13new_allocatorISt4pairIbSt8weak_ptrIN5telux4cv2x18ICv2xRadioListenerEEEED2Ev=so_stub_for_libtelux_cv2x
-Wl,--defsym=_ZN9__gnu_cxx13new_allocatorISt6threadE7destroyIS1_EEvPT_=so_stub_for_libtelux_cv2x
-Wl,--defsym=_ZN9__gnu_cxx13new_allocatorISt6threadEC1ERKS2_=so_stub_for_libtelux_cv2x
-Wl,--defsym=_ZN9__gnu_cxx13new_allocatorISt6threadEC1Ev=so_stub_for_libtelux_cv2x
-Wl,--defsym=_ZN9__gnu_cxx13new_allocatorISt6threadEC2ERKS2_=so_stub_for_libtelux_cv2x
-Wl,--defsym=_ZN9__gnu_cxx13new_allocatorISt6threadEC2Ev=so_stub_for_libtelux_cv2x
-Wl,--defsym=_ZN9__gnu_cxx13new_allocatorISt6threadED1Ev=so_stub_for_libtelux_cv2x
-Wl,--defsym=_ZN9__gnu_cxx13new_allocatorISt6threadED2Ev=so_stub_for_libtelux_cv2x
-Wl,--defsym=_ZN9__gnu_cxx13new_allocatorISt6vectorIjSaIjEEE7destroyIS3_EEvPT_=so_stub_for_libtelux_cv2x
-Wl,--defsym=_ZN9__gnu_cxx13new_allocatorISt6vectorIjSaIjEEE9constructIS3_JRS3_EEEvPT_DpOT0_=so_stub_for_libtelux_cv2x
-Wl,--defsym=_ZN9__gnu_cxx13new_allocatorISt6vectorIjSaIjEEEC1ERKS4_=so_stub_for_libtelux_cv2x
-Wl,--defsym=_ZN9__gnu_cxx13new_allocatorISt6vectorIjSaIjEEEC1Ev=so_stub_for_libtelux_cv2x
-Wl,--defsym=_ZN9__gnu_cxx13new_allocatorISt6vectorIjSaIjEEEC2ERKS4_=so_stub_for_libtelux_cv2x
-Wl,--defsym=_ZN9__gnu_cxx13new_allocatorISt6vectorIjSaIjEEEC2Ev=so_stub_for_libtelux_cv2x
-Wl,--defsym=_ZN9__gnu_cxx13new_allocatorISt6vectorIjSaIjEEED1Ev=so_stub_for_libtelux_cv2x
-Wl,--defsym=_ZN9__gnu_cxx13new_allocatorISt6vectorIjSaIjEEED2Ev=so_stub_for_libtelux_cv2x
-Wl,--defsym=_ZN9__gnu_cxx13new_allocatorISt8weak_ptrIN5telux4cv2x13ICv2xListenerEEE10deallocateEPS5_j=so_stub_for_libtelux_cv2x
-Wl,--defsym=_ZN9__gnu_cxx13new_allocatorISt8weak_ptrIN5telux4cv2x13ICv2xListenerEEE7destroyIS5_EEvPT_=so_stub_for_libtelux_cv2x
-Wl,--defsym=_ZN9__gnu_cxx13new_allocatorISt8weak_ptrIN5telux4cv2x13ICv2xListenerEEE8allocateEjPKv=so_stub_for_libtelux_cv2x
-Wl,--defsym=_ZN9__gnu_cxx13new_allocatorISt8weak_ptrIN5telux4cv2x13ICv2xListenerEEE9constructIS5_JRS5_EEEvPT_DpOT0_=so_stub_for_libtelux_cv2x
-Wl,--defsym=_ZN9__gnu_cxx13new_allocatorISt8weak_ptrIN5telux4cv2x13ICv2xListenerEEE9constructIS5_JRSt10shared_ptrIS4_EEEEvPT_DpOT0_=so_stub_for_libtelux_cv2x
-Wl,--defsym=_ZN9__gnu_cxx13new_allocatorISt8weak_ptrIN5telux4cv2x13ICv2xListenerEEEC1Ev=so_stub_for_libtelux_cv2x
-Wl,--defsym=_ZN9__gnu_cxx13new_allocatorISt8weak_ptrIN5telux4cv2x13ICv2xListenerEEEC2Ev=so_stub_for_libtelux_cv2x
-Wl,--defsym=_ZN9__gnu_cxx13new_allocatorISt8weak_ptrIN5telux4cv2x13ICv2xListenerEEED1Ev=so_stub_for_libtelux_cv2x
-Wl,--defsym=_ZN9__gnu_cxx13new_allocatorISt8weak_ptrIN5telux4cv2x13ICv2xListenerEEED2Ev=so_stub_for_libtelux_cv2x
-Wl,--defsym=_ZN9__gnu_cxx13new_allocatorISt8weak_ptrIN5telux4cv2x19ICv2xConfigListenerEEE10deallocateEPS5_j=so_stub_for_libtelux_cv2x
-Wl,--defsym=_ZN9__gnu_cxx13new_allocatorISt8weak_ptrIN5telux4cv2x19ICv2xConfigListenerEEE7destroyIS5_EEvPT_=so_stub_for_libtelux_cv2x
-Wl,--defsym=_ZN9__gnu_cxx13new_allocatorISt8weak_ptrIN5telux4cv2x19ICv2xConfigListenerEEE8allocateEjPKv=so_stub_for_libtelux_cv2x
-Wl,--defsym=_ZN9__gnu_cxx13new_allocatorISt8weak_ptrIN5telux4cv2x19ICv2xConfigListenerEEE9constructIS5_JRS5_EEEvPT_DpOT0_=so_stub_for_libtelux_cv2x
-Wl,--defsym=_ZN9__gnu_cxx13new_allocatorISt8weak_ptrIN5telux4cv2x19ICv2xConfigListenerEEE9constructIS5_JRSt10shared_ptrIS4_EEEEvPT_DpOT0_=so_stub_for_libtelux_cv2x
-Wl,--defsym=_ZN9__gnu_cxx13new_allocatorISt8weak_ptrIN5telux4cv2x19ICv2xConfigListenerEEEC1Ev=so_stub_for_libtelux_cv2x
-Wl,--defsym=_ZN9__gnu_cxx13new_allocatorISt8weak_ptrIN5telux4cv2x19ICv2xConfigListenerEEEC2Ev=so_stub_for_libtelux_cv2x
-Wl,--defsym=_ZN9__gnu_cxx13new_allocatorISt8weak_ptrIN5telux4cv2x19ICv2xConfigListenerEEED1Ev=so_stub_for_libtelux_cv2x
-Wl,--defsym=_ZN9__gnu_cxx13new_allocatorISt8weak_ptrIN5telux4cv2x19ICv2xConfigListenerEEED2Ev=so_stub_for_libtelux_cv2x
-Wl,--defsym=_ZN9__gnu_cxx13new_allocatorISt8weak_ptrIN5telux4cv2x20ICv2xSysCtrlListenerEEE10deallocateEPS5_j=so_stub_for_libtelux_cv2x
-Wl,--defsym=_ZN9__gnu_cxx13new_allocatorISt8weak_ptrIN5telux4cv2x20ICv2xSysCtrlListenerEEE7destroyIS5_EEvPT_=so_stub_for_libtelux_cv2x
-Wl,--defsym=_ZN9__gnu_cxx13new_allocatorISt8weak_ptrIN5telux4cv2x20ICv2xSysCtrlListenerEEE8allocateEjPKv=so_stub_for_libtelux_cv2x
-Wl,--defsym=_ZN9__gnu_cxx13new_allocatorISt8weak_ptrIN5telux4cv2x20ICv2xSysCtrlListenerEEE9constructIS5_JRS5_EEEvPT_DpOT0_=so_stub_for_libtelux_cv2x
-Wl,--defsym=_ZN9__gnu_cxx13new_allocatorISt8weak_ptrIN5telux4cv2x20ICv2xSysCtrlListenerEEE9constructIS5_JRSt10shared_ptrIS4_EEEEvPT_DpOT0_=so_stub_for_libtelux_cv2x
-Wl,--defsym=_ZN9__gnu_cxx13new_allocatorISt8weak_ptrIN5telux4cv2x20ICv2xSysCtrlListenerEEEC1Ev=so_stub_for_libtelux_cv2x
-Wl,--defsym=_ZN9__gnu_cxx13new_allocatorISt8weak_ptrIN5telux4cv2x20ICv2xSysCtrlListenerEEEC2Ev=so_stub_for_libtelux_cv2x
-Wl,--defsym=_ZN9__gnu_cxx13new_allocatorISt8weak_ptrIN5telux4cv2x20ICv2xSysCtrlListenerEEED1Ev=so_stub_for_libtelux_cv2x
-Wl,--defsym=_ZN9__gnu_cxx13new_allocatorISt8weak_ptrIN5telux4cv2x20ICv2xSysCtrlListenerEEED2Ev=so_stub_for_libtelux_cv2x
-Wl,--defsym=_ZN9__gnu_cxx13new_allocatorIyE10deallocateEPyj=so_stub_for_libtelux_cv2x
-Wl,--defsym=_ZN9__gnu_cxx13new_allocatorIyE7destroyIyEEvPT_=so_stub_for_libtelux_cv2x
-Wl,--defsym=_ZN9__gnu_cxx13new_allocatorIyE8allocateEjPKv=so_stub_for_libtelux_cv2x
-Wl,--defsym=_ZN9__gnu_cxx13new_allocatorIyE9constructIyJyEEEvPT_DpOT0_=so_stub_for_libtelux_cv2x
-Wl,--defsym=_ZN9__gnu_cxx13new_allocatorIyEC1ERKS1_=so_stub_for_libtelux_cv2x
-Wl,--defsym=_ZN9__gnu_cxx13new_allocatorIyEC1Ev=so_stub_for_libtelux_cv2x
-Wl,--defsym=_ZN9__gnu_cxx13new_allocatorIyEC2ERKS1_=so_stub_for_libtelux_cv2x
-Wl,--defsym=_ZN9__gnu_cxx13new_allocatorIyEC2Ev=so_stub_for_libtelux_cv2x
-Wl,--defsym=_ZN9__gnu_cxx13new_allocatorIyED1Ev=so_stub_for_libtelux_cv2x
-Wl,--defsym=_ZN9__gnu_cxx13new_allocatorIyED2Ev=so_stub_for_libtelux_cv2x
-Wl,--defsym=_ZN9__gnu_cxx14__alloc_traitsISaIjEjE17_S_select_on_copyERKS1_=so_stub_for_libtelux_cv2x
-Wl,--defsym=_ZN9__gnu_cxx14__alloc_traitsISaIN5telux4cv2x12TxPoolIdInfoEES3_E17_S_select_on_copyERKS4_=so_stub_for_libtelux_cv2x
-Wl,--defsym=_ZN9__gnu_cxx14__alloc_traitsISaIN5telux4cv2x13TrustedUEInfoEES3_E17_S_select_on_copyERKS4_=so_stub_for_libtelux_cv2x
-Wl,--defsym=_ZN9__gnu_cxx14__alloc_traitsISaIN5telux4cv2x14Cv2xPoolStatusEES3_E17_S_select_on_copyERKS4_=so_stub_for_libtelux_cv2x
-Wl,--defsym=_ZN9__gnu_cxx14__alloc_traitsISaIyEyE17_S_select_on_copyERKS1_=so_stub_for_libtelux_cv2x
-Wl,--defsym=_ZN9__gnu_cxx16__aligned_bufferIbE6_M_ptrEv=so_stub_for_libtelux_cv2x
-Wl,--defsym=_ZN9__gnu_cxx16__aligned_bufferIbE7_M_addrEv=so_stub_for_libtelux_cv2x
-Wl,--defsym=_ZN9__gnu_cxx16__aligned_bufferIiE6_M_ptrEv=so_stub_for_libtelux_cv2x
-Wl,--defsym=_ZN9__gnu_cxx16__aligned_bufferIiE7_M_addrEv=so_stub_for_libtelux_cv2x
-Wl,--defsym=_ZN9__gnu_cxx16__aligned_bufferIN5telux4cv2x10Cv2xConfigEE6_M_ptrEv=so_stub_for_libtelux_cv2x
-Wl,--defsym=_ZN9__gnu_cxx16__aligned_bufferIN5telux4cv2x10Cv2xConfigEE7_M_addrEv=so_stub_for_libtelux_cv2x
-Wl,--defsym=_ZN9__gnu_cxx16__aligned_bufferIN5telux4cv2x11Cv2xSysCtrlEE6_M_ptrEv=so_stub_for_libtelux_cv2x
-Wl,--defsym=_ZN9__gnu_cxx16__aligned_bufferIN5telux4cv2x11Cv2xSysCtrlEE7_M_addrEv=so_stub_for_libtelux_cv2x
-Wl,--defsym=_ZN9__gnu_cxx16__aligned_bufferIN5telux4cv2x12DsiCv2xRadioEE6_M_ptrEv=so_stub_for_libtelux_cv2x
-Wl,--defsym=_ZN9__gnu_cxx16__aligned_bufferIN5telux4cv2x12DsiCv2xRadioEE7_M_addrEv=so_stub_for_libtelux_cv2x
-Wl,--defsym=_ZN9__gnu_cxx16__aligned_bufferIN5telux4cv2x12EventHandlerEE6_M_ptrEv=so_stub_for_libtelux_cv2x
-Wl,--defsym=_ZN9__gnu_cxx16__aligned_bufferIN5telux4cv2x12EventHandlerEE7_M_addrEv=so_stub_for_libtelux_cv2x
-Wl,--defsym=_ZN9__gnu_cxx16__aligned_bufferIN5telux4cv2x13Cv2xTxSpsFlowEE6_M_ptrEv=so_stub_for_libtelux_cv2x
-Wl,--defsym=_ZN9__gnu_cxx16__aligned_bufferIN5telux4cv2x13Cv2xTxSpsFlowEE7_M_addrEv=so_stub_for_libtelux_cv2x
-Wl,--defsym=_ZN9__gnu_cxx16__aligned_bufferIN5telux4cv2x14Cv2xTxRxSocketEE6_M_ptrEv=so_stub_for_libtelux_cv2x
-Wl,--defsym=_ZN9__gnu_cxx16__aligned_bufferIN5telux4cv2x14Cv2xTxRxSocketEE7_M_addrEv=so_stub_for_libtelux_cv2x
-Wl,--defsym=_ZN9__gnu_cxx16__aligned_bufferIN5telux4cv2x14IndicationDataEE6_M_ptrEv=so_stub_for_libtelux_cv2x
-Wl,--defsym=_ZN9__gnu_cxx16__aligned_bufferIN5telux4cv2x14IndicationDataEE7_M_addrEv=so_stub_for_libtelux_cv2x
-Wl,--defsym=_ZN9__gnu_cxx16__aligned_bufferIN5telux4cv2x15Cv2xTxEventFlowEE6_M_ptrEv=so_stub_for_libtelux_cv2x
-Wl,--defsym=_ZN9__gnu_cxx16__aligned_bufferIN5telux4cv2x15Cv2xTxEventFlowEE7_M_addrEv=so_stub_for_libtelux_cv2x
-Wl,--defsym=_ZN9__gnu_cxx16__aligned_bufferIN5telux4cv2x15EventDispatcherEE6_M_ptrEv=so_stub_for_libtelux_cv2x
-Wl,--defsym=_ZN9__gnu_cxx16__aligned_bufferIN5telux4cv2x15EventDispatcherEE7_M_addrEv=so_stub_for_libtelux_cv2x
-Wl,--defsym=_ZN9__gnu_cxx16__aligned_bufferIN5telux4cv2x16Cv2xIndsListenerEE6_M_ptrEv=so_stub_for_libtelux_cv2x
-Wl,--defsym=_ZN9__gnu_cxx16__aligned_bufferIN5telux4cv2x16Cv2xIndsListenerEE7_M_addrEv=so_stub_for_libtelux_cv2x
-Wl,--defsym=_ZN9__gnu_cxx16__aligned_bufferIN5telux4cv2x16Cv2xRadioManagerEE6_M_ptrEv=so_stub_for_libtelux_cv2x
-Wl,--defsym=_ZN9__gnu_cxx16__aligned_bufferIN5telux4cv2x16Cv2xRadioManagerEE7_M_addrEv=so_stub_for_libtelux_cv2x
-Wl,--defsym=_ZN9__gnu_cxx16__aligned_bufferIN5telux4cv2x17ServiceStatusDataEE6_M_ptrEv=so_stub_for_libtelux_cv2x
-Wl,--defsym=_ZN9__gnu_cxx16__aligned_bufferIN5telux4cv2x17ServiceStatusDataEE7_M_addrEv=so_stub_for_libtelux_cv2x
-Wl,--defsym=_ZN9__gnu_cxx16__aligned_bufferIN5telux4cv2x18Cv2xConfigListenerEE6_M_ptrEv=so_stub_for_libtelux_cv2x
-Wl,--defsym=_ZN9__gnu_cxx16__aligned_bufferIN5telux4cv2x18Cv2xConfigListenerEE7_M_addrEv=so_stub_for_libtelux_cv2x
-Wl,--defsym=_ZN9__gnu_cxx16__aligned_bufferIN5telux4cv2x18Cv2xRxSubscriptionEE6_M_ptrEv=so_stub_for_libtelux_cv2x
-Wl,--defsym=_ZN9__gnu_cxx16__aligned_bufferIN5telux4cv2x18Cv2xRxSubscriptionEE7_M_addrEv=so_stub_for_libtelux_cv2x
-Wl,--defsym=_ZN9__gnu_cxx16__aligned_bufferIN5telux4cv2x18QmiV2xStopCallbackEE6_M_ptrEv=so_stub_for_libtelux_cv2x
-Wl,--defsym=_ZN9__gnu_cxx16__aligned_bufferIN5telux4cv2x18QmiV2xStopCallbackEE7_M_addrEv=so_stub_for_libtelux_cv2x
-Wl,--defsym=_ZN9__gnu_cxx16__aligned_bufferIN5telux4cv2x19QmiV2xStartCallbackEE6_M_ptrEv=so_stub_for_libtelux_cv2x
-Wl,--defsym=_ZN9__gnu_cxx16__aligned_bufferIN5telux4cv2x19QmiV2xStartCallbackEE7_M_addrEv=so_stub_for_libtelux_cv2x
-Wl,--defsym=_ZN9__gnu_cxx16__aligned_bufferIN5telux4cv2x20QmiV2xStatusCallbackEE6_M_ptrEv=so_stub_for_libtelux_cv2x
-Wl,--defsym=_ZN9__gnu_cxx16__aligned_bufferIN5telux4cv2x20QmiV2xStatusCallbackEE7_M_addrEv=so_stub_for_libtelux_cv2x
-Wl,--defsym=_ZN9__gnu_cxx16__aligned_bufferIN5telux4cv2x21QmiNasIndsRegCallbackEE6_M_ptrEv=so_stub_for_libtelux_cv2x
-Wl,--defsym=_ZN9__gnu_cxx16__aligned_bufferIN5telux4cv2x21QmiNasIndsRegCallbackEE7_M_addrEv=so_stub_for_libtelux_cv2x
-Wl,--defsym=_ZN9__gnu_cxx16__aligned_bufferIN5telux4cv2x21ServiceStatusListenerEE6_M_ptrEv=so_stub_for_libtelux_cv2x
-Wl,--defsym=_ZN9__gnu_cxx16__aligned_bufferIN5telux4cv2x21ServiceStatusListenerEE7_M_addrEv=so_stub_for_libtelux_cv2x
-Wl,--defsym=_ZN9__gnu_cxx16__aligned_bufferIN5telux4cv2x22QmiV2xStatusCallbackExEE6_M_ptrEv=so_stub_for_libtelux_cv2x
-Wl,--defsym=_ZN9__gnu_cxx16__aligned_bufferIN5telux4cv2x22QmiV2xStatusCallbackExEE7_M_addrEv=so_stub_for_libtelux_cv2x
-Wl,--defsym=_ZN9__gnu_cxx16__aligned_bufferIN5telux4cv2x25QmiSetEventReportCallbackEE6_M_ptrEv=so_stub_for_libtelux_cv2x
-Wl,--defsym=_ZN9__gnu_cxx16__aligned_bufferIN5telux4cv2x25QmiSetEventReportCallbackEE7_M_addrEv=so_stub_for_libtelux_cv2x
-Wl,--defsym=_ZN9__gnu_cxx16__aligned_bufferIN5telux4cv2x25QmiSetPeakTxPowerCallbackEE6_M_ptrEv=so_stub_for_libtelux_cv2x
-Wl,--defsym=_ZN9__gnu_cxx16__aligned_bufferIN5telux4cv2x25QmiSetPeakTxPowerCallbackEE7_M_addrEv=so_stub_for_libtelux_cv2x
-Wl,--defsym=_ZN9__gnu_cxx16__aligned_bufferIN5telux4cv2x27QmiGetOperatingModeCallbackEE6_M_ptrEv=so_stub_for_libtelux_cv2x
-Wl,--defsym=_ZN9__gnu_cxx16__aligned_bufferIN5telux4cv2x27QmiGetOperatingModeCallbackEE7_M_addrEv=so_stub_for_libtelux_cv2x
-Wl,--defsym=_ZN9__gnu_cxx16__aligned_bufferIN5telux4cv2x27QmiSetOperatingModeCallbackEE6_M_ptrEv=so_stub_for_libtelux_cv2x
-Wl,--defsym=_ZN9__gnu_cxx16__aligned_bufferIN5telux4cv2x27QmiSetOperatingModeCallbackEE7_M_addrEv=so_stub_for_libtelux_cv2x
-Wl,--defsym=_ZN9__gnu_cxx16__aligned_bufferIN5telux4cv2x30QmiV2xGetConfigurationCallbackEE6_M_ptrEv=so_stub_for_libtelux_cv2x
-Wl,--defsym=_ZN9__gnu_cxx16__aligned_bufferIN5telux4cv2x30QmiV2xGetConfigurationCallbackEE7_M_addrEv=so_stub_for_libtelux_cv2x
-Wl,--defsym=_ZN9__gnu_cxx16__aligned_bufferIN5telux4cv2x31QmiV2xRegisterConfigIndCallbackEE6_M_ptrEv=so_stub_for_libtelux_cv2x
-Wl,--defsym=_ZN9__gnu_cxx16__aligned_bufferIN5telux4cv2x31QmiV2xRegisterConfigIndCallbackEE7_M_addrEv=so_stub_for_libtelux_cv2x
-Wl,--defsym=_ZN9__gnu_cxx16__aligned_bufferIN5telux4cv2x31SysctrlGetConfigurationCallbackEE6_M_ptrEv=so_stub_for_libtelux_cv2x
-Wl,--defsym=_ZN9__gnu_cxx16__aligned_bufferIN5telux4cv2x31SysctrlGetConfigurationCallbackEE7_M_addrEv=so_stub_for_libtelux_cv2x
-Wl,--defsym=_ZN9__gnu_cxx16__aligned_bufferIN5telux4cv2x35QmiV2xSendConfigurationFileCallbackEE6_M_ptrEv=so_stub_for_libtelux_cv2x
-Wl,--defsym=_ZN9__gnu_cxx16__aligned_bufferIN5telux4cv2x35QmiV2xSendConfigurationFileCallbackEE7_M_addrEv=so_stub_for_libtelux_cv2x
-Wl,--defsym=_ZN9__gnu_cxx16__aligned_bufferIN5telux4cv2x9EventInfoINS2_14IndicationDataEEEE6_M_ptrEv=so_stub_for_libtelux_cv2x
-Wl,--defsym=_ZN9__gnu_cxx16__aligned_bufferIN5telux4cv2x9EventInfoINS2_14IndicationDataEEEE7_M_addrEv=so_stub_for_libtelux_cv2x
-Wl,--defsym=_ZN9__gnu_cxx16__aligned_bufferIN5telux4cv2x9EventInfoINS2_17ServiceStatusDataEEEE6_M_ptrEv=so_stub_for_libtelux_cv2x
-Wl,--defsym=_ZN9__gnu_cxx16__aligned_bufferIN5telux4cv2x9EventInfoINS2_17ServiceStatusDataEEEE7_M_addrEv=so_stub_for_libtelux_cv2x
-Wl,--defsym=_ZN9__gnu_cxx16__aligned_bufferIN5telux6common15ListenerManagerINS1_4cv2x13ICv2xListenerEEEE6_M_ptrEv=so_stub_for_libtelux_cv2x
-Wl,--defsym=_ZN9__gnu_cxx16__aligned_bufferIN5telux6common15ListenerManagerINS1_4cv2x13ICv2xListenerEEEE7_M_addrEv=so_stub_for_libtelux_cv2x
-Wl,--defsym=_ZN9__gnu_cxx16__aligned_bufferIN5telux6common15ListenerManagerINS1_4cv2x19ICv2xConfigListenerEEEE6_M_ptrEv=so_stub_for_libtelux_cv2x
-Wl,--defsym=_ZN9__gnu_cxx16__aligned_bufferIN5telux6common15ListenerManagerINS1_4cv2x19ICv2xConfigListenerEEEE7_M_addrEv=so_stub_for_libtelux_cv2x
-Wl,--defsym=_ZN9__gnu_cxx16__aligned_bufferIN5telux6common6StatusEE6_M_ptrEv=so_stub_for_libtelux_cv2x
-Wl,--defsym=_ZN9__gnu_cxx16__aligned_bufferIN5telux6common6StatusEE7_M_addrEv=so_stub_for_libtelux_cv2x
-Wl,--defsym=_ZN9__gnu_cxx16__aligned_bufferIN5telux6common9ErrorCodeEE6_M_ptrEv=so_stub_for_libtelux_cv2x
-Wl,--defsym=_ZN9__gnu_cxx16__aligned_bufferIN5telux6common9ErrorCodeEE7_M_addrEv=so_stub_for_libtelux_cv2x
-Wl,--defsym=_ZN9__gnu_cxx16__aligned_bufferINSt13__future_base13_State_baseV2EE6_M_ptrEv=so_stub_for_libtelux_cv2x
-Wl,--defsym=_ZN9__gnu_cxx16__aligned_bufferINSt13__future_base13_State_baseV2EE7_M_addrEv=so_stub_for_libtelux_cv2x
-Wl,--defsym=_ZN9__gnu_cxx16__aligned_bufferISt6threadE6_M_ptrEv=so_stub_for_libtelux_cv2x
-Wl,--defsym=_ZN9__gnu_cxx16__aligned_bufferISt6threadE7_M_addrEv=so_stub_for_libtelux_cv2x
-Wl,--defsym=_ZN9__gnu_cxx16__aligned_bufferISt6vectorIjSaIjEEE6_M_ptrEv=so_stub_for_libtelux_cv2x
-Wl,--defsym=_ZN9__gnu_cxx16__aligned_bufferISt6vectorIjSaIjEEE7_M_addrEv=so_stub_for_libtelux_cv2x
-Wl,--defsym=_ZN9__gnu_cxx16__aligned_membufISt10shared_ptrIN5telux4cv2x13EventInfoBaseEEE6_M_ptrEv=so_stub_for_libtelux_cv2x
-Wl,--defsym=_ZN9__gnu_cxx16__aligned_membufISt10shared_ptrIN5telux4cv2x13EventInfoBaseEEE7_M_addrEv=so_stub_for_libtelux_cv2x
-Wl,--defsym=_ZN9__gnu_cxx16__aligned_membufISt4pairIKhN5telux4cv2x17SpsSchedulingInfoEEE6_M_ptrEv=so_stub_for_libtelux_cv2x
-Wl,--defsym=_ZN9__gnu_cxx16__aligned_membufISt4pairIKhN5telux4cv2x17SpsSchedulingInfoEEE7_M_addrEv=so_stub_for_libtelux_cv2x
-Wl,--defsym=_ZN9__gnu_cxx16__aligned_membufISt4pairIKjSt10shared_ptrIN5telux4cv2x11ICv2xTxFlowEEEE6_M_ptrEv=so_stub_for_libtelux_cv2x
-Wl,--defsym=_ZN9__gnu_cxx16__aligned_membufISt4pairIKjSt10shared_ptrIN5telux4cv2x11ICv2xTxFlowEEEE7_M_addrEv=so_stub_for_libtelux_cv2x
-Wl,--defsym=_ZN9__gnu_cxx16__aligned_membufISt4pairIKjSt10shared_ptrIN5telux4cv2x15ICv2xTxRxSocketEEEE6_M_ptrEv=so_stub_for_libtelux_cv2x
-Wl,--defsym=_ZN9__gnu_cxx16__aligned_membufISt4pairIKjSt10shared_ptrIN5telux4cv2x15ICv2xTxRxSocketEEEE7_M_addrEv=so_stub_for_libtelux_cv2x
-Wl,--defsym=_ZN9__gnu_cxx16__aligned_membufISt4pairIKjSt10shared_ptrIN5telux4cv2x19ICv2xRxSubscriptionEEEE6_M_ptrEv=so_stub_for_libtelux_cv2x
-Wl,--defsym=_ZN9__gnu_cxx16__aligned_membufISt4pairIKjSt10shared_ptrIN5telux4cv2x19ICv2xRxSubscriptionEEEE7_M_addrEv=so_stub_for_libtelux_cv2x
-Wl,--defsym=_ZN9__gnu_cxx16__aligned_membufISt4pairIKjSt10unique_ptrINSt7__cxx1112basic_stringIcSt11char_traitsIcESaIcEEESt14default_deleteIS9_EEEE6_M_ptrEv=so_stub_for_libtelux_cv2x
-Wl,--defsym=_ZN9__gnu_cxx16__aligned_membufISt4pairIKjSt10unique_ptrINSt7__cxx1112basic_stringIcSt11char_traitsIcESaIcEEESt14default_deleteIS9_EEEE7_M_addrEv=so_stub_for_libtelux_cv2x
-Wl,--defsym=_ZN9__gnu_cxx17__normal_iteratorIPjSt6vectorIjSaIjEEEC1ERKS1_=so_stub_for_libtelux_cv2x
-Wl,--defsym=_ZN9__gnu_cxx17__normal_iteratorIPjSt6vectorIjSaIjEEEC2ERKS1_=so_stub_for_libtelux_cv2x
-Wl,--defsym=_ZN9__gnu_cxx17__normal_iteratorIPKjSt6vectorIjSaIjEEEC1ERKS2_=so_stub_for_libtelux_cv2x
-Wl,--defsym=_ZN9__gnu_cxx17__normal_iteratorIPKjSt6vectorIjSaIjEEEC2ERKS2_=so_stub_for_libtelux_cv2x
-Wl,--defsym=_ZN9__gnu_cxx17__normal_iteratorIPKN5telux4cv2x12TxPoolIdInfoESt6vectorIS3_SaIS3_EEEC1ERKS5_=so_stub_for_libtelux_cv2x
-Wl,--defsym=_ZN9__gnu_cxx17__normal_iteratorIPKN5telux4cv2x12TxPoolIdInfoESt6vectorIS3_SaIS3_EEEC2ERKS5_=so_stub_for_libtelux_cv2x
-Wl,--defsym=_ZN9__gnu_cxx17__normal_iteratorIPKN5telux4cv2x13TrustedUEInfoESt6vectorIS3_SaIS3_EEEC1ERKS5_=so_stub_for_libtelux_cv2x
-Wl,--defsym=_ZN9__gnu_cxx17__normal_iteratorIPKN5telux4cv2x13TrustedUEInfoESt6vectorIS3_SaIS3_EEEC2ERKS5_=so_stub_for_libtelux_cv2x
-Wl,--defsym=_ZN9__gnu_cxx17__normal_iteratorIPKN5telux4cv2x14Cv2xPoolStatusESt6vectorIS3_SaIS3_EEEC1ERKS5_=so_stub_for_libtelux_cv2x
-Wl,--defsym=_ZN9__gnu_cxx17__normal_iteratorIPKN5telux4cv2x14Cv2xPoolStatusESt6vectorIS3_SaIS3_EEEC2ERKS5_=so_stub_for_libtelux_cv2x
-Wl,--defsym=_ZN9__gnu_cxx17__normal_iteratorIPKN5telux4cv2x14Cv2xPoolStatusESt6vectorIS3_SaIS3_EEEppEv=so_stub_for_libtelux_cv2x
-Wl,--defsym=_ZN9__gnu_cxx17__normal_iteratorIPKSt10shared_ptrIN5telux4cv2x11ICv2xTxFlowEESt6vectorIS5_SaIS5_EEEC1ERKS7_=so_stub_for_libtelux_cv2x
-Wl,--defsym=_ZN9__gnu_cxx17__normal_iteratorIPKSt10shared_ptrIN5telux4cv2x11ICv2xTxFlowEESt6vectorIS5_SaIS5_EEEC2ERKS7_=so_stub_for_libtelux_cv2x
-Wl,--defsym=_ZN9__gnu_cxx17__normal_iteratorIPKSt4pairIbSt8weak_ptrIN5telux4cv2x18ICv2xRadioListenerEEESt6vectorIS7_SaIS7_EEEC1ERKS9_=so_stub_for_libtelux_cv2x
-Wl,--defsym=_ZN9__gnu_cxx17__normal_iteratorIPKSt4pairIbSt8weak_ptrIN5telux4cv2x18ICv2xRadioListenerEEESt6vectorIS7_SaIS7_EEEC1IPS7_EERKNS0_IT_NS_11__enable_ifIXsrSt10__are_sameISG_SF_E7__valueESC_E6__typeEEE=so_stub_for_libtelux_cv2x
-Wl,--defsym=_ZN9__gnu_cxx17__normal_iteratorIPKSt4pairIbSt8weak_ptrIN5telux4cv2x18ICv2xRadioListenerEEESt6vectorIS7_SaIS7_EEEC2ERKS9_=so_stub_for_libtelux_cv2x
-Wl,--defsym=_ZN9__gnu_cxx17__normal_iteratorIPKSt4pairIbSt8weak_ptrIN5telux4cv2x18ICv2xRadioListenerEEESt6vectorIS7_SaIS7_EEEC2IPS7_EERKNS0_IT_NS_11__enable_ifIXsrSt10__are_sameISG_SF_E7__valueESC_E6__typeEEE=so_stub_for_libtelux_cv2x
-Wl,--defsym=_ZN9__gnu_cxx17__normal_iteratorIPKSt8weak_ptrIN5telux4cv2x13ICv2xListenerEESt6vectorIS5_SaIS5_EEEC1ERKS7_=so_stub_for_libtelux_cv2x
-Wl,--defsym=_ZN9__gnu_cxx17__normal_iteratorIPKSt8weak_ptrIN5telux4cv2x13ICv2xListenerEESt6vectorIS5_SaIS5_EEEC1IPS5_EERKNS0_IT_NS_11__enable_ifIXsrSt10__are_sameISE_SD_E7__valueESA_E6__typeEEE=so_stub_for_libtelux_cv2x
-Wl,--defsym=_ZN9__gnu_cxx17__normal_iteratorIPKSt8weak_ptrIN5telux4cv2x13ICv2xListenerEESt6vectorIS5_SaIS5_EEEC2ERKS7_=so_stub_for_libtelux_cv2x
-Wl,--defsym=_ZN9__gnu_cxx17__normal_iteratorIPKSt8weak_ptrIN5telux4cv2x13ICv2xListenerEESt6vectorIS5_SaIS5_EEEC2IPS5_EERKNS0_IT_NS_11__enable_ifIXsrSt10__are_sameISE_SD_E7__valueESA_E6__typeEEE=so_stub_for_libtelux_cv2x
-Wl,--defsym=_ZN9__gnu_cxx17__normal_iteratorIPKSt8weak_ptrIN5telux4cv2x19ICv2xConfigListenerEESt6vectorIS5_SaIS5_EEEC1ERKS7_=so_stub_for_libtelux_cv2x
-Wl,--defsym=_ZN9__gnu_cxx17__normal_iteratorIPKSt8weak_ptrIN5telux4cv2x19ICv2xConfigListenerEESt6vectorIS5_SaIS5_EEEC1IPS5_EERKNS0_IT_NS_11__enable_ifIXsrSt10__are_sameISE_SD_E7__valueESA_E6__typeEEE=so_stub_for_libtelux_cv2x
-Wl,--defsym=_ZN9__gnu_cxx17__normal_iteratorIPKSt8weak_ptrIN5telux4cv2x19ICv2xConfigListenerEESt6vectorIS5_SaIS5_EEEC2ERKS7_=so_stub_for_libtelux_cv2x
-Wl,--defsym=_ZN9__gnu_cxx17__normal_iteratorIPKSt8weak_ptrIN5telux4cv2x19ICv2xConfigListenerEESt6vectorIS5_SaIS5_EEEC2IPS5_EERKNS0_IT_NS_11__enable_ifIXsrSt10__are_sameISE_SD_E7__valueESA_E6__typeEEE=so_stub_for_libtelux_cv2x
-Wl,--defsym=_ZN9__gnu_cxx17__normal_iteratorIPKSt8weak_ptrIN5telux4cv2x20ICv2xSysCtrlListenerEESt6vectorIS5_SaIS5_EEEC1ERKS7_=so_stub_for_libtelux_cv2x
-Wl,--defsym=_ZN9__gnu_cxx17__normal_iteratorIPKSt8weak_ptrIN5telux4cv2x20ICv2xSysCtrlListenerEESt6vectorIS5_SaIS5_EEEC1IPS5_EERKNS0_IT_NS_11__enable_ifIXsrSt10__are_sameISE_SD_E7__valueESA_E6__typeEEE=so_stub_for_libtelux_cv2x
-Wl,--defsym=_ZN9__gnu_cxx17__normal_iteratorIPKSt8weak_ptrIN5telux4cv2x20ICv2xSysCtrlListenerEESt6vectorIS5_SaIS5_EEEC2ERKS7_=so_stub_for_libtelux_cv2x
-Wl,--defsym=_ZN9__gnu_cxx17__normal_iteratorIPKSt8weak_ptrIN5telux4cv2x20ICv2xSysCtrlListenerEESt6vectorIS5_SaIS5_EEEC2IPS5_EERKNS0_IT_NS_11__enable_ifIXsrSt10__are_sameISE_SD_E7__valueESA_E6__typeEEE=so_stub_for_libtelux_cv2x
-Wl,--defsym=_ZN9__gnu_cxx17__normal_iteratorIPKySt6vectorIySaIyEEEC1ERKS2_=so_stub_for_libtelux_cv2x
-Wl,--defsym=_ZN9__gnu_cxx17__normal_iteratorIPKySt6vectorIySaIyEEEC2ERKS2_=so_stub_for_libtelux_cv2x
-Wl,--defsym=_ZN9__gnu_cxx17__normal_iteratorIPN5telux4cv2x12TxPoolIdInfoESt6vectorIS3_SaIS3_EEEC1ERKS4_=so_stub_for_libtelux_cv2x
-Wl,--defsym=_ZN9__gnu_cxx17__normal_iteratorIPN5telux4cv2x12TxPoolIdInfoESt6vectorIS3_SaIS3_EEEC2ERKS4_=so_stub_for_libtelux_cv2x
-Wl,--defsym=_ZN9__gnu_cxx17__normal_iteratorIPN5telux4cv2x14Cv2xPoolStatusESt6vectorIS3_SaIS3_EEEC1ERKS4_=so_stub_for_libtelux_cv2x
-Wl,--defsym=_ZN9__gnu_cxx17__normal_iteratorIPN5telux4cv2x14Cv2xPoolStatusESt6vectorIS3_SaIS3_EEEC2ERKS4_=so_stub_for_libtelux_cv2x
-Wl,--defsym=_ZN9__gnu_cxx17__normal_iteratorIPSt10shared_ptrIN5telux4cv2x11ICv2xTxFlowEESt6vectorIS5_SaIS5_EEEC1ERKS6_=so_stub_for_libtelux_cv2x
-Wl,--defsym=_ZN9__gnu_cxx17__normal_iteratorIPSt10shared_ptrIN5telux4cv2x11ICv2xTxFlowEESt6vectorIS5_SaIS5_EEEC2ERKS6_=so_stub_for_libtelux_cv2x
-Wl,--defsym=_ZN9__gnu_cxx17__normal_iteratorIPSt10shared_ptrIN5telux4cv2x11ICv2xTxFlowEESt6vectorIS5_SaIS5_EEEppEv=so_stub_for_libtelux_cv2x
-Wl,--defsym=_ZN9__gnu_cxx17__normal_iteratorIPSt4pairIbSt8weak_ptrIN5telux4cv2x18ICv2xRadioListenerEEESt6vectorIS7_SaIS7_EEEC1ERKS8_=so_stub_for_libtelux_cv2x
-Wl,--defsym=_ZN9__gnu_cxx17__normal_iteratorIPSt4pairIbSt8weak_ptrIN5telux4cv2x18ICv2xRadioListenerEEESt6vectorIS7_SaIS7_EEEC2ERKS8_=so_stub_for_libtelux_cv2x
-Wl,--defsym=_ZN9__gnu_cxx17__normal_iteratorIPSt4pairIbSt8weak_ptrIN5telux4cv2x18ICv2xRadioListenerEEESt6vectorIS7_SaIS7_EEEppEv=so_stub_for_libtelux_cv2x
-Wl,--defsym=_ZN9__gnu_cxx17__normal_iteratorIPSt8weak_ptrIN5telux4cv2x13ICv2xListenerEESt6vectorIS5_SaIS5_EEEC1ERKS6_=so_stub_for_libtelux_cv2x
-Wl,--defsym=_ZN9__gnu_cxx17__normal_iteratorIPSt8weak_ptrIN5telux4cv2x13ICv2xListenerEESt6vectorIS5_SaIS5_EEEC2ERKS6_=so_stub_for_libtelux_cv2x
-Wl,--defsym=_ZN9__gnu_cxx17__normal_iteratorIPSt8weak_ptrIN5telux4cv2x13ICv2xListenerEESt6vectorIS5_SaIS5_EEEppEv=so_stub_for_libtelux_cv2x
-Wl,--defsym=_ZN9__gnu_cxx17__normal_iteratorIPSt8weak_ptrIN5telux4cv2x19ICv2xConfigListenerEESt6vectorIS5_SaIS5_EEEC1ERKS6_=so_stub_for_libtelux_cv2x
-Wl,--defsym=_ZN9__gnu_cxx17__normal_iteratorIPSt8weak_ptrIN5telux4cv2x19ICv2xConfigListenerEESt6vectorIS5_SaIS5_EEEC2ERKS6_=so_stub_for_libtelux_cv2x
-Wl,--defsym=_ZN9__gnu_cxx17__normal_iteratorIPSt8weak_ptrIN5telux4cv2x19ICv2xConfigListenerEESt6vectorIS5_SaIS5_EEEppEv=so_stub_for_libtelux_cv2x
-Wl,--defsym=_ZN9__gnu_cxx17__normal_iteratorIPSt8weak_ptrIN5telux4cv2x20ICv2xSysCtrlListenerEESt6vectorIS5_SaIS5_EEEC1ERKS6_=so_stub_for_libtelux_cv2x
-Wl,--defsym=_ZN9__gnu_cxx17__normal_iteratorIPSt8weak_ptrIN5telux4cv2x20ICv2xSysCtrlListenerEESt6vectorIS5_SaIS5_EEEC2ERKS6_=so_stub_for_libtelux_cv2x
-Wl,--defsym=_ZN9__gnu_cxx17__normal_iteratorIPSt8weak_ptrIN5telux4cv2x20ICv2xSysCtrlListenerEESt6vectorIS5_SaIS5_EEEppEv=so_stub_for_libtelux_cv2x
-Wl,--defsym=_ZN9__gnu_cxx17__normal_iteratorIPySt6vectorIySaIyEEEC1ERKS1_=so_stub_for_libtelux_cv2x
-Wl,--defsym=_ZN9__gnu_cxx17__normal_iteratorIPySt6vectorIySaIyEEEC2ERKS1_=so_stub_for_libtelux_cv2x
-Wl,--defsym=_ZN9__gnu_cxx5__ops10_Iter_predIZN5telux4cv2x16Cv2xIndsListener16registerListenerESt8weak_ptrINS3_18ICv2xRadioListenerEEEUlSt4pairIbS7_EE_EC1ERKSB_=so_stub_for_libtelux_cv2x
-Wl,--defsym=_ZN9__gnu_cxx5__ops10_Iter_predIZN5telux4cv2x16Cv2xIndsListener16registerListenerESt8weak_ptrINS3_18ICv2xRadioListenerEEEUlSt4pairIbS7_EE_EC1ESA_=so_stub_for_libtelux_cv2x
-Wl,--defsym=_ZN9__gnu_cxx5__ops10_Iter_predIZN5telux4cv2x16Cv2xIndsListener16registerListenerESt8weak_ptrINS3_18ICv2xRadioListenerEEEUlSt4pairIbS7_EE_EC2ERKSB_=so_stub_for_libtelux_cv2x
-Wl,--defsym=_ZN9__gnu_cxx5__ops10_Iter_predIZN5telux4cv2x16Cv2xIndsListener16registerListenerESt8weak_ptrINS3_18ICv2xRadioListenerEEEUlSt4pairIbS7_EE_EC2ESA_=so_stub_for_libtelux_cv2x
-Wl,--defsym=_ZN9__gnu_cxx5__ops10_Iter_predIZN5telux4cv2x16Cv2xIndsListener16registerListenerESt8weak_ptrINS3_18ICv2xRadioListenerEEEUlSt4pairIbS7_EE_EclINS_17__normal_iteratorIPS9_St6vectorIS9_SaIS9_EEEEEEbT_=so_stub_for_libtelux_cv2x
-Wl,--defsym=_ZN9__gnu_cxx5__ops10_Iter_predIZN5telux4cv2x16Cv2xIndsListener16registerListenerESt8weak_ptrINS3_18ICv2xRadioListenerEEEUlSt4pairIbS7_EE_ED1Ev=so_stub_for_libtelux_cv2x
-Wl,--defsym=_ZN9__gnu_cxx5__ops10_Iter_predIZN5telux4cv2x16Cv2xIndsListener16registerListenerESt8weak_ptrINS3_18ICv2xRadioListenerEEEUlSt4pairIbS7_EE_ED2Ev=so_stub_for_libtelux_cv2x
-Wl,--defsym=_ZN9__gnu_cxx5__ops10_Iter_predIZN5telux6common15ListenerManagerINS2_4cv2x13ICv2xListenerEE16registerListenerESt8weak_ptrIS6_EEUlS9_E_EC1ERKSB_=so_stub_for_libtelux_cv2x
-Wl,--defsym=_ZN9__gnu_cxx5__ops10_Iter_predIZN5telux6common15ListenerManagerINS2_4cv2x13ICv2xListenerEE16registerListenerESt8weak_ptrIS6_EEUlS9_E_EC1ESA_=so_stub_for_libtelux_cv2x
-Wl,--defsym=_ZN9__gnu_cxx5__ops10_Iter_predIZN5telux6common15ListenerManagerINS2_4cv2x13ICv2xListenerEE16registerListenerESt8weak_ptrIS6_EEUlS9_E_EC2ERKSB_=so_stub_for_libtelux_cv2x
-Wl,--defsym=_ZN9__gnu_cxx5__ops10_Iter_predIZN5telux6common15ListenerManagerINS2_4cv2x13ICv2xListenerEE16registerListenerESt8weak_ptrIS6_EEUlS9_E_EC2ESA_=so_stub_for_libtelux_cv2x
-Wl,--defsym=_ZN9__gnu_cxx5__ops10_Iter_predIZN5telux6common15ListenerManagerINS2_4cv2x13ICv2xListenerEE16registerListenerESt8weak_ptrIS6_EEUlS9_E_EclINS_17__normal_iteratorIPS9_St6vectorIS9_SaIS9_EEEEEEbT_=so_stub_for_libtelux_cv2x
-Wl,--defsym=_ZN9__gnu_cxx5__ops10_Iter_predIZN5telux6common15ListenerManagerINS2_4cv2x13ICv2xListenerEE16registerListenerESt8weak_ptrIS6_EEUlS9_E_ED1Ev=so_stub_for_libtelux_cv2x
-Wl,--defsym=_ZN9__gnu_cxx5__ops10_Iter_predIZN5telux6common15ListenerManagerINS2_4cv2x13ICv2xListenerEE16registerListenerESt8weak_ptrIS6_EEUlS9_E_ED2Ev=so_stub_for_libtelux_cv2x
-Wl,--defsym=_ZN9__gnu_cxx5__ops10_Iter_predIZN5telux6common15ListenerManagerINS2_4cv2x19ICv2xConfigListenerEE16registerListenerESt8weak_ptrIS6_EEUlS9_E_EC1ERKSB_=so_stub_for_libtelux_cv2x
-Wl,--defsym=_ZN9__gnu_cxx5__ops10_Iter_predIZN5telux6common15ListenerManagerINS2_4cv2x19ICv2xConfigListenerEE16registerListenerESt8weak_ptrIS6_EEUlS9_E_EC1ESA_=so_stub_for_libtelux_cv2x
-Wl,--defsym=_ZN9__gnu_cxx5__ops10_Iter_predIZN5telux6common15ListenerManagerINS2_4cv2x19ICv2xConfigListenerEE16registerListenerESt8weak_ptrIS6_EEUlS9_E_EC2ERKSB_=so_stub_for_libtelux_cv2x
-Wl,--defsym=_ZN9__gnu_cxx5__ops10_Iter_predIZN5telux6common15ListenerManagerINS2_4cv2x19ICv2xConfigListenerEE16registerListenerESt8weak_ptrIS6_EEUlS9_E_EC2ESA_=so_stub_for_libtelux_cv2x
-Wl,--defsym=_ZN9__gnu_cxx5__ops10_Iter_predIZN5telux6common15ListenerManagerINS2_4cv2x19ICv2xConfigListenerEE16registerListenerESt8weak_ptrIS6_EEUlS9_E_EclINS_17__normal_iteratorIPS9_St6vectorIS9_SaIS9_EEEEEEbT_=so_stub_for_libtelux_cv2x
-Wl,--defsym=_ZN9__gnu_cxx5__ops10_Iter_predIZN5telux6common15ListenerManagerINS2_4cv2x19ICv2xConfigListenerEE16registerListenerESt8weak_ptrIS6_EEUlS9_E_ED1Ev=so_stub_for_libtelux_cv2x
-Wl,--defsym=_ZN9__gnu_cxx5__ops10_Iter_predIZN5telux6common15ListenerManagerINS2_4cv2x19ICv2xConfigListenerEE16registerListenerESt8weak_ptrIS6_EEUlS9_E_ED2Ev=so_stub_for_libtelux_cv2x
-Wl,--defsym=_ZN9__gnu_cxx5__ops10_Iter_predIZN5telux6common15ListenerManagerINS2_4cv2x20ICv2xSysCtrlListenerEE16registerListenerESt8weak_ptrIS6_EEUlS9_E_EC1ERKSB_=so_stub_for_libtelux_cv2x
-Wl,--defsym=_ZN9__gnu_cxx5__ops10_Iter_predIZN5telux6common15ListenerManagerINS2_4cv2x20ICv2xSysCtrlListenerEE16registerListenerESt8weak_ptrIS6_EEUlS9_E_EC1ESA_=so_stub_for_libtelux_cv2x
-Wl,--defsym=_ZN9__gnu_cxx5__ops10_Iter_predIZN5telux6common15ListenerManagerINS2_4cv2x20ICv2xSysCtrlListenerEE16registerListenerESt8weak_ptrIS6_EEUlS9_E_EC2ERKSB_=so_stub_for_libtelux_cv2x
-Wl,--defsym=_ZN9__gnu_cxx5__ops10_Iter_predIZN5telux6common15ListenerManagerINS2_4cv2x20ICv2xSysCtrlListenerEE16registerListenerESt8weak_ptrIS6_EEUlS9_E_EC2ESA_=so_stub_for_libtelux_cv2x
-Wl,--defsym=_ZN9__gnu_cxx5__ops10_Iter_predIZN5telux6common15ListenerManagerINS2_4cv2x20ICv2xSysCtrlListenerEE16registerListenerESt8weak_ptrIS6_EEUlS9_E_EclINS_17__normal_iteratorIPS9_St6vectorIS9_SaIS9_EEEEEEbT_=so_stub_for_libtelux_cv2x
-Wl,--defsym=_ZN9__gnu_cxx5__ops10_Iter_predIZN5telux6common15ListenerManagerINS2_4cv2x20ICv2xSysCtrlListenerEE16registerListenerESt8weak_ptrIS6_EEUlS9_E_ED1Ev=so_stub_for_libtelux_cv2x
-Wl,--defsym=_ZN9__gnu_cxx5__ops10_Iter_predIZN5telux6common15ListenerManagerINS2_4cv2x20ICv2xSysCtrlListenerEE16registerListenerESt8weak_ptrIS6_EEUlS9_E_ED2Ev=so_stub_for_libtelux_cv2x
-Wl,--defsym=_ZN9__gnu_cxx5__ops11__pred_iterIZN5telux4cv2x16Cv2xIndsListener16registerListenerESt8weak_ptrINS3_18ICv2xRadioListenerEEEUlSt4pairIbS7_EE_EENS0_10_Iter_predIT_EESC_=so_stub_for_libtelux_cv2x
-Wl,--defsym=_ZN9__gnu_cxx5__ops11__pred_iterIZN5telux6common15ListenerManagerINS2_4cv2x13ICv2xListenerEE16registerListenerESt8weak_ptrIS6_EEUlS9_E_EENS0_10_Iter_predIT_EESC_=so_stub_for_libtelux_cv2x
-Wl,--defsym=_ZN9__gnu_cxx5__ops11__pred_iterIZN5telux6common15ListenerManagerINS2_4cv2x19ICv2xConfigListenerEE16registerListenerESt8weak_ptrIS6_EEUlS9_E_EENS0_10_Iter_predIT_EESC_=so_stub_for_libtelux_cv2x
-Wl,--defsym=_ZN9__gnu_cxx5__ops11__pred_iterIZN5telux6common15ListenerManagerINS2_4cv2x20ICv2xSysCtrlListenerEE16registerListenerESt8weak_ptrIS6_EEUlS9_E_EENS0_10_Iter_predIT_EESC_=so_stub_for_libtelux_cv2x
-Wl,--defsym=_ZN9__gnu_cxxeqIPKSt10shared_ptrIN5telux4cv2x11ICv2xTxFlowEESt6vectorIS5_SaIS5_EEEEbRKNS_17__normal_iteratorIT_T0_EESG_=so_stub_for_libtelux_cv2x
-Wl,--defsym=_ZN9__gnu_cxxmiIPjSt6vectorIjSaIjEEEENS_17__normal_iteratorIT_T0_E15difference_typeERKS8_SB_=so_stub_for_libtelux_cv2x
-Wl,--defsym=_ZN9__gnu_cxxmiIPKSt4pairIbSt8weak_ptrIN5telux4cv2x18ICv2xRadioListenerEEESt6vectorIS7_SaIS7_EEEENS_17__normal_iteratorIT_T0_E15difference_typeERKSG_SJ_=so_stub_for_libtelux_cv2x
-Wl,--defsym=_ZN9__gnu_cxxmiIPKSt8weak_ptrIN5telux4cv2x13ICv2xListenerEESt6vectorIS5_SaIS5_EEEENS_17__normal_iteratorIT_T0_E15difference_typeERKSE_SH_=so_stub_for_libtelux_cv2x
-Wl,--defsym=_ZN9__gnu_cxxmiIPKSt8weak_ptrIN5telux4cv2x19ICv2xConfigListenerEESt6vectorIS5_SaIS5_EEEENS_17__normal_iteratorIT_T0_E15difference_typeERKSE_SH_=so_stub_for_libtelux_cv2x
-Wl,--defsym=_ZN9__gnu_cxxmiIPKSt8weak_ptrIN5telux4cv2x20ICv2xSysCtrlListenerEESt6vectorIS5_SaIS5_EEEENS_17__normal_iteratorIT_T0_E15difference_typeERKSE_SH_=so_stub_for_libtelux_cv2x
-Wl,--defsym=_ZN9__gnu_cxxmiIPN5telux4cv2x12TxPoolIdInfoESt6vectorIS3_SaIS3_EEEENS_17__normal_iteratorIT_T0_E15difference_typeERKSB_SE_=so_stub_for_libtelux_cv2x
-Wl,--defsym=_ZN9__gnu_cxxmiIPN5telux4cv2x14Cv2xPoolStatusESt6vectorIS3_SaIS3_EEEENS_17__normal_iteratorIT_T0_E15difference_typeERKSB_SE_=so_stub_for_libtelux_cv2x
-Wl,--defsym=_ZN9__gnu_cxxmiIPSt10shared_ptrIN5telux4cv2x11ICv2xTxFlowEESt6vectorIS5_SaIS5_EEEENS_17__normal_iteratorIT_T0_E15difference_typeERKSD_SG_=so_stub_for_libtelux_cv2x
-Wl,--defsym=_ZN9__gnu_cxxmiIPSt4pairIbSt8weak_ptrIN5telux4cv2x18ICv2xRadioListenerEEESt6vectorIS7_SaIS7_EEEENS_17__normal_iteratorIT_T0_E15difference_typeERKSF_SI_=so_stub_for_libtelux_cv2x
-Wl,--defsym=_ZN9__gnu_cxxmiIPSt8weak_ptrIN5telux4cv2x13ICv2xListenerEESt6vectorIS5_SaIS5_EEEENS_17__normal_iteratorIT_T0_E15difference_typeERKSD_SG_=so_stub_for_libtelux_cv2x
-Wl,--defsym=_ZN9__gnu_cxxmiIPSt8weak_ptrIN5telux4cv2x19ICv2xConfigListenerEESt6vectorIS5_SaIS5_EEEENS_17__normal_iteratorIT_T0_E15difference_typeERKSD_SG_=so_stub_for_libtelux_cv2x
-Wl,--defsym=_ZN9__gnu_cxxmiIPSt8weak_ptrIN5telux4cv2x20ICv2xSysCtrlListenerEESt6vectorIS5_SaIS5_EEEENS_17__normal_iteratorIT_T0_E15difference_typeERKSD_SG_=so_stub_for_libtelux_cv2x
-Wl,--defsym=_ZN9__gnu_cxxmiIPySt6vectorIySaIyEEEENS_17__normal_iteratorIT_T0_E15difference_typeERKS8_SB_=so_stub_for_libtelux_cv2x
-Wl,--defsym=_ZN9__gnu_cxxneIPKN5telux4cv2x14Cv2xPoolStatusESt6vectorIS3_SaIS3_EEEEbRKNS_17__normal_iteratorIT_T0_EESE_=so_stub_for_libtelux_cv2x
-Wl,--defsym=_ZN9__gnu_cxxneIPSt10shared_ptrIN5telux4cv2x11ICv2xTxFlowEESt6vectorIS5_SaIS5_EEEEbRKNS_17__normal_iteratorIT_T0_EESF_=so_stub_for_libtelux_cv2x
-Wl,--defsym=_ZN9__gnu_cxxneIPSt4pairIbSt8weak_ptrIN5telux4cv2x18ICv2xRadioListenerEEESt6vectorIS7_SaIS7_EEEEbRKNS_17__normal_iteratorIT_T0_EESH_=so_stub_for_libtelux_cv2x
-Wl,--defsym=_ZN9__gnu_cxxneIPSt8weak_ptrIN5telux4cv2x13ICv2xListenerEESt6vectorIS5_SaIS5_EEEEbRKNS_17__normal_iteratorIT_T0_EESF_=so_stub_for_libtelux_cv2x
-Wl,--defsym=_ZN9__gnu_cxxneIPSt8weak_ptrIN5telux4cv2x19ICv2xConfigListenerEESt6vectorIS5_SaIS5_EEEEbRKNS_17__normal_iteratorIT_T0_EESF_=so_stub_for_libtelux_cv2x
-Wl,--defsym=_ZN9__gnu_cxxneIPSt8weak_ptrIN5telux4cv2x20ICv2xSysCtrlListenerEESt6vectorIS5_SaIS5_EEEEbRKNS_17__normal_iteratorIT_T0_EESF_=so_stub_for_libtelux_cv2x
-Wl,--defsym=_ZNK5telux4cv2x12DsiCv2xRadio13isInitializedEv=so_stub_for_libtelux_cv2x
-Wl,--defsym=_ZNK5telux4cv2x12DsiCv2xRadio15getCapabilitiesEv=so_stub_for_libtelux_cv2x
-Wl,--defsym=_ZNK5telux4cv2x12DsiCv2xRadio7isReadyEv=so_stub_for_libtelux_cv2x
-Wl,--defsym=_ZNK5telux4cv2x13Cv2xTxSpsFlow11getFlowTypeEv=so_stub_for_libtelux_cv2x
-Wl,--defsym=_ZNK5telux4cv2x14Cv2xTxRxSocket10getPortNumEv=so_stub_for_libtelux_cv2x
-Wl,--defsym=_ZNK5telux4cv2x14Cv2xTxRxSocket12getServiceIdEv=so_stub_for_libtelux_cv2x
-Wl,--defsym=_ZNK5telux4cv2x14Cv2xTxRxSocket13getSocketAddrEv=so_stub_for_libtelux_cv2x
-Wl,--defsym=_ZNK5telux4cv2x14Cv2xTxRxSocket5getIdEv=so_stub_for_libtelux_cv2x
-Wl,--defsym=_ZNK5telux4cv2x14Cv2xTxRxSocket9getSocketEv=so_stub_for_libtelux_cv2x
-Wl,--defsym=_ZNK5telux4cv2x15Cv2xTxEventFlow10getPortNumEv=so_stub_for_libtelux_cv2x
-Wl,--defsym=_ZNK5telux4cv2x15Cv2xTxEventFlow11getFlowTypeEv=so_stub_for_libtelux_cv2x
-Wl,--defsym=_ZNK5telux4cv2x15Cv2xTxEventFlow11getSockAddrEv=so_stub_for_libtelux_cv2x
-Wl,--defsym=_ZNK5telux4cv2x15Cv2xTxEventFlow12getServiceIdEv=so_stub_for_libtelux_cv2x
-Wl,--defsym=_ZNK5telux4cv2x15Cv2xTxEventFlow7getSockEv=so_stub_for_libtelux_cv2x
-Wl,--defsym=_ZNK5telux4cv2x15Cv2xTxEventFlow9getFlowIdEv=so_stub_for_libtelux_cv2x
-Wl,--defsym=_ZNK5telux4cv2x15Cv2xTxEventFlow9getIpTypeEv=so_stub_for_libtelux_cv2x
-Wl,--defsym=_ZNK5telux4cv2x16Cv2xRadioManager13setModeOnlineEv=so_stub_for_libtelux_cv2x
-Wl,--defsym=_ZNK5telux4cv2x16Cv2xRadioManager18queryOperatingModeERNS1_13OperatingModeE=so_stub_for_libtelux_cv2x
-Wl,--defsym=_ZNK5telux4cv2x16Cv2xRadioManager28requestModeChangeEventReportEv=so_stub_for_libtelux_cv2x
-Wl,--defsym=_ZNK5telux4cv2x18Cv2xRxSubscription10getPortNumEv=so_stub_for_libtelux_cv2x
-Wl,--defsym=_ZNK5telux4cv2x18Cv2xRxSubscription11getSockAddrEv=so_stub_for_libtelux_cv2x
-Wl,--defsym=_ZNK5telux4cv2x18Cv2xRxSubscription16getServiceIDListEv=so_stub_for_libtelux_cv2x
-Wl,--defsym=_ZNK5telux4cv2x18Cv2xRxSubscription17getSubscriptionIdEv=so_stub_for_libtelux_cv2x
-Wl,--defsym=_ZNK5telux4cv2x18Cv2xRxSubscription7getSockEv=so_stub_for_libtelux_cv2x
-Wl,--defsym=_ZNK5telux4cv2x18Cv2xRxSubscription9getIpTypeEv=so_stub_for_libtelux_cv2x
-Wl,--defsym=_ZNK5telux4cv2x27QmiGetOperatingModeCallback11getOprtModeEv=so_stub_for_libtelux_cv2x
-Wl,--defsym=_ZNK9__gnu_cxx13new_allocatorIjE8max_sizeEv=so_stub_for_libtelux_cv2x
-Wl,--defsym=_ZNK9__gnu_cxx13new_allocatorIN5telux4cv2x12TxPoolIdInfoEE8max_sizeEv=so_stub_for_libtelux_cv2x
-Wl,--defsym=_ZNK9__gnu_cxx13new_allocatorIN5telux4cv2x13TrustedUEInfoEE8max_sizeEv=so_stub_for_libtelux_cv2x
-Wl,--defsym=_ZNK9__gnu_cxx13new_allocatorIN5telux4cv2x14Cv2xPoolStatusEE8max_sizeEv=so_stub_for_libtelux_cv2x
-Wl,--defsym=_ZNK9__gnu_cxx13new_allocatorIPSt13shared_futureIvEE8max_sizeEv=so_stub_for_libtelux_cv2x
-Wl,--defsym=_ZNK9__gnu_cxx13new_allocatorISt10_List_nodeISt10shared_ptrIN5telux4cv2x13EventInfoBaseEEEE8max_sizeEv=so_stub_for_libtelux_cv2x
-Wl,--defsym=_ZNK9__gnu_cxx13new_allocatorISt10shared_ptrIN5telux4cv2x11ICv2xTxFlowEEE8max_sizeEv=so_stub_for_libtelux_cv2x
-Wl,--defsym=_ZNK9__gnu_cxx13new_allocatorISt13_Rb_tree_nodeISt4pairIKjSt10shared_ptrIN5telux4cv2x11ICv2xTxFlowEEEEE8max_sizeEv=so_stub_for_libtelux_cv2x
-Wl,--defsym=_ZNK9__gnu_cxx13new_allocatorISt13_Rb_tree_nodeISt4pairIKjSt10shared_ptrIN5telux4cv2x15ICv2xTxRxSocketEEEEE8max_sizeEv=so_stub_for_libtelux_cv2x
-Wl,--defsym=_ZNK9__gnu_cxx13new_allocatorISt13_Rb_tree_nodeISt4pairIKjSt10shared_ptrIN5telux4cv2x19ICv2xRxSubscriptionEEEEE8max_sizeEv=so_stub_for_libtelux_cv2x
-Wl,--defsym=_ZNK9__gnu_cxx13new_allocatorISt13_Rb_tree_nodeISt4pairIKjSt10unique_ptrINSt7__cxx1112basic_stringIcSt11char_traitsIcESaIcEEESt14default_deleteISA_EEEEE8max_sizeEv=so_stub_for_libtelux_cv2x
-Wl,--defsym=_ZNK9__gnu_cxx13new_allocatorISt13shared_futureIvEE8max_sizeEv=so_stub_for_libtelux_cv2x
-Wl,--defsym=_ZNK9__gnu_cxx13new_allocatorISt23_Sp_counted_ptr_inplaceIN5telux4cv2x10Cv2xConfigESaIS4_ELNS_12_Lock_policyE2EEE8max_sizeEv=so_stub_for_libtelux_cv2x
-Wl,--defsym=_ZNK9__gnu_cxx13new_allocatorISt23_Sp_counted_ptr_inplaceIN5telux4cv2x11Cv2xSysCtrlESaIS4_ELNS_12_Lock_policyE2EEE8max_sizeEv=so_stub_for_libtelux_cv2x
-Wl,--defsym=_ZNK9__gnu_cxx13new_allocatorISt23_Sp_counted_ptr_inplaceIN5telux4cv2x12DsiCv2xRadioESaIS4_ELNS_12_Lock_policyE2EEE8max_sizeEv=so_stub_for_libtelux_cv2x
-Wl,--defsym=_ZNK9__gnu_cxx13new_allocatorISt23_Sp_counted_ptr_inplaceIN5telux4cv2x12EventHandlerESaIS4_ELNS_12_Lock_policyE2EEE8max_sizeEv=so_stub_for_libtelux_cv2x
-Wl,--defsym=_ZNK9__gnu_cxx13new_allocatorISt23_Sp_counted_ptr_inplaceIN5telux4cv2x13Cv2xTxSpsFlowESaIS4_ELNS_12_Lock_policyE2EEE8max_sizeEv=so_stub_for_libtelux_cv2x
-Wl,--defsym=_ZNK9__gnu_cxx13new_allocatorISt23_Sp_counted_ptr_inplaceIN5telux4cv2x14Cv2xTxRxSocketESaIS4_ELNS_12_Lock_policyE2EEE8max_sizeEv=so_stub_for_libtelux_cv2x
-Wl,--defsym=_ZNK9__gnu_cxx13new_allocatorISt23_Sp_counted_ptr_inplaceIN5telux4cv2x14IndicationDataESaIS4_ELNS_12_Lock_policyE2EEE8max_sizeEv=so_stub_for_libtelux_cv2x
-Wl,--defsym=_ZNK9__gnu_cxx13new_allocatorISt23_Sp_counted_ptr_inplaceIN5telux4cv2x15Cv2xTxEventFlowESaIS4_ELNS_12_Lock_policyE2EEE8max_sizeEv=so_stub_for_libtelux_cv2x
-Wl,--defsym=_ZNK9__gnu_cxx13new_allocatorISt23_Sp_counted_ptr_inplaceIN5telux4cv2x15EventDispatcherESaIS4_ELNS_12_Lock_policyE2EEE8max_sizeEv=so_stub_for_libtelux_cv2x
-Wl,--defsym=_ZNK9__gnu_cxx13new_allocatorISt23_Sp_counted_ptr_inplaceIN5telux4cv2x16Cv2xIndsListenerESaIS4_ELNS_12_Lock_policyE2EEE8max_sizeEv=so_stub_for_libtelux_cv2x
-Wl,--defsym=_ZNK9__gnu_cxx13new_allocatorISt23_Sp_counted_ptr_inplaceIN5telux4cv2x16Cv2xRadioManagerESaIS4_ELNS_12_Lock_policyE2EEE8max_sizeEv=so_stub_for_libtelux_cv2x
-Wl,--defsym=_ZNK9__gnu_cxx13new_allocatorISt23_Sp_counted_ptr_inplaceIN5telux4cv2x17ServiceStatusDataESaIS4_ELNS_12_Lock_policyE2EEE8max_sizeEv=so_stub_for_libtelux_cv2x
-Wl,--defsym=_ZNK9__gnu_cxx13new_allocatorISt23_Sp_counted_ptr_inplaceIN5telux4cv2x18Cv2xConfigListenerESaIS4_ELNS_12_Lock_policyE2EEE8max_sizeEv=so_stub_for_libtelux_cv2x
-Wl,--defsym=_ZNK9__gnu_cxx13new_allocatorISt23_Sp_counted_ptr_inplaceIN5telux4cv2x18Cv2xRxSubscriptionESaIS4_ELNS_12_Lock_policyE2EEE8max_sizeEv=so_stub_for_libtelux_cv2x
-Wl,--defsym=_ZNK9__gnu_cxx13new_allocatorISt23_Sp_counted_ptr_inplaceIN5telux4cv2x18QmiV2xStopCallbackESaIS4_ELNS_12_Lock_policyE2EEE8max_sizeEv=so_stub_for_libtelux_cv2x
-Wl,--defsym=_ZNK9__gnu_cxx13new_allocatorISt23_Sp_counted_ptr_inplaceIN5telux4cv2x19QmiV2xStartCallbackESaIS4_ELNS_12_Lock_policyE2EEE8max_sizeEv=so_stub_for_libtelux_cv2x
-Wl,--defsym=_ZNK9__gnu_cxx13new_allocatorISt23_Sp_counted_ptr_inplaceIN5telux4cv2x20QmiV2xStatusCallbackESaIS4_ELNS_12_Lock_policyE2EEE8max_sizeEv=so_stub_for_libtelux_cv2x
-Wl,--defsym=_ZNK9__gnu_cxx13new_allocatorISt23_Sp_counted_ptr_inplaceIN5telux4cv2x21QmiNasIndsRegCallbackESaIS4_ELNS_12_Lock_policyE2EEE8max_sizeEv=so_stub_for_libtelux_cv2x
-Wl,--defsym=_ZNK9__gnu_cxx13new_allocatorISt23_Sp_counted_ptr_inplaceIN5telux4cv2x21ServiceStatusListenerESaIS4_ELNS_12_Lock_policyE2EEE8max_sizeEv=so_stub_for_libtelux_cv2x
-Wl,--defsym=_ZNK9__gnu_cxx13new_allocatorISt23_Sp_counted_ptr_inplaceIN5telux4cv2x22QmiV2xStatusCallbackExESaIS4_ELNS_12_Lock_policyE2EEE8max_sizeEv=so_stub_for_libtelux_cv2x
-Wl,--defsym=_ZNK9__gnu_cxx13new_allocatorISt23_Sp_counted_ptr_inplaceIN5telux4cv2x25QmiSetEventReportCallbackESaIS4_ELNS_12_Lock_policyE2EEE8max_sizeEv=so_stub_for_libtelux_cv2x
-Wl,--defsym=_ZNK9__gnu_cxx13new_allocatorISt23_Sp_counted_ptr_inplaceIN5telux4cv2x25QmiSetPeakTxPowerCallbackESaIS4_ELNS_12_Lock_policyE2EEE8max_sizeEv=so_stub_for_libtelux_cv2x
-Wl,--defsym=_ZNK9__gnu_cxx13new_allocatorISt23_Sp_counted_ptr_inplaceIN5telux4cv2x27QmiGetOperatingModeCallbackESaIS4_ELNS_12_Lock_policyE2EEE8max_sizeEv=so_stub_for_libtelux_cv2x
-Wl,--defsym=_ZNK9__gnu_cxx13new_allocatorISt23_Sp_counted_ptr_inplaceIN5telux4cv2x27QmiSetOperatingModeCallbackESaIS4_ELNS_12_Lock_policyE2EEE8max_sizeEv=so_stub_for_libtelux_cv2x
-Wl,--defsym=_ZNK9__gnu_cxx13new_allocatorISt23_Sp_counted_ptr_inplaceIN5telux4cv2x30QmiV2xGetConfigurationCallbackESaIS4_ELNS_12_Lock_policyE2EEE8max_sizeEv=so_stub_for_libtelux_cv2x
-Wl,--defsym=_ZNK9__gnu_cxx13new_allocatorISt23_Sp_counted_ptr_inplaceIN5telux4cv2x31QmiV2xRegisterConfigIndCallbackESaIS4_ELNS_12_Lock_policyE2EEE8max_sizeEv=so_stub_for_libtelux_cv2x
-Wl,--defsym=_ZNK9__gnu_cxx13new_allocatorISt23_Sp_counted_ptr_inplaceIN5telux4cv2x31SysctrlGetConfigurationCallbackESaIS4_ELNS_12_Lock_policyE2EEE8max_sizeEv=so_stub_for_libtelux_cv2x
-Wl,--defsym=_ZNK9__gnu_cxx13new_allocatorISt23_Sp_counted_ptr_inplaceIN5telux4cv2x35QmiV2xSendConfigurationFileCallbackESaIS4_ELNS_12_Lock_policyE2EEE8max_sizeEv=so_stub_for_libtelux_cv2x
-Wl,--defsym=_ZNK9__gnu_cxx13new_allocatorISt23_Sp_counted_ptr_inplaceIN5telux4cv2x9EventInfoINS3_14IndicationDataEEESaIS6_ELNS_12_Lock_policyE2EEE8max_sizeEv=so_stub_for_libtelux_cv2x
-Wl,--defsym=_ZNK9__gnu_cxx13new_allocatorISt23_Sp_counted_ptr_inplaceIN5telux4cv2x9EventInfoINS3_17ServiceStatusDataEEESaIS6_ELNS_12_Lock_policyE2EEE8max_sizeEv=so_stub_for_libtelux_cv2x
-Wl,--defsym=_ZNK9__gnu_cxx13new_allocatorISt23_Sp_counted_ptr_inplaceIN5telux6common15ListenerManagerINS2_4cv2x13ICv2xListenerEEESaIS7_ELNS_12_Lock_policyE2EEE8max_sizeEv=so_stub_for_libtelux_cv2x
-Wl,--defsym=_ZNK9__gnu_cxx13new_allocatorISt23_Sp_counted_ptr_inplaceIN5telux6common15ListenerManagerINS2_4cv2x19ICv2xConfigListenerEEESaIS7_ELNS_12_Lock_policyE2EEE8max_sizeEv=so_stub_for_libtelux_cv2x
-Wl,--defsym=_ZNK9__gnu_cxx13new_allocatorISt23_Sp_counted_ptr_inplaceINSt13__future_base13_State_baseV2ESaIS3_ELNS_12_Lock_policyE2EEE8max_sizeEv=so_stub_for_libtelux_cv2x
-Wl,--defsym=_ZNK9__gnu_cxx13new_allocatorISt23_Sp_counted_ptr_inplaceISt6threadSaIS2_ELNS_12_Lock_policyE2EEE8max_sizeEv=so_stub_for_libtelux_cv2x
-Wl,--defsym=_ZNK9__gnu_cxx13new_allocatorISt23_Sp_counted_ptr_inplaceISt6vectorIjSaIjEESaIS4_ELNS_12_Lock_policyE2EEE8max_sizeEv=so_stub_for_libtelux_cv2x
-Wl,--defsym=_ZNK9__gnu_cxx13new_allocatorISt4pairIbSt8weak_ptrIN5telux4cv2x18ICv2xRadioListenerEEEE8max_sizeEv=so_stub_for_libtelux_cv2x
-Wl,--defsym=_ZNK9__gnu_cxx13new_allocatorISt8weak_ptrIN5telux4cv2x13ICv2xListenerEEE8max_sizeEv=so_stub_for_libtelux_cv2x
-Wl,--defsym=_ZNK9__gnu_cxx13new_allocatorISt8weak_ptrIN5telux4cv2x19ICv2xConfigListenerEEE8max_sizeEv=so_stub_for_libtelux_cv2x
-Wl,--defsym=_ZNK9__gnu_cxx13new_allocatorISt8weak_ptrIN5telux4cv2x20ICv2xSysCtrlListenerEEE8max_sizeEv=so_stub_for_libtelux_cv2x
-Wl,--defsym=_ZNK9__gnu_cxx13new_allocatorIyE8max_sizeEv=so_stub_for_libtelux_cv2x
-Wl,--defsym=_ZNK9__gnu_cxx16__aligned_membufISt4pairIKjSt10shared_ptrIN5telux4cv2x11ICv2xTxFlowEEEE6_M_ptrEv=so_stub_for_libtelux_cv2x
-Wl,--defsym=_ZNK9__gnu_cxx16__aligned_membufISt4pairIKjSt10shared_ptrIN5telux4cv2x11ICv2xTxFlowEEEE7_M_addrEv=so_stub_for_libtelux_cv2x
-Wl,--defsym=_ZNK9__gnu_cxx16__aligned_membufISt4pairIKjSt10shared_ptrIN5telux4cv2x15ICv2xTxRxSocketEEEE6_M_ptrEv=so_stub_for_libtelux_cv2x
-Wl,--defsym=_ZNK9__gnu_cxx16__aligned_membufISt4pairIKjSt10shared_ptrIN5telux4cv2x15ICv2xTxRxSocketEEEE7_M_addrEv=so_stub_for_libtelux_cv2x
-Wl,--defsym=_ZNK9__gnu_cxx16__aligned_membufISt4pairIKjSt10shared_ptrIN5telux4cv2x19ICv2xRxSubscriptionEEEE6_M_ptrEv=so_stub_for_libtelux_cv2x
-Wl,--defsym=_ZNK9__gnu_cxx16__aligned_membufISt4pairIKjSt10shared_ptrIN5telux4cv2x19ICv2xRxSubscriptionEEEE7_M_addrEv=so_stub_for_libtelux_cv2x
-Wl,--defsym=_ZNK9__gnu_cxx16__aligned_membufISt4pairIKjSt10unique_ptrINSt7__cxx1112basic_stringIcSt11char_traitsIcESaIcEEESt14default_deleteIS9_EEEE6_M_ptrEv=so_stub_for_libtelux_cv2x
-Wl,--defsym=_ZNK9__gnu_cxx16__aligned_membufISt4pairIKjSt10unique_ptrINSt7__cxx1112basic_stringIcSt11char_traitsIcESaIcEEESt14default_deleteIS9_EEEE7_M_addrEv=so_stub_for_libtelux_cv2x
-Wl,--defsym=_ZNK9__gnu_cxx17__normal_iteratorIPjSt6vectorIjSaIjEEE4baseEv=so_stub_for_libtelux_cv2x
-Wl,--defsym=_ZNK9__gnu_cxx17__normal_iteratorIPKjSt6vectorIjSaIjEEE4baseEv=so_stub_for_libtelux_cv2x
-Wl,--defsym=_ZNK9__gnu_cxx17__normal_iteratorIPKjSt6vectorIjSaIjEEEplEi=so_stub_for_libtelux_cv2x
-Wl,--defsym=_ZNK9__gnu_cxx17__normal_iteratorIPKN5telux4cv2x12TxPoolIdInfoESt6vectorIS3_SaIS3_EEE4baseEv=so_stub_for_libtelux_cv2x
-Wl,--defsym=_ZNK9__gnu_cxx17__normal_iteratorIPKN5telux4cv2x13TrustedUEInfoESt6vectorIS3_SaIS3_EEE4baseEv=so_stub_for_libtelux_cv2x
-Wl,--defsym=_ZNK9__gnu_cxx17__normal_iteratorIPKN5telux4cv2x14Cv2xPoolStatusESt6vectorIS3_SaIS3_EEE4baseEv=so_stub_for_libtelux_cv2x
-Wl,--defsym=_ZNK9__gnu_cxx17__normal_iteratorIPKN5telux4cv2x14Cv2xPoolStatusESt6vectorIS3_SaIS3_EEEdeEv=so_stub_for_libtelux_cv2x
-Wl,--defsym=_ZNK9__gnu_cxx17__normal_iteratorIPKSt10shared_ptrIN5telux4cv2x11ICv2xTxFlowEESt6vectorIS5_SaIS5_EEE4baseEv=so_stub_for_libtelux_cv2x
-Wl,--defsym=_ZNK9__gnu_cxx17__normal_iteratorIPKSt4pairIbSt8weak_ptrIN5telux4cv2x18ICv2xRadioListenerEEESt6vectorIS7_SaIS7_EEE4baseEv=so_stub_for_libtelux_cv2x
-Wl,--defsym=_ZNK9__gnu_cxx17__normal_iteratorIPKSt8weak_ptrIN5telux4cv2x13ICv2xListenerEESt6vectorIS5_SaIS5_EEE4baseEv=so_stub_for_libtelux_cv2x
-Wl,--defsym=_ZNK9__gnu_cxx17__normal_iteratorIPKSt8weak_ptrIN5telux4cv2x19ICv2xConfigListenerEESt6vectorIS5_SaIS5_EEE4baseEv=so_stub_for_libtelux_cv2x
-Wl,--defsym=_ZNK9__gnu_cxx17__normal_iteratorIPKSt8weak_ptrIN5telux4cv2x20ICv2xSysCtrlListenerEESt6vectorIS5_SaIS5_EEE4baseEv=so_stub_for_libtelux_cv2x
-Wl,--defsym=_ZNK9__gnu_cxx17__normal_iteratorIPKySt6vectorIySaIyEEE4baseEv=so_stub_for_libtelux_cv2x
-Wl,--defsym=_ZNK9__gnu_cxx17__normal_iteratorIPN5telux4cv2x12TxPoolIdInfoESt6vectorIS3_SaIS3_EEE4baseEv=so_stub_for_libtelux_cv2x
-Wl,--defsym=_ZNK9__gnu_cxx17__normal_iteratorIPN5telux4cv2x14Cv2xPoolStatusESt6vectorIS3_SaIS3_EEE4baseEv=so_stub_for_libtelux_cv2x
-Wl,--defsym=_ZNK9__gnu_cxx17__normal_iteratorIPSt10shared_ptrIN5telux4cv2x11ICv2xTxFlowEESt6vectorIS5_SaIS5_EEE4baseEv=so_stub_for_libtelux_cv2x
-Wl,--defsym=_ZNK9__gnu_cxx17__normal_iteratorIPSt10shared_ptrIN5telux4cv2x11ICv2xTxFlowEESt6vectorIS5_SaIS5_EEEdeEv=so_stub_for_libtelux_cv2x
-Wl,--defsym=_ZNK9__gnu_cxx17__normal_iteratorIPSt4pairIbSt8weak_ptrIN5telux4cv2x18ICv2xRadioListenerEEESt6vectorIS7_SaIS7_EEE4baseEv=so_stub_for_libtelux_cv2x
-Wl,--defsym=_ZNK9__gnu_cxx17__normal_iteratorIPSt4pairIbSt8weak_ptrIN5telux4cv2x18ICv2xRadioListenerEEESt6vectorIS7_SaIS7_EEEdeEv=so_stub_for_libtelux_cv2x
-Wl,--defsym=_ZNK9__gnu_cxx17__normal_iteratorIPSt4pairIbSt8weak_ptrIN5telux4cv2x18ICv2xRadioListenerEEESt6vectorIS7_SaIS7_EEEplEi=so_stub_for_libtelux_cv2x
-Wl,--defsym=_ZNK9__gnu_cxx17__normal_iteratorIPSt8weak_ptrIN5telux4cv2x13ICv2xListenerEESt6vectorIS5_SaIS5_EEE4baseEv=so_stub_for_libtelux_cv2x
-Wl,--defsym=_ZNK9__gnu_cxx17__normal_iteratorIPSt8weak_ptrIN5telux4cv2x13ICv2xListenerEESt6vectorIS5_SaIS5_EEEdeEv=so_stub_for_libtelux_cv2x
-Wl,--defsym=_ZNK9__gnu_cxx17__normal_iteratorIPSt8weak_ptrIN5telux4cv2x13ICv2xListenerEESt6vectorIS5_SaIS5_EEEplEi=so_stub_for_libtelux_cv2x
-Wl,--defsym=_ZNK9__gnu_cxx17__normal_iteratorIPSt8weak_ptrIN5telux4cv2x19ICv2xConfigListenerEESt6vectorIS5_SaIS5_EEE4baseEv=so_stub_for_libtelux_cv2x
-Wl,--defsym=_ZNK9__gnu_cxx17__normal_iteratorIPSt8weak_ptrIN5telux4cv2x19ICv2xConfigListenerEESt6vectorIS5_SaIS5_EEEdeEv=so_stub_for_libtelux_cv2x
-Wl,--defsym=_ZNK9__gnu_cxx17__normal_iteratorIPSt8weak_ptrIN5telux4cv2x19ICv2xConfigListenerEESt6vectorIS5_SaIS5_EEEplEi=so_stub_for_libtelux_cv2x
-Wl,--defsym=_ZNK9__gnu_cxx17__normal_iteratorIPSt8weak_ptrIN5telux4cv2x20ICv2xSysCtrlListenerEESt6vectorIS5_SaIS5_EEE4baseEv=so_stub_for_libtelux_cv2x
-Wl,--defsym=_ZNK9__gnu_cxx17__normal_iteratorIPSt8weak_ptrIN5telux4cv2x20ICv2xSysCtrlListenerEESt6vectorIS5_SaIS5_EEEdeEv=so_stub_for_libtelux_cv2x
-Wl,--defsym=_ZNK9__gnu_cxx17__normal_iteratorIPSt8weak_ptrIN5telux4cv2x20ICv2xSysCtrlListenerEESt6vectorIS5_SaIS5_EEEplEi=so_stub_for_libtelux_cv2x
-Wl,--defsym=_ZNK9__gnu_cxx17__normal_iteratorIPySt6vectorIySaIyEEE4baseEv=so_stub_for_libtelux_cv2x
-Wl,--defsym=_ZNKSt10error_code5valueEv=so_stub_for_libtelux_cv2x
-Wl,--defsym=_ZNKSt10error_code7messageB5cxx11Ev=so_stub_for_libtelux_cv2x
-Wl,--defsym=_ZNKSt10error_code8categoryEv=so_stub_for_libtelux_cv2x
-Wl,--defsym=_ZNKSt10_Select1stISt4pairIKjSt10shared_ptrIN5telux4cv2x11ICv2xTxFlowEEEEclERKS7_=so_stub_for_libtelux_cv2x
-Wl,--defsym=_ZNKSt10_Select1stISt4pairIKjSt10shared_ptrIN5telux4cv2x15ICv2xTxRxSocketEEEEclERKS7_=so_stub_for_libtelux_cv2x
-Wl,--defsym=_ZNKSt10_Select1stISt4pairIKjSt10shared_ptrIN5telux4cv2x19ICv2xRxSubscriptionEEEEclERKS7_=so_stub_for_libtelux_cv2x
-Wl,--defsym=_ZNKSt10_Select1stISt4pairIKjSt10unique_ptrINSt7__cxx1112basic_stringIcSt11char_traitsIcESaIcEEESt14default_deleteIS8_EEEEclERKSC_=so_stub_for_libtelux_cv2x
-Wl,--defsym=_ZNKSt10unique_ptrINSt13__future_base12_Result_baseENS1_8_DeleterEE3getEv=so_stub_for_libtelux_cv2x
-Wl,--defsym=_ZNKSt10unique_ptrINSt13__future_base12_Result_baseENS1_8_DeleterEEcvbEv=so_stub_for_libtelux_cv2x
-Wl,--defsym=_ZNKSt10unique_ptrINSt13__future_base12_Result_baseENS1_8_DeleterEEdeEv=so_stub_for_libtelux_cv2x
-Wl,--defsym=_ZNKSt10unique_ptrINSt13__future_base12_Result_baseENS1_8_DeleterEEptEv=so_stub_for_libtelux_cv2x
-Wl,--defsym=_ZNKSt10unique_ptrINSt13__future_base7_ResultIbEENS0_12_Result_base8_DeleterEE3getEv=so_stub_for_libtelux_cv2x
-Wl,--defsym=_ZNKSt10unique_ptrINSt13__future_base7_ResultIbEENS0_12_Result_base8_DeleterEEcvbEv=so_stub_for_libtelux_cv2x
-Wl,--defsym=_ZNKSt10unique_ptrINSt13__future_base7_ResultIbEENS0_12_Result_base8_DeleterEEptEv=so_stub_for_libtelux_cv2x
-Wl,--defsym=_ZNKSt10unique_ptrINSt13__future_base7_ResultIiEENS0_12_Result_base8_DeleterEE3getEv=so_stub_for_libtelux_cv2x
-Wl,--defsym=_ZNKSt10unique_ptrINSt13__future_base7_ResultIiEENS0_12_Result_base8_DeleterEEptEv=so_stub_for_libtelux_cv2x
-Wl,--defsym=_ZNKSt10unique_ptrINSt13__future_base7_ResultIN5telux6common6StatusEEENS0_12_Result_base8_DeleterEE3getEv=so_stub_for_libtelux_cv2x
-Wl,--defsym=_ZNKSt10unique_ptrINSt13__future_base7_ResultIN5telux6common6StatusEEENS0_12_Result_base8_DeleterEEcvbEv=so_stub_for_libtelux_cv2x
-Wl,--defsym=_ZNKSt10unique_ptrINSt13__future_base7_ResultIN5telux6common6StatusEEENS0_12_Result_base8_DeleterEEptEv=so_stub_for_libtelux_cv2x
-Wl,--defsym=_ZNKSt10unique_ptrINSt13__future_base7_ResultIN5telux6common9ErrorCodeEEENS0_12_Result_base8_DeleterEE3getEv=so_stub_for_libtelux_cv2x
-Wl,--defsym=_ZNKSt10unique_ptrINSt13__future_base7_ResultIN5telux6common9ErrorCodeEEENS0_12_Result_base8_DeleterEEptEv=so_stub_for_libtelux_cv2x
-Wl,--defsym=_ZNKSt10unique_ptrINSt13__future_base7_ResultIvEENS0_12_Result_base8_DeleterEE3getEv=so_stub_for_libtelux_cv2x
-Wl,--defsym=_ZNKSt10unique_ptrINSt13__future_base7_ResultIvEENS0_12_Result_base8_DeleterEEcvbEv=so_stub_for_libtelux_cv2x
-Wl,--defsym=_ZNKSt10unique_ptrINSt13__future_base7_ResultIvEENS0_12_Result_base8_DeleterEEptEv=so_stub_for_libtelux_cv2x
-Wl,--defsym=_ZNKSt10unique_ptrINSt7__cxx1112basic_stringIcSt11char_traitsIcESaIcEEESt14default_deleteIS5_EE3getEv=so_stub_for_libtelux_cv2x
-Wl,--defsym=_ZNKSt10unique_ptrINSt7__cxx1112basic_stringIcSt11char_traitsIcESaIcEEESt14default_deleteIS5_EEptEv=so_stub_for_libtelux_cv2x
-Wl,--defsym=_ZNKSt11_Deque_baseISt13shared_futureIvESaIS1_EE19_M_get_Tp_allocatorEv=so_stub_for_libtelux_cv2x
-Wl,--defsym=_ZNKSt11_Deque_baseISt13shared_futureIvESaIS1_EE20_M_get_map_allocatorEv=so_stub_for_libtelux_cv2x
-Wl,--defsym=_ZNKSt12_Base_bitsetILj1EE10_M_are_allILj3EEEbv=so_stub_for_libtelux_cv2x
-Wl,--defsym=_ZNKSt12_Base_bitsetILj1EE10_M_getwordEj=so_stub_for_libtelux_cv2x
-Wl,--defsym=_ZNKSt12__shared_ptrIN5telux3qmi12DmsQmiClientELN9__gnu_cxx12_Lock_policyE2EE3getEv=so_stub_for_libtelux_cv2x
-Wl,--defsym=_ZNKSt12__shared_ptrIN5telux3qmi12DmsQmiClientELN9__gnu_cxx12_Lock_policyE2EEcvbEv=so_stub_for_libtelux_cv2x
-Wl,--defsym=_ZNKSt12__shared_ptrIN5telux3qmi12NasQmiClientELN9__gnu_cxx12_Lock_policyE2EE3getEv=so_stub_for_libtelux_cv2x
-Wl,--defsym=_ZNKSt12__shared_ptrIN5telux3qmi12NasQmiClientELN9__gnu_cxx12_Lock_policyE2EEcvbEv=so_stub_for_libtelux_cv2x
-Wl,--defsym=_ZNKSt12__shared_ptrIN5telux3qmi12WdsQmiClientELN9__gnu_cxx12_Lock_policyE2EE3getEv=so_stub_for_libtelux_cv2x
-Wl,--defsym=_ZNKSt12__shared_ptrIN5telux3qmi12WdsQmiClientELN9__gnu_cxx12_Lock_policyE2EEcvbEv=so_stub_for_libtelux_cv2x
-Wl,--defsym=_ZNKSt12__shared_ptrIN5telux3qmi20IQmiSetPeakTxPowerCbELN9__gnu_cxx12_Lock_policyE2EEcvbEv=so_stub_for_libtelux_cv2x
-Wl,--defsym=_ZNKSt12__shared_ptrIN5telux4cv2x10Cv2xConfigELN9__gnu_cxx12_Lock_policyE2EE3getEv=so_stub_for_libtelux_cv2x
-Wl,--defsym=_ZNKSt12__shared_ptrIN5telux4cv2x10ICv2xRadioELN9__gnu_cxx12_Lock_policyE2EE3getEv=so_stub_for_libtelux_cv2x
-Wl,--defsym=_ZNKSt12__shared_ptrIN5telux4cv2x10ICv2xRadioELN9__gnu_cxx12_Lock_policyE2EEcvbEv=so_stub_for_libtelux_cv2x
-Wl,--defsym=_ZNKSt12__shared_ptrIN5telux4cv2x11Cv2xSysCtrlELN9__gnu_cxx12_Lock_policyE2EE3getEv=so_stub_for_libtelux_cv2x
-Wl,--defsym=_ZNKSt12__shared_ptrIN5telux4cv2x11Cv2xSysCtrlELN9__gnu_cxx12_Lock_policyE2EEcvbEv=so_stub_for_libtelux_cv2x
-Wl,--defsym=_ZNKSt12__shared_ptrIN5telux4cv2x11ICv2xConfigELN9__gnu_cxx12_Lock_policyE2EEcvbEv=so_stub_for_libtelux_cv2x
-Wl,--defsym=_ZNKSt12__shared_ptrIN5telux4cv2x11ICv2xTxFlowELN9__gnu_cxx12_Lock_policyE2EE3getEv=so_stub_for_libtelux_cv2x
-Wl,--defsym=_ZNKSt12__shared_ptrIN5telux4cv2x11ICv2xTxFlowELN9__gnu_cxx12_Lock_policyE2EEcvbEv=so_stub_for_libtelux_cv2x
-Wl,--defsym=_ZNKSt12__shared_ptrIN5telux4cv2x12DsiCv2xRadioELN9__gnu_cxx12_Lock_policyE2EE3getEv=so_stub_for_libtelux_cv2x
-Wl,--defsym=_ZNKSt12__shared_ptrIN5telux4cv2x12EventHandlerELN9__gnu_cxx12_Lock_policyE2EE3getEv=so_stub_for_libtelux_cv2x
-Wl,--defsym=_ZNKSt12__shared_ptrIN5telux4cv2x12EventHandlerELN9__gnu_cxx12_Lock_policyE2EEcvbEv=so_stub_for_libtelux_cv2x
-Wl,--defsym=_ZNKSt12__shared_ptrIN5telux4cv2x13Cv2xTxSpsFlowELN9__gnu_cxx12_Lock_policyE2EE3getEv=so_stub_for_libtelux_cv2x
-Wl,--defsym=_ZNKSt12__shared_ptrIN5telux4cv2x13Cv2xTxSpsFlowELN9__gnu_cxx12_Lock_policyE2EEcvbEv=so_stub_for_libtelux_cv2x
-Wl,--defsym=_ZNKSt12__shared_ptrIN5telux4cv2x13EventInfoBaseELN9__gnu_cxx12_Lock_policyE2EE3getEv=so_stub_for_libtelux_cv2x
-Wl,--defsym=_ZNKSt12__shared_ptrIN5telux4cv2x13EventInfoBaseELN9__gnu_cxx12_Lock_policyE2EEcvbEv=so_stub_for_libtelux_cv2x
-Wl,--defsym=_ZNKSt12__shared_ptrIN5telux4cv2x13ICv2xListenerELN9__gnu_cxx12_Lock_policyE2EE3getEv=so_stub_for_libtelux_cv2x
-Wl,--defsym=_ZNKSt12__shared_ptrIN5telux4cv2x13ICv2xListenerELN9__gnu_cxx12_Lock_policyE2EEcvbEv=so_stub_for_libtelux_cv2x
-Wl,--defsym=_ZNKSt12__shared_ptrIN5telux4cv2x14Cv2xTxRxSocketELN9__gnu_cxx12_Lock_policyE2EE3getEv=so_stub_for_libtelux_cv2x
-Wl,--defsym=_ZNKSt12__shared_ptrIN5telux4cv2x14IndicationDataELN9__gnu_cxx12_Lock_policyE2EE3getEv=so_stub_for_libtelux_cv2x
-Wl,--defsym=_ZNKSt12__shared_ptrIN5telux4cv2x14IndicationDataELN9__gnu_cxx12_Lock_policyE2EEcvbEv=so_stub_for_libtelux_cv2x
-Wl,--defsym=_ZNKSt12__shared_ptrIN5telux4cv2x15Cv2xTxEventFlowELN9__gnu_cxx12_Lock_policyE2EE3getEv=so_stub_for_libtelux_cv2x
-Wl,--defsym=_ZNKSt12__shared_ptrIN5telux4cv2x15Cv2xTxEventFlowELN9__gnu_cxx12_Lock_policyE2EEcvbEv=so_stub_for_libtelux_cv2x
-Wl,--defsym=_ZNKSt12__shared_ptrIN5telux4cv2x15EventDispatcherELN9__gnu_cxx12_Lock_policyE2EE3getEv=so_stub_for_libtelux_cv2x
-Wl,--defsym=_ZNKSt12__shared_ptrIN5telux4cv2x15EventDispatcherELN9__gnu_cxx12_Lock_policyE2EEcvbEv=so_stub_for_libtelux_cv2x
-Wl,--defsym=_ZNKSt12__shared_ptrIN5telux4cv2x15ICv2xTxRxSocketELN9__gnu_cxx12_Lock_policyE2EE3getEv=so_stub_for_libtelux_cv2x
-Wl,--defsym=_ZNKSt12__shared_ptrIN5telux4cv2x15ICv2xTxRxSocketELN9__gnu_cxx12_Lock_policyE2EEcvbEv=so_stub_for_libtelux_cv2x
-Wl,--defsym=_ZNKSt12__shared_ptrIN5telux4cv2x16Cv2xIndsListenerELN9__gnu_cxx12_Lock_policyE2EE3getEv=so_stub_for_libtelux_cv2x
-Wl,--defsym=_ZNKSt12__shared_ptrIN5telux4cv2x16Cv2xRadioManagerELN9__gnu_cxx12_Lock_policyE2EE3getEv=so_stub_for_libtelux_cv2x
-Wl,--defsym=_ZNKSt12__shared_ptrIN5telux4cv2x17ICv2xRadioManagerELN9__gnu_cxx12_Lock_policyE2EEcvbEv=so_stub_for_libtelux_cv2x
-Wl,--defsym=_ZNKSt12__shared_ptrIN5telux4cv2x17ServiceStatusDataELN9__gnu_cxx12_Lock_policyE2EE3getEv=so_stub_for_libtelux_cv2x
-Wl,--defsym=_ZNKSt12__shared_ptrIN5telux4cv2x17ServiceStatusDataELN9__gnu_cxx12_Lock_policyE2EEcvbEv=so_stub_for_libtelux_cv2x
-Wl,--defsym=_ZNKSt12__shared_ptrIN5telux4cv2x18Cv2xConfigListenerELN9__gnu_cxx12_Lock_policyE2EE3getEv=so_stub_for_libtelux_cv2x
-Wl,--defsym=_ZNKSt12__shared_ptrIN5telux4cv2x18Cv2xRxSubscriptionELN9__gnu_cxx12_Lock_policyE2EE3getEv=so_stub_for_libtelux_cv2x
-Wl,--defsym=_ZNKSt12__shared_ptrIN5telux4cv2x18Cv2xRxSubscriptionELN9__gnu_cxx12_Lock_policyE2EEcvbEv=so_stub_for_libtelux_cv2x
-Wl,--defsym=_ZNKSt12__shared_ptrIN5telux4cv2x18ICv2xRadioListenerELN9__gnu_cxx12_Lock_policyE2EE3getEv=so_stub_for_libtelux_cv2x
-Wl,--defsym=_ZNKSt12__shared_ptrIN5telux4cv2x18ICv2xRadioListenerELN9__gnu_cxx12_Lock_policyE2EEcvbEv=so_stub_for_libtelux_cv2x
-Wl,--defsym=_ZNKSt12__shared_ptrIN5telux4cv2x19ICv2xConfigListenerELN9__gnu_cxx12_Lock_policyE2EE3getEv=so_stub_for_libtelux_cv2x
-Wl,--defsym=_ZNKSt12__shared_ptrIN5telux4cv2x19ICv2xConfigListenerELN9__gnu_cxx12_Lock_policyE2EEcvbEv=so_stub_for_libtelux_cv2x
-Wl,--defsym=_ZNKSt12__shared_ptrIN5telux4cv2x19ICv2xRxSubscriptionELN9__gnu_cxx12_Lock_policyE2EE3getEv=so_stub_for_libtelux_cv2x
-Wl,--defsym=_ZNKSt12__shared_ptrIN5telux4cv2x19ICv2xRxSubscriptionELN9__gnu_cxx12_Lock_policyE2EEcvbEv=so_stub_for_libtelux_cv2x
-Wl,--defsym=_ZNKSt12__shared_ptrIN5telux4cv2x20ICv2xSysCtrlListenerELN9__gnu_cxx12_Lock_policyE2EE3getEv=so_stub_for_libtelux_cv2x
-Wl,--defsym=_ZNKSt12__shared_ptrIN5telux4cv2x20ICv2xSysCtrlListenerELN9__gnu_cxx12_Lock_policyE2EEcvbEv=so_stub_for_libtelux_cv2x
-Wl,--defsym=_ZNKSt12__shared_ptrIN5telux4cv2x21QmiNasIndsRegCallbackELN9__gnu_cxx12_Lock_policyE2EE3getEv=so_stub_for_libtelux_cv2x
-Wl,--defsym=_ZNKSt12__shared_ptrIN5telux4cv2x21ServiceStatusListenerELN9__gnu_cxx12_Lock_policyE2EE3getEv=so_stub_for_libtelux_cv2x
-Wl,--defsym=_ZNKSt12__shared_ptrIN5telux4cv2x25QmiSetEventReportCallbackELN9__gnu_cxx12_Lock_policyE2EE3getEv=so_stub_for_libtelux_cv2x
-Wl,--defsym=_ZNKSt12__shared_ptrIN5telux4cv2x27QmiGetOperatingModeCallbackELN9__gnu_cxx12_Lock_policyE2EE3getEv=so_stub_for_libtelux_cv2x
-Wl,--defsym=_ZNKSt12__shared_ptrIN5telux4cv2x27QmiSetOperatingModeCallbackELN9__gnu_cxx12_Lock_policyE2EE3getEv=so_stub_for_libtelux_cv2x
-Wl,--defsym=_ZNKSt12__shared_ptrIN5telux4cv2x30QmiV2xGetConfigurationCallbackELN9__gnu_cxx12_Lock_policyE2EE3getEv=so_stub_for_libtelux_cv2x
-Wl,--defsym=_ZNKSt12__shared_ptrIN5telux4cv2x31QmiV2xRegisterConfigIndCallbackELN9__gnu_cxx12_Lock_policyE2EE3getEv=so_stub_for_libtelux_cv2x
-Wl,--defsym=_ZNKSt12__shared_ptrIN5telux4cv2x31SysctrlGetConfigurationCallbackELN9__gnu_cxx12_Lock_policyE2EE3getEv=so_stub_for_libtelux_cv2x
-Wl,--defsym=_ZNKSt12__shared_ptrIN5telux4cv2x35QmiV2xSendConfigurationFileCallbackELN9__gnu_cxx12_Lock_policyE2EE3getEv=so_stub_for_libtelux_cv2x
-Wl,--defsym=_ZNKSt12__shared_ptrIN5telux4data9DsiClientELN9__gnu_cxx12_Lock_policyE2EE3getEv=so_stub_for_libtelux_cv2x
-Wl,--defsym=_ZNKSt12__shared_ptrIN5telux4data9DsiClientELN9__gnu_cxx12_Lock_policyE2EEcvbEv=so_stub_for_libtelux_cv2x
-Wl,--defsym=_ZNKSt12__shared_ptrIN5telux6common15ListenerManagerINS0_4cv2x13ICv2xListenerEEELN9__gnu_cxx12_Lock_policyE2EE3getEv=so_stub_for_libtelux_cv2x
-Wl,--defsym=_ZNKSt12__shared_ptrIN5telux6common15ListenerManagerINS0_4cv2x19ICv2xConfigListenerEEELN9__gnu_cxx12_Lock_policyE2EE3getEv=so_stub_for_libtelux_cv2x
-Wl,--defsym=_ZNKSt12__shared_ptrINSt13__future_base13_State_baseV2ELN9__gnu_cxx12_Lock_policyE2EE3getEv=so_stub_for_libtelux_cv2x
-Wl,--defsym=_ZNKSt12__shared_ptrINSt13__future_base13_State_baseV2ELN9__gnu_cxx12_Lock_policyE2EE6uniqueEv=so_stub_for_libtelux_cv2x
-Wl,--defsym=_ZNKSt12__shared_ptrINSt13__future_base13_State_baseV2ELN9__gnu_cxx12_Lock_policyE2EEcvbEv=so_stub_for_libtelux_cv2x
-Wl,--defsym=_ZNKSt12__shared_ptrISt6threadLN9__gnu_cxx12_Lock_policyE2EE3getEv=so_stub_for_libtelux_cv2x
-Wl,--defsym=_ZNKSt12__shared_ptrISt6threadLN9__gnu_cxx12_Lock_policyE2EEcvbEv=so_stub_for_libtelux_cv2x
-Wl,--defsym=_ZNKSt12system_error4codeEv=so_stub_for_libtelux_cv2x
-Wl,--defsym=_ZNKSt12_Vector_baseIjSaIjEE19_M_get_Tp_allocatorEv=so_stub_for_libtelux_cv2x
-Wl,--defsym=_ZNKSt12_Vector_baseIN5telux4cv2x12TxPoolIdInfoESaIS2_EE19_M_get_Tp_allocatorEv=so_stub_for_libtelux_cv2x
-Wl,--defsym=_ZNKSt12_Vector_baseIN5telux4cv2x13TrustedUEInfoESaIS2_EE19_M_get_Tp_allocatorEv=so_stub_for_libtelux_cv2x
-Wl,--defsym=_ZNKSt12_Vector_baseIN5telux4cv2x14Cv2xPoolStatusESaIS2_EE19_M_get_Tp_allocatorEv=so_stub_for_libtelux_cv2x
-Wl,--defsym=_ZNKSt12_Vector_baseISt10shared_ptrIN5telux4cv2x11ICv2xTxFlowEESaIS4_EE19_M_get_Tp_allocatorEv=so_stub_for_libtelux_cv2x
-Wl,--defsym=_ZNKSt12_Vector_baseISt4pairIbSt8weak_ptrIN5telux4cv2x18ICv2xRadioListenerEEESaIS6_EE19_M_get_Tp_allocatorEv=so_stub_for_libtelux_cv2x
-Wl,--defsym=_ZNKSt12_Vector_baseISt8weak_ptrIN5telux4cv2x13ICv2xListenerEESaIS4_EE19_M_get_Tp_allocatorEv=so_stub_for_libtelux_cv2x
-Wl,--defsym=_ZNKSt12_Vector_baseISt8weak_ptrIN5telux4cv2x19ICv2xConfigListenerEESaIS4_EE19_M_get_Tp_allocatorEv=so_stub_for_libtelux_cv2x
-Wl,--defsym=_ZNKSt12_Vector_baseISt8weak_ptrIN5telux4cv2x20ICv2xSysCtrlListenerEESaIS4_EE19_M_get_Tp_allocatorEv=so_stub_for_libtelux_cv2x
-Wl,--defsym=_ZNKSt12_Vector_baseIySaIyEE13get_allocatorEv=so_stub_for_libtelux_cv2x
-Wl,--defsym=_ZNKSt12_Vector_baseIySaIyEE19_M_get_Tp_allocatorEv=so_stub_for_libtelux_cv2x
-Wl,--defsym=_ZNKSt13__future_base12_Result_base8_DeleterclEPS0_=so_stub_for_libtelux_cv2x
-Wl,--defsym=_ZNKSt13__future_base13_State_baseV221_M_is_deferred_futureEv=so_stub_for_libtelux_cv2x
-Wl,--defsym=_ZNKSt13__future_base13_State_baseV27_SetterIiOiEclEv=so_stub_for_libtelux_cv2x
-Wl,--defsym=_ZNKSt13__future_base13_State_baseV27_SetterIiRKiEclEv=so_stub_for_libtelux_cv2x
-Wl,--defsym=_ZNKSt13__future_base13_State_baseV27_SetterIN5telux6common9ErrorCodeEOS4_EclEv=so_stub_for_libtelux_cv2x
-Wl,--defsym=_ZNKSt13__future_base13_State_baseV27_SetterIN5telux6common9ErrorCodeERKS4_EclEv=so_stub_for_libtelux_cv2x
-Wl,--defsym=_ZNKSt13move_iteratorIPjE4baseEv=so_stub_for_libtelux_cv2x
-Wl,--defsym=_ZNKSt13move_iteratorIPN5telux4cv2x12TxPoolIdInfoEE4baseEv=so_stub_for_libtelux_cv2x
-Wl,--defsym=_ZNKSt13move_iteratorIPN5telux4cv2x14Cv2xPoolStatusEE4baseEv=so_stub_for_libtelux_cv2x
-Wl,--defsym=_ZNKSt13move_iteratorIPN5telux4cv2x14Cv2xPoolStatusEEdeEv=so_stub_for_libtelux_cv2x
-Wl,--defsym=_ZNKSt13move_iteratorIPSt10shared_ptrIN5telux4cv2x11ICv2xTxFlowEEE4baseEv=so_stub_for_libtelux_cv2x
-Wl,--defsym=_ZNKSt13move_iteratorIPSt10shared_ptrIN5telux4cv2x11ICv2xTxFlowEEEdeEv=so_stub_for_libtelux_cv2x
-Wl,--defsym=_ZNKSt13move_iteratorIPSt4pairIbSt8weak_ptrIN5telux4cv2x18ICv2xRadioListenerEEEE4baseEv=so_stub_for_libtelux_cv2x
-Wl,--defsym=_ZNKSt13move_iteratorIPSt4pairIbSt8weak_ptrIN5telux4cv2x18ICv2xRadioListenerEEEEdeEv=so_stub_for_libtelux_cv2x
-Wl,--defsym=_ZNKSt13move_iteratorIPSt8weak_ptrIN5telux4cv2x13ICv2xListenerEEE4baseEv=so_stub_for_libtelux_cv2x
-Wl,--defsym=_ZNKSt13move_iteratorIPSt8weak_ptrIN5telux4cv2x13ICv2xListenerEEEdeEv=so_stub_for_libtelux_cv2x
-Wl,--defsym=_ZNKSt13move_iteratorIPSt8weak_ptrIN5telux4cv2x19ICv2xConfigListenerEEE4baseEv=so_stub_for_libtelux_cv2x
-Wl,--defsym=_ZNKSt13move_iteratorIPSt8weak_ptrIN5telux4cv2x19ICv2xConfigListenerEEEdeEv=so_stub_for_libtelux_cv2x
-Wl,--defsym=_ZNKSt13move_iteratorIPSt8weak_ptrIN5telux4cv2x20ICv2xSysCtrlListenerEEE4baseEv=so_stub_for_libtelux_cv2x
-Wl,--defsym=_ZNKSt13move_iteratorIPSt8weak_ptrIN5telux4cv2x20ICv2xSysCtrlListenerEEEdeEv=so_stub_for_libtelux_cv2x
-Wl,--defsym=_ZNKSt13move_iteratorIPyE4baseEv=so_stub_for_libtelux_cv2x
-Wl,--defsym=_ZNKSt13_Rb_tree_nodeISt4pairIKjSt10shared_ptrIN5telux4cv2x11ICv2xTxFlowEEEE9_M_valptrEv=so_stub_for_libtelux_cv2x
-Wl,--defsym=_ZNKSt13_Rb_tree_nodeISt4pairIKjSt10shared_ptrIN5telux4cv2x15ICv2xTxRxSocketEEEE9_M_valptrEv=so_stub_for_libtelux_cv2x
-Wl,--defsym=_ZNKSt13_Rb_tree_nodeISt4pairIKjSt10shared_ptrIN5telux4cv2x19ICv2xRxSubscriptionEEEE9_M_valptrEv=so_stub_for_libtelux_cv2x
-Wl,--defsym=_ZNKSt13_Rb_tree_nodeISt4pairIKjSt10unique_ptrINSt7__cxx1112basic_stringIcSt11char_traitsIcESaIcEEESt14default_deleteIS8_EEEE9_M_valptrEv=so_stub_for_libtelux_cv2x
-Wl,--defsym=_ZNKSt14__basic_futureIbE13_M_get_resultEv=so_stub_for_libtelux_cv2x
-Wl,--defsym=_ZNKSt14__basic_futureIiE13_M_get_resultEv=so_stub_for_libtelux_cv2x
-Wl,--defsym=_ZNKSt14__basic_futureIN5telux6common6StatusEE13_M_get_resultEv=so_stub_for_libtelux_cv2x
-Wl,--defsym=_ZNKSt14__basic_futureIN5telux6common9ErrorCodeEE13_M_get_resultEv=so_stub_for_libtelux_cv2x
-Wl,--defsym=_ZNKSt14__basic_futureIvE10wait_untilINSt6chrono3_V212system_clockENS2_8durationIxSt5ratioILx1ELx1000000000EEEEEESt13future_statusRKNS2_10time_pointIT_T0_EE=so_stub_for_libtelux_cv2x
-Wl,--defsym=_ZNKSt14__basic_futureIvE5validEv=so_stub_for_libtelux_cv2x
-Wl,--defsym=_ZNKSt14default_deleteINSt6thread6_StateEEclEPS1_=so_stub_for_libtelux_cv2x
-Wl,--defsym=_ZNKSt14default_deleteINSt7__cxx1112basic_stringIcSt11char_traitsIcESaIcEEEEclEPS5_=so_stub_for_libtelux_cv2x
-Wl,--defsym=_ZNKSt14_Function_base8_M_emptyEv=so_stub_for_libtelux_cv2x
-Wl,--defsym=_ZNKSt14_List_iteratorISt10shared_ptrIN5telux4cv2x13EventInfoBaseEEEdeEv=so_stub_for_libtelux_cv2x
-Wl,--defsym=_ZNKSt14_List_iteratorISt10shared_ptrIN5telux4cv2x13EventInfoBaseEEEneERKS5_=so_stub_for_libtelux_cv2x
-Wl,--defsym=_ZNKSt14__shared_countILN9__gnu_cxx12_Lock_policyE2EE14_M_get_deleterERKSt9type_info=so_stub_for_libtelux_cv2x
-Wl,--defsym=_ZNKSt14__shared_countILN9__gnu_cxx12_Lock_policyE2EE16_M_get_use_countEv=so_stub_for_libtelux_cv2x
-Wl,--defsym=_ZNKSt14__shared_countILN9__gnu_cxx12_Lock_policyE2EE9_M_uniqueEv=so_stub_for_libtelux_cv2x
-Wl,--defsym=_ZNKSt15_Deque_iteratorISt13shared_futureIvERKS1_PS2_E13_M_const_castEv=so_stub_for_libtelux_cv2x
-Wl,--defsym=_ZNKSt15_Deque_iteratorISt13shared_futureIvERS1_PS1_EplEi=so_stub_for_libtelux_cv2x
-Wl,--defsym=_ZNKSt15_Deque_iteratorISt13shared_futureIvERS1_PS1_EptEv=so_stub_for_libtelux_cv2x
-Wl,--defsym=_ZNKSt15error_condition5valueEv=so_stub_for_libtelux_cv2x
-Wl,--defsym=_ZNKSt15error_condition8categoryEv=so_stub_for_libtelux_cv2x
-Wl,--defsym=_ZNKSt15__uniq_ptr_implINSt13__future_base12_Result_baseENS1_8_DeleterEE6_M_ptrEv=so_stub_for_libtelux_cv2x
-Wl,--defsym=_ZNKSt15__uniq_ptr_implINSt13__future_base7_ResultIbEENS0_12_Result_base8_DeleterEE6_M_ptrEv=so_stub_for_libtelux_cv2x
-Wl,--defsym=_ZNKSt15__uniq_ptr_implINSt13__future_base7_ResultIiEENS0_12_Result_base8_DeleterEE6_M_ptrEv=so_stub_for_libtelux_cv2x
-Wl,--defsym=_ZNKSt15__uniq_ptr_implINSt13__future_base7_ResultIN5telux6common6StatusEEENS0_12_Result_base8_DeleterEE6_M_ptrEv=so_stub_for_libtelux_cv2x
-Wl,--defsym=_ZNKSt15__uniq_ptr_implINSt13__future_base7_ResultIN5telux6common9ErrorCodeEEENS0_12_Result_base8_DeleterEE6_M_ptrEv=so_stub_for_libtelux_cv2x
-Wl,--defsym=_ZNKSt15__uniq_ptr_implINSt13__future_base7_ResultIvEENS0_12_Result_base8_DeleterEE6_M_ptrEv=so_stub_for_libtelux_cv2x
-Wl,--defsym=_ZNKSt15__uniq_ptr_implINSt7__cxx1112basic_stringIcSt11char_traitsIcESaIcEEESt14default_deleteIS5_EE6_M_ptrEv=so_stub_for_libtelux_cv2x
-Wl,--defsym=_ZNKSt16initializer_listISt10shared_ptrIN5telux4cv2x11ICv2xTxFlowEEE3endEv=so_stub_for_libtelux_cv2x
-Wl,--defsym=_ZNKSt16initializer_listISt10shared_ptrIN5telux4cv2x11ICv2xTxFlowEEE4sizeEv=so_stub_for_libtelux_cv2x
-Wl,--defsym=_ZNKSt16initializer_listISt10shared_ptrIN5telux4cv2x11ICv2xTxFlowEEE5beginEv=so_stub_for_libtelux_cv2x
-Wl,--defsym=_ZNKSt16_Sp_counted_baseILN9__gnu_cxx12_Lock_policyE2EE16_M_get_use_countEv=so_stub_for_libtelux_cv2x
-Wl,--defsym=_ZNKSt17_Rb_tree_iteratorISt4pairIKjSt10shared_ptrIN5telux4cv2x11ICv2xTxFlowEEEEdeEv=so_stub_for_libtelux_cv2x
-Wl,--defsym=_ZNKSt17_Rb_tree_iteratorISt4pairIKjSt10shared_ptrIN5telux4cv2x11ICv2xTxFlowEEEEeqERKS8_=so_stub_for_libtelux_cv2x
-Wl,--defsym=_ZNKSt17_Rb_tree_iteratorISt4pairIKjSt10shared_ptrIN5telux4cv2x11ICv2xTxFlowEEEEneERKS8_=so_stub_for_libtelux_cv2x
-Wl,--defsym=_ZNKSt17_Rb_tree_iteratorISt4pairIKjSt10shared_ptrIN5telux4cv2x15ICv2xTxRxSocketEEEEdeEv=so_stub_for_libtelux_cv2x
-Wl,--defsym=_ZNKSt17_Rb_tree_iteratorISt4pairIKjSt10shared_ptrIN5telux4cv2x15ICv2xTxRxSocketEEEEeqERKS8_=so_stub_for_libtelux_cv2x
-Wl,--defsym=_ZNKSt17_Rb_tree_iteratorISt4pairIKjSt10shared_ptrIN5telux4cv2x15ICv2xTxRxSocketEEEEneERKS8_=so_stub_for_libtelux_cv2x
-Wl,--defsym=_ZNKSt17_Rb_tree_iteratorISt4pairIKjSt10shared_ptrIN5telux4cv2x15ICv2xTxRxSocketEEEEptEv=so_stub_for_libtelux_cv2x
-Wl,--defsym=_ZNKSt17_Rb_tree_iteratorISt4pairIKjSt10shared_ptrIN5telux4cv2x19ICv2xRxSubscriptionEEEEdeEv=so_stub_for_libtelux_cv2x
-Wl,--defsym=_ZNKSt17_Rb_tree_iteratorISt4pairIKjSt10shared_ptrIN5telux4cv2x19ICv2xRxSubscriptionEEEEeqERKS8_=so_stub_for_libtelux_cv2x
-Wl,--defsym=_ZNKSt17_Rb_tree_iteratorISt4pairIKjSt10shared_ptrIN5telux4cv2x19ICv2xRxSubscriptionEEEEneERKS8_=so_stub_for_libtelux_cv2x
-Wl,--defsym=_ZNKSt17_Rb_tree_iteratorISt4pairIKjSt10shared_ptrIN5telux4cv2x19ICv2xRxSubscriptionEEEEptEv=so_stub_for_libtelux_cv2x
-Wl,--defsym=_ZNKSt17_Rb_tree_iteratorISt4pairIKjSt10unique_ptrINSt7__cxx1112basic_stringIcSt11char_traitsIcESaIcEEESt14default_deleteIS8_EEEEdeEv=so_stub_for_libtelux_cv2x
-Wl,--defsym=_ZNKSt17_Rb_tree_iteratorISt4pairIKjSt10unique_ptrINSt7__cxx1112basic_stringIcSt11char_traitsIcESaIcEEESt14default_deleteIS8_EEEEeqERKSD_=so_stub_for_libtelux_cv2x
-Wl,--defsym=_ZNKSt17_Rb_tree_iteratorISt4pairIKjSt10unique_ptrINSt7__cxx1112basic_stringIcSt11char_traitsIcESaIcEEESt14default_deleteIS8_EEEEneERKSD_=so_stub_for_libtelux_cv2x
-Wl,--defsym=_ZNKSt19__shared_ptr_accessIN5telux3qmi12DmsQmiClientELN9__gnu_cxx12_Lock_policyE2ELb0ELb0EE6_M_getEv=so_stub_for_libtelux_cv2x
-Wl,--defsym=_ZNKSt19__shared_ptr_accessIN5telux3qmi12DmsQmiClientELN9__gnu_cxx12_Lock_policyE2ELb0ELb0EEptEv=so_stub_for_libtelux_cv2x
-Wl,--defsym=_ZNKSt19__shared_ptr_accessIN5telux3qmi12NasQmiClientELN9__gnu_cxx12_Lock_policyE2ELb0ELb0EE6_M_getEv=so_stub_for_libtelux_cv2x
-Wl,--defsym=_ZNKSt19__shared_ptr_accessIN5telux3qmi12NasQmiClientELN9__gnu_cxx12_Lock_policyE2ELb0ELb0EEptEv=so_stub_for_libtelux_cv2x
-Wl,--defsym=_ZNKSt19__shared_ptr_accessIN5telux3qmi12WdsQmiClientELN9__gnu_cxx12_Lock_policyE2ELb0ELb0EE6_M_getEv=so_stub_for_libtelux_cv2x
-Wl,--defsym=_ZNKSt19__shared_ptr_accessIN5telux3qmi12WdsQmiClientELN9__gnu_cxx12_Lock_policyE2ELb0ELb0EEptEv=so_stub_for_libtelux_cv2x
-Wl,--defsym=_ZNKSt19__shared_ptr_accessIN5telux4cv2x10Cv2xConfigELN9__gnu_cxx12_Lock_policyE2ELb0ELb0EE6_M_getEv=so_stub_for_libtelux_cv2x
-Wl,--defsym=_ZNKSt19__shared_ptr_accessIN5telux4cv2x10Cv2xConfigELN9__gnu_cxx12_Lock_policyE2ELb0ELb0EEptEv=so_stub_for_libtelux_cv2x
-Wl,--defsym=_ZNKSt19__shared_ptr_accessIN5telux4cv2x10ICv2xRadioELN9__gnu_cxx12_Lock_policyE2ELb0ELb0EE6_M_getEv=so_stub_for_libtelux_cv2x
-Wl,--defsym=_ZNKSt19__shared_ptr_accessIN5telux4cv2x10ICv2xRadioELN9__gnu_cxx12_Lock_policyE2ELb0ELb0EEptEv=so_stub_for_libtelux_cv2x
-Wl,--defsym=_ZNKSt19__shared_ptr_accessIN5telux4cv2x11Cv2xSysCtrlELN9__gnu_cxx12_Lock_policyE2ELb0ELb0EE6_M_getEv=so_stub_for_libtelux_cv2x
-Wl,--defsym=_ZNKSt19__shared_ptr_accessIN5telux4cv2x11Cv2xSysCtrlELN9__gnu_cxx12_Lock_policyE2ELb0ELb0EEptEv=so_stub_for_libtelux_cv2x
-Wl,--defsym=_ZNKSt19__shared_ptr_accessIN5telux4cv2x11ICv2xTxFlowELN9__gnu_cxx12_Lock_policyE2ELb0ELb0EE6_M_getEv=so_stub_for_libtelux_cv2x
-Wl,--defsym=_ZNKSt19__shared_ptr_accessIN5telux4cv2x11ICv2xTxFlowELN9__gnu_cxx12_Lock_policyE2ELb0ELb0EEptEv=so_stub_for_libtelux_cv2x
-Wl,--defsym=_ZNKSt19__shared_ptr_accessIN5telux4cv2x12DsiCv2xRadioELN9__gnu_cxx12_Lock_policyE2ELb0ELb0EE6_M_getEv=so_stub_for_libtelux_cv2x
-Wl,--defsym=_ZNKSt19__shared_ptr_accessIN5telux4cv2x12DsiCv2xRadioELN9__gnu_cxx12_Lock_policyE2ELb0ELb0EEptEv=so_stub_for_libtelux_cv2x
-Wl,--defsym=_ZNKSt19__shared_ptr_accessIN5telux4cv2x12EventHandlerELN9__gnu_cxx12_Lock_policyE2ELb0ELb0EE6_M_getEv=so_stub_for_libtelux_cv2x
-Wl,--defsym=_ZNKSt19__shared_ptr_accessIN5telux4cv2x12EventHandlerELN9__gnu_cxx12_Lock_policyE2ELb0ELb0EEptEv=so_stub_for_libtelux_cv2x
-Wl,--defsym=_ZNKSt19__shared_ptr_accessIN5telux4cv2x13Cv2xTxSpsFlowELN9__gnu_cxx12_Lock_policyE2ELb0ELb0EE6_M_getEv=so_stub_for_libtelux_cv2x
-Wl,--defsym=_ZNKSt19__shared_ptr_accessIN5telux4cv2x13Cv2xTxSpsFlowELN9__gnu_cxx12_Lock_policyE2ELb0ELb0EEptEv=so_stub_for_libtelux_cv2x
-Wl,--defsym=_ZNKSt19__shared_ptr_accessIN5telux4cv2x13EventInfoBaseELN9__gnu_cxx12_Lock_policyE2ELb0ELb0EE6_M_getEv=so_stub_for_libtelux_cv2x
-Wl,--defsym=_ZNKSt19__shared_ptr_accessIN5telux4cv2x13EventInfoBaseELN9__gnu_cxx12_Lock_policyE2ELb0ELb0EEptEv=so_stub_for_libtelux_cv2x
-Wl,--defsym=_ZNKSt19__shared_ptr_accessIN5telux4cv2x13ICv2xListenerELN9__gnu_cxx12_Lock_policyE2ELb0ELb0EE6_M_getEv=so_stub_for_libtelux_cv2x
-Wl,--defsym=_ZNKSt19__shared_ptr_accessIN5telux4cv2x13ICv2xListenerELN9__gnu_cxx12_Lock_policyE2ELb0ELb0EEptEv=so_stub_for_libtelux_cv2x
-Wl,--defsym=_ZNKSt19__shared_ptr_accessIN5telux4cv2x14Cv2xTxRxSocketELN9__gnu_cxx12_Lock_policyE2ELb0ELb0EE6_M_getEv=so_stub_for_libtelux_cv2x
-Wl,--defsym=_ZNKSt19__shared_ptr_accessIN5telux4cv2x14Cv2xTxRxSocketELN9__gnu_cxx12_Lock_policyE2ELb0ELb0EEptEv=so_stub_for_libtelux_cv2x
-Wl,--defsym=_ZNKSt19__shared_ptr_accessIN5telux4cv2x14IndicationDataELN9__gnu_cxx12_Lock_policyE2ELb0ELb0EE6_M_getEv=so_stub_for_libtelux_cv2x
-Wl,--defsym=_ZNKSt19__shared_ptr_accessIN5telux4cv2x14IndicationDataELN9__gnu_cxx12_Lock_policyE2ELb0ELb0EEptEv=so_stub_for_libtelux_cv2x
-Wl,--defsym=_ZNKSt19__shared_ptr_accessIN5telux4cv2x15Cv2xTxEventFlowELN9__gnu_cxx12_Lock_policyE2ELb0ELb0EE6_M_getEv=so_stub_for_libtelux_cv2x
-Wl,--defsym=_ZNKSt19__shared_ptr_accessIN5telux4cv2x15Cv2xTxEventFlowELN9__gnu_cxx12_Lock_policyE2ELb0ELb0EEptEv=so_stub_for_libtelux_cv2x
-Wl,--defsym=_ZNKSt19__shared_ptr_accessIN5telux4cv2x15EventDispatcherELN9__gnu_cxx12_Lock_policyE2ELb0ELb0EE6_M_getEv=so_stub_for_libtelux_cv2x
-Wl,--defsym=_ZNKSt19__shared_ptr_accessIN5telux4cv2x15EventDispatcherELN9__gnu_cxx12_Lock_policyE2ELb0ELb0EEptEv=so_stub_for_libtelux_cv2x
-Wl,--defsym=_ZNKSt19__shared_ptr_accessIN5telux4cv2x15ICv2xTxRxSocketELN9__gnu_cxx12_Lock_policyE2ELb0ELb0EE6_M_getEv=so_stub_for_libtelux_cv2x
-Wl,--defsym=_ZNKSt19__shared_ptr_accessIN5telux4cv2x15ICv2xTxRxSocketELN9__gnu_cxx12_Lock_policyE2ELb0ELb0EEptEv=so_stub_for_libtelux_cv2x
-Wl,--defsym=_ZNKSt19__shared_ptr_accessIN5telux4cv2x16Cv2xIndsListenerELN9__gnu_cxx12_Lock_policyE2ELb0ELb0EE6_M_getEv=so_stub_for_libtelux_cv2x
-Wl,--defsym=_ZNKSt19__shared_ptr_accessIN5telux4cv2x16Cv2xIndsListenerELN9__gnu_cxx12_Lock_policyE2ELb0ELb0EEptEv=so_stub_for_libtelux_cv2x
-Wl,--defsym=_ZNKSt19__shared_ptr_accessIN5telux4cv2x16Cv2xRadioManagerELN9__gnu_cxx12_Lock_policyE2ELb0ELb0EE6_M_getEv=so_stub_for_libtelux_cv2x
-Wl,--defsym=_ZNKSt19__shared_ptr_accessIN5telux4cv2x16Cv2xRadioManagerELN9__gnu_cxx12_Lock_policyE2ELb0ELb0EEptEv=so_stub_for_libtelux_cv2x
-Wl,--defsym=_ZNKSt19__shared_ptr_accessIN5telux4cv2x17ServiceStatusDataELN9__gnu_cxx12_Lock_policyE2ELb0ELb0EE6_M_getEv=so_stub_for_libtelux_cv2x
-Wl,--defsym=_ZNKSt19__shared_ptr_accessIN5telux4cv2x17ServiceStatusDataELN9__gnu_cxx12_Lock_policyE2ELb0ELb0EEptEv=so_stub_for_libtelux_cv2x
-Wl,--defsym=_ZNKSt19__shared_ptr_accessIN5telux4cv2x18Cv2xConfigListenerELN9__gnu_cxx12_Lock_policyE2ELb0ELb0EE6_M_getEv=so_stub_for_libtelux_cv2x
-Wl,--defsym=_ZNKSt19__shared_ptr_accessIN5telux4cv2x18Cv2xConfigListenerELN9__gnu_cxx12_Lock_policyE2ELb0ELb0EEptEv=so_stub_for_libtelux_cv2x
-Wl,--defsym=_ZNKSt19__shared_ptr_accessIN5telux4cv2x18Cv2xRxSubscriptionELN9__gnu_cxx12_Lock_policyE2ELb0ELb0EE6_M_getEv=so_stub_for_libtelux_cv2x
-Wl,--defsym=_ZNKSt19__shared_ptr_accessIN5telux4cv2x18Cv2xRxSubscriptionELN9__gnu_cxx12_Lock_policyE2ELb0ELb0EEptEv=so_stub_for_libtelux_cv2x
-Wl,--defsym=_ZNKSt19__shared_ptr_accessIN5telux4cv2x18ICv2xRadioListenerELN9__gnu_cxx12_Lock_policyE2ELb0ELb0EE6_M_getEv=so_stub_for_libtelux_cv2x
-Wl,--defsym=_ZNKSt19__shared_ptr_accessIN5telux4cv2x18ICv2xRadioListenerELN9__gnu_cxx12_Lock_policyE2ELb0ELb0EEptEv=so_stub_for_libtelux_cv2x
-Wl,--defsym=_ZNKSt19__shared_ptr_accessIN5telux4cv2x19ICv2xConfigListenerELN9__gnu_cxx12_Lock_policyE2ELb0ELb0EE6_M_getEv=so_stub_for_libtelux_cv2x
-Wl,--defsym=_ZNKSt19__shared_ptr_accessIN5telux4cv2x19ICv2xConfigListenerELN9__gnu_cxx12_Lock_policyE2ELb0ELb0EEptEv=so_stub_for_libtelux_cv2x
-Wl,--defsym=_ZNKSt19__shared_ptr_accessIN5telux4cv2x19ICv2xRxSubscriptionELN9__gnu_cxx12_Lock_policyE2ELb0ELb0EE6_M_getEv=so_stub_for_libtelux_cv2x
-Wl,--defsym=_ZNKSt19__shared_ptr_accessIN5telux4cv2x19ICv2xRxSubscriptionELN9__gnu_cxx12_Lock_policyE2ELb0ELb0EEptEv=so_stub_for_libtelux_cv2x
-Wl,--defsym=_ZNKSt19__shared_ptr_accessIN5telux4cv2x20ICv2xSysCtrlListenerELN9__gnu_cxx12_Lock_policyE2ELb0ELb0EE6_M_getEv=so_stub_for_libtelux_cv2x
-Wl,--defsym=_ZNKSt19__shared_ptr_accessIN5telux4cv2x20ICv2xSysCtrlListenerELN9__gnu_cxx12_Lock_policyE2ELb0ELb0EEptEv=so_stub_for_libtelux_cv2x
-Wl,--defsym=_ZNKSt19__shared_ptr_accessIN5telux4cv2x21QmiNasIndsRegCallbackELN9__gnu_cxx12_Lock_policyE2ELb0ELb0EE6_M_getEv=so_stub_for_libtelux_cv2x
-Wl,--defsym=_ZNKSt19__shared_ptr_accessIN5telux4cv2x21QmiNasIndsRegCallbackELN9__gnu_cxx12_Lock_policyE2ELb0ELb0EEptEv=so_stub_for_libtelux_cv2x
-Wl,--defsym=_ZNKSt19__shared_ptr_accessIN5telux4cv2x21ServiceStatusListenerELN9__gnu_cxx12_Lock_policyE2ELb0ELb0EE6_M_getEv=so_stub_for_libtelux_cv2x
-Wl,--defsym=_ZNKSt19__shared_ptr_accessIN5telux4cv2x21ServiceStatusListenerELN9__gnu_cxx12_Lock_policyE2ELb0ELb0EEptEv=so_stub_for_libtelux_cv2x
-Wl,--defsym=_ZNKSt19__shared_ptr_accessIN5telux4cv2x25QmiSetEventReportCallbackELN9__gnu_cxx12_Lock_policyE2ELb0ELb0EE6_M_getEv=so_stub_for_libtelux_cv2x
-Wl,--defsym=_ZNKSt19__shared_ptr_accessIN5telux4cv2x25QmiSetEventReportCallbackELN9__gnu_cxx12_Lock_policyE2ELb0ELb0EEptEv=so_stub_for_libtelux_cv2x
-Wl,--defsym=_ZNKSt19__shared_ptr_accessIN5telux4cv2x27QmiGetOperatingModeCallbackELN9__gnu_cxx12_Lock_policyE2ELb0ELb0EE6_M_getEv=so_stub_for_libtelux_cv2x
-Wl,--defsym=_ZNKSt19__shared_ptr_accessIN5telux4cv2x27QmiGetOperatingModeCallbackELN9__gnu_cxx12_Lock_policyE2ELb0ELb0EEptEv=so_stub_for_libtelux_cv2x
-Wl,--defsym=_ZNKSt19__shared_ptr_accessIN5telux4cv2x27QmiSetOperatingModeCallbackELN9__gnu_cxx12_Lock_policyE2ELb0ELb0EE6_M_getEv=so_stub_for_libtelux_cv2x
-Wl,--defsym=_ZNKSt19__shared_ptr_accessIN5telux4cv2x27QmiSetOperatingModeCallbackELN9__gnu_cxx12_Lock_policyE2ELb0ELb0EEptEv=so_stub_for_libtelux_cv2x
-Wl,--defsym=_ZNKSt19__shared_ptr_accessIN5telux4cv2x30QmiV2xGetConfigurationCallbackELN9__gnu_cxx12_Lock_policyE2ELb0ELb0EE6_M_getEv=so_stub_for_libtelux_cv2x
-Wl,--defsym=_ZNKSt19__shared_ptr_accessIN5telux4cv2x30QmiV2xGetConfigurationCallbackELN9__gnu_cxx12_Lock_policyE2ELb0ELb0EEptEv=so_stub_for_libtelux_cv2x
-Wl,--defsym=_ZNKSt19__shared_ptr_accessIN5telux4cv2x31QmiV2xRegisterConfigIndCallbackELN9__gnu_cxx12_Lock_policyE2ELb0ELb0EE6_M_getEv=so_stub_for_libtelux_cv2x
-Wl,--defsym=_ZNKSt19__shared_ptr_accessIN5telux4cv2x31QmiV2xRegisterConfigIndCallbackELN9__gnu_cxx12_Lock_policyE2ELb0ELb0EEptEv=so_stub_for_libtelux_cv2x
-Wl,--defsym=_ZNKSt19__shared_ptr_accessIN5telux4cv2x31SysctrlGetConfigurationCallbackELN9__gnu_cxx12_Lock_policyE2ELb0ELb0EE6_M_getEv=so_stub_for_libtelux_cv2x
-Wl,--defsym=_ZNKSt19__shared_ptr_accessIN5telux4cv2x31SysctrlGetConfigurationCallbackELN9__gnu_cxx12_Lock_policyE2ELb0ELb0EEptEv=so_stub_for_libtelux_cv2x
-Wl,--defsym=_ZNKSt19__shared_ptr_accessIN5telux4cv2x35QmiV2xSendConfigurationFileCallbackELN9__gnu_cxx12_Lock_policyE2ELb0ELb0EE6_M_getEv=so_stub_for_libtelux_cv2x
-Wl,--defsym=_ZNKSt19__shared_ptr_accessIN5telux4cv2x35QmiV2xSendConfigurationFileCallbackELN9__gnu_cxx12_Lock_policyE2ELb0ELb0EEptEv=so_stub_for_libtelux_cv2x
-Wl,--defsym=_ZNKSt19__shared_ptr_accessIN5telux4data9DsiClientELN9__gnu_cxx12_Lock_policyE2ELb0ELb0EE6_M_getEv=so_stub_for_libtelux_cv2x
-Wl,--defsym=_ZNKSt19__shared_ptr_accessIN5telux4data9DsiClientELN9__gnu_cxx12_Lock_policyE2ELb0ELb0EEptEv=so_stub_for_libtelux_cv2x
-Wl,--defsym=_ZNKSt19__shared_ptr_accessIN5telux6common15ListenerManagerINS0_4cv2x13ICv2xListenerEEELN9__gnu_cxx12_Lock_policyE2ELb0ELb0EE6_M_getEv=so_stub_for_libtelux_cv2x
-Wl,--defsym=_ZNKSt19__shared_ptr_accessIN5telux6common15ListenerManagerINS0_4cv2x13ICv2xListenerEEELN9__gnu_cxx12_Lock_policyE2ELb0ELb0EEptEv=so_stub_for_libtelux_cv2x
-Wl,--defsym=_ZNKSt19__shared_ptr_accessIN5telux6common15ListenerManagerINS0_4cv2x19ICv2xConfigListenerEEELN9__gnu_cxx12_Lock_policyE2ELb0ELb0EE6_M_getEv=so_stub_for_libtelux_cv2x
-Wl,--defsym=_ZNKSt19__shared_ptr_accessIN5telux6common15ListenerManagerINS0_4cv2x19ICv2xConfigListenerEEELN9__gnu_cxx12_Lock_policyE2ELb0ELb0EEptEv=so_stub_for_libtelux_cv2x
-Wl,--defsym=_ZNKSt19__shared_ptr_accessINSt13__future_base13_State_baseV2ELN9__gnu_cxx12_Lock_policyE2ELb0ELb0EE6_M_getEv=so_stub_for_libtelux_cv2x
-Wl,--defsym=_ZNKSt19__shared_ptr_accessINSt13__future_base13_State_baseV2ELN9__gnu_cxx12_Lock_policyE2ELb0ELb0EEptEv=so_stub_for_libtelux_cv2x
-Wl,--defsym=_ZNKSt19__shared_ptr_accessISt6threadLN9__gnu_cxx12_Lock_policyE2ELb0ELb0EE6_M_getEv=so_stub_for_libtelux_cv2x
-Wl,--defsym=_ZNKSt19__shared_ptr_accessISt6threadLN9__gnu_cxx12_Lock_policyE2ELb0ELb0EEptEv=so_stub_for_libtelux_cv2x
-Wl,--defsym=_ZNKSt23_Rb_tree_const_iteratorISt4pairIKjSt10shared_ptrIN5telux4cv2x11ICv2xTxFlowEEEE13_M_const_castEv=so_stub_for_libtelux_cv2x
-Wl,--defsym=_ZNKSt23_Rb_tree_const_iteratorISt4pairIKjSt10shared_ptrIN5telux4cv2x15ICv2xTxRxSocketEEEE13_M_const_castEv=so_stub_for_libtelux_cv2x
-Wl,--defsym=_ZNKSt23_Rb_tree_const_iteratorISt4pairIKjSt10shared_ptrIN5telux4cv2x19ICv2xRxSubscriptionEEEE13_M_const_castEv=so_stub_for_libtelux_cv2x
-Wl,--defsym=_ZNKSt23_Rb_tree_const_iteratorISt4pairIKjSt10unique_ptrINSt7__cxx1112basic_stringIcSt11char_traitsIcESaIcEEESt14default_deleteIS8_EEEE13_M_const_castEv=so_stub_for_libtelux_cv2x
-Wl,--defsym=_ZNKSt3mapIjSt10shared_ptrIN5telux4cv2x11ICv2xTxFlowEESt4lessIjESaISt4pairIKjS4_EEE4sizeEv=so_stub_for_libtelux_cv2x
-Wl,--defsym=_ZNKSt3mapIjSt10shared_ptrIN5telux4cv2x11ICv2xTxFlowEESt4lessIjESaISt4pairIKjS4_EEE8key_compEv=so_stub_for_libtelux_cv2x
-Wl,--defsym=_ZNKSt3mapIjSt10shared_ptrIN5telux4cv2x15ICv2xTxRxSocketEESt4lessIjESaISt4pairIKjS4_EEE4sizeEv=so_stub_for_libtelux_cv2x
-Wl,--defsym=_ZNKSt3mapIjSt10shared_ptrIN5telux4cv2x15ICv2xTxRxSocketEESt4lessIjESaISt4pairIKjS4_EEE8key_compEv=so_stub_for_libtelux_cv2x
-Wl,--defsym=_ZNKSt3mapIjSt10shared_ptrIN5telux4cv2x19ICv2xRxSubscriptionEESt4lessIjESaISt4pairIKjS4_EEE4sizeEv=so_stub_for_libtelux_cv2x
-Wl,--defsym=_ZNKSt3mapIjSt10shared_ptrIN5telux4cv2x19ICv2xRxSubscriptionEESt4lessIjESaISt4pairIKjS4_EEE8key_compEv=so_stub_for_libtelux_cv2x
-Wl,--defsym=_ZNKSt3mapIjSt10unique_ptrINSt7__cxx1112basic_stringIcSt11char_traitsIcESaIcEEESt14default_deleteIS6_EESt4lessIjESaISt4pairIKjS9_EEE4sizeEv=so_stub_for_libtelux_cv2x
-Wl,--defsym=_ZNKSt3mapIjSt10unique_ptrINSt7__cxx1112basic_stringIcSt11char_traitsIcESaIcEEESt14default_deleteIS6_EESt4lessIjESaISt4pairIKjS9_EEE8key_compEv=so_stub_for_libtelux_cv2x
-Wl,--defsym=_ZNKSt4fposI11__mbstate_tEcvxEv=so_stub_for_libtelux_cv2x
-Wl,--defsym=_ZNKSt4lessIjEclERKjS2_=so_stub_for_libtelux_cv2x
-Wl,--defsym=_ZNKSt5dequeISt13shared_futureIvESaIS1_EE4sizeEv=so_stub_for_libtelux_cv2x
-Wl,--defsym=_ZNKSt6atomicIbEcvbEv=so_stub_for_libtelux_cv2x
-Wl,--defsym=_ZNKSt6atomicIN5telux4cv2x16Cv2xRadioManager14Cv2xStartStageEE4loadESt12memory_order=so_stub_for_libtelux_cv2x
-Wl,--defsym=_ZNKSt6atomicIN5telux4cv2x16Cv2xRadioManager14Cv2xStartStageEEcvS3_Ev=so_stub_for_libtelux_cv2x
-Wl,--defsym=_ZNKSt6bitsetILj3EE15_Unchecked_testEj=so_stub_for_libtelux_cv2x
-Wl,--defsym=_ZNKSt6bitsetILj3EE3allEv=so_stub_for_libtelux_cv2x
-Wl,--defsym=_ZNKSt6bitsetILj3EE4testEj=so_stub_for_libtelux_cv2x
-Wl,--defsym=_ZNKSt6bitsetILj3EE8_M_checkEjPKc=so_stub_for_libtelux_cv2x
-Wl,--defsym=_ZNKSt6bitsetILj8EE8_M_checkEjPKc=so_stub_for_libtelux_cv2x
-Wl,--defsym=_ZNKSt6chrono10time_pointINS_3_V212system_clockENS_8durationIxSt5ratioILx1ELx1000000000EEEEE16time_since_epochEv=so_stub_for_libtelux_cv2x
-Wl,--defsym=_ZNKSt6chrono10time_pointINS_3_V212system_clockENS_8durationIxSt5ratioILx1ELx1EEEEE16time_since_epochEv=so_stub_for_libtelux_cv2x
-Wl,--defsym=_ZNKSt6chrono8durationIxSt5ratioILx1ELx1000000000EEE5countEv=so_stub_for_libtelux_cv2x
-Wl,--defsym=_ZNKSt6chrono8durationIxSt5ratioILx1ELx1000EEE5countEv=so_stub_for_libtelux_cv2x
-Wl,--defsym=_ZNKSt6chrono8durationIxSt5ratioILx1ELx1EEE5countEv=so_stub_for_libtelux_cv2x
-Wl,--defsym=_ZNKSt6thread8joinableEv=so_stub_for_libtelux_cv2x
-Wl,--defsym=_ZNKSt6vectorIjSaIjEE12_M_check_lenEjPKc=so_stub_for_libtelux_cv2x
-Wl,--defsym=_ZNKSt6vectorIjSaIjEE3endEv=so_stub_for_libtelux_cv2x
-Wl,--defsym=_ZNKSt6vectorIjSaIjEE4sizeEv=so_stub_for_libtelux_cv2x
-Wl,--defsym=_ZNKSt6vectorIjSaIjEE5beginEv=so_stub_for_libtelux_cv2x
-Wl,--defsym=_ZNKSt6vectorIjSaIjEE8max_sizeEv=so_stub_for_libtelux_cv2x
-Wl,--defsym=_ZNKSt6vectorIN5telux4cv2x12TxPoolIdInfoESaIS2_EE12_M_check_lenEjPKc=so_stub_for_libtelux_cv2x
-Wl,--defsym=_ZNKSt6vectorIN5telux4cv2x12TxPoolIdInfoESaIS2_EE3endEv=so_stub_for_libtelux_cv2x
-Wl,--defsym=_ZNKSt6vectorIN5telux4cv2x12TxPoolIdInfoESaIS2_EE4sizeEv=so_stub_for_libtelux_cv2x
-Wl,--defsym=_ZNKSt6vectorIN5telux4cv2x12TxPoolIdInfoESaIS2_EE5beginEv=so_stub_for_libtelux_cv2x
-Wl,--defsym=_ZNKSt6vectorIN5telux4cv2x12TxPoolIdInfoESaIS2_EE8max_sizeEv=so_stub_for_libtelux_cv2x
-Wl,--defsym=_ZNKSt6vectorIN5telux4cv2x13TrustedUEInfoESaIS2_EE3endEv=so_stub_for_libtelux_cv2x
-Wl,--defsym=_ZNKSt6vectorIN5telux4cv2x13TrustedUEInfoESaIS2_EE4sizeEv=so_stub_for_libtelux_cv2x
-Wl,--defsym=_ZNKSt6vectorIN5telux4cv2x13TrustedUEInfoESaIS2_EE5beginEv=so_stub_for_libtelux_cv2x
-Wl,--defsym=_ZNKSt6vectorIN5telux4cv2x13TrustedUEInfoESaIS2_EEixEj=so_stub_for_libtelux_cv2x
-Wl,--defsym=_ZNKSt6vectorIN5telux4cv2x14Cv2xPoolStatusESaIS2_EE12_M_check_lenEjPKc=so_stub_for_libtelux_cv2x
-Wl,--defsym=_ZNKSt6vectorIN5telux4cv2x14Cv2xPoolStatusESaIS2_EE3endEv=so_stub_for_libtelux_cv2x
-Wl,--defsym=_ZNKSt6vectorIN5telux4cv2x14Cv2xPoolStatusESaIS2_EE4sizeEv=so_stub_for_libtelux_cv2x
-Wl,--defsym=_ZNKSt6vectorIN5telux4cv2x14Cv2xPoolStatusESaIS2_EE5beginEv=so_stub_for_libtelux_cv2x
-Wl,--defsym=_ZNKSt6vectorIN5telux4cv2x14Cv2xPoolStatusESaIS2_EE8max_sizeEv=so_stub_for_libtelux_cv2x
-Wl,--defsym=_ZNKSt6vectorIN5telux4cv2x19DataSessionSettingsESaIS2_EE4sizeEv=so_stub_for_libtelux_cv2x
-Wl,--defsym=_ZNKSt6vectorISt10shared_ptrIN5telux4cv2x11ICv2xTxFlowEESaIS4_EE12_M_check_lenEjPKc=so_stub_for_libtelux_cv2x
-Wl,--defsym=_ZNKSt6vectorISt10shared_ptrIN5telux4cv2x11ICv2xTxFlowEESaIS4_EE3endEv=so_stub_for_libtelux_cv2x
-Wl,--defsym=_ZNKSt6vectorISt10shared_ptrIN5telux4cv2x11ICv2xTxFlowEESaIS4_EE4sizeEv=so_stub_for_libtelux_cv2x
-Wl,--defsym=_ZNKSt6vectorISt10shared_ptrIN5telux4cv2x11ICv2xTxFlowEESaIS4_EE5beginEv=so_stub_for_libtelux_cv2x
-Wl,--defsym=_ZNKSt6vectorISt10shared_ptrIN5telux4cv2x11ICv2xTxFlowEESaIS4_EE5emptyEv=so_stub_for_libtelux_cv2x
-Wl,--defsym=_ZNKSt6vectorISt10shared_ptrIN5telux4cv2x11ICv2xTxFlowEESaIS4_EE8max_sizeEv=so_stub_for_libtelux_cv2x
-Wl,--defsym=_ZNKSt6vectorISt10shared_ptrIN5telux4cv2x11ICv2xTxFlowEESaIS4_EEixEj=so_stub_for_libtelux_cv2x
-Wl,--defsym=_ZNKSt6vectorISt4pairIbSt8weak_ptrIN5telux4cv2x18ICv2xRadioListenerEEESaIS6_EE12_M_check_lenEjPKc=so_stub_for_libtelux_cv2x
-Wl,--defsym=_ZNKSt6vectorISt4pairIbSt8weak_ptrIN5telux4cv2x18ICv2xRadioListenerEEESaIS6_EE4sizeEv=so_stub_for_libtelux_cv2x
-Wl,--defsym=_ZNKSt6vectorISt4pairIbSt8weak_ptrIN5telux4cv2x18ICv2xRadioListenerEEESaIS6_EE6cbeginEv=so_stub_for_libtelux_cv2x
-Wl,--defsym=_ZNKSt6vectorISt4pairIbSt8weak_ptrIN5telux4cv2x18ICv2xRadioListenerEEESaIS6_EE8max_sizeEv=so_stub_for_libtelux_cv2x
-Wl,--defsym=_ZNKSt6vectorISt8weak_ptrIN5telux4cv2x13ICv2xListenerEESaIS4_EE12_M_check_lenEjPKc=so_stub_for_libtelux_cv2x
-Wl,--defsym=_ZNKSt6vectorISt8weak_ptrIN5telux4cv2x13ICv2xListenerEESaIS4_EE4sizeEv=so_stub_for_libtelux_cv2x
-Wl,--defsym=_ZNKSt6vectorISt8weak_ptrIN5telux4cv2x13ICv2xListenerEESaIS4_EE6cbeginEv=so_stub_for_libtelux_cv2x
-Wl,--defsym=_ZNKSt6vectorISt8weak_ptrIN5telux4cv2x13ICv2xListenerEESaIS4_EE8max_sizeEv=so_stub_for_libtelux_cv2x
-Wl,--defsym=_ZNKSt6vectorISt8weak_ptrIN5telux4cv2x19ICv2xConfigListenerEESaIS4_EE12_M_check_lenEjPKc=so_stub_for_libtelux_cv2x
-Wl,--defsym=_ZNKSt6vectorISt8weak_ptrIN5telux4cv2x19ICv2xConfigListenerEESaIS4_EE4sizeEv=so_stub_for_libtelux_cv2x
-Wl,--defsym=_ZNKSt6vectorISt8weak_ptrIN5telux4cv2x19ICv2xConfigListenerEESaIS4_EE6cbeginEv=so_stub_for_libtelux_cv2x
-Wl,--defsym=_ZNKSt6vectorISt8weak_ptrIN5telux4cv2x19ICv2xConfigListenerEESaIS4_EE8max_sizeEv=so_stub_for_libtelux_cv2x
-Wl,--defsym=_ZNKSt6vectorISt8weak_ptrIN5telux4cv2x20ICv2xSysCtrlListenerEESaIS4_EE12_M_check_lenEjPKc=so_stub_for_libtelux_cv2x
-Wl,--defsym=_ZNKSt6vectorISt8weak_ptrIN5telux4cv2x20ICv2xSysCtrlListenerEESaIS4_EE4sizeEv=so_stub_for_libtelux_cv2x
-Wl,--defsym=_ZNKSt6vectorISt8weak_ptrIN5telux4cv2x20ICv2xSysCtrlListenerEESaIS4_EE6cbeginEv=so_stub_for_libtelux_cv2x
-Wl,--defsym=_ZNKSt6vectorISt8weak_ptrIN5telux4cv2x20ICv2xSysCtrlListenerEESaIS4_EE8max_sizeEv=so_stub_for_libtelux_cv2x
-Wl,--defsym=_ZNKSt6vectorIySaIyEE12_M_check_lenEjPKc=so_stub_for_libtelux_cv2x
-Wl,--defsym=_ZNKSt6vectorIySaIyEE3endEv=so_stub_for_libtelux_cv2x
-Wl,--defsym=_ZNKSt6vectorIySaIyEE4sizeEv=so_stub_for_libtelux_cv2x
-Wl,--defsym=_ZNKSt6vectorIySaIyEE5beginEv=so_stub_for_libtelux_cv2x
-Wl,--defsym=_ZNKSt6vectorIySaIyEE8max_sizeEv=so_stub_for_libtelux_cv2x
-Wl,--defsym=_ZNKSt7__cxx1110_List_baseISt10shared_ptrIN5telux4cv2x13EventInfoBaseEESaIS5_EE11_M_get_sizeEv=so_stub_for_libtelux_cv2x
-Wl,--defsym=_ZNKSt7__cxx114listISt10shared_ptrIN5telux4cv2x13EventInfoBaseEESaIS5_EE13_M_node_countEv=so_stub_for_libtelux_cv2x
-Wl,--defsym=_ZNKSt7__cxx114listISt10shared_ptrIN5telux4cv2x13EventInfoBaseEESaIS5_EE4sizeEv=so_stub_for_libtelux_cv2x
-Wl,--defsym=_ZNKSt7__cxx114listISt10shared_ptrIN5telux4cv2x13EventInfoBaseEESaIS5_EE5emptyEv=so_stub_for_libtelux_cv2x
-Wl,--defsym=_ZNKSt8functionIFbN5telux6common13ServiceStatusEEEclES2_=so_stub_for_libtelux_cv2x
-Wl,--defsym=_ZNKSt8functionIFbN5telux6common13ServiceStatusEEEcvbEv=so_stub_for_libtelux_cv2x
-Wl,--defsym=_ZNKSt8functionIFbPKciEEclES1_i=so_stub_for_libtelux_cv2x
-Wl,--defsym=_ZNKSt8functionIFbPKciEEcvbEv=so_stub_for_libtelux_cv2x
-Wl,--defsym=_ZNKSt8functionIFN5telux6common9ErrorCodeEPK15cv2x_msg_info_tEEclES5_=so_stub_for_libtelux_cv2x
-Wl,--defsym=_ZNKSt8functionIFN5telux6common9ErrorCodeEPK15cv2x_msg_info_tEEcvbEv=so_stub_for_libtelux_cv2x
-Wl,--defsym=_ZNKSt8functionIFSt10unique_ptrINSt13__future_base12_Result_baseENS2_8_DeleterEEvEEclEv=so_stub_for_libtelux_cv2x
-Wl,--defsym=_ZNKSt8functionIFviEEclEi=so_stub_for_libtelux_cv2x
-Wl,--defsym=_ZNKSt8functionIFviEEcvbEv=so_stub_for_libtelux_cv2x
-Wl,--defsym=_ZNKSt8functionIFvN5telux4cv2x10Cv2xStatusENS0_6common9ErrorCodeEEEclES2_S4_=so_stub_for_libtelux_cv2x
-Wl,--defsym=_ZNKSt8functionIFvN5telux4cv2x10Cv2xStatusENS0_6common9ErrorCodeEEEcvbEv=so_stub_for_libtelux_cv2x
-Wl,--defsym=_ZNKSt8functionIFvN5telux4cv2x12Cv2xStatusExENS0_6common9ErrorCodeEEEclES2_S4_=so_stub_for_libtelux_cv2x
-Wl,--defsym=_ZNKSt8functionIFvN5telux4cv2x12Cv2xStatusExENS0_6common9ErrorCodeEEEcvbEv=so_stub_for_libtelux_cv2x
-Wl,--defsym=_ZNKSt8functionIFvN5telux6common9ErrorCodeEEEclES2_=so_stub_for_libtelux_cv2x
-Wl,--defsym=_ZNKSt8functionIFvN5telux6common9ErrorCodeEEEcvbEv=so_stub_for_libtelux_cv2x
-Wl,--defsym=_ZNKSt8functionIFvRKN5telux4cv2x19DataSessionSettingsENS0_6common9ErrorCodeEEEclES4_S6_=so_stub_for_libtelux_cv2x
-Wl,--defsym=_ZNKSt8functionIFvRKN5telux4cv2x19DataSessionSettingsENS0_6common9ErrorCodeEEEcvbEv=so_stub_for_libtelux_cv2x
-Wl,--defsym=_ZNKSt8functionIFvRKN5telux4cv2x21Cv2xRadioCapabilitiesENS0_6common9ErrorCodeEEEclES4_S6_=so_stub_for_libtelux_cv2x
-Wl,--defsym=_ZNKSt8functionIFvRKN5telux4cv2x21Cv2xRadioCapabilitiesENS0_6common9ErrorCodeEEEcvbEv=so_stub_for_libtelux_cv2x
-Wl,--defsym=_ZNKSt8functionIFvSt10shared_ptrIN5telux4cv2x11ICv2xTxFlowEENS1_6common9ErrorCodeEEEclES4_S6_=so_stub_for_libtelux_cv2x
-Wl,--defsym=_ZNKSt8functionIFvSt10shared_ptrIN5telux4cv2x11ICv2xTxFlowEENS1_6common9ErrorCodeEEEcvbEv=so_stub_for_libtelux_cv2x
-Wl,--defsym=_ZNKSt8functionIFvSt10shared_ptrIN5telux4cv2x11ICv2xTxFlowEERKNS2_11SpsFlowInfoENS1_6common9ErrorCodeEEEclES4_S7_S9_=so_stub_for_libtelux_cv2x
-Wl,--defsym=_ZNKSt8functionIFvSt10shared_ptrIN5telux4cv2x11ICv2xTxFlowEERKNS2_11SpsFlowInfoENS1_6common9ErrorCodeEEEcvbEv=so_stub_for_libtelux_cv2x
-Wl,--defsym=_ZNKSt8functionIFvSt10shared_ptrIN5telux4cv2x11ICv2xTxFlowEES4_NS1_6common9ErrorCodeES6_EEclES4_S4_S6_S6_=so_stub_for_libtelux_cv2x
-Wl,--defsym=_ZNKSt8functionIFvSt10shared_ptrIN5telux4cv2x11ICv2xTxFlowEES4_NS1_6common9ErrorCodeES6_EEcvbEv=so_stub_for_libtelux_cv2x
-Wl,--defsym=_ZNKSt8functionIFvSt10shared_ptrIN5telux4cv2x14IndicationDataEEEEclES4_=so_stub_for_libtelux_cv2x
-Wl,--defsym=_ZNKSt8functionIFvSt10shared_ptrIN5telux4cv2x14IndicationDataEEEEcvbEv=so_stub_for_libtelux_cv2x
-Wl,--defsym=_ZNKSt8functionIFvSt10shared_ptrIN5telux4cv2x15ICv2xTxRxSocketEENS1_6common9ErrorCodeEEEclES4_S6_=so_stub_for_libtelux_cv2x
-Wl,--defsym=_ZNKSt8functionIFvSt10shared_ptrIN5telux4cv2x15ICv2xTxRxSocketEENS1_6common9ErrorCodeEEEcvbEv=so_stub_for_libtelux_cv2x
-Wl,--defsym=_ZNKSt8functionIFvSt10shared_ptrIN5telux4cv2x17ServiceStatusDataEEEEclES4_=so_stub_for_libtelux_cv2x
-Wl,--defsym=_ZNKSt8functionIFvSt10shared_ptrIN5telux4cv2x17ServiceStatusDataEEEEcvbEv=so_stub_for_libtelux_cv2x
-Wl,--defsym=_ZNKSt8functionIFvSt10shared_ptrIN5telux4cv2x19ICv2xRxSubscriptionEENS1_6common9ErrorCodeEEEclES4_S6_=so_stub_for_libtelux_cv2x
-Wl,--defsym=_ZNKSt8functionIFvSt10shared_ptrIN5telux4cv2x19ICv2xRxSubscriptionEENS1_6common9ErrorCodeEEEcvbEv=so_stub_for_libtelux_cv2x
-Wl,--defsym=_ZNKSt8functionIFvvEEclEv=so_stub_for_libtelux_cv2x
-Wl,--defsym=_ZNKSt8functionIFvvEEcvbEv=so_stub_for_libtelux_cv2x
-Wl,--defsym=_ZNKSt8_Rb_treeIjSt4pairIKjSt10shared_ptrIN5telux4cv2x11ICv2xTxFlowEEESt10_Select1stIS7_ESt4lessIjESaIS7_EE4sizeEv=so_stub_for_libtelux_cv2x
-Wl,--defsym=_ZNKSt8_Rb_treeIjSt4pairIKjSt10shared_ptrIN5telux4cv2x11ICv2xTxFlowEEESt10_Select1stIS7_ESt4lessIjESaIS7_EE8key_compEv=so_stub_for_libtelux_cv2x
-Wl,--defsym=_ZNKSt8_Rb_treeIjSt4pairIKjSt10shared_ptrIN5telux4cv2x15ICv2xTxRxSocketEEESt10_Select1stIS7_ESt4lessIjESaIS7_EE4sizeEv=so_stub_for_libtelux_cv2x
-Wl,--defsym=_ZNKSt8_Rb_treeIjSt4pairIKjSt10shared_ptrIN5telux4cv2x15ICv2xTxRxSocketEEESt10_Select1stIS7_ESt4lessIjESaIS7_EE8key_compEv=so_stub_for_libtelux_cv2x
-Wl,--defsym=_ZNKSt8_Rb_treeIjSt4pairIKjSt10shared_ptrIN5telux4cv2x19ICv2xRxSubscriptionEEESt10_Select1stIS7_ESt4lessIjESaIS7_EE4sizeEv=so_stub_for_libtelux_cv2x
-Wl,--defsym=_ZNKSt8_Rb_treeIjSt4pairIKjSt10shared_ptrIN5telux4cv2x19ICv2xRxSubscriptionEEESt10_Select1stIS7_ESt4lessIjESaIS7_EE8key_compEv=so_stub_for_libtelux_cv2x
-Wl,--defsym=_ZNKSt8_Rb_treeIjSt4pairIKjSt10unique_ptrINSt7__cxx1112basic_stringIcSt11char_traitsIcESaIcEEESt14default_deleteIS8_EEESt10_Select1stISC_ESt4lessIjESaISC_EE4sizeEv=so_stub_for_libtelux_cv2x
-Wl,--defsym=_ZNKSt8_Rb_treeIjSt4pairIKjSt10unique_ptrINSt7__cxx1112basic_stringIcSt11char_traitsIcESaIcEEESt14default_deleteIS8_EEESt10_Select1stISC_ESt4lessIjESaISC_EE8key_compEv=so_stub_for_libtelux_cv2x
-Wl,--defsym=_ZNKSt8weak_ptrIN5telux4cv2x13ICv2xListenerEE4lockEv=so_stub_for_libtelux_cv2x
-Wl,--defsym=_ZNKSt8weak_ptrIN5telux4cv2x18ICv2xRadioListenerEE4lockEv=so_stub_for_libtelux_cv2x
-Wl,--defsym=_ZNKSt8weak_ptrIN5telux4cv2x19ICv2xConfigListenerEE4lockEv=so_stub_for_libtelux_cv2x
-Wl,--defsym=_ZNKSt8weak_ptrIN5telux4cv2x20ICv2xSysCtrlListenerEE4lockEv=so_stub_for_libtelux_cv2x
-Wl,--defsym=_ZNKSt9_Any_data9_M_accessEv=so_stub_for_libtelux_cv2x
-Wl,--defsym=_ZNKSt9_Any_data9_M_accessINSt13__future_base13_State_baseV27_SetterIiOiEEEERKT_v=so_stub_for_libtelux_cv2x
-Wl,--defsym=_ZNKSt9_Any_data9_M_accessINSt13__future_base13_State_baseV27_SetterIiRKiEEEERKT_v=so_stub_for_libtelux_cv2x
-Wl,--defsym=_ZNKSt9_Any_data9_M_accessINSt13__future_base13_State_baseV27_SetterIN5telux6common9ErrorCodeEOS6_EEEERKT_v=so_stub_for_libtelux_cv2x
-Wl,--defsym=_ZNKSt9_Any_data9_M_accessINSt13__future_base13_State_baseV27_SetterIN5telux6common9ErrorCodeERKS6_EEEERKT_v=so_stub_for_libtelux_cv2x
-Wl,--defsym=_ZNKSt9_Any_data9_M_accessIPSt5_BindIFMN5telux4cv2x11Cv2xSysCtrlEFvSt10shared_ptrINS3_14IndicationDataEEEPS4_St12_PlaceholderILi1EEEEEERKT_v=so_stub_for_libtelux_cv2x
-Wl,--defsym=_ZNKSt9_Any_data9_M_accessIPSt5_BindIFMN5telux4cv2x11Cv2xSysCtrlEFvSt10shared_ptrINS3_17ServiceStatusDataEEEPS4_St12_PlaceholderILi1EEEEEERKT_v=so_stub_for_libtelux_cv2x
-Wl,--defsym=_ZNKSt9type_infoneERKS_=so_stub_for_libtelux_cv2x
-Wl,--defsym=_ZNSaIjEC1ERKS_=so_stub_for_libtelux_cv2x
-Wl,--defsym=_ZNSaIjEC1Ev=so_stub_for_libtelux_cv2x
-Wl,--defsym=_ZNSaIjEC2ERKS_=so_stub_for_libtelux_cv2x
-Wl,--defsym=_ZNSaIjEC2Ev=so_stub_for_libtelux_cv2x
-Wl,--defsym=_ZNSaIjED1Ev=so_stub_for_libtelux_cv2x
-Wl,--defsym=_ZNSaIjED2Ev=so_stub_for_libtelux_cv2x
-Wl,--defsym=_ZNSaIN5telux4cv2x10Cv2xConfigEEC1ERKS2_=so_stub_for_libtelux_cv2x
-Wl,--defsym=_ZNSaIN5telux4cv2x10Cv2xConfigEEC1Ev=so_stub_for_libtelux_cv2x
-Wl,--defsym=_ZNSaIN5telux4cv2x10Cv2xConfigEEC2ERKS2_=so_stub_for_libtelux_cv2x
-Wl,--defsym=_ZNSaIN5telux4cv2x10Cv2xConfigEEC2Ev=so_stub_for_libtelux_cv2x
-Wl,--defsym=_ZNSaIN5telux4cv2x10Cv2xConfigEED1Ev=so_stub_for_libtelux_cv2x
-Wl,--defsym=_ZNSaIN5telux4cv2x10Cv2xConfigEED2Ev=so_stub_for_libtelux_cv2x
-Wl,--defsym=_ZNSaIN5telux4cv2x11Cv2xSysCtrlEEC1ERKS2_=so_stub_for_libtelux_cv2x
-Wl,--defsym=_ZNSaIN5telux4cv2x11Cv2xSysCtrlEEC1Ev=so_stub_for_libtelux_cv2x
-Wl,--defsym=_ZNSaIN5telux4cv2x11Cv2xSysCtrlEEC2ERKS2_=so_stub_for_libtelux_cv2x
-Wl,--defsym=_ZNSaIN5telux4cv2x11Cv2xSysCtrlEEC2Ev=so_stub_for_libtelux_cv2x
-Wl,--defsym=_ZNSaIN5telux4cv2x11Cv2xSysCtrlEED1Ev=so_stub_for_libtelux_cv2x
-Wl,--defsym=_ZNSaIN5telux4cv2x11Cv2xSysCtrlEED2Ev=so_stub_for_libtelux_cv2x
-Wl,--defsym=_ZNSaIN5telux4cv2x12DsiCv2xRadioEEC1ERKS2_=so_stub_for_libtelux_cv2x
-Wl,--defsym=_ZNSaIN5telux4cv2x12DsiCv2xRadioEEC1Ev=so_stub_for_libtelux_cv2x
-Wl,--defsym=_ZNSaIN5telux4cv2x12DsiCv2xRadioEEC2ERKS2_=so_stub_for_libtelux_cv2x
-Wl,--defsym=_ZNSaIN5telux4cv2x12DsiCv2xRadioEEC2Ev=so_stub_for_libtelux_cv2x
-Wl,--defsym=_ZNSaIN5telux4cv2x12DsiCv2xRadioEED1Ev=so_stub_for_libtelux_cv2x
-Wl,--defsym=_ZNSaIN5telux4cv2x12DsiCv2xRadioEED2Ev=so_stub_for_libtelux_cv2x
-Wl,--defsym=_ZNSaIN5telux4cv2x12EventHandlerEEC1ERKS2_=so_stub_for_libtelux_cv2x
-Wl,--defsym=_ZNSaIN5telux4cv2x12EventHandlerEEC1Ev=so_stub_for_libtelux_cv2x
-Wl,--defsym=_ZNSaIN5telux4cv2x12EventHandlerEEC2ERKS2_=so_stub_for_libtelux_cv2x
-Wl,--defsym=_ZNSaIN5telux4cv2x12EventHandlerEEC2Ev=so_stub_for_libtelux_cv2x
-Wl,--defsym=_ZNSaIN5telux4cv2x12EventHandlerEED1Ev=so_stub_for_libtelux_cv2x
-Wl,--defsym=_ZNSaIN5telux4cv2x12EventHandlerEED2Ev=so_stub_for_libtelux_cv2x
-Wl,--defsym=_ZNSaIN5telux4cv2x12TxPoolIdInfoEEC1ERKS2_=so_stub_for_libtelux_cv2x
-Wl,--defsym=_ZNSaIN5telux4cv2x12TxPoolIdInfoEEC1Ev=so_stub_for_libtelux_cv2x
-Wl,--defsym=_ZNSaIN5telux4cv2x12TxPoolIdInfoEEC2ERKS2_=so_stub_for_libtelux_cv2x
-Wl,--defsym=_ZNSaIN5telux4cv2x12TxPoolIdInfoEEC2Ev=so_stub_for_libtelux_cv2x
-Wl,--defsym=_ZNSaIN5telux4cv2x12TxPoolIdInfoEED1Ev=so_stub_for_libtelux_cv2x
-Wl,--defsym=_ZNSaIN5telux4cv2x12TxPoolIdInfoEED2Ev=so_stub_for_libtelux_cv2x
-Wl,--defsym=_ZNSaIN5telux4cv2x13Cv2xTxSpsFlowEEC1ERKS2_=so_stub_for_libtelux_cv2x
-Wl,--defsym=_ZNSaIN5telux4cv2x13Cv2xTxSpsFlowEEC1Ev=so_stub_for_libtelux_cv2x
-Wl,--defsym=_ZNSaIN5telux4cv2x13Cv2xTxSpsFlowEEC2ERKS2_=so_stub_for_libtelux_cv2x
-Wl,--defsym=_ZNSaIN5telux4cv2x13Cv2xTxSpsFlowEEC2Ev=so_stub_for_libtelux_cv2x
-Wl,--defsym=_ZNSaIN5telux4cv2x13Cv2xTxSpsFlowEED1Ev=so_stub_for_libtelux_cv2x
-Wl,--defsym=_ZNSaIN5telux4cv2x13Cv2xTxSpsFlowEED2Ev=so_stub_for_libtelux_cv2x
-Wl,--defsym=_ZNSaIN5telux4cv2x13TrustedUEInfoEEC1ERKS2_=so_stub_for_libtelux_cv2x
-Wl,--defsym=_ZNSaIN5telux4cv2x13TrustedUEInfoEEC2ERKS2_=so_stub_for_libtelux_cv2x
-Wl,--defsym=_ZNSaIN5telux4cv2x13TrustedUEInfoEED1Ev=so_stub_for_libtelux_cv2x
-Wl,--defsym=_ZNSaIN5telux4cv2x13TrustedUEInfoEED2Ev=so_stub_for_libtelux_cv2x
-Wl,--defsym=_ZNSaIN5telux4cv2x14Cv2xPoolStatusEEC1ERKS2_=so_stub_for_libtelux_cv2x
-Wl,--defsym=_ZNSaIN5telux4cv2x14Cv2xPoolStatusEEC1Ev=so_stub_for_libtelux_cv2x
-Wl,--defsym=_ZNSaIN5telux4cv2x14Cv2xPoolStatusEEC2ERKS2_=so_stub_for_libtelux_cv2x
-Wl,--defsym=_ZNSaIN5telux4cv2x14Cv2xPoolStatusEEC2Ev=so_stub_for_libtelux_cv2x
-Wl,--defsym=_ZNSaIN5telux4cv2x14Cv2xPoolStatusEED1Ev=so_stub_for_libtelux_cv2x
-Wl,--defsym=_ZNSaIN5telux4cv2x14Cv2xPoolStatusEED2Ev=so_stub_for_libtelux_cv2x
-Wl,--defsym=_ZNSaIN5telux4cv2x14Cv2xTxRxSocketEEC1ERKS2_=so_stub_for_libtelux_cv2x
-Wl,--defsym=_ZNSaIN5telux4cv2x14Cv2xTxRxSocketEEC1Ev=so_stub_for_libtelux_cv2x
-Wl,--defsym=_ZNSaIN5telux4cv2x14Cv2xTxRxSocketEEC2ERKS2_=so_stub_for_libtelux_cv2x
-Wl,--defsym=_ZNSaIN5telux4cv2x14Cv2xTxRxSocketEEC2Ev=so_stub_for_libtelux_cv2x
-Wl,--defsym=_ZNSaIN5telux4cv2x14Cv2xTxRxSocketEED1Ev=so_stub_for_libtelux_cv2x
-Wl,--defsym=_ZNSaIN5telux4cv2x14Cv2xTxRxSocketEED2Ev=so_stub_for_libtelux_cv2x
-Wl,--defsym=_ZNSaIN5telux4cv2x14IndicationDataEEC1ERKS2_=so_stub_for_libtelux_cv2x
-Wl,--defsym=_ZNSaIN5telux4cv2x14IndicationDataEEC1Ev=so_stub_for_libtelux_cv2x
-Wl,--defsym=_ZNSaIN5telux4cv2x14IndicationDataEEC2ERKS2_=so_stub_for_libtelux_cv2x
-Wl,--defsym=_ZNSaIN5telux4cv2x14IndicationDataEEC2Ev=so_stub_for_libtelux_cv2x
-Wl,--defsym=_ZNSaIN5telux4cv2x14IndicationDataEED1Ev=so_stub_for_libtelux_cv2x
-Wl,--defsym=_ZNSaIN5telux4cv2x14IndicationDataEED2Ev=so_stub_for_libtelux_cv2x
-Wl,--defsym=_ZNSaIN5telux4cv2x15Cv2xTxEventFlowEEC1ERKS2_=so_stub_for_libtelux_cv2x
-Wl,--defsym=_ZNSaIN5telux4cv2x15Cv2xTxEventFlowEEC1Ev=so_stub_for_libtelux_cv2x
-Wl,--defsym=_ZNSaIN5telux4cv2x15Cv2xTxEventFlowEEC2ERKS2_=so_stub_for_libtelux_cv2x
-Wl,--defsym=_ZNSaIN5telux4cv2x15Cv2xTxEventFlowEEC2Ev=so_stub_for_libtelux_cv2x
-Wl,--defsym=_ZNSaIN5telux4cv2x15Cv2xTxEventFlowEED1Ev=so_stub_for_libtelux_cv2x
-Wl,--defsym=_ZNSaIN5telux4cv2x15Cv2xTxEventFlowEED2Ev=so_stub_for_libtelux_cv2x
-Wl,--defsym=_ZNSaIN5telux4cv2x15EventDispatcherEEC1ERKS2_=so_stub_for_libtelux_cv2x
-Wl,--defsym=_ZNSaIN5telux4cv2x15EventDispatcherEEC1Ev=so_stub_for_libtelux_cv2x
-Wl,--defsym=_ZNSaIN5telux4cv2x15EventDispatcherEEC2ERKS2_=so_stub_for_libtelux_cv2x
-Wl,--defsym=_ZNSaIN5telux4cv2x15EventDispatcherEEC2Ev=so_stub_for_libtelux_cv2x
-Wl,--defsym=_ZNSaIN5telux4cv2x15EventDispatcherEED1Ev=so_stub_for_libtelux_cv2x
-Wl,--defsym=_ZNSaIN5telux4cv2x15EventDispatcherEED2Ev=so_stub_for_libtelux_cv2x
-Wl,--defsym=_ZNSaIN5telux4cv2x16Cv2xIndsListenerEEC1ERKS2_=so_stub_for_libtelux_cv2x
-Wl,--defsym=_ZNSaIN5telux4cv2x16Cv2xIndsListenerEEC1Ev=so_stub_for_libtelux_cv2x
-Wl,--defsym=_ZNSaIN5telux4cv2x16Cv2xIndsListenerEEC2ERKS2_=so_stub_for_libtelux_cv2x
-Wl,--defsym=_ZNSaIN5telux4cv2x16Cv2xIndsListenerEEC2Ev=so_stub_for_libtelux_cv2x
-Wl,--defsym=_ZNSaIN5telux4cv2x16Cv2xIndsListenerEED1Ev=so_stub_for_libtelux_cv2x
-Wl,--defsym=_ZNSaIN5telux4cv2x16Cv2xIndsListenerEED2Ev=so_stub_for_libtelux_cv2x
-Wl,--defsym=_ZNSaIN5telux4cv2x16Cv2xRadioManagerEEC1ERKS2_=so_stub_for_libtelux_cv2x
-Wl,--defsym=_ZNSaIN5telux4cv2x16Cv2xRadioManagerEEC1Ev=so_stub_for_libtelux_cv2x
-Wl,--defsym=_ZNSaIN5telux4cv2x16Cv2xRadioManagerEEC2ERKS2_=so_stub_for_libtelux_cv2x
-Wl,--defsym=_ZNSaIN5telux4cv2x16Cv2xRadioManagerEEC2Ev=so_stub_for_libtelux_cv2x
-Wl,--defsym=_ZNSaIN5telux4cv2x16Cv2xRadioManagerEED1Ev=so_stub_for_libtelux_cv2x
-Wl,--defsym=_ZNSaIN5telux4cv2x16Cv2xRadioManagerEED2Ev=so_stub_for_libtelux_cv2x
-Wl,--defsym=_ZNSaIN5telux4cv2x17ServiceStatusDataEEC1ERKS2_=so_stub_for_libtelux_cv2x
-Wl,--defsym=_ZNSaIN5telux4cv2x17ServiceStatusDataEEC1Ev=so_stub_for_libtelux_cv2x
-Wl,--defsym=_ZNSaIN5telux4cv2x17ServiceStatusDataEEC2ERKS2_=so_stub_for_libtelux_cv2x
-Wl,--defsym=_ZNSaIN5telux4cv2x17ServiceStatusDataEEC2Ev=so_stub_for_libtelux_cv2x
-Wl,--defsym=_ZNSaIN5telux4cv2x17ServiceStatusDataEED1Ev=so_stub_for_libtelux_cv2x
-Wl,--defsym=_ZNSaIN5telux4cv2x17ServiceStatusDataEED2Ev=so_stub_for_libtelux_cv2x
-Wl,--defsym=_ZNSaIN5telux4cv2x18Cv2xConfigListenerEEC1ERKS2_=so_stub_for_libtelux_cv2x
-Wl,--defsym=_ZNSaIN5telux4cv2x18Cv2xConfigListenerEEC1Ev=so_stub_for_libtelux_cv2x
-Wl,--defsym=_ZNSaIN5telux4cv2x18Cv2xConfigListenerEEC2ERKS2_=so_stub_for_libtelux_cv2x
-Wl,--defsym=_ZNSaIN5telux4cv2x18Cv2xConfigListenerEEC2Ev=so_stub_for_libtelux_cv2x
-Wl,--defsym=_ZNSaIN5telux4cv2x18Cv2xConfigListenerEED1Ev=so_stub_for_libtelux_cv2x
-Wl,--defsym=_ZNSaIN5telux4cv2x18Cv2xConfigListenerEED2Ev=so_stub_for_libtelux_cv2x
-Wl,--defsym=_ZNSaIN5telux4cv2x18Cv2xRxSubscriptionEEC1ERKS2_=so_stub_for_libtelux_cv2x
-Wl,--defsym=_ZNSaIN5telux4cv2x18Cv2xRxSubscriptionEEC1Ev=so_stub_for_libtelux_cv2x
-Wl,--defsym=_ZNSaIN5telux4cv2x18Cv2xRxSubscriptionEEC2ERKS2_=so_stub_for_libtelux_cv2x
-Wl,--defsym=_ZNSaIN5telux4cv2x18Cv2xRxSubscriptionEEC2Ev=so_stub_for_libtelux_cv2x
-Wl,--defsym=_ZNSaIN5telux4cv2x18Cv2xRxSubscriptionEED1Ev=so_stub_for_libtelux_cv2x
-Wl,--defsym=_ZNSaIN5telux4cv2x18Cv2xRxSubscriptionEED2Ev=so_stub_for_libtelux_cv2x
-Wl,--defsym=_ZNSaIN5telux4cv2x18QmiV2xStopCallbackEEC1ERKS2_=so_stub_for_libtelux_cv2x
-Wl,--defsym=_ZNSaIN5telux4cv2x18QmiV2xStopCallbackEEC1Ev=so_stub_for_libtelux_cv2x
-Wl,--defsym=_ZNSaIN5telux4cv2x18QmiV2xStopCallbackEEC2ERKS2_=so_stub_for_libtelux_cv2x
-Wl,--defsym=_ZNSaIN5telux4cv2x18QmiV2xStopCallbackEEC2Ev=so_stub_for_libtelux_cv2x
-Wl,--defsym=_ZNSaIN5telux4cv2x18QmiV2xStopCallbackEED1Ev=so_stub_for_libtelux_cv2x
-Wl,--defsym=_ZNSaIN5telux4cv2x18QmiV2xStopCallbackEED2Ev=so_stub_for_libtelux_cv2x
-Wl,--defsym=_ZNSaIN5telux4cv2x19DataSessionSettingsEEC1Ev=so_stub_for_libtelux_cv2x
-Wl,--defsym=_ZNSaIN5telux4cv2x19DataSessionSettingsEEC2Ev=so_stub_for_libtelux_cv2x
-Wl,--defsym=_ZNSaIN5telux4cv2x19DataSessionSettingsEED1Ev=so_stub_for_libtelux_cv2x
-Wl,--defsym=_ZNSaIN5telux4cv2x19DataSessionSettingsEED2Ev=so_stub_for_libtelux_cv2x
-Wl,--defsym=_ZNSaIN5telux4cv2x19QmiV2xStartCallbackEEC1ERKS2_=so_stub_for_libtelux_cv2x
-Wl,--defsym=_ZNSaIN5telux4cv2x19QmiV2xStartCallbackEEC1Ev=so_stub_for_libtelux_cv2x
-Wl,--defsym=_ZNSaIN5telux4cv2x19QmiV2xStartCallbackEEC2ERKS2_=so_stub_for_libtelux_cv2x
-Wl,--defsym=_ZNSaIN5telux4cv2x19QmiV2xStartCallbackEEC2Ev=so_stub_for_libtelux_cv2x
-Wl,--defsym=_ZNSaIN5telux4cv2x19QmiV2xStartCallbackEED1Ev=so_stub_for_libtelux_cv2x
-Wl,--defsym=_ZNSaIN5telux4cv2x19QmiV2xStartCallbackEED2Ev=so_stub_for_libtelux_cv2x
-Wl,--defsym=_ZNSaIN5telux4cv2x20QmiV2xStatusCallbackEEC1ERKS2_=so_stub_for_libtelux_cv2x
-Wl,--defsym=_ZNSaIN5telux4cv2x20QmiV2xStatusCallbackEEC1Ev=so_stub_for_libtelux_cv2x
-Wl,--defsym=_ZNSaIN5telux4cv2x20QmiV2xStatusCallbackEEC2ERKS2_=so_stub_for_libtelux_cv2x
-Wl,--defsym=_ZNSaIN5telux4cv2x20QmiV2xStatusCallbackEEC2Ev=so_stub_for_libtelux_cv2x
-Wl,--defsym=_ZNSaIN5telux4cv2x20QmiV2xStatusCallbackEED1Ev=so_stub_for_libtelux_cv2x
-Wl,--defsym=_ZNSaIN5telux4cv2x20QmiV2xStatusCallbackEED2Ev=so_stub_for_libtelux_cv2x
-Wl,--defsym=_ZNSaIN5telux4cv2x21QmiNasIndsRegCallbackEEC1ERKS2_=so_stub_for_libtelux_cv2x
-Wl,--defsym=_ZNSaIN5telux4cv2x21QmiNasIndsRegCallbackEEC1Ev=so_stub_for_libtelux_cv2x
-Wl,--defsym=_ZNSaIN5telux4cv2x21QmiNasIndsRegCallbackEEC2ERKS2_=so_stub_for_libtelux_cv2x
-Wl,--defsym=_ZNSaIN5telux4cv2x21QmiNasIndsRegCallbackEEC2Ev=so_stub_for_libtelux_cv2x
-Wl,--defsym=_ZNSaIN5telux4cv2x21QmiNasIndsRegCallbackEED1Ev=so_stub_for_libtelux_cv2x
-Wl,--defsym=_ZNSaIN5telux4cv2x21QmiNasIndsRegCallbackEED2Ev=so_stub_for_libtelux_cv2x
-Wl,--defsym=_ZNSaIN5telux4cv2x21ServiceStatusListenerEEC1ERKS2_=so_stub_for_libtelux_cv2x
-Wl,--defsym=_ZNSaIN5telux4cv2x21ServiceStatusListenerEEC1Ev=so_stub_for_libtelux_cv2x
-Wl,--defsym=_ZNSaIN5telux4cv2x21ServiceStatusListenerEEC2ERKS2_=so_stub_for_libtelux_cv2x
-Wl,--defsym=_ZNSaIN5telux4cv2x21ServiceStatusListenerEEC2Ev=so_stub_for_libtelux_cv2x
-Wl,--defsym=_ZNSaIN5telux4cv2x21ServiceStatusListenerEED1Ev=so_stub_for_libtelux_cv2x
-Wl,--defsym=_ZNSaIN5telux4cv2x21ServiceStatusListenerEED2Ev=so_stub_for_libtelux_cv2x
-Wl,--defsym=_ZNSaIN5telux4cv2x22QmiV2xStatusCallbackExEEC1ERKS2_=so_stub_for_libtelux_cv2x
-Wl,--defsym=_ZNSaIN5telux4cv2x22QmiV2xStatusCallbackExEEC1Ev=so_stub_for_libtelux_cv2x
-Wl,--defsym=_ZNSaIN5telux4cv2x22QmiV2xStatusCallbackExEEC2ERKS2_=so_stub_for_libtelux_cv2x
-Wl,--defsym=_ZNSaIN5telux4cv2x22QmiV2xStatusCallbackExEEC2Ev=so_stub_for_libtelux_cv2x
-Wl,--defsym=_ZNSaIN5telux4cv2x22QmiV2xStatusCallbackExEED1Ev=so_stub_for_libtelux_cv2x
-Wl,--defsym=_ZNSaIN5telux4cv2x22QmiV2xStatusCallbackExEED2Ev=so_stub_for_libtelux_cv2x
-Wl,--defsym=_ZNSaIN5telux4cv2x25QmiSetEventReportCallbackEEC1ERKS2_=so_stub_for_libtelux_cv2x
-Wl,--defsym=_ZNSaIN5telux4cv2x25QmiSetEventReportCallbackEEC1Ev=so_stub_for_libtelux_cv2x
-Wl,--defsym=_ZNSaIN5telux4cv2x25QmiSetEventReportCallbackEEC2ERKS2_=so_stub_for_libtelux_cv2x
-Wl,--defsym=_ZNSaIN5telux4cv2x25QmiSetEventReportCallbackEEC2Ev=so_stub_for_libtelux_cv2x
-Wl,--defsym=_ZNSaIN5telux4cv2x25QmiSetEventReportCallbackEED1Ev=so_stub_for_libtelux_cv2x
-Wl,--defsym=_ZNSaIN5telux4cv2x25QmiSetEventReportCallbackEED2Ev=so_stub_for_libtelux_cv2x
-Wl,--defsym=_ZNSaIN5telux4cv2x25QmiSetPeakTxPowerCallbackEEC1ERKS2_=so_stub_for_libtelux_cv2x
-Wl,--defsym=_ZNSaIN5telux4cv2x25QmiSetPeakTxPowerCallbackEEC1Ev=so_stub_for_libtelux_cv2x
-Wl,--defsym=_ZNSaIN5telux4cv2x25QmiSetPeakTxPowerCallbackEEC2ERKS2_=so_stub_for_libtelux_cv2x
-Wl,--defsym=_ZNSaIN5telux4cv2x25QmiSetPeakTxPowerCallbackEEC2Ev=so_stub_for_libtelux_cv2x
-Wl,--defsym=_ZNSaIN5telux4cv2x25QmiSetPeakTxPowerCallbackEED1Ev=so_stub_for_libtelux_cv2x
-Wl,--defsym=_ZNSaIN5telux4cv2x25QmiSetPeakTxPowerCallbackEED2Ev=so_stub_for_libtelux_cv2x
-Wl,--defsym=_ZNSaIN5telux4cv2x27QmiGetOperatingModeCallbackEEC1ERKS2_=so_stub_for_libtelux_cv2x
-Wl,--defsym=_ZNSaIN5telux4cv2x27QmiGetOperatingModeCallbackEEC1Ev=so_stub_for_libtelux_cv2x
-Wl,--defsym=_ZNSaIN5telux4cv2x27QmiGetOperatingModeCallbackEEC2ERKS2_=so_stub_for_libtelux_cv2x
-Wl,--defsym=_ZNSaIN5telux4cv2x27QmiGetOperatingModeCallbackEEC2Ev=so_stub_for_libtelux_cv2x
-Wl,--defsym=_ZNSaIN5telux4cv2x27QmiGetOperatingModeCallbackEED1Ev=so_stub_for_libtelux_cv2x
-Wl,--defsym=_ZNSaIN5telux4cv2x27QmiGetOperatingModeCallbackEED2Ev=so_stub_for_libtelux_cv2x
-Wl,--defsym=_ZNSaIN5telux4cv2x27QmiSetOperatingModeCallbackEEC1ERKS2_=so_stub_for_libtelux_cv2x
-Wl,--defsym=_ZNSaIN5telux4cv2x27QmiSetOperatingModeCallbackEEC1Ev=so_stub_for_libtelux_cv2x
-Wl,--defsym=_ZNSaIN5telux4cv2x27QmiSetOperatingModeCallbackEEC2ERKS2_=so_stub_for_libtelux_cv2x
-Wl,--defsym=_ZNSaIN5telux4cv2x27QmiSetOperatingModeCallbackEEC2Ev=so_stub_for_libtelux_cv2x
-Wl,--defsym=_ZNSaIN5telux4cv2x27QmiSetOperatingModeCallbackEED1Ev=so_stub_for_libtelux_cv2x
-Wl,--defsym=_ZNSaIN5telux4cv2x27QmiSetOperatingModeCallbackEED2Ev=so_stub_for_libtelux_cv2x
-Wl,--defsym=_ZNSaIN5telux4cv2x30QmiV2xGetConfigurationCallbackEEC1ERKS2_=so_stub_for_libtelux_cv2x
-Wl,--defsym=_ZNSaIN5telux4cv2x30QmiV2xGetConfigurationCallbackEEC1Ev=so_stub_for_libtelux_cv2x
-Wl,--defsym=_ZNSaIN5telux4cv2x30QmiV2xGetConfigurationCallbackEEC2ERKS2_=so_stub_for_libtelux_cv2x
-Wl,--defsym=_ZNSaIN5telux4cv2x30QmiV2xGetConfigurationCallbackEEC2Ev=so_stub_for_libtelux_cv2x
-Wl,--defsym=_ZNSaIN5telux4cv2x30QmiV2xGetConfigurationCallbackEED1Ev=so_stub_for_libtelux_cv2x
-Wl,--defsym=_ZNSaIN5telux4cv2x30QmiV2xGetConfigurationCallbackEED2Ev=so_stub_for_libtelux_cv2x
-Wl,--defsym=_ZNSaIN5telux4cv2x31QmiV2xRegisterConfigIndCallbackEEC1ERKS2_=so_stub_for_libtelux_cv2x
-Wl,--defsym=_ZNSaIN5telux4cv2x31QmiV2xRegisterConfigIndCallbackEEC1Ev=so_stub_for_libtelux_cv2x
-Wl,--defsym=_ZNSaIN5telux4cv2x31QmiV2xRegisterConfigIndCallbackEEC2ERKS2_=so_stub_for_libtelux_cv2x
-Wl,--defsym=_ZNSaIN5telux4cv2x31QmiV2xRegisterConfigIndCallbackEEC2Ev=so_stub_for_libtelux_cv2x
-Wl,--defsym=_ZNSaIN5telux4cv2x31QmiV2xRegisterConfigIndCallbackEED1Ev=so_stub_for_libtelux_cv2x
-Wl,--defsym=_ZNSaIN5telux4cv2x31QmiV2xRegisterConfigIndCallbackEED2Ev=so_stub_for_libtelux_cv2x
-Wl,--defsym=_ZNSaIN5telux4cv2x31SysctrlGetConfigurationCallbackEEC1ERKS2_=so_stub_for_libtelux_cv2x
-Wl,--defsym=_ZNSaIN5telux4cv2x31SysctrlGetConfigurationCallbackEEC1Ev=so_stub_for_libtelux_cv2x
-Wl,--defsym=_ZNSaIN5telux4cv2x31SysctrlGetConfigurationCallbackEEC2ERKS2_=so_stub_for_libtelux_cv2x
-Wl,--defsym=_ZNSaIN5telux4cv2x31SysctrlGetConfigurationCallbackEEC2Ev=so_stub_for_libtelux_cv2x
-Wl,--defsym=_ZNSaIN5telux4cv2x31SysctrlGetConfigurationCallbackEED1Ev=so_stub_for_libtelux_cv2x
-Wl,--defsym=_ZNSaIN5telux4cv2x31SysctrlGetConfigurationCallbackEED2Ev=so_stub_for_libtelux_cv2x
-Wl,--defsym=_ZNSaIN5telux4cv2x35QmiV2xSendConfigurationFileCallbackEEC1ERKS2_=so_stub_for_libtelux_cv2x
-Wl,--defsym=_ZNSaIN5telux4cv2x35QmiV2xSendConfigurationFileCallbackEEC1Ev=so_stub_for_libtelux_cv2x
-Wl,--defsym=_ZNSaIN5telux4cv2x35QmiV2xSendConfigurationFileCallbackEEC2ERKS2_=so_stub_for_libtelux_cv2x
-Wl,--defsym=_ZNSaIN5telux4cv2x35QmiV2xSendConfigurationFileCallbackEEC2Ev=so_stub_for_libtelux_cv2x
-Wl,--defsym=_ZNSaIN5telux4cv2x35QmiV2xSendConfigurationFileCallbackEED1Ev=so_stub_for_libtelux_cv2x
-Wl,--defsym=_ZNSaIN5telux4cv2x35QmiV2xSendConfigurationFileCallbackEED2Ev=so_stub_for_libtelux_cv2x
-Wl,--defsym=_ZNSaIN5telux4cv2x9EventInfoINS0_14IndicationDataEEEEC1ERKS4_=so_stub_for_libtelux_cv2x
-Wl,--defsym=_ZNSaIN5telux4cv2x9EventInfoINS0_14IndicationDataEEEEC1Ev=so_stub_for_libtelux_cv2x
-Wl,--defsym=_ZNSaIN5telux4cv2x9EventInfoINS0_14IndicationDataEEEEC2ERKS4_=so_stub_for_libtelux_cv2x
-Wl,--defsym=_ZNSaIN5telux4cv2x9EventInfoINS0_14IndicationDataEEEEC2Ev=so_stub_for_libtelux_cv2x
-Wl,--defsym=_ZNSaIN5telux4cv2x9EventInfoINS0_14IndicationDataEEEED1Ev=so_stub_for_libtelux_cv2x
-Wl,--defsym=_ZNSaIN5telux4cv2x9EventInfoINS0_14IndicationDataEEEED2Ev=so_stub_for_libtelux_cv2x
-Wl,--defsym=_ZNSaIN5telux4cv2x9EventInfoINS0_17ServiceStatusDataEEEEC1ERKS4_=so_stub_for_libtelux_cv2x
-Wl,--defsym=_ZNSaIN5telux4cv2x9EventInfoINS0_17ServiceStatusDataEEEEC1Ev=so_stub_for_libtelux_cv2x
-Wl,--defsym=_ZNSaIN5telux4cv2x9EventInfoINS0_17ServiceStatusDataEEEEC2ERKS4_=so_stub_for_libtelux_cv2x
-Wl,--defsym=_ZNSaIN5telux4cv2x9EventInfoINS0_17ServiceStatusDataEEEEC2Ev=so_stub_for_libtelux_cv2x
-Wl,--defsym=_ZNSaIN5telux4cv2x9EventInfoINS0_17ServiceStatusDataEEEED1Ev=so_stub_for_libtelux_cv2x
-Wl,--defsym=_ZNSaIN5telux4cv2x9EventInfoINS0_17ServiceStatusDataEEEED2Ev=so_stub_for_libtelux_cv2x
-Wl,--defsym=_ZNSaIN5telux6common15ListenerManagerINS_4cv2x13ICv2xListenerEEEEC1ERKS5_=so_stub_for_libtelux_cv2x
-Wl,--defsym=_ZNSaIN5telux6common15ListenerManagerINS_4cv2x13ICv2xListenerEEEEC1Ev=so_stub_for_libtelux_cv2x
-Wl,--defsym=_ZNSaIN5telux6common15ListenerManagerINS_4cv2x13ICv2xListenerEEEEC2ERKS5_=so_stub_for_libtelux_cv2x
-Wl,--defsym=_ZNSaIN5telux6common15ListenerManagerINS_4cv2x13ICv2xListenerEEEEC2Ev=so_stub_for_libtelux_cv2x
-Wl,--defsym=_ZNSaIN5telux6common15ListenerManagerINS_4cv2x13ICv2xListenerEEEED1Ev=so_stub_for_libtelux_cv2x
-Wl,--defsym=_ZNSaIN5telux6common15ListenerManagerINS_4cv2x13ICv2xListenerEEEED2Ev=so_stub_for_libtelux_cv2x
-Wl,--defsym=_ZNSaIN5telux6common15ListenerManagerINS_4cv2x19ICv2xConfigListenerEEEEC1ERKS5_=so_stub_for_libtelux_cv2x
-Wl,--defsym=_ZNSaIN5telux6common15ListenerManagerINS_4cv2x19ICv2xConfigListenerEEEEC1Ev=so_stub_for_libtelux_cv2x
-Wl,--defsym=_ZNSaIN5telux6common15ListenerManagerINS_4cv2x19ICv2xConfigListenerEEEEC2ERKS5_=so_stub_for_libtelux_cv2x
-Wl,--defsym=_ZNSaIN5telux6common15ListenerManagerINS_4cv2x19ICv2xConfigListenerEEEEC2Ev=so_stub_for_libtelux_cv2x
-Wl,--defsym=_ZNSaIN5telux6common15ListenerManagerINS_4cv2x19ICv2xConfigListenerEEEED1Ev=so_stub_for_libtelux_cv2x
-Wl,--defsym=_ZNSaIN5telux6common15ListenerManagerINS_4cv2x19ICv2xConfigListenerEEEED2Ev=so_stub_for_libtelux_cv2x
-Wl,--defsym=_ZNSaINSt13__future_base13_State_baseV2EEC1ERKS1_=so_stub_for_libtelux_cv2x
-Wl,--defsym=_ZNSaINSt13__future_base13_State_baseV2EEC1Ev=so_stub_for_libtelux_cv2x
-Wl,--defsym=_ZNSaINSt13__future_base13_State_baseV2EEC2ERKS1_=so_stub_for_libtelux_cv2x
-Wl,--defsym=_ZNSaINSt13__future_base13_State_baseV2EEC2Ev=so_stub_for_libtelux_cv2x
-Wl,--defsym=_ZNSaINSt13__future_base13_State_baseV2EED1Ev=so_stub_for_libtelux_cv2x
-Wl,--defsym=_ZNSaINSt13__future_base13_State_baseV2EED2Ev=so_stub_for_libtelux_cv2x
-Wl,--defsym=_ZNSaIPSt13shared_futureIvEEC1IS0_EERKSaIT_E=so_stub_for_libtelux_cv2x
-Wl,--defsym=_ZNSaIPSt13shared_futureIvEEC2IS0_EERKSaIT_E=so_stub_for_libtelux_cv2x
-Wl,--defsym=_ZNSaIPSt13shared_futureIvEED1Ev=so_stub_for_libtelux_cv2x
-Wl,--defsym=_ZNSaIPSt13shared_futureIvEED2Ev=so_stub_for_libtelux_cv2x
-Wl,--defsym=_ZNSaISt10_List_nodeISt10shared_ptrIN5telux4cv2x13EventInfoBaseEEEEC1Ev=so_stub_for_libtelux_cv2x
-Wl,--defsym=_ZNSaISt10_List_nodeISt10shared_ptrIN5telux4cv2x13EventInfoBaseEEEEC2Ev=so_stub_for_libtelux_cv2x
-Wl,--defsym=_ZNSaISt10_List_nodeISt10shared_ptrIN5telux4cv2x13EventInfoBaseEEEED1Ev=so_stub_for_libtelux_cv2x
-Wl,--defsym=_ZNSaISt10_List_nodeISt10shared_ptrIN5telux4cv2x13EventInfoBaseEEEED2Ev=so_stub_for_libtelux_cv2x
-Wl,--defsym=_ZNSaISt10shared_ptrIN5telux4cv2x11ICv2xTxFlowEEEC1ERKS4_=so_stub_for_libtelux_cv2x
-Wl,--defsym=_ZNSaISt10shared_ptrIN5telux4cv2x11ICv2xTxFlowEEEC1Ev=so_stub_for_libtelux_cv2x
-Wl,--defsym=_ZNSaISt10shared_ptrIN5telux4cv2x11ICv2xTxFlowEEEC2ERKS4_=so_stub_for_libtelux_cv2x
-Wl,--defsym=_ZNSaISt10shared_ptrIN5telux4cv2x11ICv2xTxFlowEEEC2Ev=so_stub_for_libtelux_cv2x
-Wl,--defsym=_ZNSaISt10shared_ptrIN5telux4cv2x11ICv2xTxFlowEEED1Ev=so_stub_for_libtelux_cv2x
-Wl,--defsym=_ZNSaISt10shared_ptrIN5telux4cv2x11ICv2xTxFlowEEED2Ev=so_stub_for_libtelux_cv2x
-Wl,--defsym=_ZNSaISt13_Rb_tree_nodeISt4pairIKhN5telux4cv2x17SpsSchedulingInfoEEEEC1Ev=so_stub_for_libtelux_cv2x
-Wl,--defsym=_ZNSaISt13_Rb_tree_nodeISt4pairIKhN5telux4cv2x17SpsSchedulingInfoEEEEC2Ev=so_stub_for_libtelux_cv2x
-Wl,--defsym=_ZNSaISt13_Rb_tree_nodeISt4pairIKhN5telux4cv2x17SpsSchedulingInfoEEEED1Ev=so_stub_for_libtelux_cv2x
-Wl,--defsym=_ZNSaISt13_Rb_tree_nodeISt4pairIKhN5telux4cv2x17SpsSchedulingInfoEEEED2Ev=so_stub_for_libtelux_cv2x
-Wl,--defsym=_ZNSaISt13_Rb_tree_nodeISt4pairIKjSt10shared_ptrIN5telux4cv2x11ICv2xTxFlowEEEEEC1Ev=so_stub_for_libtelux_cv2x
-Wl,--defsym=_ZNSaISt13_Rb_tree_nodeISt4pairIKjSt10shared_ptrIN5telux4cv2x11ICv2xTxFlowEEEEEC2Ev=so_stub_for_libtelux_cv2x
-Wl,--defsym=_ZNSaISt13_Rb_tree_nodeISt4pairIKjSt10shared_ptrIN5telux4cv2x11ICv2xTxFlowEEEEED1Ev=so_stub_for_libtelux_cv2x
-Wl,--defsym=_ZNSaISt13_Rb_tree_nodeISt4pairIKjSt10shared_ptrIN5telux4cv2x11ICv2xTxFlowEEEEED2Ev=so_stub_for_libtelux_cv2x
-Wl,--defsym=_ZNSaISt13_Rb_tree_nodeISt4pairIKjSt10shared_ptrIN5telux4cv2x15ICv2xTxRxSocketEEEEEC1Ev=so_stub_for_libtelux_cv2x
-Wl,--defsym=_ZNSaISt13_Rb_tree_nodeISt4pairIKjSt10shared_ptrIN5telux4cv2x15ICv2xTxRxSocketEEEEEC2Ev=so_stub_for_libtelux_cv2x
-Wl,--defsym=_ZNSaISt13_Rb_tree_nodeISt4pairIKjSt10shared_ptrIN5telux4cv2x15ICv2xTxRxSocketEEEEED1Ev=so_stub_for_libtelux_cv2x
-Wl,--defsym=_ZNSaISt13_Rb_tree_nodeISt4pairIKjSt10shared_ptrIN5telux4cv2x15ICv2xTxRxSocketEEEEED2Ev=so_stub_for_libtelux_cv2x
-Wl,--defsym=_ZNSaISt13_Rb_tree_nodeISt4pairIKjSt10shared_ptrIN5telux4cv2x19ICv2xRxSubscriptionEEEEEC1Ev=so_stub_for_libtelux_cv2x
-Wl,--defsym=_ZNSaISt13_Rb_tree_nodeISt4pairIKjSt10shared_ptrIN5telux4cv2x19ICv2xRxSubscriptionEEEEEC2Ev=so_stub_for_libtelux_cv2x
-Wl,--defsym=_ZNSaISt13_Rb_tree_nodeISt4pairIKjSt10shared_ptrIN5telux4cv2x19ICv2xRxSubscriptionEEEEED1Ev=so_stub_for_libtelux_cv2x
-Wl,--defsym=_ZNSaISt13_Rb_tree_nodeISt4pairIKjSt10shared_ptrIN5telux4cv2x19ICv2xRxSubscriptionEEEEED2Ev=so_stub_for_libtelux_cv2x
-Wl,--defsym=_ZNSaISt13_Rb_tree_nodeISt4pairIKjSt10unique_ptrINSt7__cxx1112basic_stringIcSt11char_traitsIcESaIcEEESt14default_deleteIS8_EEEEEC1Ev=so_stub_for_libtelux_cv2x
-Wl,--defsym=_ZNSaISt13_Rb_tree_nodeISt4pairIKjSt10unique_ptrINSt7__cxx1112basic_stringIcSt11char_traitsIcESaIcEEESt14default_deleteIS8_EEEEEC2Ev=so_stub_for_libtelux_cv2x
-Wl,--defsym=_ZNSaISt13_Rb_tree_nodeISt4pairIKjSt10unique_ptrINSt7__cxx1112basic_stringIcSt11char_traitsIcESaIcEEESt14default_deleteIS8_EEEEED1Ev=so_stub_for_libtelux_cv2x
-Wl,--defsym=_ZNSaISt13_Rb_tree_nodeISt4pairIKjSt10unique_ptrINSt7__cxx1112basic_stringIcSt11char_traitsIcESaIcEEESt14default_deleteIS8_EEEEED2Ev=so_stub_for_libtelux_cv2x
-Wl,--defsym=_ZNSaISt13shared_futureIvEEC1Ev=so_stub_for_libtelux_cv2x
-Wl,--defsym=_ZNSaISt13shared_futureIvEEC2Ev=so_stub_for_libtelux_cv2x
-Wl,--defsym=_ZNSaISt13shared_futureIvEED1Ev=so_stub_for_libtelux_cv2x
-Wl,--defsym=_ZNSaISt13shared_futureIvEED2Ev=so_stub_for_libtelux_cv2x
-Wl,--defsym=_ZNSaISt23_Sp_counted_ptr_inplaceIN5telux4cv2x10Cv2xConfigESaIS2_ELN9__gnu_cxx12_Lock_policyE2EEEC1IS2_EERKSaIT_E=so_stub_for_libtelux_cv2x
-Wl,--defsym=_ZNSaISt23_Sp_counted_ptr_inplaceIN5telux4cv2x10Cv2xConfigESaIS2_ELN9__gnu_cxx12_Lock_policyE2EEEC2IS2_EERKSaIT_E=so_stub_for_libtelux_cv2x
-Wl,--defsym=_ZNSaISt23_Sp_counted_ptr_inplaceIN5telux4cv2x10Cv2xConfigESaIS2_ELN9__gnu_cxx12_Lock_policyE2EEED1Ev=so_stub_for_libtelux_cv2x
-Wl,--defsym=_ZNSaISt23_Sp_counted_ptr_inplaceIN5telux4cv2x10Cv2xConfigESaIS2_ELN9__gnu_cxx12_Lock_policyE2EEED2Ev=so_stub_for_libtelux_cv2x
-Wl,--defsym=_ZNSaISt23_Sp_counted_ptr_inplaceIN5telux4cv2x11Cv2xSysCtrlESaIS2_ELN9__gnu_cxx12_Lock_policyE2EEEC1IS2_EERKSaIT_E=so_stub_for_libtelux_cv2x
-Wl,--defsym=_ZNSaISt23_Sp_counted_ptr_inplaceIN5telux4cv2x11Cv2xSysCtrlESaIS2_ELN9__gnu_cxx12_Lock_policyE2EEEC2IS2_EERKSaIT_E=so_stub_for_libtelux_cv2x
-Wl,--defsym=_ZNSaISt23_Sp_counted_ptr_inplaceIN5telux4cv2x11Cv2xSysCtrlESaIS2_ELN9__gnu_cxx12_Lock_policyE2EEED1Ev=so_stub_for_libtelux_cv2x
-Wl,--defsym=_ZNSaISt23_Sp_counted_ptr_inplaceIN5telux4cv2x11Cv2xSysCtrlESaIS2_ELN9__gnu_cxx12_Lock_policyE2EEED2Ev=so_stub_for_libtelux_cv2x
-Wl,--defsym=_ZNSaISt23_Sp_counted_ptr_inplaceIN5telux4cv2x12DsiCv2xRadioESaIS2_ELN9__gnu_cxx12_Lock_policyE2EEEC1IS2_EERKSaIT_E=so_stub_for_libtelux_cv2x
-Wl,--defsym=_ZNSaISt23_Sp_counted_ptr_inplaceIN5telux4cv2x12DsiCv2xRadioESaIS2_ELN9__gnu_cxx12_Lock_policyE2EEEC2IS2_EERKSaIT_E=so_stub_for_libtelux_cv2x
-Wl,--defsym=_ZNSaISt23_Sp_counted_ptr_inplaceIN5telux4cv2x12DsiCv2xRadioESaIS2_ELN9__gnu_cxx12_Lock_policyE2EEED1Ev=so_stub_for_libtelux_cv2x
-Wl,--defsym=_ZNSaISt23_Sp_counted_ptr_inplaceIN5telux4cv2x12DsiCv2xRadioESaIS2_ELN9__gnu_cxx12_Lock_policyE2EEED2Ev=so_stub_for_libtelux_cv2x
-Wl,--defsym=_ZNSaISt23_Sp_counted_ptr_inplaceIN5telux4cv2x12EventHandlerESaIS2_ELN9__gnu_cxx12_Lock_policyE2EEEC1IS2_EERKSaIT_E=so_stub_for_libtelux_cv2x
-Wl,--defsym=_ZNSaISt23_Sp_counted_ptr_inplaceIN5telux4cv2x12EventHandlerESaIS2_ELN9__gnu_cxx12_Lock_policyE2EEEC2IS2_EERKSaIT_E=so_stub_for_libtelux_cv2x
-Wl,--defsym=_ZNSaISt23_Sp_counted_ptr_inplaceIN5telux4cv2x12EventHandlerESaIS2_ELN9__gnu_cxx12_Lock_policyE2EEED1Ev=so_stub_for_libtelux_cv2x
-Wl,--defsym=_ZNSaISt23_Sp_counted_ptr_inplaceIN5telux4cv2x12EventHandlerESaIS2_ELN9__gnu_cxx12_Lock_policyE2EEED2Ev=so_stub_for_libtelux_cv2x
-Wl,--defsym=_ZNSaISt23_Sp_counted_ptr_inplaceIN5telux4cv2x13Cv2xTxSpsFlowESaIS2_ELN9__gnu_cxx12_Lock_policyE2EEEC1IS2_EERKSaIT_E=so_stub_for_libtelux_cv2x
-Wl,--defsym=_ZNSaISt23_Sp_counted_ptr_inplaceIN5telux4cv2x13Cv2xTxSpsFlowESaIS2_ELN9__gnu_cxx12_Lock_policyE2EEEC2IS2_EERKSaIT_E=so_stub_for_libtelux_cv2x
-Wl,--defsym=_ZNSaISt23_Sp_counted_ptr_inplaceIN5telux4cv2x13Cv2xTxSpsFlowESaIS2_ELN9__gnu_cxx12_Lock_policyE2EEED1Ev=so_stub_for_libtelux_cv2x
-Wl,--defsym=_ZNSaISt23_Sp_counted_ptr_inplaceIN5telux4cv2x13Cv2xTxSpsFlowESaIS2_ELN9__gnu_cxx12_Lock_policyE2EEED2Ev=so_stub_for_libtelux_cv2x
-Wl,--defsym=_ZNSaISt23_Sp_counted_ptr_inplaceIN5telux4cv2x14Cv2xTxRxSocketESaIS2_ELN9__gnu_cxx12_Lock_policyE2EEEC1IS2_EERKSaIT_E=so_stub_for_libtelux_cv2x
-Wl,--defsym=_ZNSaISt23_Sp_counted_ptr_inplaceIN5telux4cv2x14Cv2xTxRxSocketESaIS2_ELN9__gnu_cxx12_Lock_policyE2EEEC2IS2_EERKSaIT_E=so_stub_for_libtelux_cv2x
-Wl,--defsym=_ZNSaISt23_Sp_counted_ptr_inplaceIN5telux4cv2x14Cv2xTxRxSocketESaIS2_ELN9__gnu_cxx12_Lock_policyE2EEED1Ev=so_stub_for_libtelux_cv2x
-Wl,--defsym=_ZNSaISt23_Sp_counted_ptr_inplaceIN5telux4cv2x14Cv2xTxRxSocketESaIS2_ELN9__gnu_cxx12_Lock_policyE2EEED2Ev=so_stub_for_libtelux_cv2x
-Wl,--defsym=_ZNSaISt23_Sp_counted_ptr_inplaceIN5telux4cv2x14IndicationDataESaIS2_ELN9__gnu_cxx12_Lock_policyE2EEEC1IS2_EERKSaIT_E=so_stub_for_libtelux_cv2x
-Wl,--defsym=_ZNSaISt23_Sp_counted_ptr_inplaceIN5telux4cv2x14IndicationDataESaIS2_ELN9__gnu_cxx12_Lock_policyE2EEEC2IS2_EERKSaIT_E=so_stub_for_libtelux_cv2x
-Wl,--defsym=_ZNSaISt23_Sp_counted_ptr_inplaceIN5telux4cv2x14IndicationDataESaIS2_ELN9__gnu_cxx12_Lock_policyE2EEED1Ev=so_stub_for_libtelux_cv2x
-Wl,--defsym=_ZNSaISt23_Sp_counted_ptr_inplaceIN5telux4cv2x14IndicationDataESaIS2_ELN9__gnu_cxx12_Lock_policyE2EEED2Ev=so_stub_for_libtelux_cv2x
-Wl,--defsym=_ZNSaISt23_Sp_counted_ptr_inplaceIN5telux4cv2x15Cv2xTxEventFlowESaIS2_ELN9__gnu_cxx12_Lock_policyE2EEEC1IS2_EERKSaIT_E=so_stub_for_libtelux_cv2x
-Wl,--defsym=_ZNSaISt23_Sp_counted_ptr_inplaceIN5telux4cv2x15Cv2xTxEventFlowESaIS2_ELN9__gnu_cxx12_Lock_policyE2EEEC2IS2_EERKSaIT_E=so_stub_for_libtelux_cv2x
-Wl,--defsym=_ZNSaISt23_Sp_counted_ptr_inplaceIN5telux4cv2x15Cv2xTxEventFlowESaIS2_ELN9__gnu_cxx12_Lock_policyE2EEED1Ev=so_stub_for_libtelux_cv2x
-Wl,--defsym=_ZNSaISt23_Sp_counted_ptr_inplaceIN5telux4cv2x15Cv2xTxEventFlowESaIS2_ELN9__gnu_cxx12_Lock_policyE2EEED2Ev=so_stub_for_libtelux_cv2x
-Wl,--defsym=_ZNSaISt23_Sp_counted_ptr_inplaceIN5telux4cv2x15EventDispatcherESaIS2_ELN9__gnu_cxx12_Lock_policyE2EEEC1IS2_EERKSaIT_E=so_stub_for_libtelux_cv2x
-Wl,--defsym=_ZNSaISt23_Sp_counted_ptr_inplaceIN5telux4cv2x15EventDispatcherESaIS2_ELN9__gnu_cxx12_Lock_policyE2EEEC2IS2_EERKSaIT_E=so_stub_for_libtelux_cv2x
-Wl,--defsym=_ZNSaISt23_Sp_counted_ptr_inplaceIN5telux4cv2x15EventDispatcherESaIS2_ELN9__gnu_cxx12_Lock_policyE2EEED1Ev=so_stub_for_libtelux_cv2x
-Wl,--defsym=_ZNSaISt23_Sp_counted_ptr_inplaceIN5telux4cv2x15EventDispatcherESaIS2_ELN9__gnu_cxx12_Lock_policyE2EEED2Ev=so_stub_for_libtelux_cv2x
-Wl,--defsym=_ZNSaISt23_Sp_counted_ptr_inplaceIN5telux4cv2x16Cv2xIndsListenerESaIS2_ELN9__gnu_cxx12_Lock_policyE2EEEC1IS2_EERKSaIT_E=so_stub_for_libtelux_cv2x
-Wl,--defsym=_ZNSaISt23_Sp_counted_ptr_inplaceIN5telux4cv2x16Cv2xIndsListenerESaIS2_ELN9__gnu_cxx12_Lock_policyE2EEEC2IS2_EERKSaIT_E=so_stub_for_libtelux_cv2x
-Wl,--defsym=_ZNSaISt23_Sp_counted_ptr_inplaceIN5telux4cv2x16Cv2xIndsListenerESaIS2_ELN9__gnu_cxx12_Lock_policyE2EEED1Ev=so_stub_for_libtelux_cv2x
-Wl,--defsym=_ZNSaISt23_Sp_counted_ptr_inplaceIN5telux4cv2x16Cv2xIndsListenerESaIS2_ELN9__gnu_cxx12_Lock_policyE2EEED2Ev=so_stub_for_libtelux_cv2x
-Wl,--defsym=_ZNSaISt23_Sp_counted_ptr_inplaceIN5telux4cv2x16Cv2xRadioManagerESaIS2_ELN9__gnu_cxx12_Lock_policyE2EEEC1IS2_EERKSaIT_E=so_stub_for_libtelux_cv2x
-Wl,--defsym=_ZNSaISt23_Sp_counted_ptr_inplaceIN5telux4cv2x16Cv2xRadioManagerESaIS2_ELN9__gnu_cxx12_Lock_policyE2EEEC2IS2_EERKSaIT_E=so_stub_for_libtelux_cv2x
-Wl,--defsym=_ZNSaISt23_Sp_counted_ptr_inplaceIN5telux4cv2x16Cv2xRadioManagerESaIS2_ELN9__gnu_cxx12_Lock_policyE2EEED1Ev=so_stub_for_libtelux_cv2x
-Wl,--defsym=_ZNSaISt23_Sp_counted_ptr_inplaceIN5telux4cv2x16Cv2xRadioManagerESaIS2_ELN9__gnu_cxx12_Lock_policyE2EEED2Ev=so_stub_for_libtelux_cv2x
-Wl,--defsym=_ZNSaISt23_Sp_counted_ptr_inplaceIN5telux4cv2x17ServiceStatusDataESaIS2_ELN9__gnu_cxx12_Lock_policyE2EEEC1IS2_EERKSaIT_E=so_stub_for_libtelux_cv2x
-Wl,--defsym=_ZNSaISt23_Sp_counted_ptr_inplaceIN5telux4cv2x17ServiceStatusDataESaIS2_ELN9__gnu_cxx12_Lock_policyE2EEEC2IS2_EERKSaIT_E=so_stub_for_libtelux_cv2x
-Wl,--defsym=_ZNSaISt23_Sp_counted_ptr_inplaceIN5telux4cv2x17ServiceStatusDataESaIS2_ELN9__gnu_cxx12_Lock_policyE2EEED1Ev=so_stub_for_libtelux_cv2x
-Wl,--defsym=_ZNSaISt23_Sp_counted_ptr_inplaceIN5telux4cv2x17ServiceStatusDataESaIS2_ELN9__gnu_cxx12_Lock_policyE2EEED2Ev=so_stub_for_libtelux_cv2x
-Wl,--defsym=_ZNSaISt23_Sp_counted_ptr_inplaceIN5telux4cv2x18Cv2xConfigListenerESaIS2_ELN9__gnu_cxx12_Lock_policyE2EEEC1IS2_EERKSaIT_E=so_stub_for_libtelux_cv2x
-Wl,--defsym=_ZNSaISt23_Sp_counted_ptr_inplaceIN5telux4cv2x18Cv2xConfigListenerESaIS2_ELN9__gnu_cxx12_Lock_policyE2EEEC2IS2_EERKSaIT_E=so_stub_for_libtelux_cv2x
-Wl,--defsym=_ZNSaISt23_Sp_counted_ptr_inplaceIN5telux4cv2x18Cv2xConfigListenerESaIS2_ELN9__gnu_cxx12_Lock_policyE2EEED1Ev=so_stub_for_libtelux_cv2x
-Wl,--defsym=_ZNSaISt23_Sp_counted_ptr_inplaceIN5telux4cv2x18Cv2xConfigListenerESaIS2_ELN9__gnu_cxx12_Lock_policyE2EEED2Ev=so_stub_for_libtelux_cv2x
-Wl,--defsym=_ZNSaISt23_Sp_counted_ptr_inplaceIN5telux4cv2x18Cv2xRxSubscriptionESaIS2_ELN9__gnu_cxx12_Lock_policyE2EEEC1IS2_EERKSaIT_E=so_stub_for_libtelux_cv2x
-Wl,--defsym=_ZNSaISt23_Sp_counted_ptr_inplaceIN5telux4cv2x18Cv2xRxSubscriptionESaIS2_ELN9__gnu_cxx12_Lock_policyE2EEEC2IS2_EERKSaIT_E=so_stub_for_libtelux_cv2x
-Wl,--defsym=_ZNSaISt23_Sp_counted_ptr_inplaceIN5telux4cv2x18Cv2xRxSubscriptionESaIS2_ELN9__gnu_cxx12_Lock_policyE2EEED1Ev=so_stub_for_libtelux_cv2x
-Wl,--defsym=_ZNSaISt23_Sp_counted_ptr_inplaceIN5telux4cv2x18Cv2xRxSubscriptionESaIS2_ELN9__gnu_cxx12_Lock_policyE2EEED2Ev=so_stub_for_libtelux_cv2x
-Wl,--defsym=_ZNSaISt23_Sp_counted_ptr_inplaceIN5telux4cv2x18QmiV2xStopCallbackESaIS2_ELN9__gnu_cxx12_Lock_policyE2EEEC1IS2_EERKSaIT_E=so_stub_for_libtelux_cv2x
-Wl,--defsym=_ZNSaISt23_Sp_counted_ptr_inplaceIN5telux4cv2x18QmiV2xStopCallbackESaIS2_ELN9__gnu_cxx12_Lock_policyE2EEEC2IS2_EERKSaIT_E=so_stub_for_libtelux_cv2x
-Wl,--defsym=_ZNSaISt23_Sp_counted_ptr_inplaceIN5telux4cv2x18QmiV2xStopCallbackESaIS2_ELN9__gnu_cxx12_Lock_policyE2EEED1Ev=so_stub_for_libtelux_cv2x
-Wl,--defsym=_ZNSaISt23_Sp_counted_ptr_inplaceIN5telux4cv2x18QmiV2xStopCallbackESaIS2_ELN9__gnu_cxx12_Lock_policyE2EEED2Ev=so_stub_for_libtelux_cv2x
-Wl,--defsym=_ZNSaISt23_Sp_counted_ptr_inplaceIN5telux4cv2x19QmiV2xStartCallbackESaIS2_ELN9__gnu_cxx12_Lock_policyE2EEEC1IS2_EERKSaIT_E=so_stub_for_libtelux_cv2x
-Wl,--defsym=_ZNSaISt23_Sp_counted_ptr_inplaceIN5telux4cv2x19QmiV2xStartCallbackESaIS2_ELN9__gnu_cxx12_Lock_policyE2EEEC2IS2_EERKSaIT_E=so_stub_for_libtelux_cv2x
-Wl,--defsym=_ZNSaISt23_Sp_counted_ptr_inplaceIN5telux4cv2x19QmiV2xStartCallbackESaIS2_ELN9__gnu_cxx12_Lock_policyE2EEED1Ev=so_stub_for_libtelux_cv2x
-Wl,--defsym=_ZNSaISt23_Sp_counted_ptr_inplaceIN5telux4cv2x19QmiV2xStartCallbackESaIS2_ELN9__gnu_cxx12_Lock_policyE2EEED2Ev=so_stub_for_libtelux_cv2x
-Wl,--defsym=_ZNSaISt23_Sp_counted_ptr_inplaceIN5telux4cv2x20QmiV2xStatusCallbackESaIS2_ELN9__gnu_cxx12_Lock_policyE2EEEC1IS2_EERKSaIT_E=so_stub_for_libtelux_cv2x
-Wl,--defsym=_ZNSaISt23_Sp_counted_ptr_inplaceIN5telux4cv2x20QmiV2xStatusCallbackESaIS2_ELN9__gnu_cxx12_Lock_policyE2EEEC2IS2_EERKSaIT_E=so_stub_for_libtelux_cv2x
-Wl,--defsym=_ZNSaISt23_Sp_counted_ptr_inplaceIN5telux4cv2x20QmiV2xStatusCallbackESaIS2_ELN9__gnu_cxx12_Lock_policyE2EEED1Ev=so_stub_for_libtelux_cv2x
-Wl,--defsym=_ZNSaISt23_Sp_counted_ptr_inplaceIN5telux4cv2x20QmiV2xStatusCallbackESaIS2_ELN9__gnu_cxx12_Lock_policyE2EEED2Ev=so_stub_for_libtelux_cv2x
-Wl,--defsym=_ZNSaISt23_Sp_counted_ptr_inplaceIN5telux4cv2x21QmiNasIndsRegCallbackESaIS2_ELN9__gnu_cxx12_Lock_policyE2EEEC1IS2_EERKSaIT_E=so_stub_for_libtelux_cv2x
-Wl,--defsym=_ZNSaISt23_Sp_counted_ptr_inplaceIN5telux4cv2x21QmiNasIndsRegCallbackESaIS2_ELN9__gnu_cxx12_Lock_policyE2EEEC2IS2_EERKSaIT_E=so_stub_for_libtelux_cv2x
-Wl,--defsym=_ZNSaISt23_Sp_counted_ptr_inplaceIN5telux4cv2x21QmiNasIndsRegCallbackESaIS2_ELN9__gnu_cxx12_Lock_policyE2EEED1Ev=so_stub_for_libtelux_cv2x
-Wl,--defsym=_ZNSaISt23_Sp_counted_ptr_inplaceIN5telux4cv2x21QmiNasIndsRegCallbackESaIS2_ELN9__gnu_cxx12_Lock_policyE2EEED2Ev=so_stub_for_libtelux_cv2x
-Wl,--defsym=_ZNSaISt23_Sp_counted_ptr_inplaceIN5telux4cv2x21ServiceStatusListenerESaIS2_ELN9__gnu_cxx12_Lock_policyE2EEEC1IS2_EERKSaIT_E=so_stub_for_libtelux_cv2x
-Wl,--defsym=_ZNSaISt23_Sp_counted_ptr_inplaceIN5telux4cv2x21ServiceStatusListenerESaIS2_ELN9__gnu_cxx12_Lock_policyE2EEEC2IS2_EERKSaIT_E=so_stub_for_libtelux_cv2x
-Wl,--defsym=_ZNSaISt23_Sp_counted_ptr_inplaceIN5telux4cv2x21ServiceStatusListenerESaIS2_ELN9__gnu_cxx12_Lock_policyE2EEED1Ev=so_stub_for_libtelux_cv2x
-Wl,--defsym=_ZNSaISt23_Sp_counted_ptr_inplaceIN5telux4cv2x21ServiceStatusListenerESaIS2_ELN9__gnu_cxx12_Lock_policyE2EEED2Ev=so_stub_for_libtelux_cv2x
-Wl,--defsym=_ZNSaISt23_Sp_counted_ptr_inplaceIN5telux4cv2x22QmiV2xStatusCallbackExESaIS2_ELN9__gnu_cxx12_Lock_policyE2EEEC1IS2_EERKSaIT_E=so_stub_for_libtelux_cv2x
-Wl,--defsym=_ZNSaISt23_Sp_counted_ptr_inplaceIN5telux4cv2x22QmiV2xStatusCallbackExESaIS2_ELN9__gnu_cxx12_Lock_policyE2EEEC2IS2_EERKSaIT_E=so_stub_for_libtelux_cv2x
-Wl,--defsym=_ZNSaISt23_Sp_counted_ptr_inplaceIN5telux4cv2x22QmiV2xStatusCallbackExESaIS2_ELN9__gnu_cxx12_Lock_policyE2EEED1Ev=so_stub_for_libtelux_cv2x
-Wl,--defsym=_ZNSaISt23_Sp_counted_ptr_inplaceIN5telux4cv2x22QmiV2xStatusCallbackExESaIS2_ELN9__gnu_cxx12_Lock_policyE2EEED2Ev=so_stub_for_libtelux_cv2x
-Wl,--defsym=_ZNSaISt23_Sp_counted_ptr_inplaceIN5telux4cv2x25QmiSetEventReportCallbackESaIS2_ELN9__gnu_cxx12_Lock_policyE2EEEC1IS2_EERKSaIT_E=so_stub_for_libtelux_cv2x
-Wl,--defsym=_ZNSaISt23_Sp_counted_ptr_inplaceIN5telux4cv2x25QmiSetEventReportCallbackESaIS2_ELN9__gnu_cxx12_Lock_policyE2EEEC2IS2_EERKSaIT_E=so_stub_for_libtelux_cv2x
-Wl,--defsym=_ZNSaISt23_Sp_counted_ptr_inplaceIN5telux4cv2x25QmiSetEventReportCallbackESaIS2_ELN9__gnu_cxx12_Lock_policyE2EEED1Ev=so_stub_for_libtelux_cv2x
-Wl,--defsym=_ZNSaISt23_Sp_counted_ptr_inplaceIN5telux4cv2x25QmiSetEventReportCallbackESaIS2_ELN9__gnu_cxx12_Lock_policyE2EEED2Ev=so_stub_for_libtelux_cv2x
-Wl,--defsym=_ZNSaISt23_Sp_counted_ptr_inplaceIN5telux4cv2x25QmiSetPeakTxPowerCallbackESaIS2_ELN9__gnu_cxx12_Lock_policyE2EEEC1IS2_EERKSaIT_E=so_stub_for_libtelux_cv2x
-Wl,--defsym=_ZNSaISt23_Sp_counted_ptr_inplaceIN5telux4cv2x25QmiSetPeakTxPowerCallbackESaIS2_ELN9__gnu_cxx12_Lock_policyE2EEEC2IS2_EERKSaIT_E=so_stub_for_libtelux_cv2x
-Wl,--defsym=_ZNSaISt23_Sp_counted_ptr_inplaceIN5telux4cv2x25QmiSetPeakTxPowerCallbackESaIS2_ELN9__gnu_cxx12_Lock_policyE2EEED1Ev=so_stub_for_libtelux_cv2x
-Wl,--defsym=_ZNSaISt23_Sp_counted_ptr_inplaceIN5telux4cv2x25QmiSetPeakTxPowerCallbackESaIS2_ELN9__gnu_cxx12_Lock_policyE2EEED2Ev=so_stub_for_libtelux_cv2x
-Wl,--defsym=_ZNSaISt23_Sp_counted_ptr_inplaceIN5telux4cv2x27QmiGetOperatingModeCallbackESaIS2_ELN9__gnu_cxx12_Lock_policyE2EEEC1IS2_EERKSaIT_E=so_stub_for_libtelux_cv2x
-Wl,--defsym=_ZNSaISt23_Sp_counted_ptr_inplaceIN5telux4cv2x27QmiGetOperatingModeCallbackESaIS2_ELN9__gnu_cxx12_Lock_policyE2EEEC2IS2_EERKSaIT_E=so_stub_for_libtelux_cv2x
-Wl,--defsym=_ZNSaISt23_Sp_counted_ptr_inplaceIN5telux4cv2x27QmiGetOperatingModeCallbackESaIS2_ELN9__gnu_cxx12_Lock_policyE2EEED1Ev=so_stub_for_libtelux_cv2x
-Wl,--defsym=_ZNSaISt23_Sp_counted_ptr_inplaceIN5telux4cv2x27QmiGetOperatingModeCallbackESaIS2_ELN9__gnu_cxx12_Lock_policyE2EEED2Ev=so_stub_for_libtelux_cv2x
-Wl,--defsym=_ZNSaISt23_Sp_counted_ptr_inplaceIN5telux4cv2x27QmiSetOperatingModeCallbackESaIS2_ELN9__gnu_cxx12_Lock_policyE2EEEC1IS2_EERKSaIT_E=so_stub_for_libtelux_cv2x
-Wl,--defsym=_ZNSaISt23_Sp_counted_ptr_inplaceIN5telux4cv2x27QmiSetOperatingModeCallbackESaIS2_ELN9__gnu_cxx12_Lock_policyE2EEEC2IS2_EERKSaIT_E=so_stub_for_libtelux_cv2x
-Wl,--defsym=_ZNSaISt23_Sp_counted_ptr_inplaceIN5telux4cv2x27QmiSetOperatingModeCallbackESaIS2_ELN9__gnu_cxx12_Lock_policyE2EEED1Ev=so_stub_for_libtelux_cv2x
-Wl,--defsym=_ZNSaISt23_Sp_counted_ptr_inplaceIN5telux4cv2x27QmiSetOperatingModeCallbackESaIS2_ELN9__gnu_cxx12_Lock_policyE2EEED2Ev=so_stub_for_libtelux_cv2x
-Wl,--defsym=_ZNSaISt23_Sp_counted_ptr_inplaceIN5telux4cv2x30QmiV2xGetConfigurationCallbackESaIS2_ELN9__gnu_cxx12_Lock_policyE2EEEC1IS2_EERKSaIT_E=so_stub_for_libtelux_cv2x
-Wl,--defsym=_ZNSaISt23_Sp_counted_ptr_inplaceIN5telux4cv2x30QmiV2xGetConfigurationCallbackESaIS2_ELN9__gnu_cxx12_Lock_policyE2EEEC2IS2_EERKSaIT_E=so_stub_for_libtelux_cv2x
-Wl,--defsym=_ZNSaISt23_Sp_counted_ptr_inplaceIN5telux4cv2x30QmiV2xGetConfigurationCallbackESaIS2_ELN9__gnu_cxx12_Lock_policyE2EEED1Ev=so_stub_for_libtelux_cv2x
-Wl,--defsym=_ZNSaISt23_Sp_counted_ptr_inplaceIN5telux4cv2x30QmiV2xGetConfigurationCallbackESaIS2_ELN9__gnu_cxx12_Lock_policyE2EEED2Ev=so_stub_for_libtelux_cv2x
-Wl,--defsym=_ZNSaISt23_Sp_counted_ptr_inplaceIN5telux4cv2x31QmiV2xRegisterConfigIndCallbackESaIS2_ELN9__gnu_cxx12_Lock_policyE2EEEC1IS2_EERKSaIT_E=so_stub_for_libtelux_cv2x
-Wl,--defsym=_ZNSaISt23_Sp_counted_ptr_inplaceIN5telux4cv2x31QmiV2xRegisterConfigIndCallbackESaIS2_ELN9__gnu_cxx12_Lock_policyE2EEEC2IS2_EERKSaIT_E=so_stub_for_libtelux_cv2x
-Wl,--defsym=_ZNSaISt23_Sp_counted_ptr_inplaceIN5telux4cv2x31QmiV2xRegisterConfigIndCallbackESaIS2_ELN9__gnu_cxx12_Lock_policyE2EEED1Ev=so_stub_for_libtelux_cv2x
-Wl,--defsym=_ZNSaISt23_Sp_counted_ptr_inplaceIN5telux4cv2x31QmiV2xRegisterConfigIndCallbackESaIS2_ELN9__gnu_cxx12_Lock_policyE2EEED2Ev=so_stub_for_libtelux_cv2x
-Wl,--defsym=_ZNSaISt23_Sp_counted_ptr_inplaceIN5telux4cv2x31SysctrlGetConfigurationCallbackESaIS2_ELN9__gnu_cxx12_Lock_policyE2EEEC1IS2_EERKSaIT_E=so_stub_for_libtelux_cv2x
-Wl,--defsym=_ZNSaISt23_Sp_counted_ptr_inplaceIN5telux4cv2x31SysctrlGetConfigurationCallbackESaIS2_ELN9__gnu_cxx12_Lock_policyE2EEEC2IS2_EERKSaIT_E=so_stub_for_libtelux_cv2x
-Wl,--defsym=_ZNSaISt23_Sp_counted_ptr_inplaceIN5telux4cv2x31SysctrlGetConfigurationCallbackESaIS2_ELN9__gnu_cxx12_Lock_policyE2EEED1Ev=so_stub_for_libtelux_cv2x
-Wl,--defsym=_ZNSaISt23_Sp_counted_ptr_inplaceIN5telux4cv2x31SysctrlGetConfigurationCallbackESaIS2_ELN9__gnu_cxx12_Lock_policyE2EEED2Ev=so_stub_for_libtelux_cv2x
-Wl,--defsym=_ZNSaISt23_Sp_counted_ptr_inplaceIN5telux4cv2x35QmiV2xSendConfigurationFileCallbackESaIS2_ELN9__gnu_cxx12_Lock_policyE2EEEC1IS2_EERKSaIT_E=so_stub_for_libtelux_cv2x
-Wl,--defsym=_ZNSaISt23_Sp_counted_ptr_inplaceIN5telux4cv2x35QmiV2xSendConfigurationFileCallbackESaIS2_ELN9__gnu_cxx12_Lock_policyE2EEEC2IS2_EERKSaIT_E=so_stub_for_libtelux_cv2x
-Wl,--defsym=_ZNSaISt23_Sp_counted_ptr_inplaceIN5telux4cv2x35QmiV2xSendConfigurationFileCallbackESaIS2_ELN9__gnu_cxx12_Lock_policyE2EEED1Ev=so_stub_for_libtelux_cv2x
-Wl,--defsym=_ZNSaISt23_Sp_counted_ptr_inplaceIN5telux4cv2x35QmiV2xSendConfigurationFileCallbackESaIS2_ELN9__gnu_cxx12_Lock_policyE2EEED2Ev=so_stub_for_libtelux_cv2x
-Wl,--defsym=_ZNSaISt23_Sp_counted_ptr_inplaceIN5telux4cv2x9EventInfoINS1_14IndicationDataEEESaIS4_ELN9__gnu_cxx12_Lock_policyE2EEEC1IS4_EERKSaIT_E=so_stub_for_libtelux_cv2x
-Wl,--defsym=_ZNSaISt23_Sp_counted_ptr_inplaceIN5telux4cv2x9EventInfoINS1_14IndicationDataEEESaIS4_ELN9__gnu_cxx12_Lock_policyE2EEEC2IS4_EERKSaIT_E=so_stub_for_libtelux_cv2x
-Wl,--defsym=_ZNSaISt23_Sp_counted_ptr_inplaceIN5telux4cv2x9EventInfoINS1_14IndicationDataEEESaIS4_ELN9__gnu_cxx12_Lock_policyE2EEED1Ev=so_stub_for_libtelux_cv2x
-Wl,--defsym=_ZNSaISt23_Sp_counted_ptr_inplaceIN5telux4cv2x9EventInfoINS1_14IndicationDataEEESaIS4_ELN9__gnu_cxx12_Lock_policyE2EEED2Ev=so_stub_for_libtelux_cv2x
-Wl,--defsym=_ZNSaISt23_Sp_counted_ptr_inplaceIN5telux4cv2x9EventInfoINS1_17ServiceStatusDataEEESaIS4_ELN9__gnu_cxx12_Lock_policyE2EEEC1IS4_EERKSaIT_E=so_stub_for_libtelux_cv2x
-Wl,--defsym=_ZNSaISt23_Sp_counted_ptr_inplaceIN5telux4cv2x9EventInfoINS1_17ServiceStatusDataEEESaIS4_ELN9__gnu_cxx12_Lock_policyE2EEEC2IS4_EERKSaIT_E=so_stub_for_libtelux_cv2x
-Wl,--defsym=_ZNSaISt23_Sp_counted_ptr_inplaceIN5telux4cv2x9EventInfoINS1_17ServiceStatusDataEEESaIS4_ELN9__gnu_cxx12_Lock_policyE2EEED1Ev=so_stub_for_libtelux_cv2x
-Wl,--defsym=_ZNSaISt23_Sp_counted_ptr_inplaceIN5telux4cv2x9EventInfoINS1_17ServiceStatusDataEEESaIS4_ELN9__gnu_cxx12_Lock_policyE2EEED2Ev=so_stub_for_libtelux_cv2x
-Wl,--defsym=_ZNSaISt23_Sp_counted_ptr_inplaceIN5telux6common15ListenerManagerINS0_4cv2x13ICv2xListenerEEESaIS5_ELN9__gnu_cxx12_Lock_policyE2EEEC1IS5_EERKSaIT_E=so_stub_for_libtelux_cv2x
-Wl,--defsym=_ZNSaISt23_Sp_counted_ptr_inplaceIN5telux6common15ListenerManagerINS0_4cv2x13ICv2xListenerEEESaIS5_ELN9__gnu_cxx12_Lock_policyE2EEEC2IS5_EERKSaIT_E=so_stub_for_libtelux_cv2x
-Wl,--defsym=_ZNSaISt23_Sp_counted_ptr_inplaceIN5telux6common15ListenerManagerINS0_4cv2x13ICv2xListenerEEESaIS5_ELN9__gnu_cxx12_Lock_policyE2EEED1Ev=so_stub_for_libtelux_cv2x
-Wl,--defsym=_ZNSaISt23_Sp_counted_ptr_inplaceIN5telux6common15ListenerManagerINS0_4cv2x13ICv2xListenerEEESaIS5_ELN9__gnu_cxx12_Lock_policyE2EEED2Ev=so_stub_for_libtelux_cv2x
-Wl,--defsym=_ZNSaISt23_Sp_counted_ptr_inplaceIN5telux6common15ListenerManagerINS0_4cv2x19ICv2xConfigListenerEEESaIS5_ELN9__gnu_cxx12_Lock_policyE2EEEC1IS5_EERKSaIT_E=so_stub_for_libtelux_cv2x
-Wl,--defsym=_ZNSaISt23_Sp_counted_ptr_inplaceIN5telux6common15ListenerManagerINS0_4cv2x19ICv2xConfigListenerEEESaIS5_ELN9__gnu_cxx12_Lock_policyE2EEEC2IS5_EERKSaIT_E=so_stub_for_libtelux_cv2x
-Wl,--defsym=_ZNSaISt23_Sp_counted_ptr_inplaceIN5telux6common15ListenerManagerINS0_4cv2x19ICv2xConfigListenerEEESaIS5_ELN9__gnu_cxx12_Lock_policyE2EEED1Ev=so_stub_for_libtelux_cv2x
-Wl,--defsym=_ZNSaISt23_Sp_counted_ptr_inplaceIN5telux6common15ListenerManagerINS0_4cv2x19ICv2xConfigListenerEEESaIS5_ELN9__gnu_cxx12_Lock_policyE2EEED2Ev=so_stub_for_libtelux_cv2x
-Wl,--defsym=_ZNSaISt23_Sp_counted_ptr_inplaceINSt13__future_base13_State_baseV2ESaIS1_ELN9__gnu_cxx12_Lock_policyE2EEEC1IS1_EERKSaIT_E=so_stub_for_libtelux_cv2x
-Wl,--defsym=_ZNSaISt23_Sp_counted_ptr_inplaceINSt13__future_base13_State_baseV2ESaIS1_ELN9__gnu_cxx12_Lock_policyE2EEEC2IS1_EERKSaIT_E=so_stub_for_libtelux_cv2x
-Wl,--defsym=_ZNSaISt23_Sp_counted_ptr_inplaceINSt13__future_base13_State_baseV2ESaIS1_ELN9__gnu_cxx12_Lock_policyE2EEED1Ev=so_stub_for_libtelux_cv2x
-Wl,--defsym=_ZNSaISt23_Sp_counted_ptr_inplaceINSt13__future_base13_State_baseV2ESaIS1_ELN9__gnu_cxx12_Lock_policyE2EEED2Ev=so_stub_for_libtelux_cv2x
-Wl,--defsym=_ZNSaISt23_Sp_counted_ptr_inplaceISt6threadSaIS0_ELN9__gnu_cxx12_Lock_policyE2EEEC1IS0_EERKSaIT_E=so_stub_for_libtelux_cv2x
-Wl,--defsym=_ZNSaISt23_Sp_counted_ptr_inplaceISt6threadSaIS0_ELN9__gnu_cxx12_Lock_policyE2EEEC2IS0_EERKSaIT_E=so_stub_for_libtelux_cv2x
-Wl,--defsym=_ZNSaISt23_Sp_counted_ptr_inplaceISt6threadSaIS0_ELN9__gnu_cxx12_Lock_policyE2EEED1Ev=so_stub_for_libtelux_cv2x
-Wl,--defsym=_ZNSaISt23_Sp_counted_ptr_inplaceISt6threadSaIS0_ELN9__gnu_cxx12_Lock_policyE2EEED2Ev=so_stub_for_libtelux_cv2x
-Wl,--defsym=_ZNSaISt23_Sp_counted_ptr_inplaceISt6vectorIjSaIjEESaIS2_ELN9__gnu_cxx12_Lock_policyE2EEEC1IS2_EERKSaIT_E=so_stub_for_libtelux_cv2x
-Wl,--defsym=_ZNSaISt23_Sp_counted_ptr_inplaceISt6vectorIjSaIjEESaIS2_ELN9__gnu_cxx12_Lock_policyE2EEEC2IS2_EERKSaIT_E=so_stub_for_libtelux_cv2x
-Wl,--defsym=_ZNSaISt23_Sp_counted_ptr_inplaceISt6vectorIjSaIjEESaIS2_ELN9__gnu_cxx12_Lock_policyE2EEED1Ev=so_stub_for_libtelux_cv2x
-Wl,--defsym=_ZNSaISt23_Sp_counted_ptr_inplaceISt6vectorIjSaIjEESaIS2_ELN9__gnu_cxx12_Lock_policyE2EEED2Ev=so_stub_for_libtelux_cv2x
-Wl,--defsym=_ZNSaISt4pairIbSt8weak_ptrIN5telux4cv2x18ICv2xRadioListenerEEEEC1Ev=so_stub_for_libtelux_cv2x
-Wl,--defsym=_ZNSaISt4pairIbSt8weak_ptrIN5telux4cv2x18ICv2xRadioListenerEEEEC2Ev=so_stub_for_libtelux_cv2x
-Wl,--defsym=_ZNSaISt4pairIbSt8weak_ptrIN5telux4cv2x18ICv2xRadioListenerEEEED1Ev=so_stub_for_libtelux_cv2x
-Wl,--defsym=_ZNSaISt4pairIbSt8weak_ptrIN5telux4cv2x18ICv2xRadioListenerEEEED2Ev=so_stub_for_libtelux_cv2x
-Wl,--defsym=_ZNSaISt6threadEC1ERKS0_=so_stub_for_libtelux_cv2x
-Wl,--defsym=_ZNSaISt6threadEC1Ev=so_stub_for_libtelux_cv2x
-Wl,--defsym=_ZNSaISt6threadEC2ERKS0_=so_stub_for_libtelux_cv2x
-Wl,--defsym=_ZNSaISt6threadEC2Ev=so_stub_for_libtelux_cv2x
-Wl,--defsym=_ZNSaISt6threadED1Ev=so_stub_for_libtelux_cv2x
-Wl,--defsym=_ZNSaISt6threadED2Ev=so_stub_for_libtelux_cv2x
-Wl,--defsym=_ZNSaISt6vectorIjSaIjEEEC1ERKS2_=so_stub_for_libtelux_cv2x
-Wl,--defsym=_ZNSaISt6vectorIjSaIjEEEC1Ev=so_stub_for_libtelux_cv2x
-Wl,--defsym=_ZNSaISt6vectorIjSaIjEEEC2ERKS2_=so_stub_for_libtelux_cv2x
-Wl,--defsym=_ZNSaISt6vectorIjSaIjEEEC2Ev=so_stub_for_libtelux_cv2x
-Wl,--defsym=_ZNSaISt6vectorIjSaIjEEED1Ev=so_stub_for_libtelux_cv2x
-Wl,--defsym=_ZNSaISt6vectorIjSaIjEEED2Ev=so_stub_for_libtelux_cv2x
-Wl,--defsym=_ZNSaISt8weak_ptrIN5telux4cv2x13ICv2xListenerEEEC1Ev=so_stub_for_libtelux_cv2x
-Wl,--defsym=_ZNSaISt8weak_ptrIN5telux4cv2x13ICv2xListenerEEEC2Ev=so_stub_for_libtelux_cv2x
-Wl,--defsym=_ZNSaISt8weak_ptrIN5telux4cv2x13ICv2xListenerEEED1Ev=so_stub_for_libtelux_cv2x
-Wl,--defsym=_ZNSaISt8weak_ptrIN5telux4cv2x13ICv2xListenerEEED2Ev=so_stub_for_libtelux_cv2x
-Wl,--defsym=_ZNSaISt8weak_ptrIN5telux4cv2x19ICv2xConfigListenerEEEC1Ev=so_stub_for_libtelux_cv2x
-Wl,--defsym=_ZNSaISt8weak_ptrIN5telux4cv2x19ICv2xConfigListenerEEEC2Ev=so_stub_for_libtelux_cv2x
-Wl,--defsym=_ZNSaISt8weak_ptrIN5telux4cv2x19ICv2xConfigListenerEEED1Ev=so_stub_for_libtelux_cv2x
-Wl,--defsym=_ZNSaISt8weak_ptrIN5telux4cv2x19ICv2xConfigListenerEEED2Ev=so_stub_for_libtelux_cv2x
-Wl,--defsym=_ZNSaISt8weak_ptrIN5telux4cv2x20ICv2xSysCtrlListenerEEEC1Ev=so_stub_for_libtelux_cv2x
-Wl,--defsym=_ZNSaISt8weak_ptrIN5telux4cv2x20ICv2xSysCtrlListenerEEEC2Ev=so_stub_for_libtelux_cv2x
-Wl,--defsym=_ZNSaISt8weak_ptrIN5telux4cv2x20ICv2xSysCtrlListenerEEED1Ev=so_stub_for_libtelux_cv2x
-Wl,--defsym=_ZNSaISt8weak_ptrIN5telux4cv2x20ICv2xSysCtrlListenerEEED2Ev=so_stub_for_libtelux_cv2x
-Wl,--defsym=_ZNSaIyEC1ERKS_=so_stub_for_libtelux_cv2x
-Wl,--defsym=_ZNSaIyEC1Ev=so_stub_for_libtelux_cv2x
-Wl,--defsym=_ZNSaIyEC2ERKS_=so_stub_for_libtelux_cv2x
-Wl,--defsym=_ZNSaIyEC2Ev=so_stub_for_libtelux_cv2x
-Wl,--defsym=_ZNSaIyED1Ev=so_stub_for_libtelux_cv2x
-Wl,--defsym=_ZNSaIyED2Ev=so_stub_for_libtelux_cv2x
-Wl,--defsym=_ZNSt10error_codeC1EiRKNSt3_V214error_categoryE=so_stub_for_libtelux_cv2x
-Wl,--defsym=_ZNSt10error_codeC2EiRKNSt3_V214error_categoryE=so_stub_for_libtelux_cv2x
-Wl,--defsym=_ZNSt10_Head_baseILj0EOjLb0EE7_M_headERS1_=so_stub_for_libtelux_cv2x
-Wl,--defsym=_ZNSt10_Head_baseILj0EOjLb0EEC1IjEEOT_=so_stub_for_libtelux_cv2x
-Wl,--defsym=_ZNSt10_Head_baseILj0EOjLb0EEC2IjEEOT_=so_stub_for_libtelux_cv2x
-Wl,--defsym=_ZNSt10_Head_baseILj0EOSt10shared_ptrIN5telux4cv2x14IndicationDataEELb0EE7_M_headERS6_=so_stub_for_libtelux_cv2x
-Wl,--defsym=_ZNSt10_Head_baseILj0EOSt10shared_ptrIN5telux4cv2x14IndicationDataEELb0EEC1IS4_EEOT_=so_stub_for_libtelux_cv2x
-Wl,--defsym=_ZNSt10_Head_baseILj0EOSt10shared_ptrIN5telux4cv2x14IndicationDataEELb0EEC2IS4_EEOT_=so_stub_for_libtelux_cv2x
-Wl,--defsym=_ZNSt10_Head_baseILj0EOSt10shared_ptrIN5telux4cv2x17ServiceStatusDataEELb0EE7_M_headERS6_=so_stub_for_libtelux_cv2x
-Wl,--defsym=_ZNSt10_Head_baseILj0EOSt10shared_ptrIN5telux4cv2x17ServiceStatusDataEELb0EEC1IS4_EEOT_=so_stub_for_libtelux_cv2x
-Wl,--defsym=_ZNSt10_Head_baseILj0EOSt10shared_ptrIN5telux4cv2x17ServiceStatusDataEELb0EEC2IS4_EEOT_=so_stub_for_libtelux_cv2x
-Wl,--defsym=_ZNSt10_Head_baseILj0EPN5telux4cv2x11Cv2xSysCtrlELb0EE7_M_headERS4_=so_stub_for_libtelux_cv2x
-Wl,--defsym=_ZNSt10_Head_baseILj0EPN5telux4cv2x11Cv2xSysCtrlELb0EEC1IRS3_EEOT_=so_stub_for_libtelux_cv2x
-Wl,--defsym=_ZNSt10_Head_baseILj0EPN5telux4cv2x11Cv2xSysCtrlELb0EEC1IS3_EEOT_=so_stub_for_libtelux_cv2x
-Wl,--defsym=_ZNSt10_Head_baseILj0EPN5telux4cv2x11Cv2xSysCtrlELb0EEC2IRS3_EEOT_=so_stub_for_libtelux_cv2x
-Wl,--defsym=_ZNSt10_Head_baseILj0EPN5telux4cv2x11Cv2xSysCtrlELb0EEC2IS3_EEOT_=so_stub_for_libtelux_cv2x
-Wl,--defsym=_ZNSt10_Head_baseILj0EPNSt13__future_base12_Result_baseELb0EE7_M_headERKS3_=so_stub_for_libtelux_cv2x
-Wl,--defsym=_ZNSt10_Head_baseILj0EPNSt13__future_base12_Result_baseELb0EE7_M_headERS3_=so_stub_for_libtelux_cv2x
-Wl,--defsym=_ZNSt10_Head_baseILj0EPNSt13__future_base12_Result_baseELb0EEC1Ev=so_stub_for_libtelux_cv2x
-Wl,--defsym=_ZNSt10_Head_baseILj0EPNSt13__future_base12_Result_baseELb0EEC1IRS2_EEOT_=so_stub_for_libtelux_cv2x
-Wl,--defsym=_ZNSt10_Head_baseILj0EPNSt13__future_base12_Result_baseELb0EEC1IS2_EEOT_=so_stub_for_libtelux_cv2x
-Wl,--defsym=_ZNSt10_Head_baseILj0EPNSt13__future_base12_Result_baseELb0EEC2Ev=so_stub_for_libtelux_cv2x
-Wl,--defsym=_ZNSt10_Head_baseILj0EPNSt13__future_base12_Result_baseELb0EEC2IRS2_EEOT_=so_stub_for_libtelux_cv2x
-Wl,--defsym=_ZNSt10_Head_baseILj0EPNSt13__future_base12_Result_baseELb0EEC2IS2_EEOT_=so_stub_for_libtelux_cv2x
-Wl,--defsym=_ZNSt10_Head_baseILj0EPNSt13__future_base7_ResultIbEELb0EE7_M_headERKS4_=so_stub_for_libtelux_cv2x
-Wl,--defsym=_ZNSt10_Head_baseILj0EPNSt13__future_base7_ResultIbEELb0EE7_M_headERS4_=so_stub_for_libtelux_cv2x
-Wl,--defsym=_ZNSt10_Head_baseILj0EPNSt13__future_base7_ResultIbEELb0EEC1Ev=so_stub_for_libtelux_cv2x
-Wl,--defsym=_ZNSt10_Head_baseILj0EPNSt13__future_base7_ResultIbEELb0EEC1IRS3_EEOT_=so_stub_for_libtelux_cv2x
-Wl,--defsym=_ZNSt10_Head_baseILj0EPNSt13__future_base7_ResultIbEELb0EEC2Ev=so_stub_for_libtelux_cv2x
-Wl,--defsym=_ZNSt10_Head_baseILj0EPNSt13__future_base7_ResultIbEELb0EEC2IRS3_EEOT_=so_stub_for_libtelux_cv2x
-Wl,--defsym=_ZNSt10_Head_baseILj0EPNSt13__future_base7_ResultIiEELb0EE7_M_headERKS4_=so_stub_for_libtelux_cv2x
-Wl,--defsym=_ZNSt10_Head_baseILj0EPNSt13__future_base7_ResultIiEELb0EE7_M_headERS4_=so_stub_for_libtelux_cv2x
-Wl,--defsym=_ZNSt10_Head_baseILj0EPNSt13__future_base7_ResultIiEELb0EEC1Ev=so_stub_for_libtelux_cv2x
-Wl,--defsym=_ZNSt10_Head_baseILj0EPNSt13__future_base7_ResultIiEELb0EEC1IRS3_EEOT_=so_stub_for_libtelux_cv2x
-Wl,--defsym=_ZNSt10_Head_baseILj0EPNSt13__future_base7_ResultIiEELb0EEC2Ev=so_stub_for_libtelux_cv2x
-Wl,--defsym=_ZNSt10_Head_baseILj0EPNSt13__future_base7_ResultIiEELb0EEC2IRS3_EEOT_=so_stub_for_libtelux_cv2x
-Wl,--defsym=_ZNSt10_Head_baseILj0EPNSt13__future_base7_ResultIN5telux6common6StatusEEELb0EE7_M_headERKS7_=so_stub_for_libtelux_cv2x
-Wl,--defsym=_ZNSt10_Head_baseILj0EPNSt13__future_base7_ResultIN5telux6common6StatusEEELb0EE7_M_headERS7_=so_stub_for_libtelux_cv2x
-Wl,--defsym=_ZNSt10_Head_baseILj0EPNSt13__future_base7_ResultIN5telux6common6StatusEEELb0EEC1Ev=so_stub_for_libtelux_cv2x
-Wl,--defsym=_ZNSt10_Head_baseILj0EPNSt13__future_base7_ResultIN5telux6common6StatusEEELb0EEC1IRS6_EEOT_=so_stub_for_libtelux_cv2x
-Wl,--defsym=_ZNSt10_Head_baseILj0EPNSt13__future_base7_ResultIN5telux6common6StatusEEELb0EEC2Ev=so_stub_for_libtelux_cv2x
-Wl,--defsym=_ZNSt10_Head_baseILj0EPNSt13__future_base7_ResultIN5telux6common6StatusEEELb0EEC2IRS6_EEOT_=so_stub_for_libtelux_cv2x
-Wl,--defsym=_ZNSt10_Head_baseILj0EPNSt13__future_base7_ResultIN5telux6common9ErrorCodeEEELb0EE7_M_headERKS7_=so_stub_for_libtelux_cv2x
-Wl,--defsym=_ZNSt10_Head_baseILj0EPNSt13__future_base7_ResultIN5telux6common9ErrorCodeEEELb0EE7_M_headERS7_=so_stub_for_libtelux_cv2x
-Wl,--defsym=_ZNSt10_Head_baseILj0EPNSt13__future_base7_ResultIN5telux6common9ErrorCodeEEELb0EEC1Ev=so_stub_for_libtelux_cv2x
-Wl,--defsym=_ZNSt10_Head_baseILj0EPNSt13__future_base7_ResultIN5telux6common9ErrorCodeEEELb0EEC1IRS6_EEOT_=so_stub_for_libtelux_cv2x
-Wl,--defsym=_ZNSt10_Head_baseILj0EPNSt13__future_base7_ResultIN5telux6common9ErrorCodeEEELb0EEC2Ev=so_stub_for_libtelux_cv2x
-Wl,--defsym=_ZNSt10_Head_baseILj0EPNSt13__future_base7_ResultIN5telux6common9ErrorCodeEEELb0EEC2IRS6_EEOT_=so_stub_for_libtelux_cv2x
-Wl,--defsym=_ZNSt10_Head_baseILj0EPNSt13__future_base7_ResultIvEELb0EE7_M_headERKS4_=so_stub_for_libtelux_cv2x
-Wl,--defsym=_ZNSt10_Head_baseILj0EPNSt13__future_base7_ResultIvEELb0EE7_M_headERS4_=so_stub_for_libtelux_cv2x
-Wl,--defsym=_ZNSt10_Head_baseILj0EPNSt13__future_base7_ResultIvEELb0EEC1Ev=so_stub_for_libtelux_cv2x
-Wl,--defsym=_ZNSt10_Head_baseILj0EPNSt13__future_base7_ResultIvEELb0EEC1IRS3_EEOT_=so_stub_for_libtelux_cv2x
-Wl,--defsym=_ZNSt10_Head_baseILj0EPNSt13__future_base7_ResultIvEELb0EEC2Ev=so_stub_for_libtelux_cv2x
-Wl,--defsym=_ZNSt10_Head_baseILj0EPNSt13__future_base7_ResultIvEELb0EEC2IRS3_EEOT_=so_stub_for_libtelux_cv2x
-Wl,--defsym=_ZNSt10_Head_baseILj0EPNSt6thread6_StateELb0EE7_M_headERS3_=so_stub_for_libtelux_cv2x
-Wl,--defsym=_ZNSt10_Head_baseILj0EPNSt6thread6_StateELb0EEC1Ev=so_stub_for_libtelux_cv2x
-Wl,--defsym=_ZNSt10_Head_baseILj0EPNSt6thread6_StateELb0EEC2Ev=so_stub_for_libtelux_cv2x
-Wl,--defsym=_ZNSt10_Head_baseILj0EPNSt7__cxx1112basic_stringIcSt11char_traitsIcESaIcEEELb0EE7_M_headERKS7_=so_stub_for_libtelux_cv2x
-Wl,--defsym=_ZNSt10_Head_baseILj0EPNSt7__cxx1112basic_stringIcSt11char_traitsIcESaIcEEELb0EE7_M_headERS7_=so_stub_for_libtelux_cv2x
-Wl,--defsym=_ZNSt10_Head_baseILj0EPNSt7__cxx1112basic_stringIcSt11char_traitsIcESaIcEEELb0EEC1Ev=so_stub_for_libtelux_cv2x
-Wl,--defsym=_ZNSt10_Head_baseILj0EPNSt7__cxx1112basic_stringIcSt11char_traitsIcESaIcEEELb0EEC2Ev=so_stub_for_libtelux_cv2x
-Wl,--defsym=_ZNSt10_Head_baseILj0ERKjLb0EE7_M_headERS2_=so_stub_for_libtelux_cv2x
-Wl,--defsym=_ZNSt10_Head_baseILj0ERKjLb0EEC1ES1_=so_stub_for_libtelux_cv2x
-Wl,--defsym=_ZNSt10_Head_baseILj0ERKjLb0EEC2ES1_=so_stub_for_libtelux_cv2x
-Wl,--defsym=_ZNSt10_Head_baseILj1ENSt13__future_base12_Result_base8_DeleterELb1EE7_M_headERS3_=so_stub_for_libtelux_cv2x
-Wl,--defsym=_ZNSt10_Head_baseILj1ENSt13__future_base12_Result_base8_DeleterELb1EEC1Ev=so_stub_for_libtelux_cv2x
-Wl,--defsym=_ZNSt10_Head_baseILj1ENSt13__future_base12_Result_base8_DeleterELb1EEC1IS2_EEOT_=so_stub_for_libtelux_cv2x
-Wl,--defsym=_ZNSt10_Head_baseILj1ENSt13__future_base12_Result_base8_DeleterELb1EEC2Ev=so_stub_for_libtelux_cv2x
-Wl,--defsym=_ZNSt10_Head_baseILj1ENSt13__future_base12_Result_base8_DeleterELb1EEC2IS2_EEOT_=so_stub_for_libtelux_cv2x
-Wl,--defsym=_ZNSt10_Head_baseILj1ESt12_PlaceholderILi1EELb1EE7_M_headERS2_=so_stub_for_libtelux_cv2x
-Wl,--defsym=_ZNSt10_Head_baseILj1ESt12_PlaceholderILi1EELb1EEC1ERKS1_=so_stub_for_libtelux_cv2x
-Wl,--defsym=_ZNSt10_Head_baseILj1ESt12_PlaceholderILi1EELb1EEC1IS1_EEOT_=so_stub_for_libtelux_cv2x
-Wl,--defsym=_ZNSt10_Head_baseILj1ESt12_PlaceholderILi1EELb1EEC2ERKS1_=so_stub_for_libtelux_cv2x
-Wl,--defsym=_ZNSt10_Head_baseILj1ESt12_PlaceholderILi1EELb1EEC2IS1_EEOT_=so_stub_for_libtelux_cv2x
-Wl,--defsym=_ZNSt10_Head_baseILj1ESt14default_deleteINSt6thread6_StateEELb1EE7_M_headERS4_=so_stub_for_libtelux_cv2x
-Wl,--defsym=_ZNSt10_Head_baseILj1ESt14default_deleteINSt6thread6_StateEELb1EEC1Ev=so_stub_for_libtelux_cv2x
-Wl,--defsym=_ZNSt10_Head_baseILj1ESt14default_deleteINSt6thread6_StateEELb1EEC2Ev=so_stub_for_libtelux_cv2x
-Wl,--defsym=_ZNSt10_Head_baseILj1ESt14default_deleteINSt7__cxx1112basic_stringIcSt11char_traitsIcESaIcEEEELb1EE7_M_headERS8_=so_stub_for_libtelux_cv2x
-Wl,--defsym=_ZNSt10_Head_baseILj1ESt14default_deleteINSt7__cxx1112basic_stringIcSt11char_traitsIcESaIcEEEELb1EEC1Ev=so_stub_for_libtelux_cv2x
-Wl,--defsym=_ZNSt10_Head_baseILj1ESt14default_deleteINSt7__cxx1112basic_stringIcSt11char_traitsIcESaIcEEEELb1EEC2Ev=so_stub_for_libtelux_cv2x
-Wl,--defsym=_ZNSt10_List_nodeISt10shared_ptrIN5telux4cv2x13EventInfoBaseEEE9_M_valptrEv=so_stub_for_libtelux_cv2x
-Wl,--defsym=_ZNSt10lock_guardISt15recursive_mutexEC1ERS0_=so_stub_for_libtelux_cv2x
-Wl,--defsym=_ZNSt10lock_guardISt15recursive_mutexEC2ERS0_=so_stub_for_libtelux_cv2x
-Wl,--defsym=_ZNSt10lock_guardISt15recursive_mutexED1Ev=so_stub_for_libtelux_cv2x
-Wl,--defsym=_ZNSt10lock_guardISt15recursive_mutexED2Ev=so_stub_for_libtelux_cv2x
-Wl,--defsym=_ZNSt10lock_guardISt5mutexEC1ERS0_=so_stub_for_libtelux_cv2x
-Wl,--defsym=_ZNSt10lock_guardISt5mutexEC2ERS0_=so_stub_for_libtelux_cv2x
-Wl,--defsym=_ZNSt10lock_guardISt5mutexED1Ev=so_stub_for_libtelux_cv2x
-Wl,--defsym=_ZNSt10lock_guardISt5mutexED2Ev=so_stub_for_libtelux_cv2x
-Wl,--defsym=_ZNSt10shared_ptrIN5telux3qmi12DmsQmiClientEEaSEOS3_=so_stub_for_libtelux_cv2x
-Wl,--defsym=_ZNSt10shared_ptrIN5telux3qmi12DmsQmiClientEEC1Ev=so_stub_for_libtelux_cv2x
-Wl,--defsym=_ZNSt10shared_ptrIN5telux3qmi12DmsQmiClientEEC2Ev=so_stub_for_libtelux_cv2x
-Wl,--defsym=_ZNSt10shared_ptrIN5telux3qmi12DmsQmiClientEED1Ev=so_stub_for_libtelux_cv2x
-Wl,--defsym=_ZNSt10shared_ptrIN5telux3qmi12DmsQmiClientEED2Ev=so_stub_for_libtelux_cv2x
-Wl,--defsym=_ZNSt10shared_ptrIN5telux3qmi12NasQmiClientEEaSEOS3_=so_stub_for_libtelux_cv2x
-Wl,--defsym=_ZNSt10shared_ptrIN5telux3qmi12NasQmiClientEEC1EDn=so_stub_for_libtelux_cv2x
-Wl,--defsym=_ZNSt10shared_ptrIN5telux3qmi12NasQmiClientEEC1Ev=so_stub_for_libtelux_cv2x
-Wl,--defsym=_ZNSt10shared_ptrIN5telux3qmi12NasQmiClientEEC2EDn=so_stub_for_libtelux_cv2x
-Wl,--defsym=_ZNSt10shared_ptrIN5telux3qmi12NasQmiClientEEC2Ev=so_stub_for_libtelux_cv2x
-Wl,--defsym=_ZNSt10shared_ptrIN5telux3qmi12NasQmiClientEED1Ev=so_stub_for_libtelux_cv2x
-Wl,--defsym=_ZNSt10shared_ptrIN5telux3qmi12NasQmiClientEED2Ev=so_stub_for_libtelux_cv2x
-Wl,--defsym=_ZNSt10shared_ptrIN5telux3qmi12WdsQmiClientEEaSEOS3_=so_stub_for_libtelux_cv2x
-Wl,--defsym=_ZNSt10shared_ptrIN5telux3qmi12WdsQmiClientEEC1EDn=so_stub_for_libtelux_cv2x
-Wl,--defsym=_ZNSt10shared_ptrIN5telux3qmi12WdsQmiClientEEC1Ev=so_stub_for_libtelux_cv2x
-Wl,--defsym=_ZNSt10shared_ptrIN5telux3qmi12WdsQmiClientEEC2EDn=so_stub_for_libtelux_cv2x
-Wl,--defsym=_ZNSt10shared_ptrIN5telux3qmi12WdsQmiClientEEC2Ev=so_stub_for_libtelux_cv2x
-Wl,--defsym=_ZNSt10shared_ptrIN5telux3qmi12WdsQmiClientEED1Ev=so_stub_for_libtelux_cv2x
-Wl,--defsym=_ZNSt10shared_ptrIN5telux3qmi12WdsQmiClientEED2Ev=so_stub_for_libtelux_cv2x
-Wl,--defsym=_ZNSt10shared_ptrIN5telux3qmi15IQmiDmsListenerEEC1INS0_4cv2x21ServiceStatusListenerEEERKS_IT_EPS2_=so_stub_for_libtelux_cv2x
-Wl,--defsym=_ZNSt10shared_ptrIN5telux3qmi15IQmiDmsListenerEEC2INS0_4cv2x21ServiceStatusListenerEEERKS_IT_EPS2_=so_stub_for_libtelux_cv2x
-Wl,--defsym=_ZNSt10shared_ptrIN5telux3qmi15IQmiDmsListenerEED1Ev=so_stub_for_libtelux_cv2x
-Wl,--defsym=_ZNSt10shared_ptrIN5telux3qmi15IQmiDmsListenerEED2Ev=so_stub_for_libtelux_cv2x
-Wl,--defsym=_ZNSt10shared_ptrIN5telux3qmi15IQmiNasListenerEEC1INS0_4cv2x21ServiceStatusListenerEEERKS_IT_EPS2_=so_stub_for_libtelux_cv2x
-Wl,--defsym=_ZNSt10shared_ptrIN5telux3qmi15IQmiNasListenerEEC2INS0_4cv2x21ServiceStatusListenerEEERKS_IT_EPS2_=so_stub_for_libtelux_cv2x
-Wl,--defsym=_ZNSt10shared_ptrIN5telux3qmi15IQmiNasListenerEED1Ev=so_stub_for_libtelux_cv2x
-Wl,--defsym=_ZNSt10shared_ptrIN5telux3qmi15IQmiNasListenerEED2Ev=so_stub_for_libtelux_cv2x
-Wl,--defsym=_ZNSt10shared_ptrIN5telux3qmi15IQmiWdsListenerEEC1INS0_4cv2x30QmiV2xGetConfigurationCallbackEEERKS_IT_EPS2_=so_stub_for_libtelux_cv2x
-Wl,--defsym=_ZNSt10shared_ptrIN5telux3qmi15IQmiWdsListenerEEC1INS0_4cv2x35QmiV2xSendConfigurationFileCallbackEEERKS_IT_EPS2_=so_stub_for_libtelux_cv2x
-Wl,--defsym=_ZNSt10shared_ptrIN5telux3qmi15IQmiWdsListenerEEC2INS0_4cv2x30QmiV2xGetConfigurationCallbackEEERKS_IT_EPS2_=so_stub_for_libtelux_cv2x
-Wl,--defsym=_ZNSt10shared_ptrIN5telux3qmi15IQmiWdsListenerEEC2INS0_4cv2x35QmiV2xSendConfigurationFileCallbackEEERKS_IT_EPS2_=so_stub_for_libtelux_cv2x
-Wl,--defsym=_ZNSt10shared_ptrIN5telux3qmi15IQmiWdsListenerEED1Ev=so_stub_for_libtelux_cv2x
-Wl,--defsym=_ZNSt10shared_ptrIN5telux3qmi15IQmiWdsListenerEED2Ev=so_stub_for_libtelux_cv2x
-Wl,--defsym=_ZNSt10shared_ptrIN5telux3qmi19IQmiV2xStopCallbackEEaSINS0_4cv2x18QmiV2xStopCallbackEEENSt9enable_ifIXsrSt13is_assignableIRSt12__shared_ptrIS2_LN9__gnu_cxx12_Lock_policyE2EES_IT_EE5valueERS3_E4typeEOSF_=so_stub_for_libtelux_cv2x
-Wl,--defsym=_ZNSt10shared_ptrIN5telux3qmi19IQmiV2xStopCallbackEEC1ERKS3_=so_stub_for_libtelux_cv2x
-Wl,--defsym=_ZNSt10shared_ptrIN5telux3qmi19IQmiV2xStopCallbackEEC1Ev=so_stub_for_libtelux_cv2x
-Wl,--defsym=_ZNSt10shared_ptrIN5telux3qmi19IQmiV2xStopCallbackEEC2ERKS3_=so_stub_for_libtelux_cv2x
-Wl,--defsym=_ZNSt10shared_ptrIN5telux3qmi19IQmiV2xStopCallbackEEC2Ev=so_stub_for_libtelux_cv2x
-Wl,--defsym=_ZNSt10shared_ptrIN5telux3qmi19IQmiV2xStopCallbackEED1Ev=so_stub_for_libtelux_cv2x
-Wl,--defsym=_ZNSt10shared_ptrIN5telux3qmi19IQmiV2xStopCallbackEED2Ev=so_stub_for_libtelux_cv2x
-Wl,--defsym=_ZNSt10shared_ptrIN5telux3qmi20IQmiSetPeakTxPowerCbEEaSINS0_4cv2x25QmiSetPeakTxPowerCallbackEEENSt9enable_ifIXsrSt13is_assignableIRSt12__shared_ptrIS2_LN9__gnu_cxx12_Lock_policyE2EES_IT_EE5valueERS3_E4typeEOSF_=so_stub_for_libtelux_cv2x
-Wl,--defsym=_ZNSt10shared_ptrIN5telux3qmi20IQmiSetPeakTxPowerCbEEC1ERKS3_=so_stub_for_libtelux_cv2x
-Wl,--defsym=_ZNSt10shared_ptrIN5telux3qmi20IQmiSetPeakTxPowerCbEEC1Ev=so_stub_for_libtelux_cv2x
-Wl,--defsym=_ZNSt10shared_ptrIN5telux3qmi20IQmiSetPeakTxPowerCbEEC2ERKS3_=so_stub_for_libtelux_cv2x
-Wl,--defsym=_ZNSt10shared_ptrIN5telux3qmi20IQmiSetPeakTxPowerCbEEC2Ev=so_stub_for_libtelux_cv2x
-Wl,--defsym=_ZNSt10shared_ptrIN5telux3qmi20IQmiSetPeakTxPowerCbEED1Ev=so_stub_for_libtelux_cv2x
-Wl,--defsym=_ZNSt10shared_ptrIN5telux3qmi20IQmiSetPeakTxPowerCbEED2Ev=so_stub_for_libtelux_cv2x
-Wl,--defsym=_ZNSt10shared_ptrIN5telux3qmi20IQmiV2xStartCallbackEEaSINS0_4cv2x19QmiV2xStartCallbackEEENSt9enable_ifIXsrSt13is_assignableIRSt12__shared_ptrIS2_LN9__gnu_cxx12_Lock_policyE2EES_IT_EE5valueERS3_E4typeEOSF_=so_stub_for_libtelux_cv2x
-Wl,--defsym=_ZNSt10shared_ptrIN5telux3qmi20IQmiV2xStartCallbackEEC1ERKS3_=so_stub_for_libtelux_cv2x
-Wl,--defsym=_ZNSt10shared_ptrIN5telux3qmi20IQmiV2xStartCallbackEEC1Ev=so_stub_for_libtelux_cv2x
-Wl,--defsym=_ZNSt10shared_ptrIN5telux3qmi20IQmiV2xStartCallbackEEC2ERKS3_=so_stub_for_libtelux_cv2x
-Wl,--defsym=_ZNSt10shared_ptrIN5telux3qmi20IQmiV2xStartCallbackEEC2Ev=so_stub_for_libtelux_cv2x
-Wl,--defsym=_ZNSt10shared_ptrIN5telux3qmi20IQmiV2xStartCallbackEED1Ev=so_stub_for_libtelux_cv2x
-Wl,--defsym=_ZNSt10shared_ptrIN5telux3qmi20IQmiV2xStartCallbackEED2Ev=so_stub_for_libtelux_cv2x
-Wl,--defsym=_ZNSt10shared_ptrIN5telux3qmi21IQmiV2xStatusCallbackEEaSINS0_4cv2x20QmiV2xStatusCallbackEEENSt9enable_ifIXsrSt13is_assignableIRSt12__shared_ptrIS2_LN9__gnu_cxx12_Lock_policyE2EES_IT_EE5valueERS3_E4typeEOSF_=so_stub_for_libtelux_cv2x
-Wl,--defsym=_ZNSt10shared_ptrIN5telux3qmi21IQmiV2xStatusCallbackEEaSINS0_4cv2x22QmiV2xStatusCallbackExEEENSt9enable_ifIXsrSt13is_assignableIRSt12__shared_ptrIS2_LN9__gnu_cxx12_Lock_policyE2EES_IT_EE5valueERS3_E4typeEOSF_=so_stub_for_libtelux_cv2x
-Wl,--defsym=_ZNSt10shared_ptrIN5telux3qmi21IQmiV2xStatusCallbackEEC1ERKS3_=so_stub_for_libtelux_cv2x
-Wl,--defsym=_ZNSt10shared_ptrIN5telux3qmi21IQmiV2xStatusCallbackEEC1Ev=so_stub_for_libtelux_cv2x
-Wl,--defsym=_ZNSt10shared_ptrIN5telux3qmi21IQmiV2xStatusCallbackEEC2ERKS3_=so_stub_for_libtelux_cv2x
-Wl,--defsym=_ZNSt10shared_ptrIN5telux3qmi21IQmiV2xStatusCallbackEEC2Ev=so_stub_for_libtelux_cv2x
-Wl,--defsym=_ZNSt10shared_ptrIN5telux3qmi21IQmiV2xStatusCallbackEED1Ev=so_stub_for_libtelux_cv2x
-Wl,--defsym=_ZNSt10shared_ptrIN5telux3qmi21IQmiV2xStatusCallbackEED2Ev=so_stub_for_libtelux_cv2x
-Wl,--defsym=_ZNSt10shared_ptrIN5telux3qmi26IQmiSetEventReportCallbackEEC1INS0_4cv2x25QmiSetEventReportCallbackEvEERKS_IT_E=so_stub_for_libtelux_cv2x
-Wl,--defsym=_ZNSt10shared_ptrIN5telux3qmi26IQmiSetEventReportCallbackEEC2INS0_4cv2x25QmiSetEventReportCallbackEvEERKS_IT_E=so_stub_for_libtelux_cv2x
-Wl,--defsym=_ZNSt10shared_ptrIN5telux3qmi26IQmiSetEventReportCallbackEED1Ev=so_stub_for_libtelux_cv2x
-Wl,--defsym=_ZNSt10shared_ptrIN5telux3qmi26IQmiSetEventReportCallbackEED2Ev=so_stub_for_libtelux_cv2x
-Wl,--defsym=_ZNSt10shared_ptrIN5telux3qmi27IQmiCommandResponseCallbackEEC1INS0_4cv2x31QmiV2xRegisterConfigIndCallbackEvEERKS_IT_E=so_stub_for_libtelux_cv2x
-Wl,--defsym=_ZNSt10shared_ptrIN5telux3qmi27IQmiCommandResponseCallbackEEC1INS0_4cv2x35QmiV2xSendConfigurationFileCallbackEvEERKS_IT_E=so_stub_for_libtelux_cv2x
-Wl,--defsym=_ZNSt10shared_ptrIN5telux3qmi27IQmiCommandResponseCallbackEEC2INS0_4cv2x31QmiV2xRegisterConfigIndCallbackEvEERKS_IT_E=so_stub_for_libtelux_cv2x
-Wl,--defsym=_ZNSt10shared_ptrIN5telux3qmi27IQmiCommandResponseCallbackEEC2INS0_4cv2x35QmiV2xSendConfigurationFileCallbackEvEERKS_IT_E=so_stub_for_libtelux_cv2x
-Wl,--defsym=_ZNSt10shared_ptrIN5telux3qmi27IQmiCommandResponseCallbackEED1Ev=so_stub_for_libtelux_cv2x
-Wl,--defsym=_ZNSt10shared_ptrIN5telux3qmi27IQmiCommandResponseCallbackEED2Ev=so_stub_for_libtelux_cv2x
-Wl,--defsym=_ZNSt10shared_ptrIN5telux3qmi28IQmiGetOperatingModeCallbackEEC1INS0_4cv2x27QmiGetOperatingModeCallbackEvEERKS_IT_E=so_stub_for_libtelux_cv2x
-Wl,--defsym=_ZNSt10shared_ptrIN5telux3qmi28IQmiGetOperatingModeCallbackEEC2INS0_4cv2x27QmiGetOperatingModeCallbackEvEERKS_IT_E=so_stub_for_libtelux_cv2x
-Wl,--defsym=_ZNSt10shared_ptrIN5telux3qmi28IQmiGetOperatingModeCallbackEED1Ev=so_stub_for_libtelux_cv2x
-Wl,--defsym=_ZNSt10shared_ptrIN5telux3qmi28IQmiGetOperatingModeCallbackEED2Ev=so_stub_for_libtelux_cv2x
-Wl,--defsym=_ZNSt10shared_ptrIN5telux3qmi28IQmiSetOperatingModeCallbackEEC1INS0_4cv2x27QmiSetOperatingModeCallbackEvEERKS_IT_E=so_stub_for_libtelux_cv2x
-Wl,--defsym=_ZNSt10shared_ptrIN5telux3qmi28IQmiSetOperatingModeCallbackEEC2INS0_4cv2x27QmiSetOperatingModeCallbackEvEERKS_IT_E=so_stub_for_libtelux_cv2x
-Wl,--defsym=_ZNSt10shared_ptrIN5telux3qmi28IQmiSetOperatingModeCallbackEED1Ev=so_stub_for_libtelux_cv2x
-Wl,--defsym=_ZNSt10shared_ptrIN5telux3qmi28IQmiSetOperatingModeCallbackEED2Ev=so_stub_for_libtelux_cv2x
-Wl,--defsym=_ZNSt10shared_ptrIN5telux3qmi30IQmiNasRegisterForIndsCallbackEEC1INS0_4cv2x21QmiNasIndsRegCallbackEvEERKS_IT_E=so_stub_for_libtelux_cv2x
-Wl,--defsym=_ZNSt10shared_ptrIN5telux3qmi30IQmiNasRegisterForIndsCallbackEEC2INS0_4cv2x21QmiNasIndsRegCallbackEvEERKS_IT_E=so_stub_for_libtelux_cv2x
-Wl,--defsym=_ZNSt10shared_ptrIN5telux3qmi30IQmiNasRegisterForIndsCallbackEED1Ev=so_stub_for_libtelux_cv2x
-Wl,--defsym=_ZNSt10shared_ptrIN5telux3qmi30IQmiNasRegisterForIndsCallbackEED2Ev=so_stub_for_libtelux_cv2x
-Wl,--defsym=_ZNSt10shared_ptrIN5telux4cv2x10Cv2xConfigEEC1ISaIS2_EJEEESt19_Sp_make_shared_tagRKT_DpOT0_=so_stub_for_libtelux_cv2x
-Wl,--defsym=_ZNSt10shared_ptrIN5telux4cv2x10Cv2xConfigEEC2ISaIS2_EJEEESt19_Sp_make_shared_tagRKT_DpOT0_=so_stub_for_libtelux_cv2x
-Wl,--defsym=_ZNSt10shared_ptrIN5telux4cv2x10Cv2xConfigEED1Ev=so_stub_for_libtelux_cv2x
-Wl,--defsym=_ZNSt10shared_ptrIN5telux4cv2x10Cv2xConfigEED2Ev=so_stub_for_libtelux_cv2x
-Wl,--defsym=_ZNSt10shared_ptrIN5telux4cv2x10ICv2xRadioEEaSEOS3_=so_stub_for_libtelux_cv2x
-Wl,--defsym=_ZNSt10shared_ptrIN5telux4cv2x10ICv2xRadioEEaSINS1_12DsiCv2xRadioEEENSt9enable_ifIXsrSt13is_assignableIRSt12__shared_ptrIS2_LN9__gnu_cxx12_Lock_policyE2EERKS_IT_EE5valueERS3_E4typeESG_=so_stub_for_libtelux_cv2x
-Wl,--defsym=_ZNSt10shared_ptrIN5telux4cv2x10ICv2xRadioEEC1EDn=so_stub_for_libtelux_cv2x
-Wl,--defsym=_ZNSt10shared_ptrIN5telux4cv2x10ICv2xRadioEEC1ERKS3_=so_stub_for_libtelux_cv2x
-Wl,--defsym=_ZNSt10shared_ptrIN5telux4cv2x10ICv2xRadioEEC1Ev=so_stub_for_libtelux_cv2x
-Wl,--defsym=_ZNSt10shared_ptrIN5telux4cv2x10ICv2xRadioEEC2EDn=so_stub_for_libtelux_cv2x
-Wl,--defsym=_ZNSt10shared_ptrIN5telux4cv2x10ICv2xRadioEEC2ERKS3_=so_stub_for_libtelux_cv2x
-Wl,--defsym=_ZNSt10shared_ptrIN5telux4cv2x10ICv2xRadioEEC2Ev=so_stub_for_libtelux_cv2x
-Wl,--defsym=_ZNSt10shared_ptrIN5telux4cv2x10ICv2xRadioEED1Ev=so_stub_for_libtelux_cv2x
-Wl,--defsym=_ZNSt10shared_ptrIN5telux4cv2x10ICv2xRadioEED2Ev=so_stub_for_libtelux_cv2x
-Wl,--defsym=_ZNSt10shared_ptrIN5telux4cv2x11Cv2xSysCtrlEEaSERKS3_=so_stub_for_libtelux_cv2x
-Wl,--defsym=_ZNSt10shared_ptrIN5telux4cv2x11Cv2xSysCtrlEEC1EDn=so_stub_for_libtelux_cv2x
-Wl,--defsym=_ZNSt10shared_ptrIN5telux4cv2x11Cv2xSysCtrlEEC1ERKS3_=so_stub_for_libtelux_cv2x
-Wl,--defsym=_ZNSt10shared_ptrIN5telux4cv2x11Cv2xSysCtrlEEC1Ev=so_stub_for_libtelux_cv2x
-Wl,--defsym=_ZNSt10shared_ptrIN5telux4cv2x11Cv2xSysCtrlEEC1ISaIS2_EJEEESt19_Sp_make_shared_tagRKT_DpOT0_=so_stub_for_libtelux_cv2x
-Wl,--defsym=_ZNSt10shared_ptrIN5telux4cv2x11Cv2xSysCtrlEEC2EDn=so_stub_for_libtelux_cv2x
-Wl,--defsym=_ZNSt10shared_ptrIN5telux4cv2x11Cv2xSysCtrlEEC2ERKS3_=so_stub_for_libtelux_cv2x
-Wl,--defsym=_ZNSt10shared_ptrIN5telux4cv2x11Cv2xSysCtrlEEC2Ev=so_stub_for_libtelux_cv2x
-Wl,--defsym=_ZNSt10shared_ptrIN5telux4cv2x11Cv2xSysCtrlEEC2ISaIS2_EJEEESt19_Sp_make_shared_tagRKT_DpOT0_=so_stub_for_libtelux_cv2x
-Wl,--defsym=_ZNSt10shared_ptrIN5telux4cv2x11Cv2xSysCtrlEED1Ev=so_stub_for_libtelux_cv2x
-Wl,--defsym=_ZNSt10shared_ptrIN5telux4cv2x11Cv2xSysCtrlEED2Ev=so_stub_for_libtelux_cv2x
-Wl,--defsym=_ZNSt10shared_ptrIN5telux4cv2x11ICv2xConfigEEaSINS1_10Cv2xConfigEEENSt9enable_ifIXsrSt13is_assignableIRSt12__shared_ptrIS2_LN9__gnu_cxx12_Lock_policyE2EERKS_IT_EE5valueERS3_E4typeESG_=so_stub_for_libtelux_cv2x
-Wl,--defsym=_ZNSt10shared_ptrIN5telux4cv2x11ICv2xConfigEEC1ERKS3_=so_stub_for_libtelux_cv2x
-Wl,--defsym=_ZNSt10shared_ptrIN5telux4cv2x11ICv2xConfigEEC1Ev=so_stub_for_libtelux_cv2x
-Wl,--defsym=_ZNSt10shared_ptrIN5telux4cv2x11ICv2xConfigEEC2ERKS3_=so_stub_for_libtelux_cv2x
-Wl,--defsym=_ZNSt10shared_ptrIN5telux4cv2x11ICv2xConfigEEC2Ev=so_stub_for_libtelux_cv2x
-Wl,--defsym=_ZNSt10shared_ptrIN5telux4cv2x11ICv2xConfigEED1Ev=so_stub_for_libtelux_cv2x
-Wl,--defsym=_ZNSt10shared_ptrIN5telux4cv2x11ICv2xConfigEED2Ev=so_stub_for_libtelux_cv2x
-Wl,--defsym=_ZNSt10shared_ptrIN5telux4cv2x11ICv2xTxFlowEEaSINS1_13Cv2xTxSpsFlowEEENSt9enable_ifIXsrSt13is_assignableIRSt12__shared_ptrIS2_LN9__gnu_cxx12_Lock_policyE2EERKS_IT_EE5valueERS3_E4typeESG_=so_stub_for_libtelux_cv2x
-Wl,--defsym=_ZNSt10shared_ptrIN5telux4cv2x11ICv2xTxFlowEEaSINS1_15Cv2xTxEventFlowEEENSt9enable_ifIXsrSt13is_assignableIRSt12__shared_ptrIS2_LN9__gnu_cxx12_Lock_policyE2EERKS_IT_EE5valueERS3_E4typeESG_=so_stub_for_libtelux_cv2x
-Wl,--defsym=_ZNSt10shared_ptrIN5telux4cv2x11ICv2xTxFlowEEC1EDn=so_stub_for_libtelux_cv2x
-Wl,--defsym=_ZNSt10shared_ptrIN5telux4cv2x11ICv2xTxFlowEEC1EOS3_=so_stub_for_libtelux_cv2x
-Wl,--defsym=_ZNSt10shared_ptrIN5telux4cv2x11ICv2xTxFlowEEC1ERKS3_=so_stub_for_libtelux_cv2x
-Wl,--defsym=_ZNSt10shared_ptrIN5telux4cv2x11ICv2xTxFlowEEC1Ev=so_stub_for_libtelux_cv2x
-Wl,--defsym=_ZNSt10shared_ptrIN5telux4cv2x11ICv2xTxFlowEEC1INS1_13Cv2xTxSpsFlowEvEERKS_IT_E=so_stub_for_libtelux_cv2x
-Wl,--defsym=_ZNSt10shared_ptrIN5telux4cv2x11ICv2xTxFlowEEC2EOS3_=so_stub_for_libtelux_cv2x
-Wl,--defsym=_ZNSt10shared_ptrIN5telux4cv2x11ICv2xTxFlowEEC2ERKS3_=so_stub_for_libtelux_cv2x
-Wl,--defsym=_ZNSt10shared_ptrIN5telux4cv2x11ICv2xTxFlowEEC2INS1_13Cv2xTxSpsFlowEvEERKS_IT_E=so_stub_for_libtelux_cv2x
-Wl,--defsym=_ZNSt10shared_ptrIN5telux4cv2x11ICv2xTxFlowEED1Ev=so_stub_for_libtelux_cv2x
-Wl,--defsym=_ZNSt10shared_ptrIN5telux4cv2x11ICv2xTxFlowEED2Ev=so_stub_for_libtelux_cv2x
-Wl,--defsym=_ZNSt10shared_ptrIN5telux4cv2x12DsiCv2xRadioEEC1ISaIS2_EJEEESt19_Sp_make_shared_tagRKT_DpOT0_=so_stub_for_libtelux_cv2x
-Wl,--defsym=_ZNSt10shared_ptrIN5telux4cv2x12DsiCv2xRadioEEC2ISaIS2_EJEEESt19_Sp_make_shared_tagRKT_DpOT0_=so_stub_for_libtelux_cv2x
-Wl,--defsym=_ZNSt10shared_ptrIN5telux4cv2x12DsiCv2xRadioEED1Ev=so_stub_for_libtelux_cv2x
-Wl,--defsym=_ZNSt10shared_ptrIN5telux4cv2x12DsiCv2xRadioEED2Ev=so_stub_for_libtelux_cv2x
-Wl,--defsym=_ZNSt10shared_ptrIN5telux4cv2x12EventHandlerEEaSEOS3_=so_stub_for_libtelux_cv2x
-Wl,--defsym=_ZNSt10shared_ptrIN5telux4cv2x12EventHandlerEEC1EDn=so_stub_for_libtelux_cv2x
-Wl,--defsym=_ZNSt10shared_ptrIN5telux4cv2x12EventHandlerEEC1Ev=so_stub_for_libtelux_cv2x
-Wl,--defsym=_ZNSt10shared_ptrIN5telux4cv2x12EventHandlerEEC1ISaIS2_EJEEESt19_Sp_make_shared_tagRKT_DpOT0_=so_stub_for_libtelux_cv2x
-Wl,--defsym=_ZNSt10shared_ptrIN5telux4cv2x12EventHandlerEEC2EDn=so_stub_for_libtelux_cv2x
-Wl,--defsym=_ZNSt10shared_ptrIN5telux4cv2x12EventHandlerEEC2Ev=so_stub_for_libtelux_cv2x
-Wl,--defsym=_ZNSt10shared_ptrIN5telux4cv2x12EventHandlerEEC2ISaIS2_EJEEESt19_Sp_make_shared_tagRKT_DpOT0_=so_stub_for_libtelux_cv2x
-Wl,--defsym=_ZNSt10shared_ptrIN5telux4cv2x12EventHandlerEED1Ev=so_stub_for_libtelux_cv2x
-Wl,--defsym=_ZNSt10shared_ptrIN5telux4cv2x12EventHandlerEED2Ev=so_stub_for_libtelux_cv2x
-Wl,--defsym=_ZNSt10shared_ptrIN5telux4cv2x13Cv2xTxSpsFlowEEC1ERKS3_=so_stub_for_libtelux_cv2x
-Wl,--defsym=_ZNSt10shared_ptrIN5telux4cv2x13Cv2xTxSpsFlowEEC1Ev=so_stub_for_libtelux_cv2x
-Wl,--defsym=_ZNSt10shared_ptrIN5telux4cv2x13Cv2xTxSpsFlowEEC1INS1_11ICv2xTxFlowEEERKS_IT_EPS2_=so_stub_for_libtelux_cv2x
-Wl,--defsym=_ZNSt10shared_ptrIN5telux4cv2x13Cv2xTxSpsFlowEEC1ISaIS2_EJRhRNS1_13TrafficIpTypeERjRiR12sockaddr_in6RKNS1_11SpsFlowInfoEEEESt19_Sp_make_shared_tagRKT_DpOT0_=so_stub_for_libtelux_cv2x
-Wl,--defsym=_ZNSt10shared_ptrIN5telux4cv2x13Cv2xTxSpsFlowEEC2ERKS3_=so_stub_for_libtelux_cv2x
-Wl,--defsym=_ZNSt10shared_ptrIN5telux4cv2x13Cv2xTxSpsFlowEEC2Ev=so_stub_for_libtelux_cv2x
-Wl,--defsym=_ZNSt10shared_ptrIN5telux4cv2x13Cv2xTxSpsFlowEEC2INS1_11ICv2xTxFlowEEERKS_IT_EPS2_=so_stub_for_libtelux_cv2x
-Wl,--defsym=_ZNSt10shared_ptrIN5telux4cv2x13Cv2xTxSpsFlowEEC2ISaIS2_EJRhRNS1_13TrafficIpTypeERjRiR12sockaddr_in6RKNS1_11SpsFlowInfoEEEESt19_Sp_make_shared_tagRKT_DpOT0_=so_stub_for_libtelux_cv2x
-Wl,--defsym=_ZNSt10shared_ptrIN5telux4cv2x13Cv2xTxSpsFlowEED1Ev=so_stub_for_libtelux_cv2x
-Wl,--defsym=_ZNSt10shared_ptrIN5telux4cv2x13Cv2xTxSpsFlowEED2Ev=so_stub_for_libtelux_cv2x
-Wl,--defsym=_ZNSt10shared_ptrIN5telux4cv2x13EventInfoBaseEEC1ERKS3_=so_stub_for_libtelux_cv2x
-Wl,--defsym=_ZNSt10shared_ptrIN5telux4cv2x13EventInfoBaseEEC1INS1_9EventInfoINS1_14IndicationDataEEEvEERKS_IT_E=so_stub_for_libtelux_cv2x
-Wl,--defsym=_ZNSt10shared_ptrIN5telux4cv2x13EventInfoBaseEEC1INS1_9EventInfoINS1_17ServiceStatusDataEEEvEERKS_IT_E=so_stub_for_libtelux_cv2x
-Wl,--defsym=_ZNSt10shared_ptrIN5telux4cv2x13EventInfoBaseEEC2ERKS3_=so_stub_for_libtelux_cv2x
-Wl,--defsym=_ZNSt10shared_ptrIN5telux4cv2x13EventInfoBaseEEC2INS1_9EventInfoINS1_14IndicationDataEEEvEERKS_IT_E=so_stub_for_libtelux_cv2x
-Wl,--defsym=_ZNSt10shared_ptrIN5telux4cv2x13EventInfoBaseEEC2INS1_9EventInfoINS1_17ServiceStatusDataEEEvEERKS_IT_E=so_stub_for_libtelux_cv2x
-Wl,--defsym=_ZNSt10shared_ptrIN5telux4cv2x13EventInfoBaseEED1Ev=so_stub_for_libtelux_cv2x
-Wl,--defsym=_ZNSt10shared_ptrIN5telux4cv2x13EventInfoBaseEED2Ev=so_stub_for_libtelux_cv2x
-Wl,--defsym=_ZNSt10shared_ptrIN5telux4cv2x13ICv2xListenerEEC1EOS3_=so_stub_for_libtelux_cv2x
-Wl,--defsym=_ZNSt10shared_ptrIN5telux4cv2x13ICv2xListenerEEC1ERKS3_=so_stub_for_libtelux_cv2x
-Wl,--defsym=_ZNSt10shared_ptrIN5telux4cv2x13ICv2xListenerEEC1ERKSt8weak_ptrIS2_ESt9nothrow_t=so_stub_for_libtelux_cv2x
-Wl,--defsym=_ZNSt10shared_ptrIN5telux4cv2x13ICv2xListenerEEC2EOS3_=so_stub_for_libtelux_cv2x
-Wl,--defsym=_ZNSt10shared_ptrIN5telux4cv2x13ICv2xListenerEEC2ERKS3_=so_stub_for_libtelux_cv2x
-Wl,--defsym=_ZNSt10shared_ptrIN5telux4cv2x13ICv2xListenerEEC2ERKSt8weak_ptrIS2_ESt9nothrow_t=so_stub_for_libtelux_cv2x
-Wl,--defsym=_ZNSt10shared_ptrIN5telux4cv2x13ICv2xListenerEED1Ev=so_stub_for_libtelux_cv2x
-Wl,--defsym=_ZNSt10shared_ptrIN5telux4cv2x13ICv2xListenerEED2Ev=so_stub_for_libtelux_cv2x
-Wl,--defsym=_ZNSt10shared_ptrIN5telux4cv2x14Cv2xTxRxSocketEEC1ISaIS2_EJRKjRiR12sockaddr_in6EEESt19_Sp_make_shared_tagRKT_DpOT0_=so_stub_for_libtelux_cv2x
-Wl,--defsym=_ZNSt10shared_ptrIN5telux4cv2x14Cv2xTxRxSocketEEC2ISaIS2_EJRKjRiR12sockaddr_in6EEESt19_Sp_make_shared_tagRKT_DpOT0_=so_stub_for_libtelux_cv2x
-Wl,--defsym=_ZNSt10shared_ptrIN5telux4cv2x14Cv2xTxRxSocketEED1Ev=so_stub_for_libtelux_cv2x
-Wl,--defsym=_ZNSt10shared_ptrIN5telux4cv2x14Cv2xTxRxSocketEED2Ev=so_stub_for_libtelux_cv2x
-Wl,--defsym=_ZNSt10shared_ptrIN5telux4cv2x14IndicationDataEEC1EOS3_=so_stub_for_libtelux_cv2x
-Wl,--defsym=_ZNSt10shared_ptrIN5telux4cv2x14IndicationDataEEC1ERKS3_=so_stub_for_libtelux_cv2x
-Wl,--defsym=_ZNSt10shared_ptrIN5telux4cv2x14IndicationDataEEC1ISaIS2_EJEEESt19_Sp_make_shared_tagRKT_DpOT0_=so_stub_for_libtelux_cv2x
-Wl,--defsym=_ZNSt10shared_ptrIN5telux4cv2x14IndicationDataEEC2EOS3_=so_stub_for_libtelux_cv2x
-Wl,--defsym=_ZNSt10shared_ptrIN5telux4cv2x14IndicationDataEEC2ERKS3_=so_stub_for_libtelux_cv2x
-Wl,--defsym=_ZNSt10shared_ptrIN5telux4cv2x14IndicationDataEEC2ISaIS2_EJEEESt19_Sp_make_shared_tagRKT_DpOT0_=so_stub_for_libtelux_cv2x
-Wl,--defsym=_ZNSt10shared_ptrIN5telux4cv2x14IndicationDataEED1Ev=so_stub_for_libtelux_cv2x
-Wl,--defsym=_ZNSt10shared_ptrIN5telux4cv2x14IndicationDataEED2Ev=so_stub_for_libtelux_cv2x
-Wl,--defsym=_ZNSt10shared_ptrIN5telux4cv2x15Cv2xTxEventFlowEEC1ERKS3_=so_stub_for_libtelux_cv2x
-Wl,--defsym=_ZNSt10shared_ptrIN5telux4cv2x15Cv2xTxEventFlowEEC1Ev=so_stub_for_libtelux_cv2x
-Wl,--defsym=_ZNSt10shared_ptrIN5telux4cv2x15Cv2xTxEventFlowEEC1INS1_11ICv2xTxFlowEEERKS_IT_EPS2_=so_stub_for_libtelux_cv2x
-Wl,--defsym=_ZNSt10shared_ptrIN5telux4cv2x15Cv2xTxEventFlowEEC1ISaIS2_EJRNS1_13TrafficIpTypeERjRiR12sockaddr_in6EEESt19_Sp_make_shared_tagRKT_DpOT0_=so_stub_for_libtelux_cv2x
-Wl,--defsym=_ZNSt10shared_ptrIN5telux4cv2x15Cv2xTxEventFlowEEC2ERKS3_=so_stub_for_libtelux_cv2x
-Wl,--defsym=_ZNSt10shared_ptrIN5telux4cv2x15Cv2xTxEventFlowEEC2Ev=so_stub_for_libtelux_cv2x
-Wl,--defsym=_ZNSt10shared_ptrIN5telux4cv2x15Cv2xTxEventFlowEEC2INS1_11ICv2xTxFlowEEERKS_IT_EPS2_=so_stub_for_libtelux_cv2x
-Wl,--defsym=_ZNSt10shared_ptrIN5telux4cv2x15Cv2xTxEventFlowEEC2ISaIS2_EJRNS1_13TrafficIpTypeERjRiR12sockaddr_in6EEESt19_Sp_make_shared_tagRKT_DpOT0_=so_stub_for_libtelux_cv2x
-Wl,--defsym=_ZNSt10shared_ptrIN5telux4cv2x15Cv2xTxEventFlowEED1Ev=so_stub_for_libtelux_cv2x
-Wl,--defsym=_ZNSt10shared_ptrIN5telux4cv2x15Cv2xTxEventFlowEED2Ev=so_stub_for_libtelux_cv2x
-Wl,--defsym=_ZNSt10shared_ptrIN5telux4cv2x15EventDispatcherEEaSEOS3_=so_stub_for_libtelux_cv2x
-Wl,--defsym=_ZNSt10shared_ptrIN5telux4cv2x15EventDispatcherEEC1EDn=so_stub_for_libtelux_cv2x
-Wl,--defsym=_ZNSt10shared_ptrIN5telux4cv2x15EventDispatcherEEC1Ev=so_stub_for_libtelux_cv2x
-Wl,--defsym=_ZNSt10shared_ptrIN5telux4cv2x15EventDispatcherEEC1ISaIS2_EJEEESt19_Sp_make_shared_tagRKT_DpOT0_=so_stub_for_libtelux_cv2x
-Wl,--defsym=_ZNSt10shared_ptrIN5telux4cv2x15EventDispatcherEEC2EDn=so_stub_for_libtelux_cv2x
-Wl,--defsym=_ZNSt10shared_ptrIN5telux4cv2x15EventDispatcherEEC2Ev=so_stub_for_libtelux_cv2x
-Wl,--defsym=_ZNSt10shared_ptrIN5telux4cv2x15EventDispatcherEEC2ISaIS2_EJEEESt19_Sp_make_shared_tagRKT_DpOT0_=so_stub_for_libtelux_cv2x
-Wl,--defsym=_ZNSt10shared_ptrIN5telux4cv2x15EventDispatcherEED1Ev=so_stub_for_libtelux_cv2x
-Wl,--defsym=_ZNSt10shared_ptrIN5telux4cv2x15EventDispatcherEED2Ev=so_stub_for_libtelux_cv2x
-Wl,--defsym=_ZNSt10shared_ptrIN5telux4cv2x15ICv2xTxRxSocketEEaSERKS3_=so_stub_for_libtelux_cv2x
-Wl,--defsym=_ZNSt10shared_ptrIN5telux4cv2x15ICv2xTxRxSocketEEC1EDn=so_stub_for_libtelux_cv2x
-Wl,--defsym=_ZNSt10shared_ptrIN5telux4cv2x15ICv2xTxRxSocketEEC1EOS3_=so_stub_for_libtelux_cv2x
-Wl,--defsym=_ZNSt10shared_ptrIN5telux4cv2x15ICv2xTxRxSocketEEC1ERKS3_=so_stub_for_libtelux_cv2x
-Wl,--defsym=_ZNSt10shared_ptrIN5telux4cv2x15ICv2xTxRxSocketEEC1Ev=so_stub_for_libtelux_cv2x
-Wl,--defsym=_ZNSt10shared_ptrIN5telux4cv2x15ICv2xTxRxSocketEEC1INS1_14Cv2xTxRxSocketEvEERKS_IT_E=so_stub_for_libtelux_cv2x
-Wl,--defsym=_ZNSt10shared_ptrIN5telux4cv2x15ICv2xTxRxSocketEEC2EDn=so_stub_for_libtelux_cv2x
-Wl,--defsym=_ZNSt10shared_ptrIN5telux4cv2x15ICv2xTxRxSocketEEC2EOS3_=so_stub_for_libtelux_cv2x
-Wl,--defsym=_ZNSt10shared_ptrIN5telux4cv2x15ICv2xTxRxSocketEEC2ERKS3_=so_stub_for_libtelux_cv2x
-Wl,--defsym=_ZNSt10shared_ptrIN5telux4cv2x15ICv2xTxRxSocketEEC2Ev=so_stub_for_libtelux_cv2x
-Wl,--defsym=_ZNSt10shared_ptrIN5telux4cv2x15ICv2xTxRxSocketEEC2INS1_14Cv2xTxRxSocketEvEERKS_IT_E=so_stub_for_libtelux_cv2x
-Wl,--defsym=_ZNSt10shared_ptrIN5telux4cv2x15ICv2xTxRxSocketEED1Ev=so_stub_for_libtelux_cv2x
-Wl,--defsym=_ZNSt10shared_ptrIN5telux4cv2x15ICv2xTxRxSocketEED2Ev=so_stub_for_libtelux_cv2x
-Wl,--defsym=_ZNSt10shared_ptrIN5telux4cv2x16Cv2xIndsListenerEEaSEOS3_=so_stub_for_libtelux_cv2x
-Wl,--defsym=_ZNSt10shared_ptrIN5telux4cv2x16Cv2xIndsListenerEEC1Ev=so_stub_for_libtelux_cv2x
-Wl,--defsym=_ZNSt10shared_ptrIN5telux4cv2x16Cv2xIndsListenerEEC1ISaIS2_EJEEESt19_Sp_make_shared_tagRKT_DpOT0_=so_stub_for_libtelux_cv2x
-Wl,--defsym=_ZNSt10shared_ptrIN5telux4cv2x16Cv2xIndsListenerEEC2Ev=so_stub_for_libtelux_cv2x
-Wl,--defsym=_ZNSt10shared_ptrIN5telux4cv2x16Cv2xIndsListenerEEC2ISaIS2_EJEEESt19_Sp_make_shared_tagRKT_DpOT0_=so_stub_for_libtelux_cv2x
-Wl,--defsym=_ZNSt10shared_ptrIN5telux4cv2x16Cv2xIndsListenerEED1Ev=so_stub_for_libtelux_cv2x
-Wl,--defsym=_ZNSt10shared_ptrIN5telux4cv2x16Cv2xIndsListenerEED2Ev=so_stub_for_libtelux_cv2x
-Wl,--defsym=_ZNSt10shared_ptrIN5telux4cv2x16Cv2xRadioManagerEEC1ISaIS2_EJEEESt19_Sp_make_shared_tagRKT_DpOT0_=so_stub_for_libtelux_cv2x
-Wl,--defsym=_ZNSt10shared_ptrIN5telux4cv2x16Cv2xRadioManagerEEC2ISaIS2_EJEEESt19_Sp_make_shared_tagRKT_DpOT0_=so_stub_for_libtelux_cv2x
-Wl,--defsym=_ZNSt10shared_ptrIN5telux4cv2x16Cv2xRadioManagerEED1Ev=so_stub_for_libtelux_cv2x
-Wl,--defsym=_ZNSt10shared_ptrIN5telux4cv2x16Cv2xRadioManagerEED2Ev=so_stub_for_libtelux_cv2x
-Wl,--defsym=_ZNSt10shared_ptrIN5telux4cv2x17ICv2xRadioManagerEEaSINS1_16Cv2xRadioManagerEEENSt9enable_ifIXsrSt13is_assignableIRSt12__shared_ptrIS2_LN9__gnu_cxx12_Lock_policyE2EERKS_IT_EE5valueERS3_E4typeESG_=so_stub_for_libtelux_cv2x
-Wl,--defsym=_ZNSt10shared_ptrIN5telux4cv2x17ICv2xRadioManagerEEC1ERKS3_=so_stub_for_libtelux_cv2x
-Wl,--defsym=_ZNSt10shared_ptrIN5telux4cv2x17ICv2xRadioManagerEEC1Ev=so_stub_for_libtelux_cv2x
-Wl,--defsym=_ZNSt10shared_ptrIN5telux4cv2x17ICv2xRadioManagerEEC2ERKS3_=so_stub_for_libtelux_cv2x
-Wl,--defsym=_ZNSt10shared_ptrIN5telux4cv2x17ICv2xRadioManagerEEC2Ev=so_stub_for_libtelux_cv2x
-Wl,--defsym=_ZNSt10shared_ptrIN5telux4cv2x17ICv2xRadioManagerEED1Ev=so_stub_for_libtelux_cv2x
-Wl,--defsym=_ZNSt10shared_ptrIN5telux4cv2x17ICv2xRadioManagerEED2Ev=so_stub_for_libtelux_cv2x
-Wl,--defsym=_ZNSt10shared_ptrIN5telux4cv2x17ServiceStatusDataEEC1EOS3_=so_stub_for_libtelux_cv2x
-Wl,--defsym=_ZNSt10shared_ptrIN5telux4cv2x17ServiceStatusDataEEC1ERKS3_=so_stub_for_libtelux_cv2x
-Wl,--defsym=_ZNSt10shared_ptrIN5telux4cv2x17ServiceStatusDataEEC1ISaIS2_EJEEESt19_Sp_make_shared_tagRKT_DpOT0_=so_stub_for_libtelux_cv2x
-Wl,--defsym=_ZNSt10shared_ptrIN5telux4cv2x17ServiceStatusDataEEC2EOS3_=so_stub_for_libtelux_cv2x
-Wl,--defsym=_ZNSt10shared_ptrIN5telux4cv2x17ServiceStatusDataEEC2ERKS3_=so_stub_for_libtelux_cv2x
-Wl,--defsym=_ZNSt10shared_ptrIN5telux4cv2x17ServiceStatusDataEEC2ISaIS2_EJEEESt19_Sp_make_shared_tagRKT_DpOT0_=so_stub_for_libtelux_cv2x
-Wl,--defsym=_ZNSt10shared_ptrIN5telux4cv2x17ServiceStatusDataEED1Ev=so_stub_for_libtelux_cv2x
-Wl,--defsym=_ZNSt10shared_ptrIN5telux4cv2x17ServiceStatusDataEED2Ev=so_stub_for_libtelux_cv2x
-Wl,--defsym=_ZNSt10shared_ptrIN5telux4cv2x18Cv2xConfigListenerEEaSEOS3_=so_stub_for_libtelux_cv2x
-Wl,--defsym=_ZNSt10shared_ptrIN5telux4cv2x18Cv2xConfigListenerEEC1EDn=so_stub_for_libtelux_cv2x
-Wl,--defsym=_ZNSt10shared_ptrIN5telux4cv2x18Cv2xConfigListenerEEC1Ev=so_stub_for_libtelux_cv2x
-Wl,--defsym=_ZNSt10shared_ptrIN5telux4cv2x18Cv2xConfigListenerEEC1ISaIS2_EJEEESt19_Sp_make_shared_tagRKT_DpOT0_=so_stub_for_libtelux_cv2x
-Wl,--defsym=_ZNSt10shared_ptrIN5telux4cv2x18Cv2xConfigListenerEEC2EDn=so_stub_for_libtelux_cv2x
-Wl,--defsym=_ZNSt10shared_ptrIN5telux4cv2x18Cv2xConfigListenerEEC2Ev=so_stub_for_libtelux_cv2x
-Wl,--defsym=_ZNSt10shared_ptrIN5telux4cv2x18Cv2xConfigListenerEEC2ISaIS2_EJEEESt19_Sp_make_shared_tagRKT_DpOT0_=so_stub_for_libtelux_cv2x
-Wl,--defsym=_ZNSt10shared_ptrIN5telux4cv2x18Cv2xConfigListenerEED1Ev=so_stub_for_libtelux_cv2x
-Wl,--defsym=_ZNSt10shared_ptrIN5telux4cv2x18Cv2xConfigListenerEED2Ev=so_stub_for_libtelux_cv2x
-Wl,--defsym=_ZNSt10shared_ptrIN5telux4cv2x18Cv2xRxSubscriptionEEC1Ev=so_stub_for_libtelux_cv2x
-Wl,--defsym=_ZNSt10shared_ptrIN5telux4cv2x18Cv2xRxSubscriptionEEC1INS1_19ICv2xRxSubscriptionEEERKS_IT_EPS2_=so_stub_for_libtelux_cv2x
-Wl,--defsym=_ZNSt10shared_ptrIN5telux4cv2x18Cv2xRxSubscriptionEEC1ISaIS2_EJRiR12sockaddr_in6EEESt19_Sp_make_shared_tagRKT_DpOT0_=so_stub_for_libtelux_cv2x
-Wl,--defsym=_ZNSt10shared_ptrIN5telux4cv2x18Cv2xRxSubscriptionEEC2Ev=so_stub_for_libtelux_cv2x
-Wl,--defsym=_ZNSt10shared_ptrIN5telux4cv2x18Cv2xRxSubscriptionEEC2INS1_19ICv2xRxSubscriptionEEERKS_IT_EPS2_=so_stub_for_libtelux_cv2x
-Wl,--defsym=_ZNSt10shared_ptrIN5telux4cv2x18Cv2xRxSubscriptionEEC2ISaIS2_EJRiR12sockaddr_in6EEESt19_Sp_make_shared_tagRKT_DpOT0_=so_stub_for_libtelux_cv2x
-Wl,--defsym=_ZNSt10shared_ptrIN5telux4cv2x18Cv2xRxSubscriptionEED1Ev=so_stub_for_libtelux_cv2x
-Wl,--defsym=_ZNSt10shared_ptrIN5telux4cv2x18Cv2xRxSubscriptionEED2Ev=so_stub_for_libtelux_cv2x
-Wl,--defsym=_ZNSt10shared_ptrIN5telux4cv2x18ICv2xRadioListenerEEC1EOS3_=so_stub_for_libtelux_cv2x
-Wl,--defsym=_ZNSt10shared_ptrIN5telux4cv2x18ICv2xRadioListenerEEC1ERKS3_=so_stub_for_libtelux_cv2x
-Wl,--defsym=_ZNSt10shared_ptrIN5telux4cv2x18ICv2xRadioListenerEEC1ERKSt8weak_ptrIS2_ESt9nothrow_t=so_stub_for_libtelux_cv2x
-Wl,--defsym=_ZNSt10shared_ptrIN5telux4cv2x18ICv2xRadioListenerEEC2EOS3_=so_stub_for_libtelux_cv2x
-Wl,--defsym=_ZNSt10shared_ptrIN5telux4cv2x18ICv2xRadioListenerEEC2ERKS3_=so_stub_for_libtelux_cv2x
-Wl,--defsym=_ZNSt10shared_ptrIN5telux4cv2x18ICv2xRadioListenerEEC2ERKSt8weak_ptrIS2_ESt9nothrow_t=so_stub_for_libtelux_cv2x
-Wl,--defsym=_ZNSt10shared_ptrIN5telux4cv2x18ICv2xRadioListenerEED1Ev=so_stub_for_libtelux_cv2x
-Wl,--defsym=_ZNSt10shared_ptrIN5telux4cv2x18ICv2xRadioListenerEED2Ev=so_stub_for_libtelux_cv2x
-Wl,--defsym=_ZNSt10shared_ptrIN5telux4cv2x18QmiV2xStopCallbackEEC1ISaIS2_EJEEESt19_Sp_make_shared_tagRKT_DpOT0_=so_stub_for_libtelux_cv2x
-Wl,--defsym=_ZNSt10shared_ptrIN5telux4cv2x18QmiV2xStopCallbackEEC2ISaIS2_EJEEESt19_Sp_make_shared_tagRKT_DpOT0_=so_stub_for_libtelux_cv2x
-Wl,--defsym=_ZNSt10shared_ptrIN5telux4cv2x18QmiV2xStopCallbackEED1Ev=so_stub_for_libtelux_cv2x
-Wl,--defsym=_ZNSt10shared_ptrIN5telux4cv2x18QmiV2xStopCallbackEED2Ev=so_stub_for_libtelux_cv2x
-Wl,--defsym=_ZNSt10shared_ptrIN5telux4cv2x19ICv2xConfigListenerEEC1EOS3_=so_stub_for_libtelux_cv2x
-Wl,--defsym=_ZNSt10shared_ptrIN5telux4cv2x19ICv2xConfigListenerEEC1ERKS3_=so_stub_for_libtelux_cv2x
-Wl,--defsym=_ZNSt10shared_ptrIN5telux4cv2x19ICv2xConfigListenerEEC1ERKSt8weak_ptrIS2_ESt9nothrow_t=so_stub_for_libtelux_cv2x
-Wl,--defsym=_ZNSt10shared_ptrIN5telux4cv2x19ICv2xConfigListenerEEC2EOS3_=so_stub_for_libtelux_cv2x
-Wl,--defsym=_ZNSt10shared_ptrIN5telux4cv2x19ICv2xConfigListenerEEC2ERKS3_=so_stub_for_libtelux_cv2x
-Wl,--defsym=_ZNSt10shared_ptrIN5telux4cv2x19ICv2xConfigListenerEEC2ERKSt8weak_ptrIS2_ESt9nothrow_t=so_stub_for_libtelux_cv2x
-Wl,--defsym=_ZNSt10shared_ptrIN5telux4cv2x19ICv2xConfigListenerEED1Ev=so_stub_for_libtelux_cv2x
-Wl,--defsym=_ZNSt10shared_ptrIN5telux4cv2x19ICv2xConfigListenerEED2Ev=so_stub_for_libtelux_cv2x
-Wl,--defsym=_ZNSt10shared_ptrIN5telux4cv2x19ICv2xRxSubscriptionEEaSERKS3_=so_stub_for_libtelux_cv2x
-Wl,--defsym=_ZNSt10shared_ptrIN5telux4cv2x19ICv2xRxSubscriptionEEaSINS1_18Cv2xRxSubscriptionEEENSt9enable_ifIXsrSt13is_assignableIRSt12__shared_ptrIS2_LN9__gnu_cxx12_Lock_policyE2EES_IT_EE5valueERS3_E4typeEOSE_=so_stub_for_libtelux_cv2x
-Wl,--defsym=_ZNSt10shared_ptrIN5telux4cv2x19ICv2xRxSubscriptionEEC1EDn=so_stub_for_libtelux_cv2x
-Wl,--defsym=_ZNSt10shared_ptrIN5telux4cv2x19ICv2xRxSubscriptionEEC1EOS3_=so_stub_for_libtelux_cv2x
-Wl,--defsym=_ZNSt10shared_ptrIN5telux4cv2x19ICv2xRxSubscriptionEEC1ERKS3_=so_stub_for_libtelux_cv2x
-Wl,--defsym=_ZNSt10shared_ptrIN5telux4cv2x19ICv2xRxSubscriptionEEC1Ev=so_stub_for_libtelux_cv2x
-Wl,--defsym=_ZNSt10shared_ptrIN5telux4cv2x19ICv2xRxSubscriptionEEC2EDn=so_stub_for_libtelux_cv2x
-Wl,--defsym=_ZNSt10shared_ptrIN5telux4cv2x19ICv2xRxSubscriptionEEC2EOS3_=so_stub_for_libtelux_cv2x
-Wl,--defsym=_ZNSt10shared_ptrIN5telux4cv2x19ICv2xRxSubscriptionEEC2ERKS3_=so_stub_for_libtelux_cv2x
-Wl,--defsym=_ZNSt10shared_ptrIN5telux4cv2x19ICv2xRxSubscriptionEEC2Ev=so_stub_for_libtelux_cv2x
-Wl,--defsym=_ZNSt10shared_ptrIN5telux4cv2x19ICv2xRxSubscriptionEED1Ev=so_stub_for_libtelux_cv2x
-Wl,--defsym=_ZNSt10shared_ptrIN5telux4cv2x19ICv2xRxSubscriptionEED2Ev=so_stub_for_libtelux_cv2x
-Wl,--defsym=_ZNSt10shared_ptrIN5telux4cv2x19QmiV2xStartCallbackEED1Ev=so_stub_for_libtelux_cv2x
-Wl,--defsym=_ZNSt10shared_ptrIN5telux4cv2x19QmiV2xStartCallbackEED2Ev=so_stub_for_libtelux_cv2x
-Wl,--defsym=_ZNSt10shared_ptrIN5telux4cv2x20ICv2xSysCtrlListenerEEC1EOS3_=so_stub_for_libtelux_cv2x
-Wl,--defsym=_ZNSt10shared_ptrIN5telux4cv2x20ICv2xSysCtrlListenerEEC1ERKS3_=so_stub_for_libtelux_cv2x
-Wl,--defsym=_ZNSt10shared_ptrIN5telux4cv2x20ICv2xSysCtrlListenerEEC1ERKSt8weak_ptrIS2_ESt9nothrow_t=so_stub_for_libtelux_cv2x
-Wl,--defsym=_ZNSt10shared_ptrIN5telux4cv2x20ICv2xSysCtrlListenerEEC2EOS3_=so_stub_for_libtelux_cv2x
-Wl,--defsym=_ZNSt10shared_ptrIN5telux4cv2x20ICv2xSysCtrlListenerEEC2ERKS3_=so_stub_for_libtelux_cv2x
-Wl,--defsym=_ZNSt10shared_ptrIN5telux4cv2x20ICv2xSysCtrlListenerEEC2ERKSt8weak_ptrIS2_ESt9nothrow_t=so_stub_for_libtelux_cv2x
-Wl,--defsym=_ZNSt10shared_ptrIN5telux4cv2x20ICv2xSysCtrlListenerEED1Ev=so_stub_for_libtelux_cv2x
-Wl,--defsym=_ZNSt10shared_ptrIN5telux4cv2x20ICv2xSysCtrlListenerEED2Ev=so_stub_for_libtelux_cv2x
-Wl,--defsym=_ZNSt10shared_ptrIN5telux4cv2x20QmiV2xStatusCallbackEEC1ISaIS2_EJEEESt19_Sp_make_shared_tagRKT_DpOT0_=so_stub_for_libtelux_cv2x
-Wl,--defsym=_ZNSt10shared_ptrIN5telux4cv2x20QmiV2xStatusCallbackEEC2ISaIS2_EJEEESt19_Sp_make_shared_tagRKT_DpOT0_=so_stub_for_libtelux_cv2x
-Wl,--defsym=_ZNSt10shared_ptrIN5telux4cv2x20QmiV2xStatusCallbackEED1Ev=so_stub_for_libtelux_cv2x
-Wl,--defsym=_ZNSt10shared_ptrIN5telux4cv2x20QmiV2xStatusCallbackEED2Ev=so_stub_for_libtelux_cv2x
-Wl,--defsym=_ZNSt10shared_ptrIN5telux4cv2x21QmiNasIndsRegCallbackEEC1ISaIS2_EJEEESt19_Sp_make_shared_tagRKT_DpOT0_=so_stub_for_libtelux_cv2x
-Wl,--defsym=_ZNSt10shared_ptrIN5telux4cv2x21QmiNasIndsRegCallbackEEC2ISaIS2_EJEEESt19_Sp_make_shared_tagRKT_DpOT0_=so_stub_for_libtelux_cv2x
-Wl,--defsym=_ZNSt10shared_ptrIN5telux4cv2x21QmiNasIndsRegCallbackEED1Ev=so_stub_for_libtelux_cv2x
-Wl,--defsym=_ZNSt10shared_ptrIN5telux4cv2x21QmiNasIndsRegCallbackEED2Ev=so_stub_for_libtelux_cv2x
-Wl,--defsym=_ZNSt10shared_ptrIN5telux4cv2x21ServiceStatusListenerEEaSEOS3_=so_stub_for_libtelux_cv2x
-Wl,--defsym=_ZNSt10shared_ptrIN5telux4cv2x21ServiceStatusListenerEEC1Ev=so_stub_for_libtelux_cv2x
-Wl,--defsym=_ZNSt10shared_ptrIN5telux4cv2x21ServiceStatusListenerEEC1ISaIS2_EJEEESt19_Sp_make_shared_tagRKT_DpOT0_=so_stub_for_libtelux_cv2x
-Wl,--defsym=_ZNSt10shared_ptrIN5telux4cv2x21ServiceStatusListenerEEC2Ev=so_stub_for_libtelux_cv2x
-Wl,--defsym=_ZNSt10shared_ptrIN5telux4cv2x21ServiceStatusListenerEEC2ISaIS2_EJEEESt19_Sp_make_shared_tagRKT_DpOT0_=so_stub_for_libtelux_cv2x
-Wl,--defsym=_ZNSt10shared_ptrIN5telux4cv2x21ServiceStatusListenerEED1Ev=so_stub_for_libtelux_cv2x
-Wl,--defsym=_ZNSt10shared_ptrIN5telux4cv2x21ServiceStatusListenerEED2Ev=so_stub_for_libtelux_cv2x
-Wl,--defsym=_ZNSt10shared_ptrIN5telux4cv2x22QmiV2xStatusCallbackExEEC1ISaIS2_EJEEESt19_Sp_make_shared_tagRKT_DpOT0_=so_stub_for_libtelux_cv2x
-Wl,--defsym=_ZNSt10shared_ptrIN5telux4cv2x22QmiV2xStatusCallbackExEEC2ISaIS2_EJEEESt19_Sp_make_shared_tagRKT_DpOT0_=so_stub_for_libtelux_cv2x
-Wl,--defsym=_ZNSt10shared_ptrIN5telux4cv2x22QmiV2xStatusCallbackExEED1Ev=so_stub_for_libtelux_cv2x
-Wl,--defsym=_ZNSt10shared_ptrIN5telux4cv2x22QmiV2xStatusCallbackExEED2Ev=so_stub_for_libtelux_cv2x
-Wl,--defsym=_ZNSt10shared_ptrIN5telux4cv2x25QmiSetEventReportCallbackEEC1ISaIS2_EJEEESt19_Sp_make_shared_tagRKT_DpOT0_=so_stub_for_libtelux_cv2x
-Wl,--defsym=_ZNSt10shared_ptrIN5telux4cv2x25QmiSetEventReportCallbackEEC2ISaIS2_EJEEESt19_Sp_make_shared_tagRKT_DpOT0_=so_stub_for_libtelux_cv2x
-Wl,--defsym=_ZNSt10shared_ptrIN5telux4cv2x25QmiSetEventReportCallbackEED1Ev=so_stub_for_libtelux_cv2x
-Wl,--defsym=_ZNSt10shared_ptrIN5telux4cv2x25QmiSetEventReportCallbackEED2Ev=so_stub_for_libtelux_cv2x
-Wl,--defsym=_ZNSt10shared_ptrIN5telux4cv2x25QmiSetPeakTxPowerCallbackEEC1ISaIS2_EJEEESt19_Sp_make_shared_tagRKT_DpOT0_=so_stub_for_libtelux_cv2x
-Wl,--defsym=_ZNSt10shared_ptrIN5telux4cv2x25QmiSetPeakTxPowerCallbackEEC2ISaIS2_EJEEESt19_Sp_make_shared_tagRKT_DpOT0_=so_stub_for_libtelux_cv2x
-Wl,--defsym=_ZNSt10shared_ptrIN5telux4cv2x25QmiSetPeakTxPowerCallbackEED1Ev=so_stub_for_libtelux_cv2x
-Wl,--defsym=_ZNSt10shared_ptrIN5telux4cv2x25QmiSetPeakTxPowerCallbackEED2Ev=so_stub_for_libtelux_cv2x
-Wl,--defsym=_ZNSt10shared_ptrIN5telux4cv2x27QmiGetOperatingModeCallbackEEC1ISaIS2_EJEEESt19_Sp_make_shared_tagRKT_DpOT0_=so_stub_for_libtelux_cv2x
-Wl,--defsym=_ZNSt10shared_ptrIN5telux4cv2x27QmiGetOperatingModeCallbackEEC2ISaIS2_EJEEESt19_Sp_make_shared_tagRKT_DpOT0_=so_stub_for_libtelux_cv2x
-Wl,--defsym=_ZNSt10shared_ptrIN5telux4cv2x27QmiGetOperatingModeCallbackEED1Ev=so_stub_for_libtelux_cv2x
-Wl,--defsym=_ZNSt10shared_ptrIN5telux4cv2x27QmiGetOperatingModeCallbackEED2Ev=so_stub_for_libtelux_cv2x
-Wl,--defsym=_ZNSt10shared_ptrIN5telux4cv2x27QmiSetOperatingModeCallbackEEC1ISaIS2_EJEEESt19_Sp_make_shared_tagRKT_DpOT0_=so_stub_for_libtelux_cv2x
-Wl,--defsym=_ZNSt10shared_ptrIN5telux4cv2x27QmiSetOperatingModeCallbackEEC2ISaIS2_EJEEESt19_Sp_make_shared_tagRKT_DpOT0_=so_stub_for_libtelux_cv2x
-Wl,--defsym=_ZNSt10shared_ptrIN5telux4cv2x27QmiSetOperatingModeCallbackEED1Ev=so_stub_for_libtelux_cv2x
-Wl,--defsym=_ZNSt10shared_ptrIN5telux4cv2x27QmiSetOperatingModeCallbackEED2Ev=so_stub_for_libtelux_cv2x
-Wl,--defsym=_ZNSt10shared_ptrIN5telux4cv2x30QmiV2xGetConfigurationCallbackEEC1ISaIS2_EJEEESt19_Sp_make_shared_tagRKT_DpOT0_=so_stub_for_libtelux_cv2x
-Wl,--defsym=_ZNSt10shared_ptrIN5telux4cv2x30QmiV2xGetConfigurationCallbackEEC2ISaIS2_EJEEESt19_Sp_make_shared_tagRKT_DpOT0_=so_stub_for_libtelux_cv2x
-Wl,--defsym=_ZNSt10shared_ptrIN5telux4cv2x30QmiV2xGetConfigurationCallbackEED1Ev=so_stub_for_libtelux_cv2x
-Wl,--defsym=_ZNSt10shared_ptrIN5telux4cv2x30QmiV2xGetConfigurationCallbackEED2Ev=so_stub_for_libtelux_cv2x
-Wl,--defsym=_ZNSt10shared_ptrIN5telux4cv2x31QmiV2xRegisterConfigIndCallbackEEC1ISaIS2_EJEEESt19_Sp_make_shared_tagRKT_DpOT0_=so_stub_for_libtelux_cv2x
-Wl,--defsym=_ZNSt10shared_ptrIN5telux4cv2x31QmiV2xRegisterConfigIndCallbackEEC2ISaIS2_EJEEESt19_Sp_make_shared_tagRKT_DpOT0_=so_stub_for_libtelux_cv2x
-Wl,--defsym=_ZNSt10shared_ptrIN5telux4cv2x31QmiV2xRegisterConfigIndCallbackEED1Ev=so_stub_for_libtelux_cv2x
-Wl,--defsym=_ZNSt10shared_ptrIN5telux4cv2x31QmiV2xRegisterConfigIndCallbackEED2Ev=so_stub_for_libtelux_cv2x
-Wl,--defsym=_ZNSt10shared_ptrIN5telux4cv2x31SysctrlGetConfigurationCallbackEEC1ISaIS2_EJEEESt19_Sp_make_shared_tagRKT_DpOT0_=so_stub_for_libtelux_cv2x
-Wl,--defsym=_ZNSt10shared_ptrIN5telux4cv2x31SysctrlGetConfigurationCallbackEEC2ISaIS2_EJEEESt19_Sp_make_shared_tagRKT_DpOT0_=so_stub_for_libtelux_cv2x
-Wl,--defsym=_ZNSt10shared_ptrIN5telux4cv2x31SysctrlGetConfigurationCallbackEED1Ev=so_stub_for_libtelux_cv2x
-Wl,--defsym=_ZNSt10shared_ptrIN5telux4cv2x31SysctrlGetConfigurationCallbackEED2Ev=so_stub_for_libtelux_cv2x
-Wl,--defsym=_ZNSt10shared_ptrIN5telux4cv2x35QmiV2xSendConfigurationFileCallbackEEC1ISaIS2_EJRjEEESt19_Sp_make_shared_tagRKT_DpOT0_=so_stub_for_libtelux_cv2x
-Wl,--defsym=_ZNSt10shared_ptrIN5telux4cv2x35QmiV2xSendConfigurationFileCallbackEEC2ISaIS2_EJRjEEESt19_Sp_make_shared_tagRKT_DpOT0_=so_stub_for_libtelux_cv2x
-Wl,--defsym=_ZNSt10shared_ptrIN5telux4cv2x35QmiV2xSendConfigurationFileCallbackEED1Ev=so_stub_for_libtelux_cv2x
-Wl,--defsym=_ZNSt10shared_ptrIN5telux4cv2x35QmiV2xSendConfigurationFileCallbackEED2Ev=so_stub_for_libtelux_cv2x
-Wl,--defsym=_ZNSt10shared_ptrIN5telux4cv2x9EventInfoINS1_14IndicationDataEEEEC1ISaIS4_EJRKS_IS3_ERSt8functionIFvS8_EEEEESt19_Sp_make_shared_tagRKT_DpOT0_=so_stub_for_libtelux_cv2x
-Wl,--defsym=_ZNSt10shared_ptrIN5telux4cv2x9EventInfoINS1_14IndicationDataEEEEC2ISaIS4_EJRKS_IS3_ERSt8functionIFvS8_EEEEESt19_Sp_make_shared_tagRKT_DpOT0_=so_stub_for_libtelux_cv2x
-Wl,--defsym=_ZNSt10shared_ptrIN5telux4cv2x9EventInfoINS1_14IndicationDataEEEED1Ev=so_stub_for_libtelux_cv2x
-Wl,--defsym=_ZNSt10shared_ptrIN5telux4cv2x9EventInfoINS1_14IndicationDataEEEED2Ev=so_stub_for_libtelux_cv2x
-Wl,--defsym=_ZNSt10shared_ptrIN5telux4cv2x9EventInfoINS1_17ServiceStatusDataEEEEC1ISaIS4_EJRKS_IS3_ERSt8functionIFvS8_EEEEESt19_Sp_make_shared_tagRKT_DpOT0_=so_stub_for_libtelux_cv2x
-Wl,--defsym=_ZNSt10shared_ptrIN5telux4cv2x9EventInfoINS1_17ServiceStatusDataEEEEC2ISaIS4_EJRKS_IS3_ERSt8functionIFvS8_EEEEESt19_Sp_make_shared_tagRKT_DpOT0_=so_stub_for_libtelux_cv2x
-Wl,--defsym=_ZNSt10shared_ptrIN5telux4cv2x9EventInfoINS1_17ServiceStatusDataEEEED1Ev=so_stub_for_libtelux_cv2x
-Wl,--defsym=_ZNSt10shared_ptrIN5telux4cv2x9EventInfoINS1_17ServiceStatusDataEEEED2Ev=so_stub_for_libtelux_cv2x
-Wl,--defsym=_ZNSt10shared_ptrIN5telux4data19IDataProfileManagerEEC1EDn=so_stub_for_libtelux_cv2x
-Wl,--defsym=_ZNSt10shared_ptrIN5telux4data19IDataProfileManagerEEC1Ev=so_stub_for_libtelux_cv2x
-Wl,--defsym=_ZNSt10shared_ptrIN5telux4data19IDataProfileManagerEEC2EDn=so_stub_for_libtelux_cv2x
-Wl,--defsym=_ZNSt10shared_ptrIN5telux4data19IDataProfileManagerEEC2Ev=so_stub_for_libtelux_cv2x
-Wl,--defsym=_ZNSt10shared_ptrIN5telux4data19IDataProfileManagerEED1Ev=so_stub_for_libtelux_cv2x
-Wl,--defsym=_ZNSt10shared_ptrIN5telux4data19IDataProfileManagerEED2Ev=so_stub_for_libtelux_cv2x
-Wl,--defsym=_ZNSt10shared_ptrIN5telux4data22IDataConnectionManagerEEC1EDn=so_stub_for_libtelux_cv2x
-Wl,--defsym=_ZNSt10shared_ptrIN5telux4data22IDataConnectionManagerEEC1Ev=so_stub_for_libtelux_cv2x
-Wl,--defsym=_ZNSt10shared_ptrIN5telux4data22IDataConnectionManagerEEC2EDn=so_stub_for_libtelux_cv2x
-Wl,--defsym=_ZNSt10shared_ptrIN5telux4data22IDataConnectionManagerEEC2Ev=so_stub_for_libtelux_cv2x
-Wl,--defsym=_ZNSt10shared_ptrIN5telux4data22IDataConnectionManagerEED1Ev=so_stub_for_libtelux_cv2x
-Wl,--defsym=_ZNSt10shared_ptrIN5telux4data22IDataConnectionManagerEED2Ev=so_stub_for_libtelux_cv2x
-Wl,--defsym=_ZNSt10shared_ptrIN5telux4data9DsiClientEEaSERKS3_=so_stub_for_libtelux_cv2x
-Wl,--defsym=_ZNSt10shared_ptrIN5telux4data9DsiClientEEC1EDn=so_stub_for_libtelux_cv2x
-Wl,--defsym=_ZNSt10shared_ptrIN5telux4data9DsiClientEEC1Ev=so_stub_for_libtelux_cv2x
-Wl,--defsym=_ZNSt10shared_ptrIN5telux4data9DsiClientEEC2EDn=so_stub_for_libtelux_cv2x
-Wl,--defsym=_ZNSt10shared_ptrIN5telux4data9DsiClientEEC2Ev=so_stub_for_libtelux_cv2x
-Wl,--defsym=_ZNSt10shared_ptrIN5telux4data9DsiClientEED1Ev=so_stub_for_libtelux_cv2x
-Wl,--defsym=_ZNSt10shared_ptrIN5telux4data9DsiClientEED2Ev=so_stub_for_libtelux_cv2x
-Wl,--defsym=_ZNSt10shared_ptrIN5telux6common15ListenerManagerINS0_4cv2x13ICv2xListenerEEEEaSEOS6_=so_stub_for_libtelux_cv2x
-Wl,--defsym=_ZNSt10shared_ptrIN5telux6common15ListenerManagerINS0_4cv2x13ICv2xListenerEEEEC1Ev=so_stub_for_libtelux_cv2x
-Wl,--defsym=_ZNSt10shared_ptrIN5telux6common15ListenerManagerINS0_4cv2x13ICv2xListenerEEEEC1ISaIS5_EJEEESt19_Sp_make_shared_tagRKT_DpOT0_=so_stub_for_libtelux_cv2x
-Wl,--defsym=_ZNSt10shared_ptrIN5telux6common15ListenerManagerINS0_4cv2x13ICv2xListenerEEEEC2Ev=so_stub_for_libtelux_cv2x
-Wl,--defsym=_ZNSt10shared_ptrIN5telux6common15ListenerManagerINS0_4cv2x13ICv2xListenerEEEEC2ISaIS5_EJEEESt19_Sp_make_shared_tagRKT_DpOT0_=so_stub_for_libtelux_cv2x
-Wl,--defsym=_ZNSt10shared_ptrIN5telux6common15ListenerManagerINS0_4cv2x13ICv2xListenerEEEED1Ev=so_stub_for_libtelux_cv2x
-Wl,--defsym=_ZNSt10shared_ptrIN5telux6common15ListenerManagerINS0_4cv2x13ICv2xListenerEEEED2Ev=so_stub_for_libtelux_cv2x
-Wl,--defsym=_ZNSt10shared_ptrIN5telux6common15ListenerManagerINS0_4cv2x19ICv2xConfigListenerEEEEaSEOS6_=so_stub_for_libtelux_cv2x
-Wl,--defsym=_ZNSt10shared_ptrIN5telux6common15ListenerManagerINS0_4cv2x19ICv2xConfigListenerEEEEC1Ev=so_stub_for_libtelux_cv2x
-Wl,--defsym=_ZNSt10shared_ptrIN5telux6common15ListenerManagerINS0_4cv2x19ICv2xConfigListenerEEEEC1ISaIS5_EJEEESt19_Sp_make_shared_tagRKT_DpOT0_=so_stub_for_libtelux_cv2x
-Wl,--defsym=_ZNSt10shared_ptrIN5telux6common15ListenerManagerINS0_4cv2x19ICv2xConfigListenerEEEEC2Ev=so_stub_for_libtelux_cv2x
-Wl,--defsym=_ZNSt10shared_ptrIN5telux6common15ListenerManagerINS0_4cv2x19ICv2xConfigListenerEEEEC2ISaIS5_EJEEESt19_Sp_make_shared_tagRKT_DpOT0_=so_stub_for_libtelux_cv2x
-Wl,--defsym=_ZNSt10shared_ptrIN5telux6common15ListenerManagerINS0_4cv2x19ICv2xConfigListenerEEEED1Ev=so_stub_for_libtelux_cv2x
-Wl,--defsym=_ZNSt10shared_ptrIN5telux6common15ListenerManagerINS0_4cv2x19ICv2xConfigListenerEEEED2Ev=so_stub_for_libtelux_cv2x
-Wl,--defsym=_ZNSt10shared_ptrIN5telux6common16ICommandCallbackEEC1INS0_4cv2x30QmiV2xGetConfigurationCallbackEvEERKS_IT_E=so_stub_for_libtelux_cv2x
-Wl,--defsym=_ZNSt10shared_ptrIN5telux6common16ICommandCallbackEEC2INS0_4cv2x30QmiV2xGetConfigurationCallbackEvEERKS_IT_E=so_stub_for_libtelux_cv2x
-Wl,--defsym=_ZNSt10shared_ptrIN5telux6common16ICommandCallbackEED1Ev=so_stub_for_libtelux_cv2x
-Wl,--defsym=_ZNSt10shared_ptrIN5telux6common16ICommandCallbackEED2Ev=so_stub_for_libtelux_cv2x
-Wl,--defsym=_ZNSt10shared_ptrINSt13__future_base13_State_baseV2EEaSEOS2_=so_stub_for_libtelux_cv2x
-Wl,--defsym=_ZNSt10shared_ptrINSt13__future_base13_State_baseV2EEC1EOS2_=so_stub_for_libtelux_cv2x
-Wl,--defsym=_ZNSt10shared_ptrINSt13__future_base13_State_baseV2EEC1ERKS2_=so_stub_for_libtelux_cv2x
-Wl,--defsym=_ZNSt10shared_ptrINSt13__future_base13_State_baseV2EEC1ISaIS1_EJEEESt19_Sp_make_shared_tagRKT_DpOT0_=so_stub_for_libtelux_cv2x
-Wl,--defsym=_ZNSt10shared_ptrINSt13__future_base13_State_baseV2EEC2EOS2_=so_stub_for_libtelux_cv2x
-Wl,--defsym=_ZNSt10shared_ptrINSt13__future_base13_State_baseV2EEC2ERKS2_=so_stub_for_libtelux_cv2x
-Wl,--defsym=_ZNSt10shared_ptrINSt13__future_base13_State_baseV2EEC2ISaIS1_EJEEESt19_Sp_make_shared_tagRKT_DpOT0_=so_stub_for_libtelux_cv2x
-Wl,--defsym=_ZNSt10shared_ptrINSt13__future_base13_State_baseV2EED1Ev=so_stub_for_libtelux_cv2x
-Wl,--defsym=_ZNSt10shared_ptrINSt13__future_base13_State_baseV2EED2Ev=so_stub_for_libtelux_cv2x
-Wl,--defsym=_ZNSt10shared_ptrISt6threadEaSEOS1_=so_stub_for_libtelux_cv2x
-Wl,--defsym=_ZNSt10shared_ptrISt6threadEC1Ev=so_stub_for_libtelux_cv2x
-Wl,--defsym=_ZNSt10shared_ptrISt6threadEC2Ev=so_stub_for_libtelux_cv2x
-Wl,--defsym=_ZNSt10shared_ptrISt6threadED1Ev=so_stub_for_libtelux_cv2x
-Wl,--defsym=_ZNSt10shared_ptrISt6threadED2Ev=so_stub_for_libtelux_cv2x
-Wl,--defsym=_ZNSt10shared_ptrISt6vectorIjSaIjEEEaSERKS3_=so_stub_for_libtelux_cv2x
-Wl,--defsym=_ZNSt10shared_ptrISt6vectorIjSaIjEEEC1EDn=so_stub_for_libtelux_cv2x
-Wl,--defsym=_ZNSt10shared_ptrISt6vectorIjSaIjEEEC1EOS3_=so_stub_for_libtelux_cv2x
-Wl,--defsym=_ZNSt10shared_ptrISt6vectorIjSaIjEEEC1ERKS3_=so_stub_for_libtelux_cv2x
-Wl,--defsym=_ZNSt10shared_ptrISt6vectorIjSaIjEEEC1Ev=so_stub_for_libtelux_cv2x
-Wl,--defsym=_ZNSt10shared_ptrISt6vectorIjSaIjEEEC1ISaIS2_EJRS2_EEESt19_Sp_make_shared_tagRKT_DpOT0_=so_stub_for_libtelux_cv2x
-Wl,--defsym=_ZNSt10shared_ptrISt6vectorIjSaIjEEEC2EDn=so_stub_for_libtelux_cv2x
-Wl,--defsym=_ZNSt10shared_ptrISt6vectorIjSaIjEEEC2EOS3_=so_stub_for_libtelux_cv2x
-Wl,--defsym=_ZNSt10shared_ptrISt6vectorIjSaIjEEEC2ERKS3_=so_stub_for_libtelux_cv2x
-Wl,--defsym=_ZNSt10shared_ptrISt6vectorIjSaIjEEEC2Ev=so_stub_for_libtelux_cv2x
-Wl,--defsym=_ZNSt10shared_ptrISt6vectorIjSaIjEEEC2ISaIS2_EJRS2_EEESt19_Sp_make_shared_tagRKT_DpOT0_=so_stub_for_libtelux_cv2x
-Wl,--defsym=_ZNSt10shared_ptrISt6vectorIjSaIjEEED1Ev=so_stub_for_libtelux_cv2x
-Wl,--defsym=_ZNSt10shared_ptrISt6vectorIjSaIjEEED2Ev=so_stub_for_libtelux_cv2x
-Wl,--defsym=_ZNSt10unique_ptrINSt13__future_base12_Result_baseENS1_8_DeleterEE11get_deleterEv=so_stub_for_libtelux_cv2x
-Wl,--defsym=_ZNSt10unique_ptrINSt13__future_base12_Result_baseENS1_8_DeleterEE4swapERS3_=so_stub_for_libtelux_cv2x
-Wl,--defsym=_ZNSt10unique_ptrINSt13__future_base12_Result_baseENS1_8_DeleterEEC1INS0_7_ResultIbEES2_vEEOS_IT_T0_E=so_stub_for_libtelux_cv2x
-Wl,--defsym=_ZNSt10unique_ptrINSt13__future_base12_Result_baseENS1_8_DeleterEEC1INS0_7_ResultIiEES2_vEEOS_IT_T0_E=so_stub_for_libtelux_cv2x
-Wl,--defsym=_ZNSt10unique_ptrINSt13__future_base12_Result_baseENS1_8_DeleterEEC1INS0_7_ResultIN5telux6common6StatusEEES2_vEEOS_IT_T0_E=so_stub_for_libtelux_cv2x
-Wl,--defsym=_ZNSt10unique_ptrINSt13__future_base12_Result_baseENS1_8_DeleterEEC1INS0_7_ResultIN5telux6common9ErrorCodeEEES2_vEEOS_IT_T0_E=so_stub_for_libtelux_cv2x
-Wl,--defsym=_ZNSt10unique_ptrINSt13__future_base12_Result_baseENS1_8_DeleterEEC1INS0_7_ResultIvEES2_vEEOS_IT_T0_E=so_stub_for_libtelux_cv2x
-Wl,--defsym=_ZNSt10unique_ptrINSt13__future_base12_Result_baseENS1_8_DeleterEEC1IS2_vEEv=so_stub_for_libtelux_cv2x
-Wl,--defsym=_ZNSt10unique_ptrINSt13__future_base12_Result_baseENS1_8_DeleterEEC2INS0_7_ResultIbEES2_vEEOS_IT_T0_E=so_stub_for_libtelux_cv2x
-Wl,--defsym=_ZNSt10unique_ptrINSt13__future_base12_Result_baseENS1_8_DeleterEEC2INS0_7_ResultIiEES2_vEEOS_IT_T0_E=so_stub_for_libtelux_cv2x
-Wl,--defsym=_ZNSt10unique_ptrINSt13__future_base12_Result_baseENS1_8_DeleterEEC2INS0_7_ResultIN5telux6common6StatusEEES2_vEEOS_IT_T0_E=so_stub_for_libtelux_cv2x
-Wl,--defsym=_ZNSt10unique_ptrINSt13__future_base12_Result_baseENS1_8_DeleterEEC2INS0_7_ResultIN5telux6common9ErrorCodeEEES2_vEEOS_IT_T0_E=so_stub_for_libtelux_cv2x
-Wl,--defsym=_ZNSt10unique_ptrINSt13__future_base12_Result_baseENS1_8_DeleterEEC2INS0_7_ResultIvEES2_vEEOS_IT_T0_E=so_stub_for_libtelux_cv2x
-Wl,--defsym=_ZNSt10unique_ptrINSt13__future_base12_Result_baseENS1_8_DeleterEEC2IS2_vEEv=so_stub_for_libtelux_cv2x
-Wl,--defsym=_ZNSt10unique_ptrINSt13__future_base12_Result_baseENS1_8_DeleterEED1Ev=so_stub_for_libtelux_cv2x
-Wl,--defsym=_ZNSt10unique_ptrINSt13__future_base12_Result_baseENS1_8_DeleterEED2Ev=so_stub_for_libtelux_cv2x
-Wl,--defsym=_ZNSt10unique_ptrINSt13__future_base7_ResultIbEENS0_12_Result_base8_DeleterEE11get_deleterEv=so_stub_for_libtelux_cv2x
-Wl,--defsym=_ZNSt10unique_ptrINSt13__future_base7_ResultIbEENS0_12_Result_base8_DeleterEE7releaseEv=so_stub_for_libtelux_cv2x
-Wl,--defsym=_ZNSt10unique_ptrINSt13__future_base7_ResultIbEENS0_12_Result_base8_DeleterEEC1EOS5_=so_stub_for_libtelux_cv2x
-Wl,--defsym=_ZNSt10unique_ptrINSt13__future_base7_ResultIbEENS0_12_Result_base8_DeleterEEC1IS4_vEEPS2_=so_stub_for_libtelux_cv2x
-Wl,--defsym=_ZNSt10unique_ptrINSt13__future_base7_ResultIbEENS0_12_Result_base8_DeleterEEC2EOS5_=so_stub_for_libtelux_cv2x
-Wl,--defsym=_ZNSt10unique_ptrINSt13__future_base7_ResultIbEENS0_12_Result_base8_DeleterEEC2IS4_vEEPS2_=so_stub_for_libtelux_cv2x
-Wl,--defsym=_ZNSt10unique_ptrINSt13__future_base7_ResultIbEENS0_12_Result_base8_DeleterEED1Ev=so_stub_for_libtelux_cv2x
-Wl,--defsym=_ZNSt10unique_ptrINSt13__future_base7_ResultIbEENS0_12_Result_base8_DeleterEED2Ev=so_stub_for_libtelux_cv2x
-Wl,--defsym=_ZNSt10unique_ptrINSt13__future_base7_ResultIiEENS0_12_Result_base8_DeleterEE11get_deleterEv=so_stub_for_libtelux_cv2x
-Wl,--defsym=_ZNSt10unique_ptrINSt13__future_base7_ResultIiEENS0_12_Result_base8_DeleterEE7releaseEv=so_stub_for_libtelux_cv2x
-Wl,--defsym=_ZNSt10unique_ptrINSt13__future_base7_ResultIiEENS0_12_Result_base8_DeleterEEC1EOS5_=so_stub_for_libtelux_cv2x
-Wl,--defsym=_ZNSt10unique_ptrINSt13__future_base7_ResultIiEENS0_12_Result_base8_DeleterEEC1IS4_vEEPS2_=so_stub_for_libtelux_cv2x
-Wl,--defsym=_ZNSt10unique_ptrINSt13__future_base7_ResultIiEENS0_12_Result_base8_DeleterEEC2EOS5_=so_stub_for_libtelux_cv2x
-Wl,--defsym=_ZNSt10unique_ptrINSt13__future_base7_ResultIiEENS0_12_Result_base8_DeleterEEC2IS4_vEEPS2_=so_stub_for_libtelux_cv2x
-Wl,--defsym=_ZNSt10unique_ptrINSt13__future_base7_ResultIiEENS0_12_Result_base8_DeleterEED1Ev=so_stub_for_libtelux_cv2x
-Wl,--defsym=_ZNSt10unique_ptrINSt13__future_base7_ResultIiEENS0_12_Result_base8_DeleterEED2Ev=so_stub_for_libtelux_cv2x
-Wl,--defsym=_ZNSt10unique_ptrINSt13__future_base7_ResultIN5telux6common6StatusEEENS0_12_Result_base8_DeleterEE11get_deleterEv=so_stub_for_libtelux_cv2x
-Wl,--defsym=_ZNSt10unique_ptrINSt13__future_base7_ResultIN5telux6common6StatusEEENS0_12_Result_base8_DeleterEE7releaseEv=so_stub_for_libtelux_cv2x
-Wl,--defsym=_ZNSt10unique_ptrINSt13__future_base7_ResultIN5telux6common6StatusEEENS0_12_Result_base8_DeleterEEC1EOS8_=so_stub_for_libtelux_cv2x
-Wl,--defsym=_ZNSt10unique_ptrINSt13__future_base7_ResultIN5telux6common6StatusEEENS0_12_Result_base8_DeleterEEC1IS7_vEEPS5_=so_stub_for_libtelux_cv2x
-Wl,--defsym=_ZNSt10unique_ptrINSt13__future_base7_ResultIN5telux6common6StatusEEENS0_12_Result_base8_DeleterEEC2EOS8_=so_stub_for_libtelux_cv2x
-Wl,--defsym=_ZNSt10unique_ptrINSt13__future_base7_ResultIN5telux6common6StatusEEENS0_12_Result_base8_DeleterEEC2IS7_vEEPS5_=so_stub_for_libtelux_cv2x
-Wl,--defsym=_ZNSt10unique_ptrINSt13__future_base7_ResultIN5telux6common6StatusEEENS0_12_Result_base8_DeleterEED1Ev=so_stub_for_libtelux_cv2x
-Wl,--defsym=_ZNSt10unique_ptrINSt13__future_base7_ResultIN5telux6common6StatusEEENS0_12_Result_base8_DeleterEED2Ev=so_stub_for_libtelux_cv2x
-Wl,--defsym=_ZNSt10unique_ptrINSt13__future_base7_ResultIN5telux6common9ErrorCodeEEENS0_12_Result_base8_DeleterEE11get_deleterEv=so_stub_for_libtelux_cv2x
-Wl,--defsym=_ZNSt10unique_ptrINSt13__future_base7_ResultIN5telux6common9ErrorCodeEEENS0_12_Result_base8_DeleterEE7releaseEv=so_stub_for_libtelux_cv2x
-Wl,--defsym=_ZNSt10unique_ptrINSt13__future_base7_ResultIN5telux6common9ErrorCodeEEENS0_12_Result_base8_DeleterEEC1EOS8_=so_stub_for_libtelux_cv2x
-Wl,--defsym=_ZNSt10unique_ptrINSt13__future_base7_ResultIN5telux6common9ErrorCodeEEENS0_12_Result_base8_DeleterEEC1IS7_vEEPS5_=so_stub_for_libtelux_cv2x
-Wl,--defsym=_ZNSt10unique_ptrINSt13__future_base7_ResultIN5telux6common9ErrorCodeEEENS0_12_Result_base8_DeleterEEC2EOS8_=so_stub_for_libtelux_cv2x
-Wl,--defsym=_ZNSt10unique_ptrINSt13__future_base7_ResultIN5telux6common9ErrorCodeEEENS0_12_Result_base8_DeleterEEC2IS7_vEEPS5_=so_stub_for_libtelux_cv2x
-Wl,--defsym=_ZNSt10unique_ptrINSt13__future_base7_ResultIN5telux6common9ErrorCodeEEENS0_12_Result_base8_DeleterEED1Ev=so_stub_for_libtelux_cv2x
-Wl,--defsym=_ZNSt10unique_ptrINSt13__future_base7_ResultIN5telux6common9ErrorCodeEEENS0_12_Result_base8_DeleterEED2Ev=so_stub_for_libtelux_cv2x
-Wl,--defsym=_ZNSt10unique_ptrINSt13__future_base7_ResultIvEENS0_12_Result_base8_DeleterEE11get_deleterEv=so_stub_for_libtelux_cv2x
-Wl,--defsym=_ZNSt10unique_ptrINSt13__future_base7_ResultIvEENS0_12_Result_base8_DeleterEE7releaseEv=so_stub_for_libtelux_cv2x
-Wl,--defsym=_ZNSt10unique_ptrINSt13__future_base7_ResultIvEENS0_12_Result_base8_DeleterEEC1EOS5_=so_stub_for_libtelux_cv2x
-Wl,--defsym=_ZNSt10unique_ptrINSt13__future_base7_ResultIvEENS0_12_Result_base8_DeleterEEC1IS4_vEEPS2_=so_stub_for_libtelux_cv2x
-Wl,--defsym=_ZNSt10unique_ptrINSt13__future_base7_ResultIvEENS0_12_Result_base8_DeleterEEC2EOS5_=so_stub_for_libtelux_cv2x
-Wl,--defsym=_ZNSt10unique_ptrINSt13__future_base7_ResultIvEENS0_12_Result_base8_DeleterEEC2IS4_vEEPS2_=so_stub_for_libtelux_cv2x
-Wl,--defsym=_ZNSt10unique_ptrINSt13__future_base7_ResultIvEENS0_12_Result_base8_DeleterEED1Ev=so_stub_for_libtelux_cv2x
-Wl,--defsym=_ZNSt10unique_ptrINSt13__future_base7_ResultIvEENS0_12_Result_base8_DeleterEED2Ev=so_stub_for_libtelux_cv2x
-Wl,--defsym=_ZNSt10unique_ptrINSt6thread6_StateESt14default_deleteIS1_EE11get_deleterEv=so_stub_for_libtelux_cv2x
-Wl,--defsym=_ZNSt10unique_ptrINSt6thread6_StateESt14default_deleteIS1_EEC1IS3_vEEPS1_=so_stub_for_libtelux_cv2x
-Wl,--defsym=_ZNSt10unique_ptrINSt6thread6_StateESt14default_deleteIS1_EEC2IS3_vEEPS1_=so_stub_for_libtelux_cv2x
-Wl,--defsym=_ZNSt10unique_ptrINSt6thread6_StateESt14default_deleteIS1_EED1Ev=so_stub_for_libtelux_cv2x
-Wl,--defsym=_ZNSt10unique_ptrINSt6thread6_StateESt14default_deleteIS1_EED2Ev=so_stub_for_libtelux_cv2x
-Wl,--defsym=_ZNSt10unique_ptrINSt7__cxx1112basic_stringIcSt11char_traitsIcESaIcEEESt14default_deleteIS5_EE11get_deleterEv=so_stub_for_libtelux_cv2x
-Wl,--defsym=_ZNSt10unique_ptrINSt7__cxx1112basic_stringIcSt11char_traitsIcESaIcEEESt14default_deleteIS5_EE5resetEPS5_=so_stub_for_libtelux_cv2x
-Wl,--defsym=_ZNSt10unique_ptrINSt7__cxx1112basic_stringIcSt11char_traitsIcESaIcEEESt14default_deleteIS5_EE7releaseEv=so_stub_for_libtelux_cv2x
-Wl,--defsym=_ZNSt10unique_ptrINSt7__cxx1112basic_stringIcSt11char_traitsIcESaIcEEESt14default_deleteIS5_EEaSEOS8_=so_stub_for_libtelux_cv2x
-Wl,--defsym=_ZNSt10unique_ptrINSt7__cxx1112basic_stringIcSt11char_traitsIcESaIcEEESt14default_deleteIS5_EEC1IS7_vEEPS5_=so_stub_for_libtelux_cv2x
-Wl,--defsym=_ZNSt10unique_ptrINSt7__cxx1112basic_stringIcSt11char_traitsIcESaIcEEESt14default_deleteIS5_EEC1IS7_vEEv=so_stub_for_libtelux_cv2x
-Wl,--defsym=_ZNSt10unique_ptrINSt7__cxx1112basic_stringIcSt11char_traitsIcESaIcEEESt14default_deleteIS5_EEC2IS7_vEEPS5_=so_stub_for_libtelux_cv2x
-Wl,--defsym=_ZNSt10unique_ptrINSt7__cxx1112basic_stringIcSt11char_traitsIcESaIcEEESt14default_deleteIS5_EEC2IS7_vEEv=so_stub_for_libtelux_cv2x
-Wl,--defsym=_ZNSt10unique_ptrINSt7__cxx1112basic_stringIcSt11char_traitsIcESaIcEEESt14default_deleteIS5_EED1Ev=so_stub_for_libtelux_cv2x
-Wl,--defsym=_ZNSt10unique_ptrINSt7__cxx1112basic_stringIcSt11char_traitsIcESaIcEEESt14default_deleteIS5_EED2Ev=so_stub_for_libtelux_cv2x
-Wl,--defsym=_ZNSt10__weak_ptrIN5telux3qmi12IQmiListenerELN9__gnu_cxx12_Lock_policyE2EEC1INS0_4cv2x16Cv2xIndsListenerEvEERKSt12__shared_ptrIT_LS4_2EE=so_stub_for_libtelux_cv2x
-Wl,--defsym=_ZNSt10__weak_ptrIN5telux3qmi12IQmiListenerELN9__gnu_cxx12_Lock_policyE2EEC1INS0_4cv2x18Cv2xConfigListenerEvEERKSt12__shared_ptrIT_LS4_2EE=so_stub_for_libtelux_cv2x
-Wl,--defsym=_ZNSt10__weak_ptrIN5telux3qmi12IQmiListenerELN9__gnu_cxx12_Lock_policyE2EEC1INS1_15IQmiDmsListenerEvEERKSt12__shared_ptrIT_LS4_2EE=so_stub_for_libtelux_cv2x
-Wl,--defsym=_ZNSt10__weak_ptrIN5telux3qmi12IQmiListenerELN9__gnu_cxx12_Lock_policyE2EEC1INS1_15IQmiNasListenerEvEERKSt12__shared_ptrIT_LS4_2EE=so_stub_for_libtelux_cv2x
-Wl,--defsym=_ZNSt10__weak_ptrIN5telux3qmi12IQmiListenerELN9__gnu_cxx12_Lock_policyE2EEC1INS1_15IQmiWdsListenerEvEERKSt12__shared_ptrIT_LS4_2EE=so_stub_for_libtelux_cv2x
-Wl,--defsym=_ZNSt10__weak_ptrIN5telux3qmi12IQmiListenerELN9__gnu_cxx12_Lock_policyE2EEC2INS0_4cv2x16Cv2xIndsListenerEvEERKSt12__shared_ptrIT_LS4_2EE=so_stub_for_libtelux_cv2x
-Wl,--defsym=_ZNSt10__weak_ptrIN5telux3qmi12IQmiListenerELN9__gnu_cxx12_Lock_policyE2EEC2INS0_4cv2x18Cv2xConfigListenerEvEERKSt12__shared_ptrIT_LS4_2EE=so_stub_for_libtelux_cv2x
-Wl,--defsym=_ZNSt10__weak_ptrIN5telux3qmi12IQmiListenerELN9__gnu_cxx12_Lock_policyE2EEC2INS1_15IQmiDmsListenerEvEERKSt12__shared_ptrIT_LS4_2EE=so_stub_for_libtelux_cv2x
-Wl,--defsym=_ZNSt10__weak_ptrIN5telux3qmi12IQmiListenerELN9__gnu_cxx12_Lock_policyE2EEC2INS1_15IQmiNasListenerEvEERKSt12__shared_ptrIT_LS4_2EE=so_stub_for_libtelux_cv2x
-Wl,--defsym=_ZNSt10__weak_ptrIN5telux3qmi12IQmiListenerELN9__gnu_cxx12_Lock_policyE2EEC2INS1_15IQmiWdsListenerEvEERKSt12__shared_ptrIT_LS4_2EE=so_stub_for_libtelux_cv2x
-Wl,--defsym=_ZNSt10__weak_ptrIN5telux3qmi12IQmiListenerELN9__gnu_cxx12_Lock_policyE2EED1Ev=so_stub_for_libtelux_cv2x
-Wl,--defsym=_ZNSt10__weak_ptrIN5telux3qmi12IQmiListenerELN9__gnu_cxx12_Lock_policyE2EED2Ev=so_stub_for_libtelux_cv2x
-Wl,--defsym=_ZNSt10__weak_ptrIN5telux4cv2x13ICv2xListenerELN9__gnu_cxx12_Lock_policyE2EEaSEOS5_=so_stub_for_libtelux_cv2x
-Wl,--defsym=_ZNSt10__weak_ptrIN5telux4cv2x13ICv2xListenerELN9__gnu_cxx12_Lock_policyE2EEC1EOS5_=so_stub_for_libtelux_cv2x
-Wl,--defsym=_ZNSt10__weak_ptrIN5telux4cv2x13ICv2xListenerELN9__gnu_cxx12_Lock_policyE2EEC1ERKS5_=so_stub_for_libtelux_cv2x
-Wl,--defsym=_ZNSt10__weak_ptrIN5telux4cv2x13ICv2xListenerELN9__gnu_cxx12_Lock_policyE2EEC1IS2_vEERKSt12__shared_ptrIT_LS4_2EE=so_stub_for_libtelux_cv2x
-Wl,--defsym=_ZNSt10__weak_ptrIN5telux4cv2x13ICv2xListenerELN9__gnu_cxx12_Lock_policyE2EEC2EOS5_=so_stub_for_libtelux_cv2x
-Wl,--defsym=_ZNSt10__weak_ptrIN5telux4cv2x13ICv2xListenerELN9__gnu_cxx12_Lock_policyE2EEC2ERKS5_=so_stub_for_libtelux_cv2x
-Wl,--defsym=_ZNSt10__weak_ptrIN5telux4cv2x13ICv2xListenerELN9__gnu_cxx12_Lock_policyE2EEC2IS2_vEERKSt12__shared_ptrIT_LS4_2EE=so_stub_for_libtelux_cv2x
-Wl,--defsym=_ZNSt10__weak_ptrIN5telux4cv2x13ICv2xListenerELN9__gnu_cxx12_Lock_policyE2EED1Ev=so_stub_for_libtelux_cv2x
-Wl,--defsym=_ZNSt10__weak_ptrIN5telux4cv2x13ICv2xListenerELN9__gnu_cxx12_Lock_policyE2EED2Ev=so_stub_for_libtelux_cv2x
-Wl,--defsym=_ZNSt10__weak_ptrIN5telux4cv2x18ICv2xRadioListenerELN9__gnu_cxx12_Lock_policyE2EEaSEOS5_=so_stub_for_libtelux_cv2x
-Wl,--defsym=_ZNSt10__weak_ptrIN5telux4cv2x18ICv2xRadioListenerELN9__gnu_cxx12_Lock_policyE2EEC1EOS5_=so_stub_for_libtelux_cv2x
-Wl,--defsym=_ZNSt10__weak_ptrIN5telux4cv2x18ICv2xRadioListenerELN9__gnu_cxx12_Lock_policyE2EEC1ERKS5_=so_stub_for_libtelux_cv2x
-Wl,--defsym=_ZNSt10__weak_ptrIN5telux4cv2x18ICv2xRadioListenerELN9__gnu_cxx12_Lock_policyE2EEC2EOS5_=so_stub_for_libtelux_cv2x
-Wl,--defsym=_ZNSt10__weak_ptrIN5telux4cv2x18ICv2xRadioListenerELN9__gnu_cxx12_Lock_policyE2EEC2ERKS5_=so_stub_for_libtelux_cv2x
-Wl,--defsym=_ZNSt10__weak_ptrIN5telux4cv2x18ICv2xRadioListenerELN9__gnu_cxx12_Lock_policyE2EED1Ev=so_stub_for_libtelux_cv2x
-Wl,--defsym=_ZNSt10__weak_ptrIN5telux4cv2x18ICv2xRadioListenerELN9__gnu_cxx12_Lock_policyE2EED2Ev=so_stub_for_libtelux_cv2x
-Wl,--defsym=_ZNSt10__weak_ptrIN5telux4cv2x19ICv2xConfigListenerELN9__gnu_cxx12_Lock_policyE2EEaSEOS5_=so_stub_for_libtelux_cv2x
-Wl,--defsym=_ZNSt10__weak_ptrIN5telux4cv2x19ICv2xConfigListenerELN9__gnu_cxx12_Lock_policyE2EEC1EOS5_=so_stub_for_libtelux_cv2x
-Wl,--defsym=_ZNSt10__weak_ptrIN5telux4cv2x19ICv2xConfigListenerELN9__gnu_cxx12_Lock_policyE2EEC1ERKS5_=so_stub_for_libtelux_cv2x
-Wl,--defsym=_ZNSt10__weak_ptrIN5telux4cv2x19ICv2xConfigListenerELN9__gnu_cxx12_Lock_policyE2EEC1IS2_vEERKSt12__shared_ptrIT_LS4_2EE=so_stub_for_libtelux_cv2x
-Wl,--defsym=_ZNSt10__weak_ptrIN5telux4cv2x19ICv2xConfigListenerELN9__gnu_cxx12_Lock_policyE2EEC2EOS5_=so_stub_for_libtelux_cv2x
-Wl,--defsym=_ZNSt10__weak_ptrIN5telux4cv2x19ICv2xConfigListenerELN9__gnu_cxx12_Lock_policyE2EEC2ERKS5_=so_stub_for_libtelux_cv2x
-Wl,--defsym=_ZNSt10__weak_ptrIN5telux4cv2x19ICv2xConfigListenerELN9__gnu_cxx12_Lock_policyE2EEC2IS2_vEERKSt12__shared_ptrIT_LS4_2EE=so_stub_for_libtelux_cv2x
-Wl,--defsym=_ZNSt10__weak_ptrIN5telux4cv2x19ICv2xConfigListenerELN9__gnu_cxx12_Lock_policyE2EED1Ev=so_stub_for_libtelux_cv2x
-Wl,--defsym=_ZNSt10__weak_ptrIN5telux4cv2x19ICv2xConfigListenerELN9__gnu_cxx12_Lock_policyE2EED2Ev=so_stub_for_libtelux_cv2x
-Wl,--defsym=_ZNSt10__weak_ptrIN5telux4cv2x20ICv2xSysCtrlListenerELN9__gnu_cxx12_Lock_policyE2EEaSEOS5_=so_stub_for_libtelux_cv2x
-Wl,--defsym=_ZNSt10__weak_ptrIN5telux4cv2x20ICv2xSysCtrlListenerELN9__gnu_cxx12_Lock_policyE2EEC1EOS5_=so_stub_for_libtelux_cv2x
-Wl,--defsym=_ZNSt10__weak_ptrIN5telux4cv2x20ICv2xSysCtrlListenerELN9__gnu_cxx12_Lock_policyE2EEC1ERKS5_=so_stub_for_libtelux_cv2x
-Wl,--defsym=_ZNSt10__weak_ptrIN5telux4cv2x20ICv2xSysCtrlListenerELN9__gnu_cxx12_Lock_policyE2EEC1INS1_16Cv2xIndsListenerEvEERKSt12__shared_ptrIT_LS4_2EE=so_stub_for_libtelux_cv2x
-Wl,--defsym=_ZNSt10__weak_ptrIN5telux4cv2x20ICv2xSysCtrlListenerELN9__gnu_cxx12_Lock_policyE2EEC1INS1_18Cv2xConfigListenerEvEERKSt12__shared_ptrIT_LS4_2EE=so_stub_for_libtelux_cv2x
-Wl,--defsym=_ZNSt10__weak_ptrIN5telux4cv2x20ICv2xSysCtrlListenerELN9__gnu_cxx12_Lock_policyE2EEC1INS1_21ServiceStatusListenerEvEERKSt12__shared_ptrIT_LS4_2EE=so_stub_for_libtelux_cv2x
-Wl,--defsym=_ZNSt10__weak_ptrIN5telux4cv2x20ICv2xSysCtrlListenerELN9__gnu_cxx12_Lock_policyE2EEC1INS1_31SysctrlGetConfigurationCallbackEvEERKSt12__shared_ptrIT_LS4_2EE=so_stub_for_libtelux_cv2x
-Wl,--defsym=_ZNSt10__weak_ptrIN5telux4cv2x20ICv2xSysCtrlListenerELN9__gnu_cxx12_Lock_policyE2EEC1IS2_vEERKSt12__shared_ptrIT_LS4_2EE=so_stub_for_libtelux_cv2x
-Wl,--defsym=_ZNSt10__weak_ptrIN5telux4cv2x20ICv2xSysCtrlListenerELN9__gnu_cxx12_Lock_policyE2EEC2EOS5_=so_stub_for_libtelux_cv2x
-Wl,--defsym=_ZNSt10__weak_ptrIN5telux4cv2x20ICv2xSysCtrlListenerELN9__gnu_cxx12_Lock_policyE2EEC2ERKS5_=so_stub_for_libtelux_cv2x
-Wl,--defsym=_ZNSt10__weak_ptrIN5telux4cv2x20ICv2xSysCtrlListenerELN9__gnu_cxx12_Lock_policyE2EEC2INS1_16Cv2xIndsListenerEvEERKSt12__shared_ptrIT_LS4_2EE=so_stub_for_libtelux_cv2x
-Wl,--defsym=_ZNSt10__weak_ptrIN5telux4cv2x20ICv2xSysCtrlListenerELN9__gnu_cxx12_Lock_policyE2EEC2INS1_18Cv2xConfigListenerEvEERKSt12__shared_ptrIT_LS4_2EE=so_stub_for_libtelux_cv2x
-Wl,--defsym=_ZNSt10__weak_ptrIN5telux4cv2x20ICv2xSysCtrlListenerELN9__gnu_cxx12_Lock_policyE2EEC2INS1_21ServiceStatusListenerEvEERKSt12__shared_ptrIT_LS4_2EE=so_stub_for_libtelux_cv2x
-Wl,--defsym=_ZNSt10__weak_ptrIN5telux4cv2x20ICv2xSysCtrlListenerELN9__gnu_cxx12_Lock_policyE2EEC2INS1_31SysctrlGetConfigurationCallbackEvEERKSt12__shared_ptrIT_LS4_2EE=so_stub_for_libtelux_cv2x
-Wl,--defsym=_ZNSt10__weak_ptrIN5telux4cv2x20ICv2xSysCtrlListenerELN9__gnu_cxx12_Lock_policyE2EEC2IS2_vEERKSt12__shared_ptrIT_LS4_2EE=so_stub_for_libtelux_cv2x
-Wl,--defsym=_ZNSt10__weak_ptrIN5telux4cv2x20ICv2xSysCtrlListenerELN9__gnu_cxx12_Lock_policyE2EED1Ev=so_stub_for_libtelux_cv2x
-Wl,--defsym=_ZNSt10__weak_ptrIN5telux4cv2x20ICv2xSysCtrlListenerELN9__gnu_cxx12_Lock_policyE2EED2Ev=so_stub_for_libtelux_cv2x
-Wl,--defsym=_ZNSt10__weak_ptrIN5telux4data23IDataConnectionListenerELN9__gnu_cxx12_Lock_policyE2EEC1INS0_4cv2x21ServiceStatusListenerEvEERKSt12__shared_ptrIT_LS4_2EE=so_stub_for_libtelux_cv2x
-Wl,--defsym=_ZNSt10__weak_ptrIN5telux4data23IDataConnectionListenerELN9__gnu_cxx12_Lock_policyE2EEC2INS0_4cv2x21ServiceStatusListenerEvEERKSt12__shared_ptrIT_LS4_2EE=so_stub_for_libtelux_cv2x
-Wl,--defsym=_ZNSt10__weak_ptrIN5telux4data23IDataConnectionListenerELN9__gnu_cxx12_Lock_policyE2EED1Ev=so_stub_for_libtelux_cv2x
-Wl,--defsym=_ZNSt10__weak_ptrIN5telux4data23IDataConnectionListenerELN9__gnu_cxx12_Lock_policyE2EED2Ev=so_stub_for_libtelux_cv2x
-Wl,--defsym=_ZNSt11atomic_flag7_S_initEb=so_stub_for_libtelux_cv2x
-Wl,--defsym=_ZNSt11atomic_flagC1Eb=so_stub_for_libtelux_cv2x
-Wl,--defsym=_ZNSt11atomic_flagC2Eb=so_stub_for_libtelux_cv2x
-Wl,--defsym=_ZNSt11char_traitsIcE7compareEPKcS2_j=so_stub_for_libtelux_cv2x
-Wl,--defsym=_ZNSt11__copy_moveILb0ELb1ESt26random_access_iterator_tagE8__copy_mIhEEPT_PKS3_S6_S4_=so_stub_for_libtelux_cv2x
-Wl,--defsym=_ZNSt11__copy_moveILb0ELb1ESt26random_access_iterator_tagE8__copy_mIjEEPT_PKS3_S6_S4_=so_stub_for_libtelux_cv2x
-Wl,--defsym=_ZNSt11__copy_moveILb0ELb1ESt26random_access_iterator_tagE8__copy_mIN5telux4cv2x12TxPoolIdInfoEEEPT_PKS6_S9_S7_=so_stub_for_libtelux_cv2x
-Wl,--defsym=_ZNSt11__copy_moveILb0ELb1ESt26random_access_iterator_tagE8__copy_mIN5telux4cv2x13TrustedUEInfoEEEPT_PKS6_S9_S7_=so_stub_for_libtelux_cv2x
-Wl,--defsym=_ZNSt11__copy_moveILb0ELb1ESt26random_access_iterator_tagE8__copy_mIPSt13shared_futureIvEEEPT_PKS6_S9_S7_=so_stub_for_libtelux_cv2x
-Wl,--defsym=_ZNSt11__copy_moveILb0ELb1ESt26random_access_iterator_tagE8__copy_mIyEEPT_PKS3_S6_S4_=so_stub_for_libtelux_cv2x
-Wl,--defsym=_ZNSt11__copy_moveILb1ELb0ESt26random_access_iterator_tagE8__copy_mIPSt13shared_futureIvES5_EET0_T_S7_S6_=so_stub_for_libtelux_cv2x
-Wl,--defsym=_ZNSt11__copy_moveILb1ELb0ESt26random_access_iterator_tagE8__copy_mIPSt4pairIbSt8weak_ptrIN5telux4cv2x18ICv2xRadioListenerEEESA_EET0_T_SC_SB_=so_stub_for_libtelux_cv2x
-Wl,--defsym=_ZNSt11__copy_moveILb1ELb0ESt26random_access_iterator_tagE8__copy_mIPSt8weak_ptrIN5telux4cv2x13ICv2xListenerEES8_EET0_T_SA_S9_=so_stub_for_libtelux_cv2x
-Wl,--defsym=_ZNSt11__copy_moveILb1ELb0ESt26random_access_iterator_tagE8__copy_mIPSt8weak_ptrIN5telux4cv2x19ICv2xConfigListenerEES8_EET0_T_SA_S9_=so_stub_for_libtelux_cv2x
-Wl,--defsym=_ZNSt11__copy_moveILb1ELb0ESt26random_access_iterator_tagE8__copy_mIPSt8weak_ptrIN5telux4cv2x20ICv2xSysCtrlListenerEES8_EET0_T_SA_S9_=so_stub_for_libtelux_cv2x
-Wl,--defsym=_ZNSt11__copy_moveILb1ELb1ESt26random_access_iterator_tagE8__copy_mIjEEPT_PKS3_S6_S4_=so_stub_for_libtelux_cv2x
-Wl,--defsym=_ZNSt11__copy_moveILb1ELb1ESt26random_access_iterator_tagE8__copy_mIN5telux4cv2x12TxPoolIdInfoEEEPT_PKS6_S9_S7_=so_stub_for_libtelux_cv2x
-Wl,--defsym=_ZNSt11__copy_moveILb1ELb1ESt26random_access_iterator_tagE8__copy_mIyEEPT_PKS3_S6_S4_=so_stub_for_libtelux_cv2x
-Wl,--defsym=_ZNSt11_Deque_baseISt13shared_futureIvESaIS1_EE11_Deque_implC1Ev=so_stub_for_libtelux_cv2x
-Wl,--defsym=_ZNSt11_Deque_baseISt13shared_futureIvESaIS1_EE11_Deque_implC2Ev=so_stub_for_libtelux_cv2x
-Wl,--defsym=_ZNSt11_Deque_baseISt13shared_futureIvESaIS1_EE11_Deque_implD1Ev=so_stub_for_libtelux_cv2x
-Wl,--defsym=_ZNSt11_Deque_baseISt13shared_futureIvESaIS1_EE11_Deque_implD2Ev=so_stub_for_libtelux_cv2x
-Wl,--defsym=_ZNSt11_Deque_baseISt13shared_futureIvESaIS1_EE15_M_allocate_mapEj=so_stub_for_libtelux_cv2x
-Wl,--defsym=_ZNSt11_Deque_baseISt13shared_futureIvESaIS1_EE15_M_create_nodesEPPS1_S5_=so_stub_for_libtelux_cv2x
-Wl,--defsym=_ZNSt11_Deque_baseISt13shared_futureIvESaIS1_EE16_M_allocate_nodeEv=so_stub_for_libtelux_cv2x
-Wl,--defsym=_ZNSt11_Deque_baseISt13shared_futureIvESaIS1_EE16_M_destroy_nodesEPPS1_S5_=so_stub_for_libtelux_cv2x
-Wl,--defsym=_ZNSt11_Deque_baseISt13shared_futureIvESaIS1_EE17_M_deallocate_mapEPPS1_j=so_stub_for_libtelux_cv2x
-Wl,--defsym=_ZNSt11_Deque_baseISt13shared_futureIvESaIS1_EE17_M_initialize_mapEj=so_stub_for_libtelux_cv2x
-Wl,--defsym=_ZNSt11_Deque_baseISt13shared_futureIvESaIS1_EE18_M_deallocate_nodeEPS1_=so_stub_for_libtelux_cv2x
-Wl,--defsym=_ZNSt11_Deque_baseISt13shared_futureIvESaIS1_EE19_M_get_Tp_allocatorEv=so_stub_for_libtelux_cv2x
-Wl,--defsym=_ZNSt11_Deque_baseISt13shared_futureIvESaIS1_EEC1Ev=so_stub_for_libtelux_cv2x
-Wl,--defsym=_ZNSt11_Deque_baseISt13shared_futureIvESaIS1_EEC2Ev=so_stub_for_libtelux_cv2x
-Wl,--defsym=_ZNSt11_Deque_baseISt13shared_futureIvESaIS1_EED1Ev=so_stub_for_libtelux_cv2x
-Wl,--defsym=_ZNSt11_Deque_baseISt13shared_futureIvESaIS1_EED2Ev=so_stub_for_libtelux_cv2x
-Wl,--defsym=_ZNSt11this_thread9sleep_forIxSt5ratioILx1ELx1000EEEEvRKNSt6chrono8durationIT_T0_EE=so_stub_for_libtelux_cv2x
-Wl,--defsym=_ZNSt11_Tuple_implILj0EJOjEE7_M_headERS1_=so_stub_for_libtelux_cv2x
-Wl,--defsym=_ZNSt11_Tuple_implILj0EJOjEEC1EOS1_=so_stub_for_libtelux_cv2x
-Wl,--defsym=_ZNSt11_Tuple_implILj0EJOjEEC1IjEEOT_=so_stub_for_libtelux_cv2x
-Wl,--defsym=_ZNSt11_Tuple_implILj0EJOjEEC2EOS1_=so_stub_for_libtelux_cv2x
-Wl,--defsym=_ZNSt11_Tuple_implILj0EJOjEEC2IjEEOT_=so_stub_for_libtelux_cv2x
-Wl,--defsym=_ZNSt11_Tuple_implILj0EJOSt10shared_ptrIN5telux4cv2x14IndicationDataEEEE7_M_headERS6_=so_stub_for_libtelux_cv2x
-Wl,--defsym=_ZNSt11_Tuple_implILj0EJOSt10shared_ptrIN5telux4cv2x14IndicationDataEEEEC1IS4_EEOT_=so_stub_for_libtelux_cv2x
-Wl,--defsym=_ZNSt11_Tuple_implILj0EJOSt10shared_ptrIN5telux4cv2x14IndicationDataEEEEC2IS4_EEOT_=so_stub_for_libtelux_cv2x
-Wl,--defsym=_ZNSt11_Tuple_implILj0EJOSt10shared_ptrIN5telux4cv2x17ServiceStatusDataEEEE7_M_headERS6_=so_stub_for_libtelux_cv2x
-Wl,--defsym=_ZNSt11_Tuple_implILj0EJOSt10shared_ptrIN5telux4cv2x17ServiceStatusDataEEEEC1IS4_EEOT_=so_stub_for_libtelux_cv2x
-Wl,--defsym=_ZNSt11_Tuple_implILj0EJOSt10shared_ptrIN5telux4cv2x17ServiceStatusDataEEEEC2IS4_EEOT_=so_stub_for_libtelux_cv2x
-Wl,--defsym=_ZNSt11_Tuple_implILj0EJPN5telux4cv2x11Cv2xSysCtrlESt12_PlaceholderILi1EEEE7_M_headERS6_=so_stub_for_libtelux_cv2x
-Wl,--defsym=_ZNSt11_Tuple_implILj0EJPN5telux4cv2x11Cv2xSysCtrlESt12_PlaceholderILi1EEEE7_M_tailERS6_=so_stub_for_libtelux_cv2x
-Wl,--defsym=_ZNSt11_Tuple_implILj0EJPN5telux4cv2x11Cv2xSysCtrlESt12_PlaceholderILi1EEEEC1EOS6_=so_stub_for_libtelux_cv2x
-Wl,--defsym=_ZNSt11_Tuple_implILj0EJPN5telux4cv2x11Cv2xSysCtrlESt12_PlaceholderILi1EEEEC1IRS3_JRKS5_EvEEOT_DpOT0_=so_stub_for_libtelux_cv2x
-Wl,--defsym=_ZNSt11_Tuple_implILj0EJPN5telux4cv2x11Cv2xSysCtrlESt12_PlaceholderILi1EEEEC1IS3_JRKS5_EvEEOT_DpOT0_=so_stub_for_libtelux_cv2x
-Wl,--defsym=_ZNSt11_Tuple_implILj0EJPN5telux4cv2x11Cv2xSysCtrlESt12_PlaceholderILi1EEEEC2EOS6_=so_stub_for_libtelux_cv2x
-Wl,--defsym=_ZNSt11_Tuple_implILj0EJPN5telux4cv2x11Cv2xSysCtrlESt12_PlaceholderILi1EEEEC2IRS3_JRKS5_EvEEOT_DpOT0_=so_stub_for_libtelux_cv2x
-Wl,--defsym=_ZNSt11_Tuple_implILj0EJPN5telux4cv2x11Cv2xSysCtrlESt12_PlaceholderILi1EEEEC2IS3_JRKS5_EvEEOT_DpOT0_=so_stub_for_libtelux_cv2x
-Wl,--defsym=_ZNSt11_Tuple_implILj0EJPNSt13__future_base12_Result_baseENS1_8_DeleterEEE7_M_headERKS4_=so_stub_for_libtelux_cv2x
-Wl,--defsym=_ZNSt11_Tuple_implILj0EJPNSt13__future_base12_Result_baseENS1_8_DeleterEEE7_M_headERS4_=so_stub_for_libtelux_cv2x
-Wl,--defsym=_ZNSt11_Tuple_implILj0EJPNSt13__future_base12_Result_baseENS1_8_DeleterEEE7_M_tailERS4_=so_stub_for_libtelux_cv2x
-Wl,--defsym=_ZNSt11_Tuple_implILj0EJPNSt13__future_base12_Result_baseENS1_8_DeleterEEEaSEOS4_=so_stub_for_libtelux_cv2x
-Wl,--defsym=_ZNSt11_Tuple_implILj0EJPNSt13__future_base12_Result_baseENS1_8_DeleterEEEC1EOS4_=so_stub_for_libtelux_cv2x
-Wl,--defsym=_ZNSt11_Tuple_implILj0EJPNSt13__future_base12_Result_baseENS1_8_DeleterEEEC1Ev=so_stub_for_libtelux_cv2x
-Wl,--defsym=_ZNSt11_Tuple_implILj0EJPNSt13__future_base12_Result_baseENS1_8_DeleterEEEC1IRS2_JS3_EvEEOT_DpOT0_=so_stub_for_libtelux_cv2x
-Wl,--defsym=_ZNSt11_Tuple_implILj0EJPNSt13__future_base12_Result_baseENS1_8_DeleterEEEC2EOS4_=so_stub_for_libtelux_cv2x
-Wl,--defsym=_ZNSt11_Tuple_implILj0EJPNSt13__future_base12_Result_baseENS1_8_DeleterEEEC2Ev=so_stub_for_libtelux_cv2x
-Wl,--defsym=_ZNSt11_Tuple_implILj0EJPNSt13__future_base12_Result_baseENS1_8_DeleterEEEC2IRS2_JS3_EvEEOT_DpOT0_=so_stub_for_libtelux_cv2x
-Wl,--defsym=_ZNSt11_Tuple_implILj0EJPNSt13__future_base7_ResultIbEENS0_12_Result_base8_DeleterEEE7_M_headERKS6_=so_stub_for_libtelux_cv2x
-Wl,--defsym=_ZNSt11_Tuple_implILj0EJPNSt13__future_base7_ResultIbEENS0_12_Result_base8_DeleterEEE7_M_headERS6_=so_stub_for_libtelux_cv2x
-Wl,--defsym=_ZNSt11_Tuple_implILj0EJPNSt13__future_base7_ResultIbEENS0_12_Result_base8_DeleterEEEC1Ev=so_stub_for_libtelux_cv2x
-Wl,--defsym=_ZNSt11_Tuple_implILj0EJPNSt13__future_base7_ResultIbEENS0_12_Result_base8_DeleterEEEC1IRS3_JS5_EvEEOT_DpOT0_=so_stub_for_libtelux_cv2x
-Wl,--defsym=_ZNSt11_Tuple_implILj0EJPNSt13__future_base7_ResultIbEENS0_12_Result_base8_DeleterEEEC2Ev=so_stub_for_libtelux_cv2x
-Wl,--defsym=_ZNSt11_Tuple_implILj0EJPNSt13__future_base7_ResultIbEENS0_12_Result_base8_DeleterEEEC2IRS3_JS5_EvEEOT_DpOT0_=so_stub_for_libtelux_cv2x
-Wl,--defsym=_ZNSt11_Tuple_implILj0EJPNSt13__future_base7_ResultIiEENS0_12_Result_base8_DeleterEEE7_M_headERKS6_=so_stub_for_libtelux_cv2x
-Wl,--defsym=_ZNSt11_Tuple_implILj0EJPNSt13__future_base7_ResultIiEENS0_12_Result_base8_DeleterEEE7_M_headERS6_=so_stub_for_libtelux_cv2x
-Wl,--defsym=_ZNSt11_Tuple_implILj0EJPNSt13__future_base7_ResultIiEENS0_12_Result_base8_DeleterEEEC1Ev=so_stub_for_libtelux_cv2x
-Wl,--defsym=_ZNSt11_Tuple_implILj0EJPNSt13__future_base7_ResultIiEENS0_12_Result_base8_DeleterEEEC1IRS3_JS5_EvEEOT_DpOT0_=so_stub_for_libtelux_cv2x
-Wl,--defsym=_ZNSt11_Tuple_implILj0EJPNSt13__future_base7_ResultIiEENS0_12_Result_base8_DeleterEEEC2Ev=so_stub_for_libtelux_cv2x
-Wl,--defsym=_ZNSt11_Tuple_implILj0EJPNSt13__future_base7_ResultIiEENS0_12_Result_base8_DeleterEEEC2IRS3_JS5_EvEEOT_DpOT0_=so_stub_for_libtelux_cv2x
-Wl,--defsym=_ZNSt11_Tuple_implILj0EJPNSt13__future_base7_ResultIN5telux6common6StatusEEENS0_12_Result_base8_DeleterEEE7_M_headERKS9_=so_stub_for_libtelux_cv2x
-Wl,--defsym=_ZNSt11_Tuple_implILj0EJPNSt13__future_base7_ResultIN5telux6common6StatusEEENS0_12_Result_base8_DeleterEEE7_M_headERS9_=so_stub_for_libtelux_cv2x
-Wl,--defsym=_ZNSt11_Tuple_implILj0EJPNSt13__future_base7_ResultIN5telux6common6StatusEEENS0_12_Result_base8_DeleterEEEC1Ev=so_stub_for_libtelux_cv2x
-Wl,--defsym=_ZNSt11_Tuple_implILj0EJPNSt13__future_base7_ResultIN5telux6common6StatusEEENS0_12_Result_base8_DeleterEEEC1IRS6_JS8_EvEEOT_DpOT0_=so_stub_for_libtelux_cv2x
-Wl,--defsym=_ZNSt11_Tuple_implILj0EJPNSt13__future_base7_ResultIN5telux6common6StatusEEENS0_12_Result_base8_DeleterEEEC2Ev=so_stub_for_libtelux_cv2x
-Wl,--defsym=_ZNSt11_Tuple_implILj0EJPNSt13__future_base7_ResultIN5telux6common6StatusEEENS0_12_Result_base8_DeleterEEEC2IRS6_JS8_EvEEOT_DpOT0_=so_stub_for_libtelux_cv2x
-Wl,--defsym=_ZNSt11_Tuple_implILj0EJPNSt13__future_base7_ResultIN5telux6common9ErrorCodeEEENS0_12_Result_base8_DeleterEEE7_M_headERKS9_=so_stub_for_libtelux_cv2x
-Wl,--defsym=_ZNSt11_Tuple_implILj0EJPNSt13__future_base7_ResultIN5telux6common9ErrorCodeEEENS0_12_Result_base8_DeleterEEE7_M_headERS9_=so_stub_for_libtelux_cv2x
-Wl,--defsym=_ZNSt11_Tuple_implILj0EJPNSt13__future_base7_ResultIN5telux6common9ErrorCodeEEENS0_12_Result_base8_DeleterEEEC1Ev=so_stub_for_libtelux_cv2x
-Wl,--defsym=_ZNSt11_Tuple_implILj0EJPNSt13__future_base7_ResultIN5telux6common9ErrorCodeEEENS0_12_Result_base8_DeleterEEEC1IRS6_JS8_EvEEOT_DpOT0_=so_stub_for_libtelux_cv2x
-Wl,--defsym=_ZNSt11_Tuple_implILj0EJPNSt13__future_base7_ResultIN5telux6common9ErrorCodeEEENS0_12_Result_base8_DeleterEEEC2Ev=so_stub_for_libtelux_cv2x
-Wl,--defsym=_ZNSt11_Tuple_implILj0EJPNSt13__future_base7_ResultIN5telux6common9ErrorCodeEEENS0_12_Result_base8_DeleterEEEC2IRS6_JS8_EvEEOT_DpOT0_=so_stub_for_libtelux_cv2x
-Wl,--defsym=_ZNSt11_Tuple_implILj0EJPNSt13__future_base7_ResultIvEENS0_12_Result_base8_DeleterEEE7_M_headERKS6_=so_stub_for_libtelux_cv2x
-Wl,--defsym=_ZNSt11_Tuple_implILj0EJPNSt13__future_base7_ResultIvEENS0_12_Result_base8_DeleterEEE7_M_headERS6_=so_stub_for_libtelux_cv2x
-Wl,--defsym=_ZNSt11_Tuple_implILj0EJPNSt13__future_base7_ResultIvEENS0_12_Result_base8_DeleterEEEC1Ev=so_stub_for_libtelux_cv2x
-Wl,--defsym=_ZNSt11_Tuple_implILj0EJPNSt13__future_base7_ResultIvEENS0_12_Result_base8_DeleterEEEC1IRS3_JS5_EvEEOT_DpOT0_=so_stub_for_libtelux_cv2x
-Wl,--defsym=_ZNSt11_Tuple_implILj0EJPNSt13__future_base7_ResultIvEENS0_12_Result_base8_DeleterEEEC2Ev=so_stub_for_libtelux_cv2x
-Wl,--defsym=_ZNSt11_Tuple_implILj0EJPNSt13__future_base7_ResultIvEENS0_12_Result_base8_DeleterEEEC2IRS3_JS5_EvEEOT_DpOT0_=so_stub_for_libtelux_cv2x
-Wl,--defsym=_ZNSt11_Tuple_implILj0EJPNSt6thread6_StateESt14default_deleteIS1_EEE7_M_headERS5_=so_stub_for_libtelux_cv2x
-Wl,--defsym=_ZNSt11_Tuple_implILj0EJPNSt6thread6_StateESt14default_deleteIS1_EEEC1Ev=so_stub_for_libtelux_cv2x
-Wl,--defsym=_ZNSt11_Tuple_implILj0EJPNSt6thread6_StateESt14default_deleteIS1_EEEC2Ev=so_stub_for_libtelux_cv2x
-Wl,--defsym=_ZNSt11_Tuple_implILj0EJPNSt7__cxx1112basic_stringIcSt11char_traitsIcESaIcEEESt14default_deleteIS5_EEE7_M_headERKS9_=so_stub_for_libtelux_cv2x
-Wl,--defsym=_ZNSt11_Tuple_implILj0EJPNSt7__cxx1112basic_stringIcSt11char_traitsIcESaIcEEESt14default_deleteIS5_EEE7_M_headERS9_=so_stub_for_libtelux_cv2x
-Wl,--defsym=_ZNSt11_Tuple_implILj0EJPNSt7__cxx1112basic_stringIcSt11char_traitsIcESaIcEEESt14default_deleteIS5_EEEC1Ev=so_stub_for_libtelux_cv2x
-Wl,--defsym=_ZNSt11_Tuple_implILj0EJPNSt7__cxx1112basic_stringIcSt11char_traitsIcESaIcEEESt14default_deleteIS5_EEEC2Ev=so_stub_for_libtelux_cv2x
-Wl,--defsym=_ZNSt11_Tuple_implILj0EJRKjEE7_M_headERS2_=so_stub_for_libtelux_cv2x
-Wl,--defsym=_ZNSt11_Tuple_implILj0EJRKjEEC1EOS2_=so_stub_for_libtelux_cv2x
-Wl,--defsym=_ZNSt11_Tuple_implILj0EJRKjEEC1ES1_=so_stub_for_libtelux_cv2x
-Wl,--defsym=_ZNSt11_Tuple_implILj0EJRKjEEC2EOS2_=so_stub_for_libtelux_cv2x
-Wl,--defsym=_ZNSt11_Tuple_implILj0EJRKjEEC2ES1_=so_stub_for_libtelux_cv2x
-Wl,--defsym=_ZNSt11_Tuple_implILj1EJNSt13__future_base12_Result_base8_DeleterEEE7_M_headERS3_=so_stub_for_libtelux_cv2x
-Wl,--defsym=_ZNSt11_Tuple_implILj1EJNSt13__future_base12_Result_base8_DeleterEEEaSEOS3_=so_stub_for_libtelux_cv2x
-Wl,--defsym=_ZNSt11_Tuple_implILj1EJNSt13__future_base12_Result_base8_DeleterEEEC1EOS3_=so_stub_for_libtelux_cv2x
-Wl,--defsym=_ZNSt11_Tuple_implILj1EJNSt13__future_base12_Result_base8_DeleterEEEC1Ev=so_stub_for_libtelux_cv2x
-Wl,--defsym=_ZNSt11_Tuple_implILj1EJNSt13__future_base12_Result_base8_DeleterEEEC1IS2_EEOT_=so_stub_for_libtelux_cv2x
-Wl,--defsym=_ZNSt11_Tuple_implILj1EJNSt13__future_base12_Result_base8_DeleterEEEC2EOS3_=so_stub_for_libtelux_cv2x
-Wl,--defsym=_ZNSt11_Tuple_implILj1EJNSt13__future_base12_Result_base8_DeleterEEEC2Ev=so_stub_for_libtelux_cv2x
-Wl,--defsym=_ZNSt11_Tuple_implILj1EJNSt13__future_base12_Result_base8_DeleterEEEC2IS2_EEOT_=so_stub_for_libtelux_cv2x
-Wl,--defsym=_ZNSt11_Tuple_implILj1EJSt12_PlaceholderILi1EEEE7_M_headERS2_=so_stub_for_libtelux_cv2x
-Wl,--defsym=_ZNSt11_Tuple_implILj1EJSt12_PlaceholderILi1EEEEC1EOS2_=so_stub_for_libtelux_cv2x
-Wl,--defsym=_ZNSt11_Tuple_implILj1EJSt12_PlaceholderILi1EEEEC1ERKS1_=so_stub_for_libtelux_cv2x
-Wl,--defsym=_ZNSt11_Tuple_implILj1EJSt12_PlaceholderILi1EEEEC2EOS2_=so_stub_for_libtelux_cv2x
-Wl,--defsym=_ZNSt11_Tuple_implILj1EJSt12_PlaceholderILi1EEEEC2ERKS1_=so_stub_for_libtelux_cv2x
-Wl,--defsym=_ZNSt11_Tuple_implILj1EJSt14default_deleteINSt6thread6_StateEEEE7_M_headERS4_=so_stub_for_libtelux_cv2x
-Wl,--defsym=_ZNSt11_Tuple_implILj1EJSt14default_deleteINSt6thread6_StateEEEEC1Ev=so_stub_for_libtelux_cv2x
-Wl,--defsym=_ZNSt11_Tuple_implILj1EJSt14default_deleteINSt6thread6_StateEEEEC2Ev=so_stub_for_libtelux_cv2x
-Wl,--defsym=_ZNSt11_Tuple_implILj1EJSt14default_deleteINSt7__cxx1112basic_stringIcSt11char_traitsIcESaIcEEEEEE7_M_headERS8_=so_stub_for_libtelux_cv2x
-Wl,--defsym=_ZNSt11_Tuple_implILj1EJSt14default_deleteINSt7__cxx1112basic_stringIcSt11char_traitsIcESaIcEEEEEEC1Ev=so_stub_for_libtelux_cv2x
-Wl,--defsym=_ZNSt11_Tuple_implILj1EJSt14default_deleteINSt7__cxx1112basic_stringIcSt11char_traitsIcESaIcEEEEEEC2Ev=so_stub_for_libtelux_cv2x
-Wl,--defsym=_ZNSt11unique_lockISt5mutexE4lockEv=so_stub_for_libtelux_cv2x
-Wl,--defsym=_ZNSt11unique_lockISt5mutexE6unlockEv=so_stub_for_libtelux_cv2x
-Wl,--defsym=_ZNSt11unique_lockISt5mutexEC1ERS0_=so_stub_for_libtelux_cv2x
-Wl,--defsym=_ZNSt11unique_lockISt5mutexEC2ERS0_=so_stub_for_libtelux_cv2x
-Wl,--defsym=_ZNSt11unique_lockISt5mutexED1Ev=so_stub_for_libtelux_cv2x
-Wl,--defsym=_ZNSt11unique_lockISt5mutexED2Ev=so_stub_for_libtelux_cv2x
-Wl,--defsym=_ZNSt12_Base_bitsetILj1EE10_M_getwordEj=so_stub_for_libtelux_cv2x
-Wl,--defsym=_ZNSt12_Base_bitsetILj1EE10_S_maskbitEj=so_stub_for_libtelux_cv2x
-Wl,--defsym=_ZNSt12_Base_bitsetILj1EE11_S_whichbitEj=so_stub_for_libtelux_cv2x
-Wl,--defsym=_ZNSt12_Base_bitsetILj1EE9_M_do_setEv=so_stub_for_libtelux_cv2x
-Wl,--defsym=_ZNSt12_Base_bitsetILj1EE9_M_hiwordEv=so_stub_for_libtelux_cv2x
-Wl,--defsym=_ZNSt12_Base_bitsetILj1EEC1Ev=so_stub_for_libtelux_cv2x
-Wl,--defsym=_ZNSt12_Base_bitsetILj1EEC2Ev=so_stub_for_libtelux_cv2x
-Wl,--defsym=_ZNSt12_Destroy_auxILb0EE9__destroyIPSt10shared_ptrIN5telux4cv2x11ICv2xTxFlowEEEEvT_S8_=so_stub_for_libtelux_cv2x
-Wl,--defsym=_ZNSt12_Destroy_auxILb0EE9__destroyIPSt13shared_futureIvEEEvT_S5_=so_stub_for_libtelux_cv2x
-Wl,--defsym=_ZNSt12_Destroy_auxILb0EE9__destroyIPSt4pairIbSt8weak_ptrIN5telux4cv2x18ICv2xRadioListenerEEEEEvT_SA_=so_stub_for_libtelux_cv2x
-Wl,--defsym=_ZNSt12_Destroy_auxILb0EE9__destroyIPSt8weak_ptrIN5telux4cv2x13ICv2xListenerEEEEvT_S8_=so_stub_for_libtelux_cv2x
-Wl,--defsym=_ZNSt12_Destroy_auxILb0EE9__destroyIPSt8weak_ptrIN5telux4cv2x19ICv2xConfigListenerEEEEvT_S8_=so_stub_for_libtelux_cv2x
-Wl,--defsym=_ZNSt12_Destroy_auxILb0EE9__destroyIPSt8weak_ptrIN5telux4cv2x20ICv2xSysCtrlListenerEEEEvT_S8_=so_stub_for_libtelux_cv2x
-Wl,--defsym=_ZNSt12_Destroy_auxILb1EE9__destroyIPjEEvT_S3_=so_stub_for_libtelux_cv2x
-Wl,--defsym=_ZNSt12_Destroy_auxILb1EE9__destroyIPN5telux4cv2x12TxPoolIdInfoEEEvT_S6_=so_stub_for_libtelux_cv2x
-Wl,--defsym=_ZNSt12_Destroy_auxILb1EE9__destroyIPN5telux4cv2x13TrustedUEInfoEEEvT_S6_=so_stub_for_libtelux_cv2x
-Wl,--defsym=_ZNSt12_Destroy_auxILb1EE9__destroyIPN5telux4cv2x14Cv2xPoolStatusEEEvT_S6_=so_stub_for_libtelux_cv2x
-Wl,--defsym=_ZNSt12_Destroy_auxILb1EE9__destroyIPN5telux4cv2x19DataSessionSettingsEEEvT_S6_=so_stub_for_libtelux_cv2x
-Wl,--defsym=_ZNSt12_Destroy_auxILb1EE9__destroyIPyEEvT_S3_=so_stub_for_libtelux_cv2x
-Wl,--defsym=_ZNSt12future_errorC1ERKS_=so_stub_for_libtelux_cv2x
-Wl,--defsym=_ZNSt12future_errorC1ESt10error_code=so_stub_for_libtelux_cv2x
-Wl,--defsym=_ZNSt12future_errorC1ESt11future_errc=so_stub_for_libtelux_cv2x
-Wl,--defsym=_ZNSt12future_errorC2ERKS_=so_stub_for_libtelux_cv2x
-Wl,--defsym=_ZNSt12future_errorC2ESt10error_code=so_stub_for_libtelux_cv2x
-Wl,--defsym=_ZNSt12future_errorC2ESt11future_errc=so_stub_for_libtelux_cv2x
-Wl,--defsym=_ZNSt12__mutex_baseC1Ev=so_stub_for_libtelux_cv2x
-Wl,--defsym=_ZNSt12__mutex_baseC2Ev=so_stub_for_libtelux_cv2x
-Wl,--defsym=_ZNSt12__shared_ptrIN5telux3qmi12DmsQmiClientELN9__gnu_cxx12_Lock_policyE2EE4swapERS5_=so_stub_for_libtelux_cv2x
-Wl,--defsym=_ZNSt12__shared_ptrIN5telux3qmi12DmsQmiClientELN9__gnu_cxx12_Lock_policyE2EEaSEOS5_=so_stub_for_libtelux_cv2x
-Wl,--defsym=_ZNSt12__shared_ptrIN5telux3qmi12DmsQmiClientELN9__gnu_cxx12_Lock_policyE2EEC1EOS5_=so_stub_for_libtelux_cv2x
-Wl,--defsym=_ZNSt12__shared_ptrIN5telux3qmi12DmsQmiClientELN9__gnu_cxx12_Lock_policyE2EEC1Ev=so_stub_for_libtelux_cv2x
-Wl,--defsym=_ZNSt12__shared_ptrIN5telux3qmi12DmsQmiClientELN9__gnu_cxx12_Lock_policyE2EEC2EOS5_=so_stub_for_libtelux_cv2x
-Wl,--defsym=_ZNSt12__shared_ptrIN5telux3qmi12DmsQmiClientELN9__gnu_cxx12_Lock_policyE2EEC2Ev=so_stub_for_libtelux_cv2x
-Wl,--defsym=_ZNSt12__shared_ptrIN5telux3qmi12DmsQmiClientELN9__gnu_cxx12_Lock_policyE2EED1Ev=so_stub_for_libtelux_cv2x
-Wl,--defsym=_ZNSt12__shared_ptrIN5telux3qmi12DmsQmiClientELN9__gnu_cxx12_Lock_policyE2EED2Ev=so_stub_for_libtelux_cv2x
-Wl,--defsym=_ZNSt12__shared_ptrIN5telux3qmi12NasQmiClientELN9__gnu_cxx12_Lock_policyE2EE4swapERS5_=so_stub_for_libtelux_cv2x
-Wl,--defsym=_ZNSt12__shared_ptrIN5telux3qmi12NasQmiClientELN9__gnu_cxx12_Lock_policyE2EEaSEOS5_=so_stub_for_libtelux_cv2x
-Wl,--defsym=_ZNSt12__shared_ptrIN5telux3qmi12NasQmiClientELN9__gnu_cxx12_Lock_policyE2EEC1EOS5_=so_stub_for_libtelux_cv2x
-Wl,--defsym=_ZNSt12__shared_ptrIN5telux3qmi12NasQmiClientELN9__gnu_cxx12_Lock_policyE2EEC1Ev=so_stub_for_libtelux_cv2x
-Wl,--defsym=_ZNSt12__shared_ptrIN5telux3qmi12NasQmiClientELN9__gnu_cxx12_Lock_policyE2EEC2EOS5_=so_stub_for_libtelux_cv2x
-Wl,--defsym=_ZNSt12__shared_ptrIN5telux3qmi12NasQmiClientELN9__gnu_cxx12_Lock_policyE2EEC2Ev=so_stub_for_libtelux_cv2x
-Wl,--defsym=_ZNSt12__shared_ptrIN5telux3qmi12NasQmiClientELN9__gnu_cxx12_Lock_policyE2EED1Ev=so_stub_for_libtelux_cv2x
-Wl,--defsym=_ZNSt12__shared_ptrIN5telux3qmi12NasQmiClientELN9__gnu_cxx12_Lock_policyE2EED2Ev=so_stub_for_libtelux_cv2x
-Wl,--defsym=_ZNSt12__shared_ptrIN5telux3qmi12WdsQmiClientELN9__gnu_cxx12_Lock_policyE2EE4swapERS5_=so_stub_for_libtelux_cv2x
-Wl,--defsym=_ZNSt12__shared_ptrIN5telux3qmi12WdsQmiClientELN9__gnu_cxx12_Lock_policyE2EEaSEOS5_=so_stub_for_libtelux_cv2x
-Wl,--defsym=_ZNSt12__shared_ptrIN5telux3qmi12WdsQmiClientELN9__gnu_cxx12_Lock_policyE2EEC1EOS5_=so_stub_for_libtelux_cv2x
-Wl,--defsym=_ZNSt12__shared_ptrIN5telux3qmi12WdsQmiClientELN9__gnu_cxx12_Lock_policyE2EEC1Ev=so_stub_for_libtelux_cv2x
-Wl,--defsym=_ZNSt12__shared_ptrIN5telux3qmi12WdsQmiClientELN9__gnu_cxx12_Lock_policyE2EEC2EOS5_=so_stub_for_libtelux_cv2x
-Wl,--defsym=_ZNSt12__shared_ptrIN5telux3qmi12WdsQmiClientELN9__gnu_cxx12_Lock_policyE2EEC2Ev=so_stub_for_libtelux_cv2x
-Wl,--defsym=_ZNSt12__shared_ptrIN5telux3qmi12WdsQmiClientELN9__gnu_cxx12_Lock_policyE2EED1Ev=so_stub_for_libtelux_cv2x
-Wl,--defsym=_ZNSt12__shared_ptrIN5telux3qmi12WdsQmiClientELN9__gnu_cxx12_Lock_policyE2EED2Ev=so_stub_for_libtelux_cv2x
-Wl,--defsym=_ZNSt12__shared_ptrIN5telux3qmi15IQmiDmsListenerELN9__gnu_cxx12_Lock_policyE2EEC1INS0_4cv2x21ServiceStatusListenerEEERKS_IT_LS4_2EEPS2_=so_stub_for_libtelux_cv2x
-Wl,--defsym=_ZNSt12__shared_ptrIN5telux3qmi15IQmiDmsListenerELN9__gnu_cxx12_Lock_policyE2EEC2INS0_4cv2x21ServiceStatusListenerEEERKS_IT_LS4_2EEPS2_=so_stub_for_libtelux_cv2x
-Wl,--defsym=_ZNSt12__shared_ptrIN5telux3qmi15IQmiDmsListenerELN9__gnu_cxx12_Lock_policyE2EED1Ev=so_stub_for_libtelux_cv2x
-Wl,--defsym=_ZNSt12__shared_ptrIN5telux3qmi15IQmiDmsListenerELN9__gnu_cxx12_Lock_policyE2EED2Ev=so_stub_for_libtelux_cv2x
-Wl,--defsym=_ZNSt12__shared_ptrIN5telux3qmi15IQmiNasListenerELN9__gnu_cxx12_Lock_policyE2EEC1INS0_4cv2x21ServiceStatusListenerEEERKS_IT_LS4_2EEPS2_=so_stub_for_libtelux_cv2x
-Wl,--defsym=_ZNSt12__shared_ptrIN5telux3qmi15IQmiNasListenerELN9__gnu_cxx12_Lock_policyE2EEC2INS0_4cv2x21ServiceStatusListenerEEERKS_IT_LS4_2EEPS2_=so_stub_for_libtelux_cv2x
-Wl,--defsym=_ZNSt12__shared_ptrIN5telux3qmi15IQmiNasListenerELN9__gnu_cxx12_Lock_policyE2EED1Ev=so_stub_for_libtelux_cv2x
-Wl,--defsym=_ZNSt12__shared_ptrIN5telux3qmi15IQmiNasListenerELN9__gnu_cxx12_Lock_policyE2EED2Ev=so_stub_for_libtelux_cv2x
-Wl,--defsym=_ZNSt12__shared_ptrIN5telux3qmi15IQmiWdsListenerELN9__gnu_cxx12_Lock_policyE2EEC1INS0_4cv2x30QmiV2xGetConfigurationCallbackEEERKS_IT_LS4_2EEPS2_=so_stub_for_libtelux_cv2x
-Wl,--defsym=_ZNSt12__shared_ptrIN5telux3qmi15IQmiWdsListenerELN9__gnu_cxx12_Lock_policyE2EEC1INS0_4cv2x35QmiV2xSendConfigurationFileCallbackEEERKS_IT_LS4_2EEPS2_=so_stub_for_libtelux_cv2x
-Wl,--defsym=_ZNSt12__shared_ptrIN5telux3qmi15IQmiWdsListenerELN9__gnu_cxx12_Lock_policyE2EEC2INS0_4cv2x30QmiV2xGetConfigurationCallbackEEERKS_IT_LS4_2EEPS2_=so_stub_for_libtelux_cv2x
-Wl,--defsym=_ZNSt12__shared_ptrIN5telux3qmi15IQmiWdsListenerELN9__gnu_cxx12_Lock_policyE2EEC2INS0_4cv2x35QmiV2xSendConfigurationFileCallbackEEERKS_IT_LS4_2EEPS2_=so_stub_for_libtelux_cv2x
-Wl,--defsym=_ZNSt12__shared_ptrIN5telux3qmi15IQmiWdsListenerELN9__gnu_cxx12_Lock_policyE2EED1Ev=so_stub_for_libtelux_cv2x
-Wl,--defsym=_ZNSt12__shared_ptrIN5telux3qmi15IQmiWdsListenerELN9__gnu_cxx12_Lock_policyE2EED2Ev=so_stub_for_libtelux_cv2x
-Wl,--defsym=_ZNSt12__shared_ptrIN5telux3qmi19IQmiV2xStopCallbackELN9__gnu_cxx12_Lock_policyE2EE4swapERS5_=so_stub_for_libtelux_cv2x
-Wl,--defsym=_ZNSt12__shared_ptrIN5telux3qmi19IQmiV2xStopCallbackELN9__gnu_cxx12_Lock_policyE2EEaSINS0_4cv2x18QmiV2xStopCallbackEEENSt9enable_ifIXsrSt20__sp_compatible_withIPT_PS2_E5valueERS5_E4typeEOS_ISB_LS4_2EE=so_stub_for_libtelux_cv2x
-Wl,--defsym=_ZNSt12__shared_ptrIN5telux3qmi19IQmiV2xStopCallbackELN9__gnu_cxx12_Lock_policyE2EEC1ERKS5_=so_stub_for_libtelux_cv2x
-Wl,--defsym=_ZNSt12__shared_ptrIN5telux3qmi19IQmiV2xStopCallbackELN9__gnu_cxx12_Lock_policyE2EEC1Ev=so_stub_for_libtelux_cv2x
-Wl,--defsym=_ZNSt12__shared_ptrIN5telux3qmi19IQmiV2xStopCallbackELN9__gnu_cxx12_Lock_policyE2EEC1INS0_4cv2x18QmiV2xStopCallbackEvEEOS_IT_LS4_2EE=so_stub_for_libtelux_cv2x
-Wl,--defsym=_ZNSt12__shared_ptrIN5telux3qmi19IQmiV2xStopCallbackELN9__gnu_cxx12_Lock_policyE2EEC2ERKS5_=so_stub_for_libtelux_cv2x
-Wl,--defsym=_ZNSt12__shared_ptrIN5telux3qmi19IQmiV2xStopCallbackELN9__gnu_cxx12_Lock_policyE2EEC2Ev=so_stub_for_libtelux_cv2x
-Wl,--defsym=_ZNSt12__shared_ptrIN5telux3qmi19IQmiV2xStopCallbackELN9__gnu_cxx12_Lock_policyE2EEC2INS0_4cv2x18QmiV2xStopCallbackEvEEOS_IT_LS4_2EE=so_stub_for_libtelux_cv2x
-Wl,--defsym=_ZNSt12__shared_ptrIN5telux3qmi19IQmiV2xStopCallbackELN9__gnu_cxx12_Lock_policyE2EED1Ev=so_stub_for_libtelux_cv2x
-Wl,--defsym=_ZNSt12__shared_ptrIN5telux3qmi19IQmiV2xStopCallbackELN9__gnu_cxx12_Lock_policyE2EED2Ev=so_stub_for_libtelux_cv2x
-Wl,--defsym=_ZNSt12__shared_ptrIN5telux3qmi20IQmiSetPeakTxPowerCbELN9__gnu_cxx12_Lock_policyE2EE4swapERS5_=so_stub_for_libtelux_cv2x
-Wl,--defsym=_ZNSt12__shared_ptrIN5telux3qmi20IQmiSetPeakTxPowerCbELN9__gnu_cxx12_Lock_policyE2EEaSINS0_4cv2x25QmiSetPeakTxPowerCallbackEEENSt9enable_ifIXsrSt20__sp_compatible_withIPT_PS2_E5valueERS5_E4typeEOS_ISB_LS4_2EE=so_stub_for_libtelux_cv2x
-Wl,--defsym=_ZNSt12__shared_ptrIN5telux3qmi20IQmiSetPeakTxPowerCbELN9__gnu_cxx12_Lock_policyE2EEC1ERKS5_=so_stub_for_libtelux_cv2x
-Wl,--defsym=_ZNSt12__shared_ptrIN5telux3qmi20IQmiSetPeakTxPowerCbELN9__gnu_cxx12_Lock_policyE2EEC1Ev=so_stub_for_libtelux_cv2x
-Wl,--defsym=_ZNSt12__shared_ptrIN5telux3qmi20IQmiSetPeakTxPowerCbELN9__gnu_cxx12_Lock_policyE2EEC1INS0_4cv2x25QmiSetPeakTxPowerCallbackEvEEOS_IT_LS4_2EE=so_stub_for_libtelux_cv2x
-Wl,--defsym=_ZNSt12__shared_ptrIN5telux3qmi20IQmiSetPeakTxPowerCbELN9__gnu_cxx12_Lock_policyE2EEC2ERKS5_=so_stub_for_libtelux_cv2x
-Wl,--defsym=_ZNSt12__shared_ptrIN5telux3qmi20IQmiSetPeakTxPowerCbELN9__gnu_cxx12_Lock_policyE2EEC2Ev=so_stub_for_libtelux_cv2x
-Wl,--defsym=_ZNSt12__shared_ptrIN5telux3qmi20IQmiSetPeakTxPowerCbELN9__gnu_cxx12_Lock_policyE2EEC2INS0_4cv2x25QmiSetPeakTxPowerCallbackEvEEOS_IT_LS4_2EE=so_stub_for_libtelux_cv2x
-Wl,--defsym=_ZNSt12__shared_ptrIN5telux3qmi20IQmiSetPeakTxPowerCbELN9__gnu_cxx12_Lock_policyE2EED1Ev=so_stub_for_libtelux_cv2x
-Wl,--defsym=_ZNSt12__shared_ptrIN5telux3qmi20IQmiSetPeakTxPowerCbELN9__gnu_cxx12_Lock_policyE2EED2Ev=so_stub_for_libtelux_cv2x
-Wl,--defsym=_ZNSt12__shared_ptrIN5telux3qmi20IQmiV2xStartCallbackELN9__gnu_cxx12_Lock_policyE2EE4swapERS5_=so_stub_for_libtelux_cv2x
-Wl,--defsym=_ZNSt12__shared_ptrIN5telux3qmi20IQmiV2xStartCallbackELN9__gnu_cxx12_Lock_policyE2EEaSINS0_4cv2x19QmiV2xStartCallbackEEENSt9enable_ifIXsrSt20__sp_compatible_withIPT_PS2_E5valueERS5_E4typeEOS_ISB_LS4_2EE=so_stub_for_libtelux_cv2x
-Wl,--defsym=_ZNSt12__shared_ptrIN5telux3qmi20IQmiV2xStartCallbackELN9__gnu_cxx12_Lock_policyE2EEC1ERKS5_=so_stub_for_libtelux_cv2x
-Wl,--defsym=_ZNSt12__shared_ptrIN5telux3qmi20IQmiV2xStartCallbackELN9__gnu_cxx12_Lock_policyE2EEC1Ev=so_stub_for_libtelux_cv2x
-Wl,--defsym=_ZNSt12__shared_ptrIN5telux3qmi20IQmiV2xStartCallbackELN9__gnu_cxx12_Lock_policyE2EEC1INS0_4cv2x19QmiV2xStartCallbackEvEEOS_IT_LS4_2EE=so_stub_for_libtelux_cv2x
-Wl,--defsym=_ZNSt12__shared_ptrIN5telux3qmi20IQmiV2xStartCallbackELN9__gnu_cxx12_Lock_policyE2EEC2ERKS5_=so_stub_for_libtelux_cv2x
-Wl,--defsym=_ZNSt12__shared_ptrIN5telux3qmi20IQmiV2xStartCallbackELN9__gnu_cxx12_Lock_policyE2EEC2Ev=so_stub_for_libtelux_cv2x
-Wl,--defsym=_ZNSt12__shared_ptrIN5telux3qmi20IQmiV2xStartCallbackELN9__gnu_cxx12_Lock_policyE2EEC2INS0_4cv2x19QmiV2xStartCallbackEvEEOS_IT_LS4_2EE=so_stub_for_libtelux_cv2x
-Wl,--defsym=_ZNSt12__shared_ptrIN5telux3qmi20IQmiV2xStartCallbackELN9__gnu_cxx12_Lock_policyE2EED1Ev=so_stub_for_libtelux_cv2x
-Wl,--defsym=_ZNSt12__shared_ptrIN5telux3qmi20IQmiV2xStartCallbackELN9__gnu_cxx12_Lock_policyE2EED2Ev=so_stub_for_libtelux_cv2x
-Wl,--defsym=_ZNSt12__shared_ptrIN5telux3qmi21IQmiV2xStatusCallbackELN9__gnu_cxx12_Lock_policyE2EE4swapERS5_=so_stub_for_libtelux_cv2x
-Wl,--defsym=_ZNSt12__shared_ptrIN5telux3qmi21IQmiV2xStatusCallbackELN9__gnu_cxx12_Lock_policyE2EEaSINS0_4cv2x20QmiV2xStatusCallbackEEENSt9enable_ifIXsrSt20__sp_compatible_withIPT_PS2_E5valueERS5_E4typeEOS_ISB_LS4_2EE=so_stub_for_libtelux_cv2x
-Wl,--defsym=_ZNSt12__shared_ptrIN5telux3qmi21IQmiV2xStatusCallbackELN9__gnu_cxx12_Lock_policyE2EEaSINS0_4cv2x22QmiV2xStatusCallbackExEEENSt9enable_ifIXsrSt20__sp_compatible_withIPT_PS2_E5valueERS5_E4typeEOS_ISB_LS4_2EE=so_stub_for_libtelux_cv2x
-Wl,--defsym=_ZNSt12__shared_ptrIN5telux3qmi21IQmiV2xStatusCallbackELN9__gnu_cxx12_Lock_policyE2EEC1ERKS5_=so_stub_for_libtelux_cv2x
-Wl,--defsym=_ZNSt12__shared_ptrIN5telux3qmi21IQmiV2xStatusCallbackELN9__gnu_cxx12_Lock_policyE2EEC1Ev=so_stub_for_libtelux_cv2x
-Wl,--defsym=_ZNSt12__shared_ptrIN5telux3qmi21IQmiV2xStatusCallbackELN9__gnu_cxx12_Lock_policyE2EEC1INS0_4cv2x20QmiV2xStatusCallbackEvEEOS_IT_LS4_2EE=so_stub_for_libtelux_cv2x
-Wl,--defsym=_ZNSt12__shared_ptrIN5telux3qmi21IQmiV2xStatusCallbackELN9__gnu_cxx12_Lock_policyE2EEC1INS0_4cv2x22QmiV2xStatusCallbackExEvEEOS_IT_LS4_2EE=so_stub_for_libtelux_cv2x
-Wl,--defsym=_ZNSt12__shared_ptrIN5telux3qmi21IQmiV2xStatusCallbackELN9__gnu_cxx12_Lock_policyE2EEC2ERKS5_=so_stub_for_libtelux_cv2x
-Wl,--defsym=_ZNSt12__shared_ptrIN5telux3qmi21IQmiV2xStatusCallbackELN9__gnu_cxx12_Lock_policyE2EEC2Ev=so_stub_for_libtelux_cv2x
-Wl,--defsym=_ZNSt12__shared_ptrIN5telux3qmi21IQmiV2xStatusCallbackELN9__gnu_cxx12_Lock_policyE2EEC2INS0_4cv2x20QmiV2xStatusCallbackEvEEOS_IT_LS4_2EE=so_stub_for_libtelux_cv2x
-Wl,--defsym=_ZNSt12__shared_ptrIN5telux3qmi21IQmiV2xStatusCallbackELN9__gnu_cxx12_Lock_policyE2EEC2INS0_4cv2x22QmiV2xStatusCallbackExEvEEOS_IT_LS4_2EE=so_stub_for_libtelux_cv2x
-Wl,--defsym=_ZNSt12__shared_ptrIN5telux3qmi21IQmiV2xStatusCallbackELN9__gnu_cxx12_Lock_policyE2EED1Ev=so_stub_for_libtelux_cv2x
-Wl,--defsym=_ZNSt12__shared_ptrIN5telux3qmi21IQmiV2xStatusCallbackELN9__gnu_cxx12_Lock_policyE2EED2Ev=so_stub_for_libtelux_cv2x
-Wl,--defsym=_ZNSt12__shared_ptrIN5telux3qmi26IQmiSetEventReportCallbackELN9__gnu_cxx12_Lock_policyE2EEC1INS0_4cv2x25QmiSetEventReportCallbackEvEERKS_IT_LS4_2EE=so_stub_for_libtelux_cv2x
-Wl,--defsym=_ZNSt12__shared_ptrIN5telux3qmi26IQmiSetEventReportCallbackELN9__gnu_cxx12_Lock_policyE2EEC2INS0_4cv2x25QmiSetEventReportCallbackEvEERKS_IT_LS4_2EE=so_stub_for_libtelux_cv2x
-Wl,--defsym=_ZNSt12__shared_ptrIN5telux3qmi26IQmiSetEventReportCallbackELN9__gnu_cxx12_Lock_policyE2EED1Ev=so_stub_for_libtelux_cv2x
-Wl,--defsym=_ZNSt12__shared_ptrIN5telux3qmi26IQmiSetEventReportCallbackELN9__gnu_cxx12_Lock_policyE2EED2Ev=so_stub_for_libtelux_cv2x
-Wl,--defsym=_ZNSt12__shared_ptrIN5telux3qmi27IQmiCommandResponseCallbackELN9__gnu_cxx12_Lock_policyE2EEC1INS0_4cv2x31QmiV2xRegisterConfigIndCallbackEvEERKS_IT_LS4_2EE=so_stub_for_libtelux_cv2x
-Wl,--defsym=_ZNSt12__shared_ptrIN5telux3qmi27IQmiCommandResponseCallbackELN9__gnu_cxx12_Lock_policyE2EEC1INS0_4cv2x35QmiV2xSendConfigurationFileCallbackEvEERKS_IT_LS4_2EE=so_stub_for_libtelux_cv2x
-Wl,--defsym=_ZNSt12__shared_ptrIN5telux3qmi27IQmiCommandResponseCallbackELN9__gnu_cxx12_Lock_policyE2EEC2INS0_4cv2x31QmiV2xRegisterConfigIndCallbackEvEERKS_IT_LS4_2EE=so_stub_for_libtelux_cv2x
-Wl,--defsym=_ZNSt12__shared_ptrIN5telux3qmi27IQmiCommandResponseCallbackELN9__gnu_cxx12_Lock_policyE2EEC2INS0_4cv2x35QmiV2xSendConfigurationFileCallbackEvEERKS_IT_LS4_2EE=so_stub_for_libtelux_cv2x
-Wl,--defsym=_ZNSt12__shared_ptrIN5telux3qmi27IQmiCommandResponseCallbackELN9__gnu_cxx12_Lock_policyE2EED1Ev=so_stub_for_libtelux_cv2x
-Wl,--defsym=_ZNSt12__shared_ptrIN5telux3qmi27IQmiCommandResponseCallbackELN9__gnu_cxx12_Lock_policyE2EED2Ev=so_stub_for_libtelux_cv2x
-Wl,--defsym=_ZNSt12__shared_ptrIN5telux3qmi28IQmiGetOperatingModeCallbackELN9__gnu_cxx12_Lock_policyE2EEC1INS0_4cv2x27QmiGetOperatingModeCallbackEvEERKS_IT_LS4_2EE=so_stub_for_libtelux_cv2x
-Wl,--defsym=_ZNSt12__shared_ptrIN5telux3qmi28IQmiGetOperatingModeCallbackELN9__gnu_cxx12_Lock_policyE2EEC2INS0_4cv2x27QmiGetOperatingModeCallbackEvEERKS_IT_LS4_2EE=so_stub_for_libtelux_cv2x
-Wl,--defsym=_ZNSt12__shared_ptrIN5telux3qmi28IQmiGetOperatingModeCallbackELN9__gnu_cxx12_Lock_policyE2EED1Ev=so_stub_for_libtelux_cv2x
-Wl,--defsym=_ZNSt12__shared_ptrIN5telux3qmi28IQmiGetOperatingModeCallbackELN9__gnu_cxx12_Lock_policyE2EED2Ev=so_stub_for_libtelux_cv2x
-Wl,--defsym=_ZNSt12__shared_ptrIN5telux3qmi28IQmiSetOperatingModeCallbackELN9__gnu_cxx12_Lock_policyE2EEC1INS0_4cv2x27QmiSetOperatingModeCallbackEvEERKS_IT_LS4_2EE=so_stub_for_libtelux_cv2x
-Wl,--defsym=_ZNSt12__shared_ptrIN5telux3qmi28IQmiSetOperatingModeCallbackELN9__gnu_cxx12_Lock_policyE2EEC2INS0_4cv2x27QmiSetOperatingModeCallbackEvEERKS_IT_LS4_2EE=so_stub_for_libtelux_cv2x
-Wl,--defsym=_ZNSt12__shared_ptrIN5telux3qmi28IQmiSetOperatingModeCallbackELN9__gnu_cxx12_Lock_policyE2EED1Ev=so_stub_for_libtelux_cv2x
-Wl,--defsym=_ZNSt12__shared_ptrIN5telux3qmi28IQmiSetOperatingModeCallbackELN9__gnu_cxx12_Lock_policyE2EED2Ev=so_stub_for_libtelux_cv2x
-Wl,--defsym=_ZNSt12__shared_ptrIN5telux3qmi30IQmiNasRegisterForIndsCallbackELN9__gnu_cxx12_Lock_policyE2EEC1INS0_4cv2x21QmiNasIndsRegCallbackEvEERKS_IT_LS4_2EE=so_stub_for_libtelux_cv2x
-Wl,--defsym=_ZNSt12__shared_ptrIN5telux3qmi30IQmiNasRegisterForIndsCallbackELN9__gnu_cxx12_Lock_policyE2EEC2INS0_4cv2x21QmiNasIndsRegCallbackEvEERKS_IT_LS4_2EE=so_stub_for_libtelux_cv2x
-Wl,--defsym=_ZNSt12__shared_ptrIN5telux3qmi30IQmiNasRegisterForIndsCallbackELN9__gnu_cxx12_Lock_policyE2EED1Ev=so_stub_for_libtelux_cv2x
-Wl,--defsym=_ZNSt12__shared_ptrIN5telux3qmi30IQmiNasRegisterForIndsCallbackELN9__gnu_cxx12_Lock_policyE2EED2Ev=so_stub_for_libtelux_cv2x
-Wl,--defsym=_ZNSt12__shared_ptrIN5telux4cv2x10Cv2xConfigELN9__gnu_cxx12_Lock_policyE2EE31_M_enable_shared_from_this_withIS2_S2_EENSt9enable_ifIXntsrNS5_15__has_esft_baseIT0_vEE5valueEvE4typeEPT_=so_stub_for_libtelux_cv2x
-Wl,--defsym=_ZNSt12__shared_ptrIN5telux4cv2x10Cv2xConfigELN9__gnu_cxx12_Lock_policyE2EEC1ISaIS2_EJEEESt19_Sp_make_shared_tagRKT_DpOT0_=so_stub_for_libtelux_cv2x
-Wl,--defsym=_ZNSt12__shared_ptrIN5telux4cv2x10Cv2xConfigELN9__gnu_cxx12_Lock_policyE2EEC2ISaIS2_EJEEESt19_Sp_make_shared_tagRKT_DpOT0_=so_stub_for_libtelux_cv2x
-Wl,--defsym=_ZNSt12__shared_ptrIN5telux4cv2x10Cv2xConfigELN9__gnu_cxx12_Lock_policyE2EED1Ev=so_stub_for_libtelux_cv2x
-Wl,--defsym=_ZNSt12__shared_ptrIN5telux4cv2x10Cv2xConfigELN9__gnu_cxx12_Lock_policyE2EED2Ev=so_stub_for_libtelux_cv2x
-Wl,--defsym=_ZNSt12__shared_ptrIN5telux4cv2x10ICv2xRadioELN9__gnu_cxx12_Lock_policyE2EE4swapERS5_=so_stub_for_libtelux_cv2x
-Wl,--defsym=_ZNSt12__shared_ptrIN5telux4cv2x10ICv2xRadioELN9__gnu_cxx12_Lock_policyE2EEaSEOS5_=so_stub_for_libtelux_cv2x
-Wl,--defsym=_ZNSt12__shared_ptrIN5telux4cv2x10ICv2xRadioELN9__gnu_cxx12_Lock_policyE2EEaSINS1_12DsiCv2xRadioEEENSt9enable_ifIXsrSt20__sp_compatible_withIPT_PS2_E5valueERS5_E4typeERKS_ISA_LS4_2EE=so_stub_for_libtelux_cv2x
-Wl,--defsym=_ZNSt12__shared_ptrIN5telux4cv2x10ICv2xRadioELN9__gnu_cxx12_Lock_policyE2EEC1EOS5_=so_stub_for_libtelux_cv2x
-Wl,--defsym=_ZNSt12__shared_ptrIN5telux4cv2x10ICv2xRadioELN9__gnu_cxx12_Lock_policyE2EEC1ERKS5_=so_stub_for_libtelux_cv2x
-Wl,--defsym=_ZNSt12__shared_ptrIN5telux4cv2x10ICv2xRadioELN9__gnu_cxx12_Lock_policyE2EEC1Ev=so_stub_for_libtelux_cv2x
-Wl,--defsym=_ZNSt12__shared_ptrIN5telux4cv2x10ICv2xRadioELN9__gnu_cxx12_Lock_policyE2EEC2EOS5_=so_stub_for_libtelux_cv2x
-Wl,--defsym=_ZNSt12__shared_ptrIN5telux4cv2x10ICv2xRadioELN9__gnu_cxx12_Lock_policyE2EEC2ERKS5_=so_stub_for_libtelux_cv2x
-Wl,--defsym=_ZNSt12__shared_ptrIN5telux4cv2x10ICv2xRadioELN9__gnu_cxx12_Lock_policyE2EEC2Ev=so_stub_for_libtelux_cv2x
-Wl,--defsym=_ZNSt12__shared_ptrIN5telux4cv2x10ICv2xRadioELN9__gnu_cxx12_Lock_policyE2EED1Ev=so_stub_for_libtelux_cv2x
-Wl,--defsym=_ZNSt12__shared_ptrIN5telux4cv2x10ICv2xRadioELN9__gnu_cxx12_Lock_policyE2EED2Ev=so_stub_for_libtelux_cv2x
-Wl,--defsym=_ZNSt12__shared_ptrIN5telux4cv2x11Cv2xSysCtrlELN9__gnu_cxx12_Lock_policyE2EE31_M_enable_shared_from_this_withIS2_S2_EENSt9enable_ifIXntsrNS5_15__has_esft_baseIT0_vEE5valueEvE4typeEPT_=so_stub_for_libtelux_cv2x
-Wl,--defsym=_ZNSt12__shared_ptrIN5telux4cv2x11Cv2xSysCtrlELN9__gnu_cxx12_Lock_policyE2EEaSERKS5_=so_stub_for_libtelux_cv2x
-Wl,--defsym=_ZNSt12__shared_ptrIN5telux4cv2x11Cv2xSysCtrlELN9__gnu_cxx12_Lock_policyE2EEC1ERKS5_=so_stub_for_libtelux_cv2x
-Wl,--defsym=_ZNSt12__shared_ptrIN5telux4cv2x11Cv2xSysCtrlELN9__gnu_cxx12_Lock_policyE2EEC1Ev=so_stub_for_libtelux_cv2x
-Wl,--defsym=_ZNSt12__shared_ptrIN5telux4cv2x11Cv2xSysCtrlELN9__gnu_cxx12_Lock_policyE2EEC1ISaIS2_EJEEESt19_Sp_make_shared_tagRKT_DpOT0_=so_stub_for_libtelux_cv2x
-Wl,--defsym=_ZNSt12__shared_ptrIN5telux4cv2x11Cv2xSysCtrlELN9__gnu_cxx12_Lock_policyE2EEC2ERKS5_=so_stub_for_libtelux_cv2x
-Wl,--defsym=_ZNSt12__shared_ptrIN5telux4cv2x11Cv2xSysCtrlELN9__gnu_cxx12_Lock_policyE2EEC2Ev=so_stub_for_libtelux_cv2x
-Wl,--defsym=_ZNSt12__shared_ptrIN5telux4cv2x11Cv2xSysCtrlELN9__gnu_cxx12_Lock_policyE2EEC2ISaIS2_EJEEESt19_Sp_make_shared_tagRKT_DpOT0_=so_stub_for_libtelux_cv2x
-Wl,--defsym=_ZNSt12__shared_ptrIN5telux4cv2x11Cv2xSysCtrlELN9__gnu_cxx12_Lock_policyE2EED1Ev=so_stub_for_libtelux_cv2x
-Wl,--defsym=_ZNSt12__shared_ptrIN5telux4cv2x11Cv2xSysCtrlELN9__gnu_cxx12_Lock_policyE2EED2Ev=so_stub_for_libtelux_cv2x
-Wl,--defsym=_ZNSt12__shared_ptrIN5telux4cv2x11ICv2xConfigELN9__gnu_cxx12_Lock_policyE2EEaSINS1_10Cv2xConfigEEENSt9enable_ifIXsrSt20__sp_compatible_withIPT_PS2_E5valueERS5_E4typeERKS_ISA_LS4_2EE=so_stub_for_libtelux_cv2x
-Wl,--defsym=_ZNSt12__shared_ptrIN5telux4cv2x11ICv2xConfigELN9__gnu_cxx12_Lock_policyE2EEC1ERKS5_=so_stub_for_libtelux_cv2x
-Wl,--defsym=_ZNSt12__shared_ptrIN5telux4cv2x11ICv2xConfigELN9__gnu_cxx12_Lock_policyE2EEC1Ev=so_stub_for_libtelux_cv2x
-Wl,--defsym=_ZNSt12__shared_ptrIN5telux4cv2x11ICv2xConfigELN9__gnu_cxx12_Lock_policyE2EEC2ERKS5_=so_stub_for_libtelux_cv2x
-Wl,--defsym=_ZNSt12__shared_ptrIN5telux4cv2x11ICv2xConfigELN9__gnu_cxx12_Lock_policyE2EEC2Ev=so_stub_for_libtelux_cv2x
-Wl,--defsym=_ZNSt12__shared_ptrIN5telux4cv2x11ICv2xConfigELN9__gnu_cxx12_Lock_policyE2EED1Ev=so_stub_for_libtelux_cv2x
-Wl,--defsym=_ZNSt12__shared_ptrIN5telux4cv2x11ICv2xConfigELN9__gnu_cxx12_Lock_policyE2EED2Ev=so_stub_for_libtelux_cv2x
-Wl,--defsym=_ZNSt12__shared_ptrIN5telux4cv2x11ICv2xTxFlowELN9__gnu_cxx12_Lock_policyE2EEaSINS1_13Cv2xTxSpsFlowEEENSt9enable_ifIXsrSt20__sp_compatible_withIPT_PS2_E5valueERS5_E4typeERKS_ISA_LS4_2EE=so_stub_for_libtelux_cv2x
-Wl,--defsym=_ZNSt12__shared_ptrIN5telux4cv2x11ICv2xTxFlowELN9__gnu_cxx12_Lock_policyE2EEaSINS1_15Cv2xTxEventFlowEEENSt9enable_ifIXsrSt20__sp_compatible_withIPT_PS2_E5valueERS5_E4typeERKS_ISA_LS4_2EE=so_stub_for_libtelux_cv2x
-Wl,--defsym=_ZNSt12__shared_ptrIN5telux4cv2x11ICv2xTxFlowELN9__gnu_cxx12_Lock_policyE2EEC1EOS5_=so_stub_for_libtelux_cv2x
-Wl,--defsym=_ZNSt12__shared_ptrIN5telux4cv2x11ICv2xTxFlowELN9__gnu_cxx12_Lock_policyE2EEC1ERKS5_=so_stub_for_libtelux_cv2x
-Wl,--defsym=_ZNSt12__shared_ptrIN5telux4cv2x11ICv2xTxFlowELN9__gnu_cxx12_Lock_policyE2EEC1INS1_13Cv2xTxSpsFlowEvEERKS_IT_LS4_2EE=so_stub_for_libtelux_cv2x
-Wl,--defsym=_ZNSt12__shared_ptrIN5telux4cv2x11ICv2xTxFlowELN9__gnu_cxx12_Lock_policyE2EEC2EOS5_=so_stub_for_libtelux_cv2x
-Wl,--defsym=_ZNSt12__shared_ptrIN5telux4cv2x11ICv2xTxFlowELN9__gnu_cxx12_Lock_policyE2EEC2ERKS5_=so_stub_for_libtelux_cv2x
-Wl,--defsym=_ZNSt12__shared_ptrIN5telux4cv2x11ICv2xTxFlowELN9__gnu_cxx12_Lock_policyE2EEC2Ev=so_stub_for_libtelux_cv2x
-Wl,--defsym=_ZNSt12__shared_ptrIN5telux4cv2x11ICv2xTxFlowELN9__gnu_cxx12_Lock_policyE2EEC2INS1_13Cv2xTxSpsFlowEvEERKS_IT_LS4_2EE=so_stub_for_libtelux_cv2x
-Wl,--defsym=_ZNSt12__shared_ptrIN5telux4cv2x11ICv2xTxFlowELN9__gnu_cxx12_Lock_policyE2EED1Ev=so_stub_for_libtelux_cv2x
-Wl,--defsym=_ZNSt12__shared_ptrIN5telux4cv2x11ICv2xTxFlowELN9__gnu_cxx12_Lock_policyE2EED2Ev=so_stub_for_libtelux_cv2x
-Wl,--defsym=_ZNSt12__shared_ptrIN5telux4cv2x12DsiCv2xRadioELN9__gnu_cxx12_Lock_policyE2EE31_M_enable_shared_from_this_withIS2_S2_EENSt9enable_ifIXntsrNS5_15__has_esft_baseIT0_vEE5valueEvE4typeEPT_=so_stub_for_libtelux_cv2x
-Wl,--defsym=_ZNSt12__shared_ptrIN5telux4cv2x12DsiCv2xRadioELN9__gnu_cxx12_Lock_policyE2EEC1ISaIS2_EJEEESt19_Sp_make_shared_tagRKT_DpOT0_=so_stub_for_libtelux_cv2x
-Wl,--defsym=_ZNSt12__shared_ptrIN5telux4cv2x12DsiCv2xRadioELN9__gnu_cxx12_Lock_policyE2EEC2ISaIS2_EJEEESt19_Sp_make_shared_tagRKT_DpOT0_=so_stub_for_libtelux_cv2x
-Wl,--defsym=_ZNSt12__shared_ptrIN5telux4cv2x12DsiCv2xRadioELN9__gnu_cxx12_Lock_policyE2EED1Ev=so_stub_for_libtelux_cv2x
-Wl,--defsym=_ZNSt12__shared_ptrIN5telux4cv2x12DsiCv2xRadioELN9__gnu_cxx12_Lock_policyE2EED2Ev=so_stub_for_libtelux_cv2x
-Wl,--defsym=_ZNSt12__shared_ptrIN5telux4cv2x12EventHandlerELN9__gnu_cxx12_Lock_policyE2EE31_M_enable_shared_from_this_withIS2_S2_EENSt9enable_ifIXntsrNS5_15__has_esft_baseIT0_vEE5valueEvE4typeEPT_=so_stub_for_libtelux_cv2x
-Wl,--defsym=_ZNSt12__shared_ptrIN5telux4cv2x12EventHandlerELN9__gnu_cxx12_Lock_policyE2EE4swapERS5_=so_stub_for_libtelux_cv2x
-Wl,--defsym=_ZNSt12__shared_ptrIN5telux4cv2x12EventHandlerELN9__gnu_cxx12_Lock_policyE2EEaSEOS5_=so_stub_for_libtelux_cv2x
-Wl,--defsym=_ZNSt12__shared_ptrIN5telux4cv2x12EventHandlerELN9__gnu_cxx12_Lock_policyE2EEC1EOS5_=so_stub_for_libtelux_cv2x
-Wl,--defsym=_ZNSt12__shared_ptrIN5telux4cv2x12EventHandlerELN9__gnu_cxx12_Lock_policyE2EEC1Ev=so_stub_for_libtelux_cv2x
-Wl,--defsym=_ZNSt12__shared_ptrIN5telux4cv2x12EventHandlerELN9__gnu_cxx12_Lock_policyE2EEC1ISaIS2_EJEEESt19_Sp_make_shared_tagRKT_DpOT0_=so_stub_for_libtelux_cv2x
-Wl,--defsym=_ZNSt12__shared_ptrIN5telux4cv2x12EventHandlerELN9__gnu_cxx12_Lock_policyE2EEC2EOS5_=so_stub_for_libtelux_cv2x
-Wl,--defsym=_ZNSt12__shared_ptrIN5telux4cv2x12EventHandlerELN9__gnu_cxx12_Lock_policyE2EEC2Ev=so_stub_for_libtelux_cv2x
-Wl,--defsym=_ZNSt12__shared_ptrIN5telux4cv2x12EventHandlerELN9__gnu_cxx12_Lock_policyE2EEC2ISaIS2_EJEEESt19_Sp_make_shared_tagRKT_DpOT0_=so_stub_for_libtelux_cv2x
-Wl,--defsym=_ZNSt12__shared_ptrIN5telux4cv2x12EventHandlerELN9__gnu_cxx12_Lock_policyE2EED1Ev=so_stub_for_libtelux_cv2x
-Wl,--defsym=_ZNSt12__shared_ptrIN5telux4cv2x12EventHandlerELN9__gnu_cxx12_Lock_policyE2EED2Ev=so_stub_for_libtelux_cv2x
-Wl,--defsym=_ZNSt12__shared_ptrIN5telux4cv2x13Cv2xTxSpsFlowELN9__gnu_cxx12_Lock_policyE2EE31_M_enable_shared_from_this_withIS2_S2_EENSt9enable_ifIXntsrNS5_15__has_esft_baseIT0_vEE5valueEvE4typeEPT_=so_stub_for_libtelux_cv2x
-Wl,--defsym=_ZNSt12__shared_ptrIN5telux4cv2x13Cv2xTxSpsFlowELN9__gnu_cxx12_Lock_policyE2EEC1ERKS5_=so_stub_for_libtelux_cv2x
-Wl,--defsym=_ZNSt12__shared_ptrIN5telux4cv2x13Cv2xTxSpsFlowELN9__gnu_cxx12_Lock_policyE2EEC1Ev=so_stub_for_libtelux_cv2x
-Wl,--defsym=_ZNSt12__shared_ptrIN5telux4cv2x13Cv2xTxSpsFlowELN9__gnu_cxx12_Lock_policyE2EEC1INS1_11ICv2xTxFlowEEERKS_IT_LS4_2EEPS2_=so_stub_for_libtelux_cv2x
-Wl,--defsym=_ZNSt12__shared_ptrIN5telux4cv2x13Cv2xTxSpsFlowELN9__gnu_cxx12_Lock_policyE2EEC1ISaIS2_EJRhRNS1_13TrafficIpTypeERjRiR12sockaddr_in6RKNS1_11SpsFlowInfoEEEESt19_Sp_make_shared_tagRKT_DpOT0_=so_stub_for_libtelux_cv2x
-Wl,--defsym=_ZNSt12__shared_ptrIN5telux4cv2x13Cv2xTxSpsFlowELN9__gnu_cxx12_Lock_policyE2EEC2ERKS5_=so_stub_for_libtelux_cv2x
-Wl,--defsym=_ZNSt12__shared_ptrIN5telux4cv2x13Cv2xTxSpsFlowELN9__gnu_cxx12_Lock_policyE2EEC2Ev=so_stub_for_libtelux_cv2x
-Wl,--defsym=_ZNSt12__shared_ptrIN5telux4cv2x13Cv2xTxSpsFlowELN9__gnu_cxx12_Lock_policyE2EEC2INS1_11ICv2xTxFlowEEERKS_IT_LS4_2EEPS2_=so_stub_for_libtelux_cv2x
-Wl,--defsym=_ZNSt12__shared_ptrIN5telux4cv2x13Cv2xTxSpsFlowELN9__gnu_cxx12_Lock_policyE2EEC2ISaIS2_EJRhRNS1_13TrafficIpTypeERjRiR12sockaddr_in6RKNS1_11SpsFlowInfoEEEESt19_Sp_make_shared_tagRKT_DpOT0_=so_stub_for_libtelux_cv2x
-Wl,--defsym=_ZNSt12__shared_ptrIN5telux4cv2x13Cv2xTxSpsFlowELN9__gnu_cxx12_Lock_policyE2EED1Ev=so_stub_for_libtelux_cv2x
-Wl,--defsym=_ZNSt12__shared_ptrIN5telux4cv2x13Cv2xTxSpsFlowELN9__gnu_cxx12_Lock_policyE2EED2Ev=so_stub_for_libtelux_cv2x
-Wl,--defsym=_ZNSt12__shared_ptrIN5telux4cv2x13EventInfoBaseELN9__gnu_cxx12_Lock_policyE2EEC1ERKS5_=so_stub_for_libtelux_cv2x
-Wl,--defsym=_ZNSt12__shared_ptrIN5telux4cv2x13EventInfoBaseELN9__gnu_cxx12_Lock_policyE2EEC1INS1_9EventInfoINS1_14IndicationDataEEEvEERKS_IT_LS4_2EE=so_stub_for_libtelux_cv2x
-Wl,--defsym=_ZNSt12__shared_ptrIN5telux4cv2x13EventInfoBaseELN9__gnu_cxx12_Lock_policyE2EEC1INS1_9EventInfoINS1_17ServiceStatusDataEEEvEERKS_IT_LS4_2EE=so_stub_for_libtelux_cv2x
-Wl,--defsym=_ZNSt12__shared_ptrIN5telux4cv2x13EventInfoBaseELN9__gnu_cxx12_Lock_policyE2EEC2ERKS5_=so_stub_for_libtelux_cv2x
-Wl,--defsym=_ZNSt12__shared_ptrIN5telux4cv2x13EventInfoBaseELN9__gnu_cxx12_Lock_policyE2EEC2INS1_9EventInfoINS1_14IndicationDataEEEvEERKS_IT_LS4_2EE=so_stub_for_libtelux_cv2x
-Wl,--defsym=_ZNSt12__shared_ptrIN5telux4cv2x13EventInfoBaseELN9__gnu_cxx12_Lock_policyE2EEC2INS1_9EventInfoINS1_17ServiceStatusDataEEEvEERKS_IT_LS4_2EE=so_stub_for_libtelux_cv2x
-Wl,--defsym=_ZNSt12__shared_ptrIN5telux4cv2x13EventInfoBaseELN9__gnu_cxx12_Lock_policyE2EED1Ev=so_stub_for_libtelux_cv2x
-Wl,--defsym=_ZNSt12__shared_ptrIN5telux4cv2x13EventInfoBaseELN9__gnu_cxx12_Lock_policyE2EED2Ev=so_stub_for_libtelux_cv2x
-Wl,--defsym=_ZNSt12__shared_ptrIN5telux4cv2x13ICv2xListenerELN9__gnu_cxx12_Lock_policyE2EEC1EOS5_=so_stub_for_libtelux_cv2x
-Wl,--defsym=_ZNSt12__shared_ptrIN5telux4cv2x13ICv2xListenerELN9__gnu_cxx12_Lock_policyE2EEC1ERKS5_=so_stub_for_libtelux_cv2x
-Wl,--defsym=_ZNSt12__shared_ptrIN5telux4cv2x13ICv2xListenerELN9__gnu_cxx12_Lock_policyE2EEC1ERKSt10__weak_ptrIS2_LS4_2EESt9nothrow_t=so_stub_for_libtelux_cv2x
-Wl,--defsym=_ZNSt12__shared_ptrIN5telux4cv2x13ICv2xListenerELN9__gnu_cxx12_Lock_policyE2EEC2EOS5_=so_stub_for_libtelux_cv2x
-Wl,--defsym=_ZNSt12__shared_ptrIN5telux4cv2x13ICv2xListenerELN9__gnu_cxx12_Lock_policyE2EEC2ERKS5_=so_stub_for_libtelux_cv2x
-Wl,--defsym=_ZNSt12__shared_ptrIN5telux4cv2x13ICv2xListenerELN9__gnu_cxx12_Lock_policyE2EEC2ERKSt10__weak_ptrIS2_LS4_2EESt9nothrow_t=so_stub_for_libtelux_cv2x
-Wl,--defsym=_ZNSt12__shared_ptrIN5telux4cv2x13ICv2xListenerELN9__gnu_cxx12_Lock_policyE2EED1Ev=so_stub_for_libtelux_cv2x
-Wl,--defsym=_ZNSt12__shared_ptrIN5telux4cv2x13ICv2xListenerELN9__gnu_cxx12_Lock_policyE2EED2Ev=so_stub_for_libtelux_cv2x
-Wl,--defsym=_ZNSt12__shared_ptrIN5telux4cv2x14Cv2xTxRxSocketELN9__gnu_cxx12_Lock_policyE2EE31_M_enable_shared_from_this_withIS2_S2_EENSt9enable_ifIXntsrNS5_15__has_esft_baseIT0_vEE5valueEvE4typeEPT_=so_stub_for_libtelux_cv2x
-Wl,--defsym=_ZNSt12__shared_ptrIN5telux4cv2x14Cv2xTxRxSocketELN9__gnu_cxx12_Lock_policyE2EEC1ISaIS2_EJRKjRiR12sockaddr_in6EEESt19_Sp_make_shared_tagRKT_DpOT0_=so_stub_for_libtelux_cv2x
-Wl,--defsym=_ZNSt12__shared_ptrIN5telux4cv2x14Cv2xTxRxSocketELN9__gnu_cxx12_Lock_policyE2EEC2ISaIS2_EJRKjRiR12sockaddr_in6EEESt19_Sp_make_shared_tagRKT_DpOT0_=so_stub_for_libtelux_cv2x
-Wl,--defsym=_ZNSt12__shared_ptrIN5telux4cv2x14Cv2xTxRxSocketELN9__gnu_cxx12_Lock_policyE2EED1Ev=so_stub_for_libtelux_cv2x
-Wl,--defsym=_ZNSt12__shared_ptrIN5telux4cv2x14Cv2xTxRxSocketELN9__gnu_cxx12_Lock_policyE2EED2Ev=so_stub_for_libtelux_cv2x
-Wl,--defsym=_ZNSt12__shared_ptrIN5telux4cv2x14IndicationDataELN9__gnu_cxx12_Lock_policyE2EE31_M_enable_shared_from_this_withIS2_S2_EENSt9enable_ifIXntsrNS5_15__has_esft_baseIT0_vEE5valueEvE4typeEPT_=so_stub_for_libtelux_cv2x
-Wl,--defsym=_ZNSt12__shared_ptrIN5telux4cv2x14IndicationDataELN9__gnu_cxx12_Lock_policyE2EEC1EOS5_=so_stub_for_libtelux_cv2x
-Wl,--defsym=_ZNSt12__shared_ptrIN5telux4cv2x14IndicationDataELN9__gnu_cxx12_Lock_policyE2EEC1ERKS5_=so_stub_for_libtelux_cv2x
-Wl,--defsym=_ZNSt12__shared_ptrIN5telux4cv2x14IndicationDataELN9__gnu_cxx12_Lock_policyE2EEC1ISaIS2_EJEEESt19_Sp_make_shared_tagRKT_DpOT0_=so_stub_for_libtelux_cv2x
-Wl,--defsym=_ZNSt12__shared_ptrIN5telux4cv2x14IndicationDataELN9__gnu_cxx12_Lock_policyE2EEC2EOS5_=so_stub_for_libtelux_cv2x
-Wl,--defsym=_ZNSt12__shared_ptrIN5telux4cv2x14IndicationDataELN9__gnu_cxx12_Lock_policyE2EEC2ERKS5_=so_stub_for_libtelux_cv2x
-Wl,--defsym=_ZNSt12__shared_ptrIN5telux4cv2x14IndicationDataELN9__gnu_cxx12_Lock_policyE2EEC2ISaIS2_EJEEESt19_Sp_make_shared_tagRKT_DpOT0_=so_stub_for_libtelux_cv2x
-Wl,--defsym=_ZNSt12__shared_ptrIN5telux4cv2x14IndicationDataELN9__gnu_cxx12_Lock_policyE2EED1Ev=so_stub_for_libtelux_cv2x
-Wl,--defsym=_ZNSt12__shared_ptrIN5telux4cv2x14IndicationDataELN9__gnu_cxx12_Lock_policyE2EED2Ev=so_stub_for_libtelux_cv2x
-Wl,--defsym=_ZNSt12__shared_ptrIN5telux4cv2x15Cv2xTxEventFlowELN9__gnu_cxx12_Lock_policyE2EE31_M_enable_shared_from_this_withIS2_S2_EENSt9enable_ifIXntsrNS5_15__has_esft_baseIT0_vEE5valueEvE4typeEPT_=so_stub_for_libtelux_cv2x
-Wl,--defsym=_ZNSt12__shared_ptrIN5telux4cv2x15Cv2xTxEventFlowELN9__gnu_cxx12_Lock_policyE2EEC1ERKS5_=so_stub_for_libtelux_cv2x
-Wl,--defsym=_ZNSt12__shared_ptrIN5telux4cv2x15Cv2xTxEventFlowELN9__gnu_cxx12_Lock_policyE2EEC1Ev=so_stub_for_libtelux_cv2x
-Wl,--defsym=_ZNSt12__shared_ptrIN5telux4cv2x15Cv2xTxEventFlowELN9__gnu_cxx12_Lock_policyE2EEC1INS1_11ICv2xTxFlowEEERKS_IT_LS4_2EEPS2_=so_stub_for_libtelux_cv2x
-Wl,--defsym=_ZNSt12__shared_ptrIN5telux4cv2x15Cv2xTxEventFlowELN9__gnu_cxx12_Lock_policyE2EEC1ISaIS2_EJRNS1_13TrafficIpTypeERjRiR12sockaddr_in6EEESt19_Sp_make_shared_tagRKT_DpOT0_=so_stub_for_libtelux_cv2x
-Wl,--defsym=_ZNSt12__shared_ptrIN5telux4cv2x15Cv2xTxEventFlowELN9__gnu_cxx12_Lock_policyE2EEC2ERKS5_=so_stub_for_libtelux_cv2x
-Wl,--defsym=_ZNSt12__shared_ptrIN5telux4cv2x15Cv2xTxEventFlowELN9__gnu_cxx12_Lock_policyE2EEC2Ev=so_stub_for_libtelux_cv2x
-Wl,--defsym=_ZNSt12__shared_ptrIN5telux4cv2x15Cv2xTxEventFlowELN9__gnu_cxx12_Lock_policyE2EEC2INS1_11ICv2xTxFlowEEERKS_IT_LS4_2EEPS2_=so_stub_for_libtelux_cv2x
-Wl,--defsym=_ZNSt12__shared_ptrIN5telux4cv2x15Cv2xTxEventFlowELN9__gnu_cxx12_Lock_policyE2EEC2ISaIS2_EJRNS1_13TrafficIpTypeERjRiR12sockaddr_in6EEESt19_Sp_make_shared_tagRKT_DpOT0_=so_stub_for_libtelux_cv2x
-Wl,--defsym=_ZNSt12__shared_ptrIN5telux4cv2x15Cv2xTxEventFlowELN9__gnu_cxx12_Lock_policyE2EED1Ev=so_stub_for_libtelux_cv2x
-Wl,--defsym=_ZNSt12__shared_ptrIN5telux4cv2x15Cv2xTxEventFlowELN9__gnu_cxx12_Lock_policyE2EED2Ev=so_stub_for_libtelux_cv2x
-Wl,--defsym=_ZNSt12__shared_ptrIN5telux4cv2x15EventDispatcherELN9__gnu_cxx12_Lock_policyE2EE31_M_enable_shared_from_this_withIS2_S2_EENSt9enable_ifIXntsrNS5_15__has_esft_baseIT0_vEE5valueEvE4typeEPT_=so_stub_for_libtelux_cv2x
-Wl,--defsym=_ZNSt12__shared_ptrIN5telux4cv2x15EventDispatcherELN9__gnu_cxx12_Lock_policyE2EE4swapERS5_=so_stub_for_libtelux_cv2x
-Wl,--defsym=_ZNSt12__shared_ptrIN5telux4cv2x15EventDispatcherELN9__gnu_cxx12_Lock_policyE2EEaSEOS5_=so_stub_for_libtelux_cv2x
-Wl,--defsym=_ZNSt12__shared_ptrIN5telux4cv2x15EventDispatcherELN9__gnu_cxx12_Lock_policyE2EEC1EOS5_=so_stub_for_libtelux_cv2x
-Wl,--defsym=_ZNSt12__shared_ptrIN5telux4cv2x15EventDispatcherELN9__gnu_cxx12_Lock_policyE2EEC1Ev=so_stub_for_libtelux_cv2x
-Wl,--defsym=_ZNSt12__shared_ptrIN5telux4cv2x15EventDispatcherELN9__gnu_cxx12_Lock_policyE2EEC1ISaIS2_EJEEESt19_Sp_make_shared_tagRKT_DpOT0_=so_stub_for_libtelux_cv2x
-Wl,--defsym=_ZNSt12__shared_ptrIN5telux4cv2x15EventDispatcherELN9__gnu_cxx12_Lock_policyE2EEC2EOS5_=so_stub_for_libtelux_cv2x
-Wl,--defsym=_ZNSt12__shared_ptrIN5telux4cv2x15EventDispatcherELN9__gnu_cxx12_Lock_policyE2EEC2Ev=so_stub_for_libtelux_cv2x
-Wl,--defsym=_ZNSt12__shared_ptrIN5telux4cv2x15EventDispatcherELN9__gnu_cxx12_Lock_policyE2EEC2ISaIS2_EJEEESt19_Sp_make_shared_tagRKT_DpOT0_=so_stub_for_libtelux_cv2x
-Wl,--defsym=_ZNSt12__shared_ptrIN5telux4cv2x15EventDispatcherELN9__gnu_cxx12_Lock_policyE2EED1Ev=so_stub_for_libtelux_cv2x
-Wl,--defsym=_ZNSt12__shared_ptrIN5telux4cv2x15EventDispatcherELN9__gnu_cxx12_Lock_policyE2EED2Ev=so_stub_for_libtelux_cv2x
-Wl,--defsym=_ZNSt12__shared_ptrIN5telux4cv2x15ICv2xTxRxSocketELN9__gnu_cxx12_Lock_policyE2EEaSERKS5_=so_stub_for_libtelux_cv2x
-Wl,--defsym=_ZNSt12__shared_ptrIN5telux4cv2x15ICv2xTxRxSocketELN9__gnu_cxx12_Lock_policyE2EEC1EOS5_=so_stub_for_libtelux_cv2x
-Wl,--defsym=_ZNSt12__shared_ptrIN5telux4cv2x15ICv2xTxRxSocketELN9__gnu_cxx12_Lock_policyE2EEC1ERKS5_=so_stub_for_libtelux_cv2x
-Wl,--defsym=_ZNSt12__shared_ptrIN5telux4cv2x15ICv2xTxRxSocketELN9__gnu_cxx12_Lock_policyE2EEC1Ev=so_stub_for_libtelux_cv2x
-Wl,--defsym=_ZNSt12__shared_ptrIN5telux4cv2x15ICv2xTxRxSocketELN9__gnu_cxx12_Lock_policyE2EEC1INS1_14Cv2xTxRxSocketEvEERKS_IT_LS4_2EE=so_stub_for_libtelux_cv2x
-Wl,--defsym=_ZNSt12__shared_ptrIN5telux4cv2x15ICv2xTxRxSocketELN9__gnu_cxx12_Lock_policyE2EEC2EOS5_=so_stub_for_libtelux_cv2x
-Wl,--defsym=_ZNSt12__shared_ptrIN5telux4cv2x15ICv2xTxRxSocketELN9__gnu_cxx12_Lock_policyE2EEC2ERKS5_=so_stub_for_libtelux_cv2x
-Wl,--defsym=_ZNSt12__shared_ptrIN5telux4cv2x15ICv2xTxRxSocketELN9__gnu_cxx12_Lock_policyE2EEC2Ev=so_stub_for_libtelux_cv2x
-Wl,--defsym=_ZNSt12__shared_ptrIN5telux4cv2x15ICv2xTxRxSocketELN9__gnu_cxx12_Lock_policyE2EEC2INS1_14Cv2xTxRxSocketEvEERKS_IT_LS4_2EE=so_stub_for_libtelux_cv2x
-Wl,--defsym=_ZNSt12__shared_ptrIN5telux4cv2x15ICv2xTxRxSocketELN9__gnu_cxx12_Lock_policyE2EED1Ev=so_stub_for_libtelux_cv2x
-Wl,--defsym=_ZNSt12__shared_ptrIN5telux4cv2x15ICv2xTxRxSocketELN9__gnu_cxx12_Lock_policyE2EED2Ev=so_stub_for_libtelux_cv2x
-Wl,--defsym=_ZNSt12__shared_ptrIN5telux4cv2x16Cv2xIndsListenerELN9__gnu_cxx12_Lock_policyE2EE31_M_enable_shared_from_this_withIS2_S2_EENSt9enable_ifIXntsrNS5_15__has_esft_baseIT0_vEE5valueEvE4typeEPT_=so_stub_for_libtelux_cv2x
-Wl,--defsym=_ZNSt12__shared_ptrIN5telux4cv2x16Cv2xIndsListenerELN9__gnu_cxx12_Lock_policyE2EE4swapERS5_=so_stub_for_libtelux_cv2x
-Wl,--defsym=_ZNSt12__shared_ptrIN5telux4cv2x16Cv2xIndsListenerELN9__gnu_cxx12_Lock_policyE2EEaSEOS5_=so_stub_for_libtelux_cv2x
-Wl,--defsym=_ZNSt12__shared_ptrIN5telux4cv2x16Cv2xIndsListenerELN9__gnu_cxx12_Lock_policyE2EEC1EOS5_=so_stub_for_libtelux_cv2x
-Wl,--defsym=_ZNSt12__shared_ptrIN5telux4cv2x16Cv2xIndsListenerELN9__gnu_cxx12_Lock_policyE2EEC1Ev=so_stub_for_libtelux_cv2x
-Wl,--defsym=_ZNSt12__shared_ptrIN5telux4cv2x16Cv2xIndsListenerELN9__gnu_cxx12_Lock_policyE2EEC1ISaIS2_EJEEESt19_Sp_make_shared_tagRKT_DpOT0_=so_stub_for_libtelux_cv2x
-Wl,--defsym=_ZNSt12__shared_ptrIN5telux4cv2x16Cv2xIndsListenerELN9__gnu_cxx12_Lock_policyE2EEC2EOS5_=so_stub_for_libtelux_cv2x
-Wl,--defsym=_ZNSt12__shared_ptrIN5telux4cv2x16Cv2xIndsListenerELN9__gnu_cxx12_Lock_policyE2EEC2Ev=so_stub_for_libtelux_cv2x
-Wl,--defsym=_ZNSt12__shared_ptrIN5telux4cv2x16Cv2xIndsListenerELN9__gnu_cxx12_Lock_policyE2EEC2ISaIS2_EJEEESt19_Sp_make_shared_tagRKT_DpOT0_=so_stub_for_libtelux_cv2x
-Wl,--defsym=_ZNSt12__shared_ptrIN5telux4cv2x16Cv2xIndsListenerELN9__gnu_cxx12_Lock_policyE2EED1Ev=so_stub_for_libtelux_cv2x
-Wl,--defsym=_ZNSt12__shared_ptrIN5telux4cv2x16Cv2xIndsListenerELN9__gnu_cxx12_Lock_policyE2EED2Ev=so_stub_for_libtelux_cv2x
-Wl,--defsym=_ZNSt12__shared_ptrIN5telux4cv2x16Cv2xRadioManagerELN9__gnu_cxx12_Lock_policyE2EE31_M_enable_shared_from_this_withIS2_S2_EENSt9enable_ifIXntsrNS5_15__has_esft_baseIT0_vEE5valueEvE4typeEPT_=so_stub_for_libtelux_cv2x
-Wl,--defsym=_ZNSt12__shared_ptrIN5telux4cv2x16Cv2xRadioManagerELN9__gnu_cxx12_Lock_policyE2EEC1ISaIS2_EJEEESt19_Sp_make_shared_tagRKT_DpOT0_=so_stub_for_libtelux_cv2x
-Wl,--defsym=_ZNSt12__shared_ptrIN5telux4cv2x16Cv2xRadioManagerELN9__gnu_cxx12_Lock_policyE2EEC2ISaIS2_EJEEESt19_Sp_make_shared_tagRKT_DpOT0_=so_stub_for_libtelux_cv2x
-Wl,--defsym=_ZNSt12__shared_ptrIN5telux4cv2x16Cv2xRadioManagerELN9__gnu_cxx12_Lock_policyE2EED1Ev=so_stub_for_libtelux_cv2x
-Wl,--defsym=_ZNSt12__shared_ptrIN5telux4cv2x16Cv2xRadioManagerELN9__gnu_cxx12_Lock_policyE2EED2Ev=so_stub_for_libtelux_cv2x
-Wl,--defsym=_ZNSt12__shared_ptrIN5telux4cv2x17ICv2xRadioManagerELN9__gnu_cxx12_Lock_policyE2EEaSINS1_16Cv2xRadioManagerEEENSt9enable_ifIXsrSt20__sp_compatible_withIPT_PS2_E5valueERS5_E4typeERKS_ISA_LS4_2EE=so_stub_for_libtelux_cv2x
-Wl,--defsym=_ZNSt12__shared_ptrIN5telux4cv2x17ICv2xRadioManagerELN9__gnu_cxx12_Lock_policyE2EEC1ERKS5_=so_stub_for_libtelux_cv2x
-Wl,--defsym=_ZNSt12__shared_ptrIN5telux4cv2x17ICv2xRadioManagerELN9__gnu_cxx12_Lock_policyE2EEC1Ev=so_stub_for_libtelux_cv2x
-Wl,--defsym=_ZNSt12__shared_ptrIN5telux4cv2x17ICv2xRadioManagerELN9__gnu_cxx12_Lock_policyE2EEC2ERKS5_=so_stub_for_libtelux_cv2x
-Wl,--defsym=_ZNSt12__shared_ptrIN5telux4cv2x17ICv2xRadioManagerELN9__gnu_cxx12_Lock_policyE2EEC2Ev=so_stub_for_libtelux_cv2x
-Wl,--defsym=_ZNSt12__shared_ptrIN5telux4cv2x17ICv2xRadioManagerELN9__gnu_cxx12_Lock_policyE2EED1Ev=so_stub_for_libtelux_cv2x
-Wl,--defsym=_ZNSt12__shared_ptrIN5telux4cv2x17ICv2xRadioManagerELN9__gnu_cxx12_Lock_policyE2EED2Ev=so_stub_for_libtelux_cv2x
-Wl,--defsym=_ZNSt12__shared_ptrIN5telux4cv2x17ServiceStatusDataELN9__gnu_cxx12_Lock_policyE2EE31_M_enable_shared_from_this_withIS2_S2_EENSt9enable_ifIXntsrNS5_15__has_esft_baseIT0_vEE5valueEvE4typeEPT_=so_stub_for_libtelux_cv2x
-Wl,--defsym=_ZNSt12__shared_ptrIN5telux4cv2x17ServiceStatusDataELN9__gnu_cxx12_Lock_policyE2EEC1EOS5_=so_stub_for_libtelux_cv2x
-Wl,--defsym=_ZNSt12__shared_ptrIN5telux4cv2x17ServiceStatusDataELN9__gnu_cxx12_Lock_policyE2EEC1ERKS5_=so_stub_for_libtelux_cv2x
-Wl,--defsym=_ZNSt12__shared_ptrIN5telux4cv2x17ServiceStatusDataELN9__gnu_cxx12_Lock_policyE2EEC1ISaIS2_EJEEESt19_Sp_make_shared_tagRKT_DpOT0_=so_stub_for_libtelux_cv2x
-Wl,--defsym=_ZNSt12__shared_ptrIN5telux4cv2x17ServiceStatusDataELN9__gnu_cxx12_Lock_policyE2EEC2EOS5_=so_stub_for_libtelux_cv2x
-Wl,--defsym=_ZNSt12__shared_ptrIN5telux4cv2x17ServiceStatusDataELN9__gnu_cxx12_Lock_policyE2EEC2ERKS5_=so_stub_for_libtelux_cv2x
-Wl,--defsym=_ZNSt12__shared_ptrIN5telux4cv2x17ServiceStatusDataELN9__gnu_cxx12_Lock_policyE2EEC2ISaIS2_EJEEESt19_Sp_make_shared_tagRKT_DpOT0_=so_stub_for_libtelux_cv2x
-Wl,--defsym=_ZNSt12__shared_ptrIN5telux4cv2x17ServiceStatusDataELN9__gnu_cxx12_Lock_policyE2EED1Ev=so_stub_for_libtelux_cv2x
-Wl,--defsym=_ZNSt12__shared_ptrIN5telux4cv2x17ServiceStatusDataELN9__gnu_cxx12_Lock_policyE2EED2Ev=so_stub_for_libtelux_cv2x
-Wl,--defsym=_ZNSt12__shared_ptrIN5telux4cv2x18Cv2xConfigListenerELN9__gnu_cxx12_Lock_policyE2EE31_M_enable_shared_from_this_withIS2_S2_EENSt9enable_ifIXntsrNS5_15__has_esft_baseIT0_vEE5valueEvE4typeEPT_=so_stub_for_libtelux_cv2x
-Wl,--defsym=_ZNSt12__shared_ptrIN5telux4cv2x18Cv2xConfigListenerELN9__gnu_cxx12_Lock_policyE2EE4swapERS5_=so_stub_for_libtelux_cv2x
-Wl,--defsym=_ZNSt12__shared_ptrIN5telux4cv2x18Cv2xConfigListenerELN9__gnu_cxx12_Lock_policyE2EEaSEOS5_=so_stub_for_libtelux_cv2x
-Wl,--defsym=_ZNSt12__shared_ptrIN5telux4cv2x18Cv2xConfigListenerELN9__gnu_cxx12_Lock_policyE2EEC1EOS5_=so_stub_for_libtelux_cv2x
-Wl,--defsym=_ZNSt12__shared_ptrIN5telux4cv2x18Cv2xConfigListenerELN9__gnu_cxx12_Lock_policyE2EEC1Ev=so_stub_for_libtelux_cv2x
-Wl,--defsym=_ZNSt12__shared_ptrIN5telux4cv2x18Cv2xConfigListenerELN9__gnu_cxx12_Lock_policyE2EEC1ISaIS2_EJEEESt19_Sp_make_shared_tagRKT_DpOT0_=so_stub_for_libtelux_cv2x
-Wl,--defsym=_ZNSt12__shared_ptrIN5telux4cv2x18Cv2xConfigListenerELN9__gnu_cxx12_Lock_policyE2EEC2EOS5_=so_stub_for_libtelux_cv2x
-Wl,--defsym=_ZNSt12__shared_ptrIN5telux4cv2x18Cv2xConfigListenerELN9__gnu_cxx12_Lock_policyE2EEC2Ev=so_stub_for_libtelux_cv2x
-Wl,--defsym=_ZNSt12__shared_ptrIN5telux4cv2x18Cv2xConfigListenerELN9__gnu_cxx12_Lock_policyE2EEC2ISaIS2_EJEEESt19_Sp_make_shared_tagRKT_DpOT0_=so_stub_for_libtelux_cv2x
-Wl,--defsym=_ZNSt12__shared_ptrIN5telux4cv2x18Cv2xConfigListenerELN9__gnu_cxx12_Lock_policyE2EED1Ev=so_stub_for_libtelux_cv2x
-Wl,--defsym=_ZNSt12__shared_ptrIN5telux4cv2x18Cv2xConfigListenerELN9__gnu_cxx12_Lock_policyE2EED2Ev=so_stub_for_libtelux_cv2x
-Wl,--defsym=_ZNSt12__shared_ptrIN5telux4cv2x18Cv2xRxSubscriptionELN9__gnu_cxx12_Lock_policyE2EE31_M_enable_shared_from_this_withIS2_S2_EENSt9enable_ifIXntsrNS5_15__has_esft_baseIT0_vEE5valueEvE4typeEPT_=so_stub_for_libtelux_cv2x
-Wl,--defsym=_ZNSt12__shared_ptrIN5telux4cv2x18Cv2xRxSubscriptionELN9__gnu_cxx12_Lock_policyE2EEC1Ev=so_stub_for_libtelux_cv2x
-Wl,--defsym=_ZNSt12__shared_ptrIN5telux4cv2x18Cv2xRxSubscriptionELN9__gnu_cxx12_Lock_policyE2EEC1INS1_19ICv2xRxSubscriptionEEERKS_IT_LS4_2EEPS2_=so_stub_for_libtelux_cv2x
-Wl,--defsym=_ZNSt12__shared_ptrIN5telux4cv2x18Cv2xRxSubscriptionELN9__gnu_cxx12_Lock_policyE2EEC1ISaIS2_EJRiR12sockaddr_in6EEESt19_Sp_make_shared_tagRKT_DpOT0_=so_stub_for_libtelux_cv2x
-Wl,--defsym=_ZNSt12__shared_ptrIN5telux4cv2x18Cv2xRxSubscriptionELN9__gnu_cxx12_Lock_policyE2EEC2Ev=so_stub_for_libtelux_cv2x
-Wl,--defsym=_ZNSt12__shared_ptrIN5telux4cv2x18Cv2xRxSubscriptionELN9__gnu_cxx12_Lock_policyE2EEC2INS1_19ICv2xRxSubscriptionEEERKS_IT_LS4_2EEPS2_=so_stub_for_libtelux_cv2x
-Wl,--defsym=_ZNSt12__shared_ptrIN5telux4cv2x18Cv2xRxSubscriptionELN9__gnu_cxx12_Lock_policyE2EEC2ISaIS2_EJRiR12sockaddr_in6EEESt19_Sp_make_shared_tagRKT_DpOT0_=so_stub_for_libtelux_cv2x
-Wl,--defsym=_ZNSt12__shared_ptrIN5telux4cv2x18Cv2xRxSubscriptionELN9__gnu_cxx12_Lock_policyE2EED1Ev=so_stub_for_libtelux_cv2x
-Wl,--defsym=_ZNSt12__shared_ptrIN5telux4cv2x18Cv2xRxSubscriptionELN9__gnu_cxx12_Lock_policyE2EED2Ev=so_stub_for_libtelux_cv2x
-Wl,--defsym=_ZNSt12__shared_ptrIN5telux4cv2x18ICv2xRadioListenerELN9__gnu_cxx12_Lock_policyE2EEC1EOS5_=so_stub_for_libtelux_cv2x
-Wl,--defsym=_ZNSt12__shared_ptrIN5telux4cv2x18ICv2xRadioListenerELN9__gnu_cxx12_Lock_policyE2EEC1ERKS5_=so_stub_for_libtelux_cv2x
-Wl,--defsym=_ZNSt12__shared_ptrIN5telux4cv2x18ICv2xRadioListenerELN9__gnu_cxx12_Lock_policyE2EEC1ERKSt10__weak_ptrIS2_LS4_2EESt9nothrow_t=so_stub_for_libtelux_cv2x
-Wl,--defsym=_ZNSt12__shared_ptrIN5telux4cv2x18ICv2xRadioListenerELN9__gnu_cxx12_Lock_policyE2EEC2EOS5_=so_stub_for_libtelux_cv2x
-Wl,--defsym=_ZNSt12__shared_ptrIN5telux4cv2x18ICv2xRadioListenerELN9__gnu_cxx12_Lock_policyE2EEC2ERKS5_=so_stub_for_libtelux_cv2x
-Wl,--defsym=_ZNSt12__shared_ptrIN5telux4cv2x18ICv2xRadioListenerELN9__gnu_cxx12_Lock_policyE2EEC2ERKSt10__weak_ptrIS2_LS4_2EESt9nothrow_t=so_stub_for_libtelux_cv2x
-Wl,--defsym=_ZNSt12__shared_ptrIN5telux4cv2x18ICv2xRadioListenerELN9__gnu_cxx12_Lock_policyE2EED1Ev=so_stub_for_libtelux_cv2x
-Wl,--defsym=_ZNSt12__shared_ptrIN5telux4cv2x18ICv2xRadioListenerELN9__gnu_cxx12_Lock_policyE2EED2Ev=so_stub_for_libtelux_cv2x
-Wl,--defsym=_ZNSt12__shared_ptrIN5telux4cv2x18QmiV2xStopCallbackELN9__gnu_cxx12_Lock_policyE2EE31_M_enable_shared_from_this_withIS2_S2_EENSt9enable_ifIXntsrNS5_15__has_esft_baseIT0_vEE5valueEvE4typeEPT_=so_stub_for_libtelux_cv2x
-Wl,--defsym=_ZNSt12__shared_ptrIN5telux4cv2x18QmiV2xStopCallbackELN9__gnu_cxx12_Lock_policyE2EEC1ISaIS2_EJEEESt19_Sp_make_shared_tagRKT_DpOT0_=so_stub_for_libtelux_cv2x
-Wl,--defsym=_ZNSt12__shared_ptrIN5telux4cv2x18QmiV2xStopCallbackELN9__gnu_cxx12_Lock_policyE2EEC2ISaIS2_EJEEESt19_Sp_make_shared_tagRKT_DpOT0_=so_stub_for_libtelux_cv2x
-Wl,--defsym=_ZNSt12__shared_ptrIN5telux4cv2x18QmiV2xStopCallbackELN9__gnu_cxx12_Lock_policyE2EED1Ev=so_stub_for_libtelux_cv2x
-Wl,--defsym=_ZNSt12__shared_ptrIN5telux4cv2x18QmiV2xStopCallbackELN9__gnu_cxx12_Lock_policyE2EED2Ev=so_stub_for_libtelux_cv2x
-Wl,--defsym=_ZNSt12__shared_ptrIN5telux4cv2x19ICv2xConfigListenerELN9__gnu_cxx12_Lock_policyE2EEC1EOS5_=so_stub_for_libtelux_cv2x
-Wl,--defsym=_ZNSt12__shared_ptrIN5telux4cv2x19ICv2xConfigListenerELN9__gnu_cxx12_Lock_policyE2EEC1ERKS5_=so_stub_for_libtelux_cv2x
-Wl,--defsym=_ZNSt12__shared_ptrIN5telux4cv2x19ICv2xConfigListenerELN9__gnu_cxx12_Lock_policyE2EEC1ERKSt10__weak_ptrIS2_LS4_2EESt9nothrow_t=so_stub_for_libtelux_cv2x
-Wl,--defsym=_ZNSt12__shared_ptrIN5telux4cv2x19ICv2xConfigListenerELN9__gnu_cxx12_Lock_policyE2EEC2EOS5_=so_stub_for_libtelux_cv2x
-Wl,--defsym=_ZNSt12__shared_ptrIN5telux4cv2x19ICv2xConfigListenerELN9__gnu_cxx12_Lock_policyE2EEC2ERKS5_=so_stub_for_libtelux_cv2x
-Wl,--defsym=_ZNSt12__shared_ptrIN5telux4cv2x19ICv2xConfigListenerELN9__gnu_cxx12_Lock_policyE2EEC2ERKSt10__weak_ptrIS2_LS4_2EESt9nothrow_t=so_stub_for_libtelux_cv2x
-Wl,--defsym=_ZNSt12__shared_ptrIN5telux4cv2x19ICv2xConfigListenerELN9__gnu_cxx12_Lock_policyE2EED1Ev=so_stub_for_libtelux_cv2x
-Wl,--defsym=_ZNSt12__shared_ptrIN5telux4cv2x19ICv2xConfigListenerELN9__gnu_cxx12_Lock_policyE2EED2Ev=so_stub_for_libtelux_cv2x
-Wl,--defsym=_ZNSt12__shared_ptrIN5telux4cv2x19ICv2xRxSubscriptionELN9__gnu_cxx12_Lock_policyE2EE4swapERS5_=so_stub_for_libtelux_cv2x
-Wl,--defsym=_ZNSt12__shared_ptrIN5telux4cv2x19ICv2xRxSubscriptionELN9__gnu_cxx12_Lock_policyE2EEaSERKS5_=so_stub_for_libtelux_cv2x
-Wl,--defsym=_ZNSt12__shared_ptrIN5telux4cv2x19ICv2xRxSubscriptionELN9__gnu_cxx12_Lock_policyE2EEaSINS1_18Cv2xRxSubscriptionEEENSt9enable_ifIXsrSt20__sp_compatible_withIPT_PS2_E5valueERS5_E4typeEOS_ISA_LS4_2EE=so_stub_for_libtelux_cv2x
-Wl,--defsym=_ZNSt12__shared_ptrIN5telux4cv2x19ICv2xRxSubscriptionELN9__gnu_cxx12_Lock_policyE2EEC1EOS5_=so_stub_for_libtelux_cv2x
-Wl,--defsym=_ZNSt12__shared_ptrIN5telux4cv2x19ICv2xRxSubscriptionELN9__gnu_cxx12_Lock_policyE2EEC1ERKS5_=so_stub_for_libtelux_cv2x
-Wl,--defsym=_ZNSt12__shared_ptrIN5telux4cv2x19ICv2xRxSubscriptionELN9__gnu_cxx12_Lock_policyE2EEC1Ev=so_stub_for_libtelux_cv2x
-Wl,--defsym=_ZNSt12__shared_ptrIN5telux4cv2x19ICv2xRxSubscriptionELN9__gnu_cxx12_Lock_policyE2EEC1INS1_18Cv2xRxSubscriptionEvEEOS_IT_LS4_2EE=so_stub_for_libtelux_cv2x
-Wl,--defsym=_ZNSt12__shared_ptrIN5telux4cv2x19ICv2xRxSubscriptionELN9__gnu_cxx12_Lock_policyE2EEC2EOS5_=so_stub_for_libtelux_cv2x
-Wl,--defsym=_ZNSt12__shared_ptrIN5telux4cv2x19ICv2xRxSubscriptionELN9__gnu_cxx12_Lock_policyE2EEC2ERKS5_=so_stub_for_libtelux_cv2x
-Wl,--defsym=_ZNSt12__shared_ptrIN5telux4cv2x19ICv2xRxSubscriptionELN9__gnu_cxx12_Lock_policyE2EEC2Ev=so_stub_for_libtelux_cv2x
-Wl,--defsym=_ZNSt12__shared_ptrIN5telux4cv2x19ICv2xRxSubscriptionELN9__gnu_cxx12_Lock_policyE2EEC2INS1_18Cv2xRxSubscriptionEvEEOS_IT_LS4_2EE=so_stub_for_libtelux_cv2x
-Wl,--defsym=_ZNSt12__shared_ptrIN5telux4cv2x19ICv2xRxSubscriptionELN9__gnu_cxx12_Lock_policyE2EED1Ev=so_stub_for_libtelux_cv2x
-Wl,--defsym=_ZNSt12__shared_ptrIN5telux4cv2x19ICv2xRxSubscriptionELN9__gnu_cxx12_Lock_policyE2EED2Ev=so_stub_for_libtelux_cv2x
-Wl,--defsym=_ZNSt12__shared_ptrIN5telux4cv2x19QmiV2xStartCallbackELN9__gnu_cxx12_Lock_policyE2EE31_M_enable_shared_from_this_withIS2_S2_EENSt9enable_ifIXntsrNS5_15__has_esft_baseIT0_vEE5valueEvE4typeEPT_=so_stub_for_libtelux_cv2x
-Wl,--defsym=_ZNSt12__shared_ptrIN5telux4cv2x19QmiV2xStartCallbackELN9__gnu_cxx12_Lock_policyE2EED1Ev=so_stub_for_libtelux_cv2x
-Wl,--defsym=_ZNSt12__shared_ptrIN5telux4cv2x19QmiV2xStartCallbackELN9__gnu_cxx12_Lock_policyE2EED2Ev=so_stub_for_libtelux_cv2x
-Wl,--defsym=_ZNSt12__shared_ptrIN5telux4cv2x20ICv2xSysCtrlListenerELN9__gnu_cxx12_Lock_policyE2EEC1EOS5_=so_stub_for_libtelux_cv2x
-Wl,--defsym=_ZNSt12__shared_ptrIN5telux4cv2x20ICv2xSysCtrlListenerELN9__gnu_cxx12_Lock_policyE2EEC1ERKS5_=so_stub_for_libtelux_cv2x
-Wl,--defsym=_ZNSt12__shared_ptrIN5telux4cv2x20ICv2xSysCtrlListenerELN9__gnu_cxx12_Lock_policyE2EEC1ERKSt10__weak_ptrIS2_LS4_2EESt9nothrow_t=so_stub_for_libtelux_cv2x
-Wl,--defsym=_ZNSt12__shared_ptrIN5telux4cv2x20ICv2xSysCtrlListenerELN9__gnu_cxx12_Lock_policyE2EEC2EOS5_=so_stub_for_libtelux_cv2x
-Wl,--defsym=_ZNSt12__shared_ptrIN5telux4cv2x20ICv2xSysCtrlListenerELN9__gnu_cxx12_Lock_policyE2EEC2ERKS5_=so_stub_for_libtelux_cv2x
-Wl,--defsym=_ZNSt12__shared_ptrIN5telux4cv2x20ICv2xSysCtrlListenerELN9__gnu_cxx12_Lock_policyE2EEC2ERKSt10__weak_ptrIS2_LS4_2EESt9nothrow_t=so_stub_for_libtelux_cv2x
-Wl,--defsym=_ZNSt12__shared_ptrIN5telux4cv2x20ICv2xSysCtrlListenerELN9__gnu_cxx12_Lock_policyE2EED1Ev=so_stub_for_libtelux_cv2x
-Wl,--defsym=_ZNSt12__shared_ptrIN5telux4cv2x20ICv2xSysCtrlListenerELN9__gnu_cxx12_Lock_policyE2EED2Ev=so_stub_for_libtelux_cv2x
-Wl,--defsym=_ZNSt12__shared_ptrIN5telux4cv2x20QmiV2xStatusCallbackELN9__gnu_cxx12_Lock_policyE2EE31_M_enable_shared_from_this_withIS2_S2_EENSt9enable_ifIXntsrNS5_15__has_esft_baseIT0_vEE5valueEvE4typeEPT_=so_stub_for_libtelux_cv2x
-Wl,--defsym=_ZNSt12__shared_ptrIN5telux4cv2x20QmiV2xStatusCallbackELN9__gnu_cxx12_Lock_policyE2EEC1ISaIS2_EJEEESt19_Sp_make_shared_tagRKT_DpOT0_=so_stub_for_libtelux_cv2x
-Wl,--defsym=_ZNSt12__shared_ptrIN5telux4cv2x20QmiV2xStatusCallbackELN9__gnu_cxx12_Lock_policyE2EEC2ISaIS2_EJEEESt19_Sp_make_shared_tagRKT_DpOT0_=so_stub_for_libtelux_cv2x
-Wl,--defsym=_ZNSt12__shared_ptrIN5telux4cv2x20QmiV2xStatusCallbackELN9__gnu_cxx12_Lock_policyE2EED1Ev=so_stub_for_libtelux_cv2x
-Wl,--defsym=_ZNSt12__shared_ptrIN5telux4cv2x20QmiV2xStatusCallbackELN9__gnu_cxx12_Lock_policyE2EED2Ev=so_stub_for_libtelux_cv2x
-Wl,--defsym=_ZNSt12__shared_ptrIN5telux4cv2x21QmiNasIndsRegCallbackELN9__gnu_cxx12_Lock_policyE2EE31_M_enable_shared_from_this_withIS2_S2_EENSt9enable_ifIXntsrNS5_15__has_esft_baseIT0_vEE5valueEvE4typeEPT_=so_stub_for_libtelux_cv2x
-Wl,--defsym=_ZNSt12__shared_ptrIN5telux4cv2x21QmiNasIndsRegCallbackELN9__gnu_cxx12_Lock_policyE2EEC1ISaIS2_EJEEESt19_Sp_make_shared_tagRKT_DpOT0_=so_stub_for_libtelux_cv2x
-Wl,--defsym=_ZNSt12__shared_ptrIN5telux4cv2x21QmiNasIndsRegCallbackELN9__gnu_cxx12_Lock_policyE2EEC2ISaIS2_EJEEESt19_Sp_make_shared_tagRKT_DpOT0_=so_stub_for_libtelux_cv2x
-Wl,--defsym=_ZNSt12__shared_ptrIN5telux4cv2x21QmiNasIndsRegCallbackELN9__gnu_cxx12_Lock_policyE2EED1Ev=so_stub_for_libtelux_cv2x
-Wl,--defsym=_ZNSt12__shared_ptrIN5telux4cv2x21QmiNasIndsRegCallbackELN9__gnu_cxx12_Lock_policyE2EED2Ev=so_stub_for_libtelux_cv2x
-Wl,--defsym=_ZNSt12__shared_ptrIN5telux4cv2x21ServiceStatusListenerELN9__gnu_cxx12_Lock_policyE2EE31_M_enable_shared_from_this_withIS2_S2_EENSt9enable_ifIXntsrNS5_15__has_esft_baseIT0_vEE5valueEvE4typeEPT_=so_stub_for_libtelux_cv2x
-Wl,--defsym=_ZNSt12__shared_ptrIN5telux4cv2x21ServiceStatusListenerELN9__gnu_cxx12_Lock_policyE2EE4swapERS5_=so_stub_for_libtelux_cv2x
-Wl,--defsym=_ZNSt12__shared_ptrIN5telux4cv2x21ServiceStatusListenerELN9__gnu_cxx12_Lock_policyE2EEaSEOS5_=so_stub_for_libtelux_cv2x
-Wl,--defsym=_ZNSt12__shared_ptrIN5telux4cv2x21ServiceStatusListenerELN9__gnu_cxx12_Lock_policyE2EEC1EOS5_=so_stub_for_libtelux_cv2x
-Wl,--defsym=_ZNSt12__shared_ptrIN5telux4cv2x21ServiceStatusListenerELN9__gnu_cxx12_Lock_policyE2EEC1Ev=so_stub_for_libtelux_cv2x
-Wl,--defsym=_ZNSt12__shared_ptrIN5telux4cv2x21ServiceStatusListenerELN9__gnu_cxx12_Lock_policyE2EEC1ISaIS2_EJEEESt19_Sp_make_shared_tagRKT_DpOT0_=so_stub_for_libtelux_cv2x
-Wl,--defsym=_ZNSt12__shared_ptrIN5telux4cv2x21ServiceStatusListenerELN9__gnu_cxx12_Lock_policyE2EEC2EOS5_=so_stub_for_libtelux_cv2x
-Wl,--defsym=_ZNSt12__shared_ptrIN5telux4cv2x21ServiceStatusListenerELN9__gnu_cxx12_Lock_policyE2EEC2Ev=so_stub_for_libtelux_cv2x
-Wl,--defsym=_ZNSt12__shared_ptrIN5telux4cv2x21ServiceStatusListenerELN9__gnu_cxx12_Lock_policyE2EEC2ISaIS2_EJEEESt19_Sp_make_shared_tagRKT_DpOT0_=so_stub_for_libtelux_cv2x
-Wl,--defsym=_ZNSt12__shared_ptrIN5telux4cv2x21ServiceStatusListenerELN9__gnu_cxx12_Lock_policyE2EED1Ev=so_stub_for_libtelux_cv2x
-Wl,--defsym=_ZNSt12__shared_ptrIN5telux4cv2x21ServiceStatusListenerELN9__gnu_cxx12_Lock_policyE2EED2Ev=so_stub_for_libtelux_cv2x
-Wl,--defsym=_ZNSt12__shared_ptrIN5telux4cv2x22QmiV2xStatusCallbackExELN9__gnu_cxx12_Lock_policyE2EE31_M_enable_shared_from_this_withIS2_S2_EENSt9enable_ifIXntsrNS5_15__has_esft_baseIT0_vEE5valueEvE4typeEPT_=so_stub_for_libtelux_cv2x
-Wl,--defsym=_ZNSt12__shared_ptrIN5telux4cv2x22QmiV2xStatusCallbackExELN9__gnu_cxx12_Lock_policyE2EEC1ISaIS2_EJEEESt19_Sp_make_shared_tagRKT_DpOT0_=so_stub_for_libtelux_cv2x
-Wl,--defsym=_ZNSt12__shared_ptrIN5telux4cv2x22QmiV2xStatusCallbackExELN9__gnu_cxx12_Lock_policyE2EEC2ISaIS2_EJEEESt19_Sp_make_shared_tagRKT_DpOT0_=so_stub_for_libtelux_cv2x
-Wl,--defsym=_ZNSt12__shared_ptrIN5telux4cv2x22QmiV2xStatusCallbackExELN9__gnu_cxx12_Lock_policyE2EED1Ev=so_stub_for_libtelux_cv2x
-Wl,--defsym=_ZNSt12__shared_ptrIN5telux4cv2x22QmiV2xStatusCallbackExELN9__gnu_cxx12_Lock_policyE2EED2Ev=so_stub_for_libtelux_cv2x
-Wl,--defsym=_ZNSt12__shared_ptrIN5telux4cv2x25QmiSetEventReportCallbackELN9__gnu_cxx12_Lock_policyE2EE31_M_enable_shared_from_this_withIS2_S2_EENSt9enable_ifIXntsrNS5_15__has_esft_baseIT0_vEE5valueEvE4typeEPT_=so_stub_for_libtelux_cv2x
-Wl,--defsym=_ZNSt12__shared_ptrIN5telux4cv2x25QmiSetEventReportCallbackELN9__gnu_cxx12_Lock_policyE2EEC1ISaIS2_EJEEESt19_Sp_make_shared_tagRKT_DpOT0_=so_stub_for_libtelux_cv2x
-Wl,--defsym=_ZNSt12__shared_ptrIN5telux4cv2x25QmiSetEventReportCallbackELN9__gnu_cxx12_Lock_policyE2EEC2ISaIS2_EJEEESt19_Sp_make_shared_tagRKT_DpOT0_=so_stub_for_libtelux_cv2x
-Wl,--defsym=_ZNSt12__shared_ptrIN5telux4cv2x25QmiSetEventReportCallbackELN9__gnu_cxx12_Lock_policyE2EED1Ev=so_stub_for_libtelux_cv2x
-Wl,--defsym=_ZNSt12__shared_ptrIN5telux4cv2x25QmiSetEventReportCallbackELN9__gnu_cxx12_Lock_policyE2EED2Ev=so_stub_for_libtelux_cv2x
-Wl,--defsym=_ZNSt12__shared_ptrIN5telux4cv2x25QmiSetPeakTxPowerCallbackELN9__gnu_cxx12_Lock_policyE2EE31_M_enable_shared_from_this_withIS2_S2_EENSt9enable_ifIXntsrNS5_15__has_esft_baseIT0_vEE5valueEvE4typeEPT_=so_stub_for_libtelux_cv2x
-Wl,--defsym=_ZNSt12__shared_ptrIN5telux4cv2x25QmiSetPeakTxPowerCallbackELN9__gnu_cxx12_Lock_policyE2EEC1ISaIS2_EJEEESt19_Sp_make_shared_tagRKT_DpOT0_=so_stub_for_libtelux_cv2x
-Wl,--defsym=_ZNSt12__shared_ptrIN5telux4cv2x25QmiSetPeakTxPowerCallbackELN9__gnu_cxx12_Lock_policyE2EEC2ISaIS2_EJEEESt19_Sp_make_shared_tagRKT_DpOT0_=so_stub_for_libtelux_cv2x
-Wl,--defsym=_ZNSt12__shared_ptrIN5telux4cv2x25QmiSetPeakTxPowerCallbackELN9__gnu_cxx12_Lock_policyE2EED1Ev=so_stub_for_libtelux_cv2x
-Wl,--defsym=_ZNSt12__shared_ptrIN5telux4cv2x25QmiSetPeakTxPowerCallbackELN9__gnu_cxx12_Lock_policyE2EED2Ev=so_stub_for_libtelux_cv2x
-Wl,--defsym=_ZNSt12__shared_ptrIN5telux4cv2x27QmiGetOperatingModeCallbackELN9__gnu_cxx12_Lock_policyE2EE31_M_enable_shared_from_this_withIS2_S2_EENSt9enable_ifIXntsrNS5_15__has_esft_baseIT0_vEE5valueEvE4typeEPT_=so_stub_for_libtelux_cv2x
-Wl,--defsym=_ZNSt12__shared_ptrIN5telux4cv2x27QmiGetOperatingModeCallbackELN9__gnu_cxx12_Lock_policyE2EEC1ISaIS2_EJEEESt19_Sp_make_shared_tagRKT_DpOT0_=so_stub_for_libtelux_cv2x
-Wl,--defsym=_ZNSt12__shared_ptrIN5telux4cv2x27QmiGetOperatingModeCallbackELN9__gnu_cxx12_Lock_policyE2EEC2ISaIS2_EJEEESt19_Sp_make_shared_tagRKT_DpOT0_=so_stub_for_libtelux_cv2x
-Wl,--defsym=_ZNSt12__shared_ptrIN5telux4cv2x27QmiGetOperatingModeCallbackELN9__gnu_cxx12_Lock_policyE2EED1Ev=so_stub_for_libtelux_cv2x
-Wl,--defsym=_ZNSt12__shared_ptrIN5telux4cv2x27QmiGetOperatingModeCallbackELN9__gnu_cxx12_Lock_policyE2EED2Ev=so_stub_for_libtelux_cv2x
-Wl,--defsym=_ZNSt12__shared_ptrIN5telux4cv2x27QmiSetOperatingModeCallbackELN9__gnu_cxx12_Lock_policyE2EE31_M_enable_shared_from_this_withIS2_S2_EENSt9enable_ifIXntsrNS5_15__has_esft_baseIT0_vEE5valueEvE4typeEPT_=so_stub_for_libtelux_cv2x
-Wl,--defsym=_ZNSt12__shared_ptrIN5telux4cv2x27QmiSetOperatingModeCallbackELN9__gnu_cxx12_Lock_policyE2EEC1ISaIS2_EJEEESt19_Sp_make_shared_tagRKT_DpOT0_=so_stub_for_libtelux_cv2x
-Wl,--defsym=_ZNSt12__shared_ptrIN5telux4cv2x27QmiSetOperatingModeCallbackELN9__gnu_cxx12_Lock_policyE2EEC2ISaIS2_EJEEESt19_Sp_make_shared_tagRKT_DpOT0_=so_stub_for_libtelux_cv2x
-Wl,--defsym=_ZNSt12__shared_ptrIN5telux4cv2x27QmiSetOperatingModeCallbackELN9__gnu_cxx12_Lock_policyE2EED1Ev=so_stub_for_libtelux_cv2x
-Wl,--defsym=_ZNSt12__shared_ptrIN5telux4cv2x27QmiSetOperatingModeCallbackELN9__gnu_cxx12_Lock_policyE2EED2Ev=so_stub_for_libtelux_cv2x
-Wl,--defsym=_ZNSt12__shared_ptrIN5telux4cv2x30QmiV2xGetConfigurationCallbackELN9__gnu_cxx12_Lock_policyE2EE31_M_enable_shared_from_this_withIS2_S2_EENSt9enable_ifIXntsrNS5_15__has_esft_baseIT0_vEE5valueEvE4typeEPT_=so_stub_for_libtelux_cv2x
-Wl,--defsym=_ZNSt12__shared_ptrIN5telux4cv2x30QmiV2xGetConfigurationCallbackELN9__gnu_cxx12_Lock_policyE2EEC1ISaIS2_EJEEESt19_Sp_make_shared_tagRKT_DpOT0_=so_stub_for_libtelux_cv2x
-Wl,--defsym=_ZNSt12__shared_ptrIN5telux4cv2x30QmiV2xGetConfigurationCallbackELN9__gnu_cxx12_Lock_policyE2EEC2ISaIS2_EJEEESt19_Sp_make_shared_tagRKT_DpOT0_=so_stub_for_libtelux_cv2x
-Wl,--defsym=_ZNSt12__shared_ptrIN5telux4cv2x30QmiV2xGetConfigurationCallbackELN9__gnu_cxx12_Lock_policyE2EED1Ev=so_stub_for_libtelux_cv2x
-Wl,--defsym=_ZNSt12__shared_ptrIN5telux4cv2x30QmiV2xGetConfigurationCallbackELN9__gnu_cxx12_Lock_policyE2EED2Ev=so_stub_for_libtelux_cv2x
-Wl,--defsym=_ZNSt12__shared_ptrIN5telux4cv2x31QmiV2xRegisterConfigIndCallbackELN9__gnu_cxx12_Lock_policyE2EE31_M_enable_shared_from_this_withIS2_S2_EENSt9enable_ifIXntsrNS5_15__has_esft_baseIT0_vEE5valueEvE4typeEPT_=so_stub_for_libtelux_cv2x
-Wl,--defsym=_ZNSt12__shared_ptrIN5telux4cv2x31QmiV2xRegisterConfigIndCallbackELN9__gnu_cxx12_Lock_policyE2EEC1ISaIS2_EJEEESt19_Sp_make_shared_tagRKT_DpOT0_=so_stub_for_libtelux_cv2x
-Wl,--defsym=_ZNSt12__shared_ptrIN5telux4cv2x31QmiV2xRegisterConfigIndCallbackELN9__gnu_cxx12_Lock_policyE2EEC2ISaIS2_EJEEESt19_Sp_make_shared_tagRKT_DpOT0_=so_stub_for_libtelux_cv2x
-Wl,--defsym=_ZNSt12__shared_ptrIN5telux4cv2x31QmiV2xRegisterConfigIndCallbackELN9__gnu_cxx12_Lock_policyE2EED1Ev=so_stub_for_libtelux_cv2x
-Wl,--defsym=_ZNSt12__shared_ptrIN5telux4cv2x31QmiV2xRegisterConfigIndCallbackELN9__gnu_cxx12_Lock_policyE2EED2Ev=so_stub_for_libtelux_cv2x
-Wl,--defsym=_ZNSt12__shared_ptrIN5telux4cv2x31SysctrlGetConfigurationCallbackELN9__gnu_cxx12_Lock_policyE2EE31_M_enable_shared_from_this_withIS2_S2_EENSt9enable_ifIXntsrNS5_15__has_esft_baseIT0_vEE5valueEvE4typeEPT_=so_stub_for_libtelux_cv2x
-Wl,--defsym=_ZNSt12__shared_ptrIN5telux4cv2x31SysctrlGetConfigurationCallbackELN9__gnu_cxx12_Lock_policyE2EEC1ISaIS2_EJEEESt19_Sp_make_shared_tagRKT_DpOT0_=so_stub_for_libtelux_cv2x
-Wl,--defsym=_ZNSt12__shared_ptrIN5telux4cv2x31SysctrlGetConfigurationCallbackELN9__gnu_cxx12_Lock_policyE2EEC2ISaIS2_EJEEESt19_Sp_make_shared_tagRKT_DpOT0_=so_stub_for_libtelux_cv2x
-Wl,--defsym=_ZNSt12__shared_ptrIN5telux4cv2x31SysctrlGetConfigurationCallbackELN9__gnu_cxx12_Lock_policyE2EED1Ev=so_stub_for_libtelux_cv2x
-Wl,--defsym=_ZNSt12__shared_ptrIN5telux4cv2x31SysctrlGetConfigurationCallbackELN9__gnu_cxx12_Lock_policyE2EED2Ev=so_stub_for_libtelux_cv2x
-Wl,--defsym=_ZNSt12__shared_ptrIN5telux4cv2x35QmiV2xSendConfigurationFileCallbackELN9__gnu_cxx12_Lock_policyE2EE31_M_enable_shared_from_this_withIS2_S2_EENSt9enable_ifIXntsrNS5_15__has_esft_baseIT0_vEE5valueEvE4typeEPT_=so_stub_for_libtelux_cv2x
-Wl,--defsym=_ZNSt12__shared_ptrIN5telux4cv2x35QmiV2xSendConfigurationFileCallbackELN9__gnu_cxx12_Lock_policyE2EEC1ISaIS2_EJRjEEESt19_Sp_make_shared_tagRKT_DpOT0_=so_stub_for_libtelux_cv2x
-Wl,--defsym=_ZNSt12__shared_ptrIN5telux4cv2x35QmiV2xSendConfigurationFileCallbackELN9__gnu_cxx12_Lock_policyE2EEC2ISaIS2_EJRjEEESt19_Sp_make_shared_tagRKT_DpOT0_=so_stub_for_libtelux_cv2x
-Wl,--defsym=_ZNSt12__shared_ptrIN5telux4cv2x35QmiV2xSendConfigurationFileCallbackELN9__gnu_cxx12_Lock_policyE2EED1Ev=so_stub_for_libtelux_cv2x
-Wl,--defsym=_ZNSt12__shared_ptrIN5telux4cv2x35QmiV2xSendConfigurationFileCallbackELN9__gnu_cxx12_Lock_policyE2EED2Ev=so_stub_for_libtelux_cv2x
-Wl,--defsym=_ZNSt12__shared_ptrIN5telux4cv2x9EventInfoINS1_14IndicationDataEEELN9__gnu_cxx12_Lock_policyE2EE31_M_enable_shared_from_this_withIS4_S4_EENSt9enable_ifIXntsrNS7_15__has_esft_baseIT0_vEE5valueEvE4typeEPT_=so_stub_for_libtelux_cv2x
-Wl,--defsym=_ZNSt12__shared_ptrIN5telux4cv2x9EventInfoINS1_14IndicationDataEEELN9__gnu_cxx12_Lock_policyE2EEC1ISaIS4_EJRKSt10shared_ptrIS3_ERSt8functionIFvSB_EEEEESt19_Sp_make_shared_tagRKT_DpOT0_=so_stub_for_libtelux_cv2x
-Wl,--defsym=_ZNSt12__shared_ptrIN5telux4cv2x9EventInfoINS1_14IndicationDataEEELN9__gnu_cxx12_Lock_policyE2EEC2ISaIS4_EJRKSt10shared_ptrIS3_ERSt8functionIFvSB_EEEEESt19_Sp_make_shared_tagRKT_DpOT0_=so_stub_for_libtelux_cv2x
-Wl,--defsym=_ZNSt12__shared_ptrIN5telux4cv2x9EventInfoINS1_14IndicationDataEEELN9__gnu_cxx12_Lock_policyE2EED1Ev=so_stub_for_libtelux_cv2x
-Wl,--defsym=_ZNSt12__shared_ptrIN5telux4cv2x9EventInfoINS1_14IndicationDataEEELN9__gnu_cxx12_Lock_policyE2EED2Ev=so_stub_for_libtelux_cv2x
-Wl,--defsym=_ZNSt12__shared_ptrIN5telux4cv2x9EventInfoINS1_17ServiceStatusDataEEELN9__gnu_cxx12_Lock_policyE2EE31_M_enable_shared_from_this_withIS4_S4_EENSt9enable_ifIXntsrNS7_15__has_esft_baseIT0_vEE5valueEvE4typeEPT_=so_stub_for_libtelux_cv2x
-Wl,--defsym=_ZNSt12__shared_ptrIN5telux4cv2x9EventInfoINS1_17ServiceStatusDataEEELN9__gnu_cxx12_Lock_policyE2EEC1ISaIS4_EJRKSt10shared_ptrIS3_ERSt8functionIFvSB_EEEEESt19_Sp_make_shared_tagRKT_DpOT0_=so_stub_for_libtelux_cv2x
-Wl,--defsym=_ZNSt12__shared_ptrIN5telux4cv2x9EventInfoINS1_17ServiceStatusDataEEELN9__gnu_cxx12_Lock_policyE2EEC2ISaIS4_EJRKSt10shared_ptrIS3_ERSt8functionIFvSB_EEEEESt19_Sp_make_shared_tagRKT_DpOT0_=so_stub_for_libtelux_cv2x
-Wl,--defsym=_ZNSt12__shared_ptrIN5telux4cv2x9EventInfoINS1_17ServiceStatusDataEEELN9__gnu_cxx12_Lock_policyE2EED1Ev=so_stub_for_libtelux_cv2x
-Wl,--defsym=_ZNSt12__shared_ptrIN5telux4cv2x9EventInfoINS1_17ServiceStatusDataEEELN9__gnu_cxx12_Lock_policyE2EED2Ev=so_stub_for_libtelux_cv2x
-Wl,--defsym=_ZNSt12__shared_ptrIN5telux4data19IDataProfileManagerELN9__gnu_cxx12_Lock_policyE2EEC1Ev=so_stub_for_libtelux_cv2x
-Wl,--defsym=_ZNSt12__shared_ptrIN5telux4data19IDataProfileManagerELN9__gnu_cxx12_Lock_policyE2EEC2Ev=so_stub_for_libtelux_cv2x
-Wl,--defsym=_ZNSt12__shared_ptrIN5telux4data19IDataProfileManagerELN9__gnu_cxx12_Lock_policyE2EED1Ev=so_stub_for_libtelux_cv2x
-Wl,--defsym=_ZNSt12__shared_ptrIN5telux4data19IDataProfileManagerELN9__gnu_cxx12_Lock_policyE2EED2Ev=so_stub_for_libtelux_cv2x
-Wl,--defsym=_ZNSt12__shared_ptrIN5telux4data22IDataConnectionManagerELN9__gnu_cxx12_Lock_policyE2EEC1Ev=so_stub_for_libtelux_cv2x
-Wl,--defsym=_ZNSt12__shared_ptrIN5telux4data22IDataConnectionManagerELN9__gnu_cxx12_Lock_policyE2EEC2Ev=so_stub_for_libtelux_cv2x
-Wl,--defsym=_ZNSt12__shared_ptrIN5telux4data22IDataConnectionManagerELN9__gnu_cxx12_Lock_policyE2EED1Ev=so_stub_for_libtelux_cv2x
-Wl,--defsym=_ZNSt12__shared_ptrIN5telux4data22IDataConnectionManagerELN9__gnu_cxx12_Lock_policyE2EED2Ev=so_stub_for_libtelux_cv2x
-Wl,--defsym=_ZNSt12__shared_ptrIN5telux4data9DsiClientELN9__gnu_cxx12_Lock_policyE2EEaSERKS5_=so_stub_for_libtelux_cv2x
-Wl,--defsym=_ZNSt12__shared_ptrIN5telux4data9DsiClientELN9__gnu_cxx12_Lock_policyE2EEC1Ev=so_stub_for_libtelux_cv2x
-Wl,--defsym=_ZNSt12__shared_ptrIN5telux4data9DsiClientELN9__gnu_cxx12_Lock_policyE2EEC2Ev=so_stub_for_libtelux_cv2x
-Wl,--defsym=_ZNSt12__shared_ptrIN5telux4data9DsiClientELN9__gnu_cxx12_Lock_policyE2EED1Ev=so_stub_for_libtelux_cv2x
-Wl,--defsym=_ZNSt12__shared_ptrIN5telux4data9DsiClientELN9__gnu_cxx12_Lock_policyE2EED2Ev=so_stub_for_libtelux_cv2x
-Wl,--defsym=_ZNSt12__shared_ptrIN5telux6common15ListenerManagerINS0_4cv2x13ICv2xListenerEEELN9__gnu_cxx12_Lock_policyE2EE31_M_enable_shared_from_this_withIS5_S5_EENSt9enable_ifIXntsrNS8_15__has_esft_baseIT0_vEE5valueEvE4typeEPT_=so_stub_for_libtelux_cv2x
-Wl,--defsym=_ZNSt12__shared_ptrIN5telux6common15ListenerManagerINS0_4cv2x13ICv2xListenerEEELN9__gnu_cxx12_Lock_policyE2EE4swapERS8_=so_stub_for_libtelux_cv2x
-Wl,--defsym=_ZNSt12__shared_ptrIN5telux6common15ListenerManagerINS0_4cv2x13ICv2xListenerEEELN9__gnu_cxx12_Lock_policyE2EEaSEOS8_=so_stub_for_libtelux_cv2x
-Wl,--defsym=_ZNSt12__shared_ptrIN5telux6common15ListenerManagerINS0_4cv2x13ICv2xListenerEEELN9__gnu_cxx12_Lock_policyE2EEC1EOS8_=so_stub_for_libtelux_cv2x
-Wl,--defsym=_ZNSt12__shared_ptrIN5telux6common15ListenerManagerINS0_4cv2x13ICv2xListenerEEELN9__gnu_cxx12_Lock_policyE2EEC1Ev=so_stub_for_libtelux_cv2x
-Wl,--defsym=_ZNSt12__shared_ptrIN5telux6common15ListenerManagerINS0_4cv2x13ICv2xListenerEEELN9__gnu_cxx12_Lock_policyE2EEC1ISaIS5_EJEEESt19_Sp_make_shared_tagRKT_DpOT0_=so_stub_for_libtelux_cv2x
-Wl,--defsym=_ZNSt12__shared_ptrIN5telux6common15ListenerManagerINS0_4cv2x13ICv2xListenerEEELN9__gnu_cxx12_Lock_policyE2EEC2EOS8_=so_stub_for_libtelux_cv2x
-Wl,--defsym=_ZNSt12__shared_ptrIN5telux6common15ListenerManagerINS0_4cv2x13ICv2xListenerEEELN9__gnu_cxx12_Lock_policyE2EEC2Ev=so_stub_for_libtelux_cv2x
-Wl,--defsym=_ZNSt12__shared_ptrIN5telux6common15ListenerManagerINS0_4cv2x13ICv2xListenerEEELN9__gnu_cxx12_Lock_policyE2EEC2ISaIS5_EJEEESt19_Sp_make_shared_tagRKT_DpOT0_=so_stub_for_libtelux_cv2x
-Wl,--defsym=_ZNSt12__shared_ptrIN5telux6common15ListenerManagerINS0_4cv2x13ICv2xListenerEEELN9__gnu_cxx12_Lock_policyE2EED1Ev=so_stub_for_libtelux_cv2x
-Wl,--defsym=_ZNSt12__shared_ptrIN5telux6common15ListenerManagerINS0_4cv2x13ICv2xListenerEEELN9__gnu_cxx12_Lock_policyE2EED2Ev=so_stub_for_libtelux_cv2x
-Wl,--defsym=_ZNSt12__shared_ptrIN5telux6common15ListenerManagerINS0_4cv2x19ICv2xConfigListenerEEELN9__gnu_cxx12_Lock_policyE2EE31_M_enable_shared_from_this_withIS5_S5_EENSt9enable_ifIXntsrNS8_15__has_esft_baseIT0_vEE5valueEvE4typeEPT_=so_stub_for_libtelux_cv2x
-Wl,--defsym=_ZNSt12__shared_ptrIN5telux6common15ListenerManagerINS0_4cv2x19ICv2xConfigListenerEEELN9__gnu_cxx12_Lock_policyE2EE4swapERS8_=so_stub_for_libtelux_cv2x
-Wl,--defsym=_ZNSt12__shared_ptrIN5telux6common15ListenerManagerINS0_4cv2x19ICv2xConfigListenerEEELN9__gnu_cxx12_Lock_policyE2EEaSEOS8_=so_stub_for_libtelux_cv2x
-Wl,--defsym=_ZNSt12__shared_ptrIN5telux6common15ListenerManagerINS0_4cv2x19ICv2xConfigListenerEEELN9__gnu_cxx12_Lock_policyE2EEC1EOS8_=so_stub_for_libtelux_cv2x
-Wl,--defsym=_ZNSt12__shared_ptrIN5telux6common15ListenerManagerINS0_4cv2x19ICv2xConfigListenerEEELN9__gnu_cxx12_Lock_policyE2EEC1Ev=so_stub_for_libtelux_cv2x
-Wl,--defsym=_ZNSt12__shared_ptrIN5telux6common15ListenerManagerINS0_4cv2x19ICv2xConfigListenerEEELN9__gnu_cxx12_Lock_policyE2EEC1ISaIS5_EJEEESt19_Sp_make_shared_tagRKT_DpOT0_=so_stub_for_libtelux_cv2x
-Wl,--defsym=_ZNSt12__shared_ptrIN5telux6common15ListenerManagerINS0_4cv2x19ICv2xConfigListenerEEELN9__gnu_cxx12_Lock_policyE2EEC2EOS8_=so_stub_for_libtelux_cv2x
-Wl,--defsym=_ZNSt12__shared_ptrIN5telux6common15ListenerManagerINS0_4cv2x19ICv2xConfigListenerEEELN9__gnu_cxx12_Lock_policyE2EEC2Ev=so_stub_for_libtelux_cv2x
-Wl,--defsym=_ZNSt12__shared_ptrIN5telux6common15ListenerManagerINS0_4cv2x19ICv2xConfigListenerEEELN9__gnu_cxx12_Lock_policyE2EEC2ISaIS5_EJEEESt19_Sp_make_shared_tagRKT_DpOT0_=so_stub_for_libtelux_cv2x
-Wl,--defsym=_ZNSt12__shared_ptrIN5telux6common15ListenerManagerINS0_4cv2x19ICv2xConfigListenerEEELN9__gnu_cxx12_Lock_policyE2EED1Ev=so_stub_for_libtelux_cv2x
-Wl,--defsym=_ZNSt12__shared_ptrIN5telux6common15ListenerManagerINS0_4cv2x19ICv2xConfigListenerEEELN9__gnu_cxx12_Lock_policyE2EED2Ev=so_stub_for_libtelux_cv2x
-Wl,--defsym=_ZNSt12__shared_ptrIN5telux6common16ICommandCallbackELN9__gnu_cxx12_Lock_policyE2EEC1INS0_4cv2x30QmiV2xGetConfigurationCallbackEvEERKS_IT_LS4_2EE=so_stub_for_libtelux_cv2x
-Wl,--defsym=_ZNSt12__shared_ptrIN5telux6common16ICommandCallbackELN9__gnu_cxx12_Lock_policyE2EEC2INS0_4cv2x30QmiV2xGetConfigurationCallbackEvEERKS_IT_LS4_2EE=so_stub_for_libtelux_cv2x
-Wl,--defsym=_ZNSt12__shared_ptrIN5telux6common16ICommandCallbackELN9__gnu_cxx12_Lock_policyE2EED1Ev=so_stub_for_libtelux_cv2x
-Wl,--defsym=_ZNSt12__shared_ptrIN5telux6common16ICommandCallbackELN9__gnu_cxx12_Lock_policyE2EED2Ev=so_stub_for_libtelux_cv2x
-Wl,--defsym=_ZNSt12__shared_ptrINSt13__future_base13_State_baseV2ELN9__gnu_cxx12_Lock_policyE2EE31_M_enable_shared_from_this_withIS1_S1_EENSt9enable_ifIXntsrNS4_15__has_esft_baseIT0_vEE5valueEvE4typeEPT_=so_stub_for_libtelux_cv2x
-Wl,--defsym=_ZNSt12__shared_ptrINSt13__future_base13_State_baseV2ELN9__gnu_cxx12_Lock_policyE2EE4swapERS4_=so_stub_for_libtelux_cv2x
-Wl,--defsym=_ZNSt12__shared_ptrINSt13__future_base13_State_baseV2ELN9__gnu_cxx12_Lock_policyE2EE5resetEv=so_stub_for_libtelux_cv2x
-Wl,--defsym=_ZNSt12__shared_ptrINSt13__future_base13_State_baseV2ELN9__gnu_cxx12_Lock_policyE2EEaSEOS4_=so_stub_for_libtelux_cv2x
-Wl,--defsym=_ZNSt12__shared_ptrINSt13__future_base13_State_baseV2ELN9__gnu_cxx12_Lock_policyE2EEC1EOS4_=so_stub_for_libtelux_cv2x
-Wl,--defsym=_ZNSt12__shared_ptrINSt13__future_base13_State_baseV2ELN9__gnu_cxx12_Lock_policyE2EEC1ERKS4_=so_stub_for_libtelux_cv2x
-Wl,--defsym=_ZNSt12__shared_ptrINSt13__future_base13_State_baseV2ELN9__gnu_cxx12_Lock_policyE2EEC1Ev=so_stub_for_libtelux_cv2x
-Wl,--defsym=_ZNSt12__shared_ptrINSt13__future_base13_State_baseV2ELN9__gnu_cxx12_Lock_policyE2EEC1ISaIS1_EJEEESt19_Sp_make_shared_tagRKT_DpOT0_=so_stub_for_libtelux_cv2x
-Wl,--defsym=_ZNSt12__shared_ptrINSt13__future_base13_State_baseV2ELN9__gnu_cxx12_Lock_policyE2EEC2EOS4_=so_stub_for_libtelux_cv2x
-Wl,--defsym=_ZNSt12__shared_ptrINSt13__future_base13_State_baseV2ELN9__gnu_cxx12_Lock_policyE2EEC2ERKS4_=so_stub_for_libtelux_cv2x
-Wl,--defsym=_ZNSt12__shared_ptrINSt13__future_base13_State_baseV2ELN9__gnu_cxx12_Lock_policyE2EEC2Ev=so_stub_for_libtelux_cv2x
-Wl,--defsym=_ZNSt12__shared_ptrINSt13__future_base13_State_baseV2ELN9__gnu_cxx12_Lock_policyE2EEC2ISaIS1_EJEEESt19_Sp_make_shared_tagRKT_DpOT0_=so_stub_for_libtelux_cv2x
-Wl,--defsym=_ZNSt12__shared_ptrINSt13__future_base13_State_baseV2ELN9__gnu_cxx12_Lock_policyE2EED1Ev=so_stub_for_libtelux_cv2x
-Wl,--defsym=_ZNSt12__shared_ptrINSt13__future_base13_State_baseV2ELN9__gnu_cxx12_Lock_policyE2EED2Ev=so_stub_for_libtelux_cv2x
-Wl,--defsym=_ZNSt12__shared_ptrISt6threadLN9__gnu_cxx12_Lock_policyE2EE31_M_enable_shared_from_this_withIS0_S0_EENSt9enable_ifIXntsrNS3_15__has_esft_baseIT0_vEE5valueEvE4typeEPT_=so_stub_for_libtelux_cv2x
-Wl,--defsym=_ZNSt12__shared_ptrISt6threadLN9__gnu_cxx12_Lock_policyE2EE4swapERS3_=so_stub_for_libtelux_cv2x
-Wl,--defsym=_ZNSt12__shared_ptrISt6threadLN9__gnu_cxx12_Lock_policyE2EEaSEOS3_=so_stub_for_libtelux_cv2x
-Wl,--defsym=_ZNSt12__shared_ptrISt6threadLN9__gnu_cxx12_Lock_policyE2EEC1EOS3_=so_stub_for_libtelux_cv2x
-Wl,--defsym=_ZNSt12__shared_ptrISt6threadLN9__gnu_cxx12_Lock_policyE2EEC1Ev=so_stub_for_libtelux_cv2x
-Wl,--defsym=_ZNSt12__shared_ptrISt6threadLN9__gnu_cxx12_Lock_policyE2EEC2EOS3_=so_stub_for_libtelux_cv2x
-Wl,--defsym=_ZNSt12__shared_ptrISt6threadLN9__gnu_cxx12_Lock_policyE2EEC2Ev=so_stub_for_libtelux_cv2x
-Wl,--defsym=_ZNSt12__shared_ptrISt6threadLN9__gnu_cxx12_Lock_policyE2EED1Ev=so_stub_for_libtelux_cv2x
-Wl,--defsym=_ZNSt12__shared_ptrISt6threadLN9__gnu_cxx12_Lock_policyE2EED2Ev=so_stub_for_libtelux_cv2x
-Wl,--defsym=_ZNSt12__shared_ptrISt6vectorIjSaIjEELN9__gnu_cxx12_Lock_policyE2EE31_M_enable_shared_from_this_withIS2_S2_EENSt9enable_ifIXntsrNS5_15__has_esft_baseIT0_vEE5valueEvE4typeEPT_=so_stub_for_libtelux_cv2x
-Wl,--defsym=_ZNSt12__shared_ptrISt6vectorIjSaIjEELN9__gnu_cxx12_Lock_policyE2EEaSERKS5_=so_stub_for_libtelux_cv2x
-Wl,--defsym=_ZNSt12__shared_ptrISt6vectorIjSaIjEELN9__gnu_cxx12_Lock_policyE2EEC1EOS5_=so_stub_for_libtelux_cv2x
-Wl,--defsym=_ZNSt12__shared_ptrISt6vectorIjSaIjEELN9__gnu_cxx12_Lock_policyE2EEC1ERKS5_=so_stub_for_libtelux_cv2x
-Wl,--defsym=_ZNSt12__shared_ptrISt6vectorIjSaIjEELN9__gnu_cxx12_Lock_policyE2EEC1Ev=so_stub_for_libtelux_cv2x
-Wl,--defsym=_ZNSt12__shared_ptrISt6vectorIjSaIjEELN9__gnu_cxx12_Lock_policyE2EEC1ISaIS2_EJRS2_EEESt19_Sp_make_shared_tagRKT_DpOT0_=so_stub_for_libtelux_cv2x
-Wl,--defsym=_ZNSt12__shared_ptrISt6vectorIjSaIjEELN9__gnu_cxx12_Lock_policyE2EEC2EOS5_=so_stub_for_libtelux_cv2x
-Wl,--defsym=_ZNSt12__shared_ptrISt6vectorIjSaIjEELN9__gnu_cxx12_Lock_policyE2EEC2ERKS5_=so_stub_for_libtelux_cv2x
-Wl,--defsym=_ZNSt12__shared_ptrISt6vectorIjSaIjEELN9__gnu_cxx12_Lock_policyE2EEC2Ev=so_stub_for_libtelux_cv2x
-Wl,--defsym=_ZNSt12__shared_ptrISt6vectorIjSaIjEELN9__gnu_cxx12_Lock_policyE2EEC2ISaIS2_EJRS2_EEESt19_Sp_make_shared_tagRKT_DpOT0_=so_stub_for_libtelux_cv2x
-Wl,--defsym=_ZNSt12__shared_ptrISt6vectorIjSaIjEELN9__gnu_cxx12_Lock_policyE2EED1Ev=so_stub_for_libtelux_cv2x
-Wl,--defsym=_ZNSt12__shared_ptrISt6vectorIjSaIjEELN9__gnu_cxx12_Lock_policyE2EED2Ev=so_stub_for_libtelux_cv2x
-Wl,--defsym=_ZNSt12_Vector_baseIjSaIjEE11_M_allocateEj=so_stub_for_libtelux_cv2x
-Wl,--defsym=_ZNSt12_Vector_baseIjSaIjEE12_Vector_implC1ERKS0_=so_stub_for_libtelux_cv2x
-Wl,--defsym=_ZNSt12_Vector_baseIjSaIjEE12_Vector_implC1Ev=so_stub_for_libtelux_cv2x
-Wl,--defsym=_ZNSt12_Vector_baseIjSaIjEE12_Vector_implC2ERKS0_=so_stub_for_libtelux_cv2x
-Wl,--defsym=_ZNSt12_Vector_baseIjSaIjEE12_Vector_implC2Ev=so_stub_for_libtelux_cv2x
-Wl,--defsym=_ZNSt12_Vector_baseIjSaIjEE12_Vector_implD1Ev=so_stub_for_libtelux_cv2x
-Wl,--defsym=_ZNSt12_Vector_baseIjSaIjEE12_Vector_implD2Ev=so_stub_for_libtelux_cv2x
-Wl,--defsym=_ZNSt12_Vector_baseIjSaIjEE13_M_deallocateEPjj=so_stub_for_libtelux_cv2x
-Wl,--defsym=_ZNSt12_Vector_baseIjSaIjEE17_M_create_storageEj=so_stub_for_libtelux_cv2x
-Wl,--defsym=_ZNSt12_Vector_baseIjSaIjEE19_M_get_Tp_allocatorEv=so_stub_for_libtelux_cv2x
-Wl,--defsym=_ZNSt12_Vector_baseIjSaIjEEC1EjRKS0_=so_stub_for_libtelux_cv2x
-Wl,--defsym=_ZNSt12_Vector_baseIjSaIjEEC1Ev=so_stub_for_libtelux_cv2x
-Wl,--defsym=_ZNSt12_Vector_baseIjSaIjEEC2EjRKS0_=so_stub_for_libtelux_cv2x
-Wl,--defsym=_ZNSt12_Vector_baseIjSaIjEEC2Ev=so_stub_for_libtelux_cv2x
-Wl,--defsym=_ZNSt12_Vector_baseIjSaIjEED1Ev=so_stub_for_libtelux_cv2x
-Wl,--defsym=_ZNSt12_Vector_baseIjSaIjEED2Ev=so_stub_for_libtelux_cv2x
-Wl,--defsym=_ZNSt12_Vector_baseIN5telux4cv2x12TxPoolIdInfoESaIS2_EE11_M_allocateEj=so_stub_for_libtelux_cv2x
-Wl,--defsym=_ZNSt12_Vector_baseIN5telux4cv2x12TxPoolIdInfoESaIS2_EE12_Vector_implC1ERKS3_=so_stub_for_libtelux_cv2x
-Wl,--defsym=_ZNSt12_Vector_baseIN5telux4cv2x12TxPoolIdInfoESaIS2_EE12_Vector_implC1Ev=so_stub_for_libtelux_cv2x
-Wl,--defsym=_ZNSt12_Vector_baseIN5telux4cv2x12TxPoolIdInfoESaIS2_EE12_Vector_implC2ERKS3_=so_stub_for_libtelux_cv2x
-Wl,--defsym=_ZNSt12_Vector_baseIN5telux4cv2x12TxPoolIdInfoESaIS2_EE12_Vector_implC2Ev=so_stub_for_libtelux_cv2x
-Wl,--defsym=_ZNSt12_Vector_baseIN5telux4cv2x12TxPoolIdInfoESaIS2_EE12_Vector_implD1Ev=so_stub_for_libtelux_cv2x
-Wl,--defsym=_ZNSt12_Vector_baseIN5telux4cv2x12TxPoolIdInfoESaIS2_EE12_Vector_implD2Ev=so_stub_for_libtelux_cv2x
-Wl,--defsym=_ZNSt12_Vector_baseIN5telux4cv2x12TxPoolIdInfoESaIS2_EE13_M_deallocateEPS2_j=so_stub_for_libtelux_cv2x
-Wl,--defsym=_ZNSt12_Vector_baseIN5telux4cv2x12TxPoolIdInfoESaIS2_EE17_M_create_storageEj=so_stub_for_libtelux_cv2x
-Wl,--defsym=_ZNSt12_Vector_baseIN5telux4cv2x12TxPoolIdInfoESaIS2_EE19_M_get_Tp_allocatorEv=so_stub_for_libtelux_cv2x
-Wl,--defsym=_ZNSt12_Vector_baseIN5telux4cv2x12TxPoolIdInfoESaIS2_EEC1EjRKS3_=so_stub_for_libtelux_cv2x
-Wl,--defsym=_ZNSt12_Vector_baseIN5telux4cv2x12TxPoolIdInfoESaIS2_EEC1Ev=so_stub_for_libtelux_cv2x
-Wl,--defsym=_ZNSt12_Vector_baseIN5telux4cv2x12TxPoolIdInfoESaIS2_EEC2EjRKS3_=so_stub_for_libtelux_cv2x
-Wl,--defsym=_ZNSt12_Vector_baseIN5telux4cv2x12TxPoolIdInfoESaIS2_EEC2Ev=so_stub_for_libtelux_cv2x
-Wl,--defsym=_ZNSt12_Vector_baseIN5telux4cv2x12TxPoolIdInfoESaIS2_EED1Ev=so_stub_for_libtelux_cv2x
-Wl,--defsym=_ZNSt12_Vector_baseIN5telux4cv2x12TxPoolIdInfoESaIS2_EED2Ev=so_stub_for_libtelux_cv2x
-Wl,--defsym=_ZNSt12_Vector_baseIN5telux4cv2x13TrustedUEInfoESaIS2_EE11_M_allocateEj=so_stub_for_libtelux_cv2x
-Wl,--defsym=_ZNSt12_Vector_baseIN5telux4cv2x13TrustedUEInfoESaIS2_EE12_Vector_implC1ERKS3_=so_stub_for_libtelux_cv2x
-Wl,--defsym=_ZNSt12_Vector_baseIN5telux4cv2x13TrustedUEInfoESaIS2_EE12_Vector_implC2ERKS3_=so_stub_for_libtelux_cv2x
-Wl,--defsym=_ZNSt12_Vector_baseIN5telux4cv2x13TrustedUEInfoESaIS2_EE12_Vector_implD1Ev=so_stub_for_libtelux_cv2x
-Wl,--defsym=_ZNSt12_Vector_baseIN5telux4cv2x13TrustedUEInfoESaIS2_EE12_Vector_implD2Ev=so_stub_for_libtelux_cv2x
-Wl,--defsym=_ZNSt12_Vector_baseIN5telux4cv2x13TrustedUEInfoESaIS2_EE13_M_deallocateEPS2_j=so_stub_for_libtelux_cv2x
-Wl,--defsym=_ZNSt12_Vector_baseIN5telux4cv2x13TrustedUEInfoESaIS2_EE17_M_create_storageEj=so_stub_for_libtelux_cv2x
-Wl,--defsym=_ZNSt12_Vector_baseIN5telux4cv2x13TrustedUEInfoESaIS2_EE19_M_get_Tp_allocatorEv=so_stub_for_libtelux_cv2x
-Wl,--defsym=_ZNSt12_Vector_baseIN5telux4cv2x13TrustedUEInfoESaIS2_EEC1EjRKS3_=so_stub_for_libtelux_cv2x
-Wl,--defsym=_ZNSt12_Vector_baseIN5telux4cv2x13TrustedUEInfoESaIS2_EEC2EjRKS3_=so_stub_for_libtelux_cv2x
-Wl,--defsym=_ZNSt12_Vector_baseIN5telux4cv2x13TrustedUEInfoESaIS2_EED1Ev=so_stub_for_libtelux_cv2x
-Wl,--defsym=_ZNSt12_Vector_baseIN5telux4cv2x13TrustedUEInfoESaIS2_EED2Ev=so_stub_for_libtelux_cv2x
-Wl,--defsym=_ZNSt12_Vector_baseIN5telux4cv2x14Cv2xPoolStatusESaIS2_EE11_M_allocateEj=so_stub_for_libtelux_cv2x
-Wl,--defsym=_ZNSt12_Vector_baseIN5telux4cv2x14Cv2xPoolStatusESaIS2_EE12_Vector_implC1ERKS3_=so_stub_for_libtelux_cv2x
-Wl,--defsym=_ZNSt12_Vector_baseIN5telux4cv2x14Cv2xPoolStatusESaIS2_EE12_Vector_implC1Ev=so_stub_for_libtelux_cv2x
-Wl,--defsym=_ZNSt12_Vector_baseIN5telux4cv2x14Cv2xPoolStatusESaIS2_EE12_Vector_implC2ERKS3_=so_stub_for_libtelux_cv2x
-Wl,--defsym=_ZNSt12_Vector_baseIN5telux4cv2x14Cv2xPoolStatusESaIS2_EE12_Vector_implC2Ev=so_stub_for_libtelux_cv2x
-Wl,--defsym=_ZNSt12_Vector_baseIN5telux4cv2x14Cv2xPoolStatusESaIS2_EE12_Vector_implD1Ev=so_stub_for_libtelux_cv2x
-Wl,--defsym=_ZNSt12_Vector_baseIN5telux4cv2x14Cv2xPoolStatusESaIS2_EE12_Vector_implD2Ev=so_stub_for_libtelux_cv2x
-Wl,--defsym=_ZNSt12_Vector_baseIN5telux4cv2x14Cv2xPoolStatusESaIS2_EE13_M_deallocateEPS2_j=so_stub_for_libtelux_cv2x
-Wl,--defsym=_ZNSt12_Vector_baseIN5telux4cv2x14Cv2xPoolStatusESaIS2_EE17_M_create_storageEj=so_stub_for_libtelux_cv2x
-Wl,--defsym=_ZNSt12_Vector_baseIN5telux4cv2x14Cv2xPoolStatusESaIS2_EE19_M_get_Tp_allocatorEv=so_stub_for_libtelux_cv2x
-Wl,--defsym=_ZNSt12_Vector_baseIN5telux4cv2x14Cv2xPoolStatusESaIS2_EEC1EjRKS3_=so_stub_for_libtelux_cv2x
-Wl,--defsym=_ZNSt12_Vector_baseIN5telux4cv2x14Cv2xPoolStatusESaIS2_EEC1Ev=so_stub_for_libtelux_cv2x
-Wl,--defsym=_ZNSt12_Vector_baseIN5telux4cv2x14Cv2xPoolStatusESaIS2_EEC2EjRKS3_=so_stub_for_libtelux_cv2x
-Wl,--defsym=_ZNSt12_Vector_baseIN5telux4cv2x14Cv2xPoolStatusESaIS2_EEC2Ev=so_stub_for_libtelux_cv2x
-Wl,--defsym=_ZNSt12_Vector_baseIN5telux4cv2x14Cv2xPoolStatusESaIS2_EED1Ev=so_stub_for_libtelux_cv2x
-Wl,--defsym=_ZNSt12_Vector_baseIN5telux4cv2x14Cv2xPoolStatusESaIS2_EED2Ev=so_stub_for_libtelux_cv2x
-Wl,--defsym=_ZNSt12_Vector_baseIN5telux4cv2x19DataSessionSettingsESaIS2_EE12_Vector_implC1Ev=so_stub_for_libtelux_cv2x
-Wl,--defsym=_ZNSt12_Vector_baseIN5telux4cv2x19DataSessionSettingsESaIS2_EE12_Vector_implC2Ev=so_stub_for_libtelux_cv2x
-Wl,--defsym=_ZNSt12_Vector_baseIN5telux4cv2x19DataSessionSettingsESaIS2_EE12_Vector_implD1Ev=so_stub_for_libtelux_cv2x
-Wl,--defsym=_ZNSt12_Vector_baseIN5telux4cv2x19DataSessionSettingsESaIS2_EE12_Vector_implD2Ev=so_stub_for_libtelux_cv2x
-Wl,--defsym=_ZNSt12_Vector_baseIN5telux4cv2x19DataSessionSettingsESaIS2_EE13_M_deallocateEPS2_j=so_stub_for_libtelux_cv2x
-Wl,--defsym=_ZNSt12_Vector_baseIN5telux4cv2x19DataSessionSettingsESaIS2_EE19_M_get_Tp_allocatorEv=so_stub_for_libtelux_cv2x
-Wl,--defsym=_ZNSt12_Vector_baseIN5telux4cv2x19DataSessionSettingsESaIS2_EEC1Ev=so_stub_for_libtelux_cv2x
-Wl,--defsym=_ZNSt12_Vector_baseIN5telux4cv2x19DataSessionSettingsESaIS2_EEC2Ev=so_stub_for_libtelux_cv2x
-Wl,--defsym=_ZNSt12_Vector_baseIN5telux4cv2x19DataSessionSettingsESaIS2_EED1Ev=so_stub_for_libtelux_cv2x
-Wl,--defsym=_ZNSt12_Vector_baseIN5telux4cv2x19DataSessionSettingsESaIS2_EED2Ev=so_stub_for_libtelux_cv2x
-Wl,--defsym=_ZNSt12_Vector_baseISt10shared_ptrIN5telux4cv2x11ICv2xTxFlowEESaIS4_EE11_M_allocateEj=so_stub_for_libtelux_cv2x
-Wl,--defsym=_ZNSt12_Vector_baseISt10shared_ptrIN5telux4cv2x11ICv2xTxFlowEESaIS4_EE12_Vector_implC1ERKS5_=so_stub_for_libtelux_cv2x
-Wl,--defsym=_ZNSt12_Vector_baseISt10shared_ptrIN5telux4cv2x11ICv2xTxFlowEESaIS4_EE12_Vector_implC1Ev=so_stub_for_libtelux_cv2x
-Wl,--defsym=_ZNSt12_Vector_baseISt10shared_ptrIN5telux4cv2x11ICv2xTxFlowEESaIS4_EE12_Vector_implC2ERKS5_=so_stub_for_libtelux_cv2x
-Wl,--defsym=_ZNSt12_Vector_baseISt10shared_ptrIN5telux4cv2x11ICv2xTxFlowEESaIS4_EE12_Vector_implC2Ev=so_stub_for_libtelux_cv2x
-Wl,--defsym=_ZNSt12_Vector_baseISt10shared_ptrIN5telux4cv2x11ICv2xTxFlowEESaIS4_EE12_Vector_implD1Ev=so_stub_for_libtelux_cv2x
-Wl,--defsym=_ZNSt12_Vector_baseISt10shared_ptrIN5telux4cv2x11ICv2xTxFlowEESaIS4_EE12_Vector_implD2Ev=so_stub_for_libtelux_cv2x
-Wl,--defsym=_ZNSt12_Vector_baseISt10shared_ptrIN5telux4cv2x11ICv2xTxFlowEESaIS4_EE13_M_deallocateEPS4_j=so_stub_for_libtelux_cv2x
-Wl,--defsym=_ZNSt12_Vector_baseISt10shared_ptrIN5telux4cv2x11ICv2xTxFlowEESaIS4_EE19_M_get_Tp_allocatorEv=so_stub_for_libtelux_cv2x
-Wl,--defsym=_ZNSt12_Vector_baseISt10shared_ptrIN5telux4cv2x11ICv2xTxFlowEESaIS4_EEC1ERKS5_=so_stub_for_libtelux_cv2x
-Wl,--defsym=_ZNSt12_Vector_baseISt10shared_ptrIN5telux4cv2x11ICv2xTxFlowEESaIS4_EEC1Ev=so_stub_for_libtelux_cv2x
-Wl,--defsym=_ZNSt12_Vector_baseISt10shared_ptrIN5telux4cv2x11ICv2xTxFlowEESaIS4_EEC2ERKS5_=so_stub_for_libtelux_cv2x
-Wl,--defsym=_ZNSt12_Vector_baseISt10shared_ptrIN5telux4cv2x11ICv2xTxFlowEESaIS4_EEC2Ev=so_stub_for_libtelux_cv2x
-Wl,--defsym=_ZNSt12_Vector_baseISt10shared_ptrIN5telux4cv2x11ICv2xTxFlowEESaIS4_EED1Ev=so_stub_for_libtelux_cv2x
-Wl,--defsym=_ZNSt12_Vector_baseISt10shared_ptrIN5telux4cv2x11ICv2xTxFlowEESaIS4_EED2Ev=so_stub_for_libtelux_cv2x
-Wl,--defsym=_ZNSt12_Vector_baseISt4pairIbSt8weak_ptrIN5telux4cv2x18ICv2xRadioListenerEEESaIS6_EE11_M_allocateEj=so_stub_for_libtelux_cv2x
-Wl,--defsym=_ZNSt12_Vector_baseISt4pairIbSt8weak_ptrIN5telux4cv2x18ICv2xRadioListenerEEESaIS6_EE12_Vector_implC1Ev=so_stub_for_libtelux_cv2x
-Wl,--defsym=_ZNSt12_Vector_baseISt4pairIbSt8weak_ptrIN5telux4cv2x18ICv2xRadioListenerEEESaIS6_EE12_Vector_implC2Ev=so_stub_for_libtelux_cv2x
-Wl,--defsym=_ZNSt12_Vector_baseISt4pairIbSt8weak_ptrIN5telux4cv2x18ICv2xRadioListenerEEESaIS6_EE12_Vector_implD1Ev=so_stub_for_libtelux_cv2x
-Wl,--defsym=_ZNSt12_Vector_baseISt4pairIbSt8weak_ptrIN5telux4cv2x18ICv2xRadioListenerEEESaIS6_EE12_Vector_implD2Ev=so_stub_for_libtelux_cv2x
-Wl,--defsym=_ZNSt12_Vector_baseISt4pairIbSt8weak_ptrIN5telux4cv2x18ICv2xRadioListenerEEESaIS6_EE13_M_deallocateEPS6_j=so_stub_for_libtelux_cv2x
-Wl,--defsym=_ZNSt12_Vector_baseISt4pairIbSt8weak_ptrIN5telux4cv2x18ICv2xRadioListenerEEESaIS6_EE19_M_get_Tp_allocatorEv=so_stub_for_libtelux_cv2x
-Wl,--defsym=_ZNSt12_Vector_baseISt4pairIbSt8weak_ptrIN5telux4cv2x18ICv2xRadioListenerEEESaIS6_EEC1Ev=so_stub_for_libtelux_cv2x
-Wl,--defsym=_ZNSt12_Vector_baseISt4pairIbSt8weak_ptrIN5telux4cv2x18ICv2xRadioListenerEEESaIS6_EEC2Ev=so_stub_for_libtelux_cv2x
-Wl,--defsym=_ZNSt12_Vector_baseISt4pairIbSt8weak_ptrIN5telux4cv2x18ICv2xRadioListenerEEESaIS6_EED1Ev=so_stub_for_libtelux_cv2x
-Wl,--defsym=_ZNSt12_Vector_baseISt4pairIbSt8weak_ptrIN5telux4cv2x18ICv2xRadioListenerEEESaIS6_EED2Ev=so_stub_for_libtelux_cv2x
-Wl,--defsym=_ZNSt12_Vector_baseISt8weak_ptrIN5telux4cv2x13ICv2xListenerEESaIS4_EE11_M_allocateEj=so_stub_for_libtelux_cv2x
-Wl,--defsym=_ZNSt12_Vector_baseISt8weak_ptrIN5telux4cv2x13ICv2xListenerEESaIS4_EE12_Vector_implC1Ev=so_stub_for_libtelux_cv2x
-Wl,--defsym=_ZNSt12_Vector_baseISt8weak_ptrIN5telux4cv2x13ICv2xListenerEESaIS4_EE12_Vector_implC2Ev=so_stub_for_libtelux_cv2x
-Wl,--defsym=_ZNSt12_Vector_baseISt8weak_ptrIN5telux4cv2x13ICv2xListenerEESaIS4_EE12_Vector_implD1Ev=so_stub_for_libtelux_cv2x
-Wl,--defsym=_ZNSt12_Vector_baseISt8weak_ptrIN5telux4cv2x13ICv2xListenerEESaIS4_EE12_Vector_implD2Ev=so_stub_for_libtelux_cv2x
-Wl,--defsym=_ZNSt12_Vector_baseISt8weak_ptrIN5telux4cv2x13ICv2xListenerEESaIS4_EE13_M_deallocateEPS4_j=so_stub_for_libtelux_cv2x
-Wl,--defsym=_ZNSt12_Vector_baseISt8weak_ptrIN5telux4cv2x13ICv2xListenerEESaIS4_EE19_M_get_Tp_allocatorEv=so_stub_for_libtelux_cv2x
-Wl,--defsym=_ZNSt12_Vector_baseISt8weak_ptrIN5telux4cv2x13ICv2xListenerEESaIS4_EEC1Ev=so_stub_for_libtelux_cv2x
-Wl,--defsym=_ZNSt12_Vector_baseISt8weak_ptrIN5telux4cv2x13ICv2xListenerEESaIS4_EEC2Ev=so_stub_for_libtelux_cv2x
-Wl,--defsym=_ZNSt12_Vector_baseISt8weak_ptrIN5telux4cv2x13ICv2xListenerEESaIS4_EED1Ev=so_stub_for_libtelux_cv2x
-Wl,--defsym=_ZNSt12_Vector_baseISt8weak_ptrIN5telux4cv2x13ICv2xListenerEESaIS4_EED2Ev=so_stub_for_libtelux_cv2x
-Wl,--defsym=_ZNSt12_Vector_baseISt8weak_ptrIN5telux4cv2x19ICv2xConfigListenerEESaIS4_EE11_M_allocateEj=so_stub_for_libtelux_cv2x
-Wl,--defsym=_ZNSt12_Vector_baseISt8weak_ptrIN5telux4cv2x19ICv2xConfigListenerEESaIS4_EE12_Vector_implC1Ev=so_stub_for_libtelux_cv2x
-Wl,--defsym=_ZNSt12_Vector_baseISt8weak_ptrIN5telux4cv2x19ICv2xConfigListenerEESaIS4_EE12_Vector_implC2Ev=so_stub_for_libtelux_cv2x
-Wl,--defsym=_ZNSt12_Vector_baseISt8weak_ptrIN5telux4cv2x19ICv2xConfigListenerEESaIS4_EE12_Vector_implD1Ev=so_stub_for_libtelux_cv2x
-Wl,--defsym=_ZNSt12_Vector_baseISt8weak_ptrIN5telux4cv2x19ICv2xConfigListenerEESaIS4_EE12_Vector_implD2Ev=so_stub_for_libtelux_cv2x
-Wl,--defsym=_ZNSt12_Vector_baseISt8weak_ptrIN5telux4cv2x19ICv2xConfigListenerEESaIS4_EE13_M_deallocateEPS4_j=so_stub_for_libtelux_cv2x
-Wl,--defsym=_ZNSt12_Vector_baseISt8weak_ptrIN5telux4cv2x19ICv2xConfigListenerEESaIS4_EE19_M_get_Tp_allocatorEv=so_stub_for_libtelux_cv2x
-Wl,--defsym=_ZNSt12_Vector_baseISt8weak_ptrIN5telux4cv2x19ICv2xConfigListenerEESaIS4_EEC1Ev=so_stub_for_libtelux_cv2x
-Wl,--defsym=_ZNSt12_Vector_baseISt8weak_ptrIN5telux4cv2x19ICv2xConfigListenerEESaIS4_EEC2Ev=so_stub_for_libtelux_cv2x
-Wl,--defsym=_ZNSt12_Vector_baseISt8weak_ptrIN5telux4cv2x19ICv2xConfigListenerEESaIS4_EED1Ev=so_stub_for_libtelux_cv2x
-Wl,--defsym=_ZNSt12_Vector_baseISt8weak_ptrIN5telux4cv2x19ICv2xConfigListenerEESaIS4_EED2Ev=so_stub_for_libtelux_cv2x
-Wl,--defsym=_ZNSt12_Vector_baseISt8weak_ptrIN5telux4cv2x20ICv2xSysCtrlListenerEESaIS4_EE11_M_allocateEj=so_stub_for_libtelux_cv2x
-Wl,--defsym=_ZNSt12_Vector_baseISt8weak_ptrIN5telux4cv2x20ICv2xSysCtrlListenerEESaIS4_EE12_Vector_implC1Ev=so_stub_for_libtelux_cv2x
-Wl,--defsym=_ZNSt12_Vector_baseISt8weak_ptrIN5telux4cv2x20ICv2xSysCtrlListenerEESaIS4_EE12_Vector_implC2Ev=so_stub_for_libtelux_cv2x
-Wl,--defsym=_ZNSt12_Vector_baseISt8weak_ptrIN5telux4cv2x20ICv2xSysCtrlListenerEESaIS4_EE12_Vector_implD1Ev=so_stub_for_libtelux_cv2x
-Wl,--defsym=_ZNSt12_Vector_baseISt8weak_ptrIN5telux4cv2x20ICv2xSysCtrlListenerEESaIS4_EE12_Vector_implD2Ev=so_stub_for_libtelux_cv2x
-Wl,--defsym=_ZNSt12_Vector_baseISt8weak_ptrIN5telux4cv2x20ICv2xSysCtrlListenerEESaIS4_EE13_M_deallocateEPS4_j=so_stub_for_libtelux_cv2x
-Wl,--defsym=_ZNSt12_Vector_baseISt8weak_ptrIN5telux4cv2x20ICv2xSysCtrlListenerEESaIS4_EE19_M_get_Tp_allocatorEv=so_stub_for_libtelux_cv2x
-Wl,--defsym=_ZNSt12_Vector_baseISt8weak_ptrIN5telux4cv2x20ICv2xSysCtrlListenerEESaIS4_EEC1Ev=so_stub_for_libtelux_cv2x
-Wl,--defsym=_ZNSt12_Vector_baseISt8weak_ptrIN5telux4cv2x20ICv2xSysCtrlListenerEESaIS4_EEC2Ev=so_stub_for_libtelux_cv2x
-Wl,--defsym=_ZNSt12_Vector_baseISt8weak_ptrIN5telux4cv2x20ICv2xSysCtrlListenerEESaIS4_EED1Ev=so_stub_for_libtelux_cv2x
-Wl,--defsym=_ZNSt12_Vector_baseISt8weak_ptrIN5telux4cv2x20ICv2xSysCtrlListenerEESaIS4_EED2Ev=so_stub_for_libtelux_cv2x
-Wl,--defsym=_ZNSt12_Vector_baseIySaIyEE11_M_allocateEj=so_stub_for_libtelux_cv2x
-Wl,--defsym=_ZNSt12_Vector_baseIySaIyEE12_Vector_impl12_M_swap_dataERS2_=so_stub_for_libtelux_cv2x
-Wl,--defsym=_ZNSt12_Vector_baseIySaIyEE12_Vector_implC1ERKS0_=so_stub_for_libtelux_cv2x
-Wl,--defsym=_ZNSt12_Vector_baseIySaIyEE12_Vector_implC1Ev=so_stub_for_libtelux_cv2x
-Wl,--defsym=_ZNSt12_Vector_baseIySaIyEE12_Vector_implC2ERKS0_=so_stub_for_libtelux_cv2x
-Wl,--defsym=_ZNSt12_Vector_baseIySaIyEE12_Vector_implC2Ev=so_stub_for_libtelux_cv2x
-Wl,--defsym=_ZNSt12_Vector_baseIySaIyEE12_Vector_implD1Ev=so_stub_for_libtelux_cv2x
-Wl,--defsym=_ZNSt12_Vector_baseIySaIyEE12_Vector_implD2Ev=so_stub_for_libtelux_cv2x
-Wl,--defsym=_ZNSt12_Vector_baseIySaIyEE13_M_deallocateEPyj=so_stub_for_libtelux_cv2x
-Wl,--defsym=_ZNSt12_Vector_baseIySaIyEE17_M_create_storageEj=so_stub_for_libtelux_cv2x
-Wl,--defsym=_ZNSt12_Vector_baseIySaIyEE19_M_get_Tp_allocatorEv=so_stub_for_libtelux_cv2x
-Wl,--defsym=_ZNSt12_Vector_baseIySaIyEEC1EjRKS0_=so_stub_for_libtelux_cv2x
-Wl,--defsym=_ZNSt12_Vector_baseIySaIyEEC1ERKS0_=so_stub_for_libtelux_cv2x
-Wl,--defsym=_ZNSt12_Vector_baseIySaIyEEC1Ev=so_stub_for_libtelux_cv2x
-Wl,--defsym=_ZNSt12_Vector_baseIySaIyEEC2EjRKS0_=so_stub_for_libtelux_cv2x
-Wl,--defsym=_ZNSt12_Vector_baseIySaIyEEC2ERKS0_=so_stub_for_libtelux_cv2x
-Wl,--defsym=_ZNSt12_Vector_baseIySaIyEEC2Ev=so_stub_for_libtelux_cv2x
-Wl,--defsym=_ZNSt12_Vector_baseIySaIyEED1Ev=so_stub_for_libtelux_cv2x
-Wl,--defsym=_ZNSt12_Vector_baseIySaIyEED2Ev=so_stub_for_libtelux_cv2x
-Wl,--defsym=_ZNSt12__weak_countILN9__gnu_cxx12_Lock_policyE2EEaSEOS2_=so_stub_for_libtelux_cv2x
-Wl,--defsym=_ZNSt12__weak_countILN9__gnu_cxx12_Lock_policyE2EEC1EOS2_=so_stub_for_libtelux_cv2x
-Wl,--defsym=_ZNSt12__weak_countILN9__gnu_cxx12_Lock_policyE2EEC1ERKS2_=so_stub_for_libtelux_cv2x
-Wl,--defsym=_ZNSt12__weak_countILN9__gnu_cxx12_Lock_policyE2EEC1ERKSt14__shared_countILS1_2EE=so_stub_for_libtelux_cv2x
-Wl,--defsym=_ZNSt12__weak_countILN9__gnu_cxx12_Lock_policyE2EEC2EOS2_=so_stub_for_libtelux_cv2x
-Wl,--defsym=_ZNSt12__weak_countILN9__gnu_cxx12_Lock_policyE2EEC2ERKS2_=so_stub_for_libtelux_cv2x
-Wl,--defsym=_ZNSt12__weak_countILN9__gnu_cxx12_Lock_policyE2EEC2ERKSt14__shared_countILS1_2EE=so_stub_for_libtelux_cv2x
-Wl,--defsym=_ZNSt12__weak_countILN9__gnu_cxx12_Lock_policyE2EED1Ev=so_stub_for_libtelux_cv2x
-Wl,--defsym=_ZNSt12__weak_countILN9__gnu_cxx12_Lock_policyE2EED2Ev=so_stub_for_libtelux_cv2x
-Wl,--defsym=_ZNSt13__atomic_baseIbEaSEb=so_stub_for_libtelux_cv2x
-Wl,--defsym=_ZNSt13__atomic_baseIbEC1Eb=so_stub_for_libtelux_cv2x
-Wl,--defsym=_ZNSt13__atomic_baseIjEC1Ej=so_stub_for_libtelux_cv2x
-Wl,--defsym=_ZNSt13__atomic_baseIjEC2Ej=so_stub_for_libtelux_cv2x
-Wl,--defsym=_ZNSt13__atomic_baseIjEppEi=so_stub_for_libtelux_cv2x
-Wl,--defsym=_ZNSt13__future_base13_State_baseV210wait_untilINSt6chrono3_V212system_clockENS2_8durationIxSt5ratioILx1ELx1000000000EEEEEESt13future_statusRKNS2_10time_pointIT_T0_EE=so_stub_for_libtelux_cv2x
-Wl,--defsym=_ZNSt13__future_base13_State_baseV213_M_set_resultESt8functionIFSt10unique_ptrINS_12_Result_baseENS3_8_DeleterEEvEEb=so_stub_for_libtelux_cv2x
-Wl,--defsym=_ZNSt13__future_base13_State_baseV216_M_break_promiseESt10unique_ptrINS_12_Result_baseENS2_8_DeleterEE=so_stub_for_libtelux_cv2x
-Wl,--defsym=_ZNSt13__future_base13_State_baseV217_M_complete_asyncEv=so_stub_for_libtelux_cv2x
-Wl,--defsym=_ZNSt13__future_base13_State_baseV221_M_set_retrieved_flagEv=so_stub_for_libtelux_cv2x
-Wl,--defsym=_ZNSt13__future_base13_State_baseV24waitEv=so_stub_for_libtelux_cv2x
-Wl,--defsym=_ZNSt13__future_base13_State_baseV28_S_checkIS0_EEvRKSt10shared_ptrIT_E=so_stub_for_libtelux_cv2x
-Wl,--defsym=_ZNSt13__future_base13_State_baseV28__setterIiiEENS0_7_SetterIT_OT0_EEPSt7promiseIS3_ES5_=so_stub_for_libtelux_cv2x
-Wl,--defsym=_ZNSt13__future_base13_State_baseV28__setterIiRKiEENS0_7_SetterIT_OT0_EEPSt7promiseIS5_ES7_=so_stub_for_libtelux_cv2x
-Wl,--defsym=_ZNSt13__future_base13_State_baseV28__setterIN5telux6common9ErrorCodeERKS4_EENS0_7_SetterIT_OT0_EEPSt7promiseIS8_ESA_=so_stub_for_libtelux_cv2x
-Wl,--defsym=_ZNSt13__future_base13_State_baseV28__setterIN5telux6common9ErrorCodeES4_EENS0_7_SetterIT_OT0_EEPSt7promiseIS6_ES8_=so_stub_for_libtelux_cv2x
-Wl,--defsym=_ZNSt13__future_base13_State_baseV29_M_do_setEPSt8functionIFSt10unique_ptrINS_12_Result_baseENS3_8_DeleterEEvEEPb=so_stub_for_libtelux_cv2x
-Wl,--defsym=_ZNSt13__future_base13_State_baseV2C1Ev=so_stub_for_libtelux_cv2x
-Wl,--defsym=_ZNSt13__future_base13_State_baseV2C2Ev=so_stub_for_libtelux_cv2x
-Wl,--defsym=_ZNSt13__future_base13_State_baseV2D0Ev=so_stub_for_libtelux_cv2x
-Wl,--defsym=_ZNSt13__future_base13_State_baseV2D1Ev=so_stub_for_libtelux_cv2x
-Wl,--defsym=_ZNSt13__future_base13_State_baseV2D2Ev=so_stub_for_libtelux_cv2x
-Wl,--defsym=_ZNSt13__future_base21_Async_state_commonV217_M_complete_asyncEv=so_stub_for_libtelux_cv2x
-Wl,--defsym=_ZNSt13__future_base21_Async_state_commonV27_M_joinEv=so_stub_for_libtelux_cv2x
-Wl,--defsym=_ZNSt13__future_base21_Async_state_commonV2C1Ev=so_stub_for_libtelux_cv2x
-Wl,--defsym=_ZNSt13__future_base21_Async_state_commonV2C2Ev=so_stub_for_libtelux_cv2x
-Wl,--defsym=_ZNSt13__future_base21_Async_state_commonV2D0Ev=so_stub_for_libtelux_cv2x
-Wl,--defsym=_ZNSt13__future_base21_Async_state_commonV2D1Ev=so_stub_for_libtelux_cv2x
-Wl,--defsym=_ZNSt13__future_base21_Async_state_commonV2D2Ev=so_stub_for_libtelux_cv2x
-Wl,--defsym=_ZNSt13__future_base7_ResultIbE10_M_destroyEv=so_stub_for_libtelux_cv2x
-Wl,--defsym=_ZNSt13__future_base7_ResultIbE6_M_setEOb=so_stub_for_libtelux_cv2x
-Wl,--defsym=_ZNSt13__future_base7_ResultIbE8_M_valueEv=so_stub_for_libtelux_cv2x
