-Wl,--defsym=__gcov_error_file=so_stub_for_libtelux_power
-Wl,--defsym=__gcov_master=so_stub_for_libtelux_power
-Wl,--defsym=__gcov_sort_n_vals=so_stub_for_libtelux_power
-Wl,--defsym=__gcov_var=so_stub_for_libtelux_power
-Wl,--defsym=_ZN5telux3qmi15IQmiDmsListener21onOperatingModeChangeEi=so_stub_for_libtelux_power
-Wl,--defsym=_ZN5telux5power12PowerFactory11getInstanceEv=so_stub_for_libtelux_power
-Wl,--defsym=_ZN5telux5power12PowerFactory21getTcuActivityManagerENS0_10ClientTypeE=so_stub_for_libtelux_power
-Wl,--defsym=_ZN5telux5power12PowerFactoryC1Ev=so_stub_for_libtelux_power
-Wl,--defsym=_ZN5telux5power12PowerFactoryC2Ev=so_stub_for_libtelux_power
-Wl,--defsym=_ZN5telux5power12PowerFactoryD1Ev=so_stub_for_libtelux_power
-Wl,--defsym=_ZN5telux5power12PowerFactoryD2Ev=so_stub_for_libtelux_power
-Wl,--defsym=_ZN5telux5power17ModemStateUpdater13isClientReadyEv=so_stub_for_libtelux_power
-Wl,--defsym=_ZN5telux5power17ModemStateUpdater16isSubSystemReadyEv=so_stub_for_libtelux_power
-Wl,--defsym=_ZN5telux5power17ModemStateUpdater19sendTcuStateToModemENS0_16TcuActivityStateESt8functionIFvNS_6common9ErrorCodeEEE=so_stub_for_libtelux_power
-Wl,--defsym=_ZN5telux5power17ModemStateUpdater19setClientReadyStateEb=so_stub_for_libtelux_power
-Wl,--defsym=_ZN5telux5power17ModemStateUpdater22setSubSystemReadyStateEb=so_stub_for_libtelux_power
-Wl,--defsym=_ZN5telux5power17ModemStateUpdater24onDmsServiceStatusChangeENS_6common13ServiceStatusEi=so_stub_for_libtelux_power
-Wl,--defsym=_ZN5telux5power17ModemStateUpdater26onModemActivityClientReadyEb=so_stub_for_libtelux_power
-Wl,--defsym=_ZN5telux5power17ModemStateUpdater31onDmsIndicationRegisterResponseEiPv=so_stub_for_libtelux_power
-Wl,--defsym=_ZN5telux5power17ModemStateUpdater33onSendDeviceActivityStateResponseEiPv=so_stub_for_libtelux_power
-Wl,--defsym=_ZN5telux5power17ModemStateUpdater4initEv=so_stub_for_libtelux_power
-Wl,--defsym=_ZN5telux5power17ModemStateUpdater8initSyncEv=so_stub_for_libtelux_power
-Wl,--defsym=_ZN5telux5power17ModemStateUpdaterC1Ev=so_stub_for_libtelux_power
-Wl,--defsym=_ZN5telux5power17ModemStateUpdaterC2Ev=so_stub_for_libtelux_power
-Wl,--defsym=_ZN5telux5power17ModemStateUpdaterD0Ev=so_stub_for_libtelux_power
-Wl,--defsym=_ZN5telux5power17ModemStateUpdaterD1Ev=so_stub_for_libtelux_power
-Wl,--defsym=_ZN5telux5power17ModemStateUpdaterD2Ev=so_stub_for_libtelux_power
-Wl,--defsym=_ZN5telux5power17TcuActivityHelper17getAckForTcuStateENS0_16TcuActivityStateEPNS0_19TcuActivityStateAckE=so_stub_for_libtelux_power
-Wl,--defsym=_ZN5telux5power17TcuActivityHelper20convertTcuStateToQmiENS0_16TcuActivityStateE=so_stub_for_libtelux_power
-Wl,--defsym=_ZN5telux5power17TcuActivityHelper21getTcuStateFromQmiIndEPv=so_stub_for_libtelux_power
-Wl,--defsym=_ZN5telux5power17TcuActivityHelper22convertTcuStateFromQmiE13pwr_state_v01=so_stub_for_libtelux_power
-Wl,--defsym=_ZN5telux5power17TcuActivityHelper23convertTcuStateAckToQmiENS0_19TcuActivityStateAckEP17pwr_state_ack_v01=so_stub_for_libtelux_power
-Wl,--defsym=_ZN5telux5power17TcuActivityHelper23convertTcuStateToDmsQmiENS0_16TcuActivityStateE=so_stub_for_libtelux_power
-Wl,--defsym=_ZN5telux5power17TcuActivityHelper25getTcuStateFromQmiRegRespEPv=so_stub_for_libtelux_power
-Wl,--defsym=_ZN5telux5power20ITcuActivityListener22onSlaveAckStatusUpdateENS_6common6StatusE=so_stub_for_libtelux_power
-Wl,--defsym=_ZN5telux5power20ITcuActivityListener24onTcuActivityStateUpdateENS0_16TcuActivityStateE=so_stub_for_libtelux_power
-Wl,--defsym=_ZN5telux5power22TcuActivityManagerImpl13setReadyStateEb=so_stub_for_libtelux_power
-Wl,--defsym=_ZN5telux5power22TcuActivityManagerImpl14handleResponseEiPv=so_stub_for_libtelux_power
-Wl,--defsym=_ZN5telux5power22TcuActivityManagerImpl16getActivityStateEv=so_stub_for_libtelux_power
-Wl,--defsym=_ZN5telux5power22TcuActivityManagerImpl16onTcuStateUpdateEP36pwr_mgr_broadcast_indication_msg_v01=so_stub_for_libtelux_power
-Wl,--defsym=_ZN5telux5power22TcuActivityManagerImpl16registerListenerESt8weak_ptrINS0_20ITcuActivityListenerEE=so_stub_for_libtelux_power
-Wl,--defsym=_ZN5telux5power22TcuActivityManagerImpl16setActivityStateENS0_16TcuActivityStateESt8functionIFvNS_6common9ErrorCodeEEE=so_stub_for_libtelux_power
-Wl,--defsym=_ZN5telux5power22TcuActivityManagerImpl17setCachedTcuStateENS0_16TcuActivityStateE=so_stub_for_libtelux_power
-Wl,--defsym=_ZN5telux5power22TcuActivityManagerImpl18deregisterListenerESt8weak_ptrINS0_20ITcuActivityListenerEE=so_stub_for_libtelux_power
-Wl,--defsym=_ZN5telux5power22TcuActivityManagerImpl20sendActivityStateAckENS0_19TcuActivityStateAckE=so_stub_for_libtelux_power
-Wl,--defsym=_ZN5telux5power22TcuActivityManagerImpl21onTcuStateAckResponseEiPv=so_stub_for_libtelux_power
-Wl,--defsym=_ZN5telux5power22TcuActivityManagerImpl21waitForInitializationEv=so_stub_for_libtelux_power
-Wl,--defsym=_ZN5telux5power22TcuActivityManagerImpl22onSlaveAckStatusUpdateE24pwr_mgr_state_change_v01=so_stub_for_libtelux_power
-Wl,--defsym=_ZN5telux5power22TcuActivityManagerImpl22registerEventsResponseEiP29pwr_mgr_register_resp_msg_v01Pv=so_stub_for_libtelux_power
-Wl,--defsym=_ZN5telux5power22TcuActivityManagerImpl25onTcuStateCommandResponseEiPv=so_stub_for_libtelux_power
-Wl,--defsym=_ZN5telux5power22TcuActivityManagerImpl28registerServiceStateListenerESt8weak_ptrINS_6common22IServiceStatusListenerEE=so_stub_for_libtelux_power
-Wl,--defsym=_ZN5telux5power22TcuActivityManagerImpl30deregisterServiceStateListenerESt8weak_ptrINS_6common22IServiceStatusListenerEE=so_stub_for_libtelux_power
-Wl,--defsym=_ZN5telux5power22TcuActivityManagerImpl32onTcuActivityServiceStatusChangeENS_6common13ServiceStatusE=so_stub_for_libtelux_power
-Wl,--defsym=_ZN5telux5power22TcuActivityManagerImpl4initEv=so_stub_for_libtelux_power
-Wl,--defsym=_ZN5telux5power22TcuActivityManagerImpl7isReadyEv=so_stub_for_libtelux_power
-Wl,--defsym=_ZN5telux5power22TcuActivityManagerImpl7onReadyEv=so_stub_for_libtelux_power
-Wl,--defsym=_ZN5telux5power22TcuActivityManagerImpl8initSyncEv=so_stub_for_libtelux_power
-Wl,--defsym=_ZN5telux5power22TcuActivityManagerImplC1ENS0_10ClientTypeE=so_stub_for_libtelux_power
-Wl,--defsym=_ZN5telux5power22TcuActivityManagerImplC2ENS0_10ClientTypeE=so_stub_for_libtelux_power
-Wl,--defsym=_ZN5telux5power22TcuActivityManagerImplD0Ev=so_stub_for_libtelux_power
-Wl,--defsym=_ZN5telux5power22TcuActivityManagerImplD1Ev=so_stub_for_libtelux_power
-Wl,--defsym=_ZN5telux5power22TcuActivityManagerImplD2Ev=so_stub_for_libtelux_power
-Wl,--defsym=_ZN5telux6common14AsyncTaskQueueIvE14purgeCompletedEv=so_stub_for_libtelux_power
-Wl,--defsym=_ZN5telux6common15ListenerManagerINS0_22IServiceStatusListenerEE16registerListenerESt8weak_ptrIS2_E=so_stub_for_libtelux_power
-Wl,--defsym=_ZN5telux6common15ListenerManagerINS0_22IServiceStatusListenerEE18deRegisterListenerESt8weak_ptrIS2_E=so_stub_for_libtelux_power
-Wl,--defsym=_ZN5telux6common15ListenerManagerINS0_22IServiceStatusListenerEE21getAvailableListenersERSt6vectorISt8weak_ptrIS2_ESaIS6_EE=so_stub_for_libtelux_power
-Wl,--defsym=_ZN5telux6common15ListenerManagerINS_5power20ITcuActivityListenerEE16registerListenerESt8weak_ptrIS3_E=so_stub_for_libtelux_power
-Wl,--defsym=_ZN5telux6common15ListenerManagerINS_5power20ITcuActivityListenerEE18deRegisterListenerESt8weak_ptrIS3_E=so_stub_for_libtelux_power
-Wl,--defsym=_ZN5telux6common15ListenerManagerINS_5power20ITcuActivityListenerEE21getAvailableListenersERSt6vectorISt8weak_ptrIS3_ESaIS7_EE=so_stub_for_libtelux_power
-Wl,--defsym=_ZN5telux6common18FunctionalCallbackIJNS0_9ErrorCodeEEED0Ev=so_stub_for_libtelux_power
-Wl,--defsym=_ZN5telux6common18FunctionalCallbackIJNS0_9ErrorCodeEEED1Ev=so_stub_for_libtelux_power
-Wl,--defsym=_ZN5telux6common18FunctionalCallbackIJNS0_9ErrorCodeEEED2Ev=so_stub_for_libtelux_power
-Wl,--defsym=_ZN5telux6common22CommandCallbackManager11addCallbackIJNS0_9ErrorCodeEEEEiSt8functionIFvDpT_EE=so_stub_for_libtelux_power
-Wl,--defsym=_ZN5telux6common22CommandCallbackManager15executeCallbackIJRNS0_9ErrorCodeEEEEvSt10shared_ptrINS0_16ICommandCallbackEEDpOT_=so_stub_for_libtelux_power
-Wl,--defsym=_ZN5telux6common22IServiceStatusListener21onServiceStatusChangeENS0_13ServiceStatusE=so_stub_for_libtelux_power
-Wl,--defsym=_ZN5telux6common3Log10logMessageIJPKcEEEvNS0_8LogLevelERKNSt7__cxx1112basic_stringIcSt11char_traitsIcESaIcEEESD_RKiDpT_=so_stub_for_libtelux_power
-Wl,--defsym=_ZN5telux6common3Log10logMessageIJPKcS4_bEEEvNS0_8LogLevelERKNSt7__cxx1112basic_stringIcSt11char_traitsIcESaIcEEESD_RKiDpT_=so_stub_for_libtelux_power
-Wl,--defsym=_ZN5telux6common3Log10logMessageIJPKcS4_EEEvNS0_8LogLevelERKNSt7__cxx1112basic_stringIcSt11char_traitsIcESaIcEEESD_RKiDpT_=so_stub_for_libtelux_power
-Wl,--defsym=_ZN5telux6common3Log10logMessageIJPKcS4_iEEEvNS0_8LogLevelERKNSt7__cxx1112basic_stringIcSt11char_traitsIcESaIcEEESD_RKiDpT_=so_stub_for_libtelux_power
-Wl,--defsym=_ZN5telux6common3Log10logMessageIJPKcS4_NSt7__cxx1112basic_stringIcSt11char_traitsIcESaIcEEEEEEvNS0_8LogLevelERKSA_SD_RKiDpT_=so_stub_for_libtelux_power
-Wl,--defsym=_ZN5telux6common3Log10logMessageIJPKcS4_S4_EEEvNS0_8LogLevelERKNSt7__cxx1112basic_stringIcSt11char_traitsIcESaIcEEESD_RKiDpT_=so_stub_for_libtelux_power
-Wl,--defsym=_ZN5telux6common3Log16constructMessageINSt7__cxx1119basic_ostringstreamIcSt11char_traitsIcESaIcEEEPKcJNS3_12basic_stringIcS6_S7_EEEEEvRT_T0_DpT1_=so_stub_for_libtelux_power
-Wl,--defsym=_ZN5telux6common3Log16constructMessageINSt7__cxx1119basic_ostringstreamIcSt11char_traitsIcESaIcEEEPKcJSA_NS3_12basic_stringIcS6_S7_EEEEEvRT_T0_DpT1_=so_stub_for_libtelux_power
-Wl,--defsym=_ZN9__gnu_cxx5__ops10_Iter_predIZN5telux6common15ListenerManagerINS2_5power20ITcuActivityListenerEE16registerListenerESt8weak_ptrIS6_EEUlS9_E_EclINS_17__normal_iteratorIPS9_St6vectorIS9_SaIS9_EEEEEEbT_=so_stub_for_libtelux_power
-Wl,--defsym=_ZN9__gnu_cxx5__ops10_Iter_predIZN5telux6common15ListenerManagerINS3_22IServiceStatusListenerEE16registerListenerESt8weak_ptrIS5_EEUlS8_E_EclINS_17__normal_iteratorIPS8_St6vectorIS8_SaIS8_EEEEEEbT_=so_stub_for_libtelux_power
-Wl,--defsym=_ZNKSt13__future_base13_State_baseV221_M_is_deferred_futureEv=so_stub_for_libtelux_power
-Wl,--defsym=_ZNKSt14__basic_futureIbE13_M_get_resultEv=so_stub_for_libtelux_power
-Wl,--defsym=_ZNKSt6vectorISt8weak_ptrIN5telux5power20ITcuActivityListenerEESaIS4_EE12_M_check_lenEjPKc=so_stub_for_libtelux_power
-Wl,--defsym=_ZNKSt6vectorISt8weak_ptrIN5telux6common22IServiceStatusListenerEESaIS4_EE12_M_check_lenEjPKc=so_stub_for_libtelux_power
-Wl,--defsym=_ZNSt10_HashtableIiSt4pairIKiSt10shared_ptrIN5telux6common16ICommandCallbackEEESaIS7_ENSt8__detail10_Select1stESt8equal_toIiESt4hashIiENS9_18_Mod_range_hashingENS9_20_Default_ranged_hashENS9_20_Prime_rehash_policyENS9_17_Hashtable_traitsILb0ELb0ELb1EEEE13_M_rehash_auxEjSt17integral_constantIbLb1EE=so_stub_for_libtelux_power
-Wl,--defsym=_ZNSt10_HashtableIiSt4pairIKiSt10shared_ptrIN5telux6common16ICommandCallbackEEESaIS7_ENSt8__detail10_Select1stESt8equal_toIiESt4hashIiENS9_18_Mod_range_hashingENS9_20_Default_ranged_hashENS9_20_Prime_rehash_policyENS9_17_Hashtable_traitsILb0ELb0ELb1EEEE21_M_insert_unique_nodeEjjPNS9_10_Hash_nodeIS7_Lb0EEEj=so_stub_for_libtelux_power
-Wl,--defsym=_ZNSt10_HashtableIiSt4pairIKiSt10shared_ptrIN5telux6common16ICommandCallbackEEESaIS7_ENSt8__detail10_Select1stESt8equal_toIiESt4hashIiENS9_18_Mod_range_hashingENS9_20_Default_ranged_hashENS9_20_Prime_rehash_policyENS9_17_Hashtable_traitsILb0ELb0ELb1EEEE9_M_rehashEjRKj=so_stub_for_libtelux_power
-Wl,--defsym=_ZNSt11__copy_moveILb1ELb0ESt26random_access_iterator_tagE8__copy_mIPSt13shared_futureIvES5_EET0_T_S7_S6_=so_stub_for_libtelux_power
-Wl,--defsym=_ZNSt11__copy_moveILb1ELb0ESt26random_access_iterator_tagE8__copy_mIPSt8weak_ptrIN5telux5power20ITcuActivityListenerEES8_EET0_T_SA_S9_=so_stub_for_libtelux_power
-Wl,--defsym=_ZNSt11__copy_moveILb1ELb0ESt26random_access_iterator_tagE8__copy_mIPSt8weak_ptrIN5telux6common22IServiceStatusListenerEES8_EET0_T_SA_S9_=so_stub_for_libtelux_power
-Wl,--defsym=_ZNSt11_Deque_baseISt13shared_futureIvESaIS1_EE15_M_create_nodesEPPS1_S5_=so_stub_for_libtelux_power
-Wl,--defsym=_ZNSt11_Deque_baseISt13shared_futureIvESaIS1_EE17_M_initialize_mapEj=so_stub_for_libtelux_power
-Wl,--defsym=_ZNSt11_Deque_baseISt13shared_futureIvESaIS1_EED1Ev=so_stub_for_libtelux_power
-Wl,--defsym=_ZNSt11_Deque_baseISt13shared_futureIvESaIS1_EED2Ev=so_stub_for_libtelux_power
-Wl,--defsym=_ZNSt12future_errorC1ESt10error_code=so_stub_for_libtelux_power
-Wl,--defsym=_ZNSt12future_errorC2ESt10error_code=so_stub_for_libtelux_power
-Wl,--defsym=_ZNSt12__shared_ptrIN5telux5power17ModemStateUpdaterELN9__gnu_cxx12_Lock_policyE2EEC1ISaIS2_EJEEESt19_Sp_make_shared_tagRKT_DpOT0_=so_stub_for_libtelux_power
-Wl,--defsym=_ZNSt12__shared_ptrIN5telux5power17ModemStateUpdaterELN9__gnu_cxx12_Lock_policyE2EEC2ISaIS2_EJEEESt19_Sp_make_shared_tagRKT_DpOT0_=so_stub_for_libtelux_power
-Wl,--defsym=_ZNSt12__shared_ptrIN5telux5power20ITcuActivityListenerELN9__gnu_cxx12_Lock_policyE2EEC1ERKSt10__weak_ptrIS2_LS4_2EESt9nothrow_t=so_stub_for_libtelux_power
-Wl,--defsym=_ZNSt12__shared_ptrIN5telux5power20ITcuActivityListenerELN9__gnu_cxx12_Lock_policyE2EEC2ERKSt10__weak_ptrIS2_LS4_2EESt9nothrow_t=so_stub_for_libtelux_power
-Wl,--defsym=_ZNSt12__shared_ptrIN5telux5power22TcuActivityManagerImplELN9__gnu_cxx12_Lock_policyE2EEC1ISaIS2_EJRNS1_10ClientTypeEEEESt19_Sp_make_shared_tagRKT_DpOT0_=so_stub_for_libtelux_power
-Wl,--defsym=_ZNSt12__shared_ptrIN5telux5power22TcuActivityManagerImplELN9__gnu_cxx12_Lock_policyE2EEC2ISaIS2_EJRNS1_10ClientTypeEEEESt19_Sp_make_shared_tagRKT_DpOT0_=so_stub_for_libtelux_power
-Wl,--defsym=_ZNSt12__shared_ptrIN5telux6common15ListenerManagerINS0_5power20ITcuActivityListenerEEELN9__gnu_cxx12_Lock_policyE2EEC1ISaIS5_EJEEESt19_Sp_make_shared_tagRKT_DpOT0_=so_stub_for_libtelux_power
-Wl,--defsym=_ZNSt12__shared_ptrIN5telux6common15ListenerManagerINS0_5power20ITcuActivityListenerEEELN9__gnu_cxx12_Lock_policyE2EEC2ISaIS5_EJEEESt19_Sp_make_shared_tagRKT_DpOT0_=so_stub_for_libtelux_power
-Wl,--defsym=_ZNSt12__shared_ptrIN5telux6common15ListenerManagerINS1_22IServiceStatusListenerEEELN9__gnu_cxx12_Lock_policyE2EEC1ISaIS4_EJEEESt19_Sp_make_shared_tagRKT_DpOT0_=so_stub_for_libtelux_power
-Wl,--defsym=_ZNSt12__shared_ptrIN5telux6common15ListenerManagerINS1_22IServiceStatusListenerEEELN9__gnu_cxx12_Lock_policyE2EEC2ISaIS4_EJEEESt19_Sp_make_shared_tagRKT_DpOT0_=so_stub_for_libtelux_power
-Wl,--defsym=_ZNSt12__shared_ptrIN5telux6common22IServiceStatusListenerELN9__gnu_cxx12_Lock_policyE2EEC1ERKSt10__weak_ptrIS2_LS4_2EESt9nothrow_t=so_stub_for_libtelux_power
-Wl,--defsym=_ZNSt12__shared_ptrIN5telux6common22IServiceStatusListenerELN9__gnu_cxx12_Lock_policyE2EEC2ERKSt10__weak_ptrIS2_LS4_2EESt9nothrow_t=so_stub_for_libtelux_power
-Wl,--defsym=_ZNSt13__future_base13_State_baseV210wait_untilINSt6chrono3_V212system_clockENS2_8durationIxSt5ratioILx1ELx1000000000EEEEEESt13future_statusRKNS2_10time_pointIT_T0_EE=so_stub_for_libtelux_power
-Wl,--defsym=_ZNSt13__future_base13_State_baseV213_M_set_resultESt8functionIFSt10unique_ptrINS_12_Result_baseENS3_8_DeleterEEvEEb=so_stub_for_libtelux_power
-Wl,--defsym=_ZNSt13__future_base13_State_baseV216_M_break_promiseESt10unique_ptrINS_12_Result_baseENS2_8_DeleterEE=so_stub_for_libtelux_power
-Wl,--defsym=_ZNSt13__future_base13_State_baseV217_M_complete_asyncEv=so_stub_for_libtelux_power
-Wl,--defsym=_ZNSt13__future_base13_State_baseV24waitEv=so_stub_for_libtelux_power
-Wl,--defsym=_ZNSt13__future_base13_State_baseV29_M_do_setEPSt8functionIFSt10unique_ptrINS_12_Result_baseENS3_8_DeleterEEvEEPb=so_stub_for_libtelux_power
-Wl,--defsym=_ZNSt13__future_base13_State_baseV2D0Ev=so_stub_for_libtelux_power
-Wl,--defsym=_ZNSt13__future_base13_State_baseV2D1Ev=so_stub_for_libtelux_power
-Wl,--defsym=_ZNSt13__future_base13_State_baseV2D2Ev=so_stub_for_libtelux_power
-Wl,--defsym=_ZNSt13__future_base21_Async_state_commonV217_M_complete_asyncEv=so_stub_for_libtelux_power
-Wl,--defsym=_ZNSt13__future_base21_Async_state_commonV2D0Ev=so_stub_for_libtelux_power
-Wl,--defsym=_ZNSt13__future_base21_Async_state_commonV2D1Ev=so_stub_for_libtelux_power
-Wl,--defsym=_ZNSt13__future_base21_Async_state_commonV2D2Ev=so_stub_for_libtelux_power
-Wl,--defsym=_ZNSt13__future_base7_ResultIbE10_M_destroyEv=so_stub_for_libtelux_power
-Wl,--defsym=_ZNSt13__future_base7_ResultIbED0Ev=so_stub_for_libtelux_power
-Wl,--defsym=_ZNSt13__future_base7_ResultIbED1Ev=so_stub_for_libtelux_power
-Wl,--defsym=_ZNSt13__future_base7_ResultIbED2Ev=so_stub_for_libtelux_power
-Wl,--defsym=_ZNSt13__future_base7_ResultIvE10_M_destroyEv=so_stub_for_libtelux_power
-Wl,--defsym=_ZNSt13__future_base7_ResultIvED0Ev=so_stub_for_libtelux_power
-Wl,--defsym=_ZNSt13__future_base7_ResultIvED1Ev=so_stub_for_libtelux_power
-Wl,--defsym=_ZNSt13__future_base7_ResultIvED2Ev=so_stub_for_libtelux_power
-Wl,--defsym=_ZNSt14__basic_futureIbEC1ERKSt10shared_ptrINSt13__future_base13_State_baseV2EE=so_stub_for_libtelux_power
-Wl,--defsym=_ZNSt14__basic_futureIbEC2ERKSt10shared_ptrINSt13__future_base13_State_baseV2EE=so_stub_for_libtelux_power
-Wl,--defsym=_ZNSt14__basic_futureIvEC1ERKSt10shared_ptrINSt13__future_base13_State_baseV2EE=so_stub_for_libtelux_power
-Wl,--defsym=_ZNSt14__basic_futureIvEC2ERKSt10shared_ptrINSt13__future_base13_State_baseV2EE=so_stub_for_libtelux_power
-Wl,--defsym=_ZNSt14__shared_countILN9__gnu_cxx12_Lock_policyE2EEC1IN5telux5power17ModemStateUpdaterESaIS6_EJEEESt19_Sp_make_shared_tagPT_RKT0_DpOT1_=so_stub_for_libtelux_power
-Wl,--defsym=_ZNSt14__shared_countILN9__gnu_cxx12_Lock_policyE2EEC1IN5telux6common18FunctionalCallbackIJNS5_9ErrorCodeEEEESaIS8_EJRSt8functionIFvS7_EEEEESt19_Sp_make_shared_tagPT_RKT0_DpOT1_=so_stub_for_libtelux_power
-Wl,--defsym=_ZNSt14__shared_countILN9__gnu_cxx12_Lock_policyE2EEC2IN5telux5power17ModemStateUpdaterESaIS6_EJEEESt19_Sp_make_shared_tagPT_RKT0_DpOT1_=so_stub_for_libtelux_power
-Wl,--defsym=_ZNSt14__shared_countILN9__gnu_cxx12_Lock_policyE2EEC2IN5telux6common18FunctionalCallbackIJNS5_9ErrorCodeEEEESaIS8_EJRSt8functionIFvS7_EEEEESt19_Sp_make_shared_tagPT_RKT0_DpOT1_=so_stub_for_libtelux_power
-Wl,--defsym=_ZNSt15_Deque_iteratorISt13shared_futureIvERS1_PS1_EpLEi=so_stub_for_libtelux_power
-Wl,--defsym=_ZNSt15__exception_ptr12__dest_thunkISt12future_errorEEvPv=so_stub_for_libtelux_power
-Wl,--defsym=_ZNSt16_Sp_counted_baseILN9__gnu_cxx12_Lock_policyE2EE10_M_releaseEv=so_stub_for_libtelux_power
-Wl,--defsym=_ZNSt16_Sp_counted_baseILN9__gnu_cxx12_Lock_policyE2EE15_M_weak_releaseEv=so_stub_for_libtelux_power
-Wl,--defsym=_ZNSt20__copy_move_backwardILb1ELb0ESt26random_access_iterator_tagE13__copy_move_bIPSt13shared_futureIvES5_EET0_T_S7_S6_=so_stub_for_libtelux_power
-Wl,--defsym=_ZNSt23__atomic_futex_unsignedILj2147483648EE22_M_load_and_test_untilEjjbSt12memory_orderbNSt6chrono8durationIxSt5ratioILx1ELx1EEEENS3_IxS4_ILx1ELx1000000000EEEE=so_stub_for_libtelux_power
-Wl,--defsym=_ZNSt23_Sp_counted_ptr_inplaceIN5telux5power17ModemStateUpdaterESaIS2_ELN9__gnu_cxx12_Lock_policyE2EE10_M_destroyEv=so_stub_for_libtelux_power
-Wl,--defsym=_ZNSt23_Sp_counted_ptr_inplaceIN5telux5power17ModemStateUpdaterESaIS2_ELN9__gnu_cxx12_Lock_policyE2EE10_M_disposeEv=so_stub_for_libtelux_power
-Wl,--defsym=_ZNSt23_Sp_counted_ptr_inplaceIN5telux5power17ModemStateUpdaterESaIS2_ELN9__gnu_cxx12_Lock_policyE2EE14_M_get_deleterERKSt9type_info=so_stub_for_libtelux_power
-Wl,--defsym=_ZNSt23_Sp_counted_ptr_inplaceIN5telux5power17ModemStateUpdaterESaIS2_ELN9__gnu_cxx12_Lock_policyE2EED0Ev=so_stub_for_libtelux_power
-Wl,--defsym=_ZNSt23_Sp_counted_ptr_inplaceIN5telux5power17ModemStateUpdaterESaIS2_ELN9__gnu_cxx12_Lock_policyE2EED1Ev=so_stub_for_libtelux_power
-Wl,--defsym=_ZNSt23_Sp_counted_ptr_inplaceIN5telux5power17ModemStateUpdaterESaIS2_ELN9__gnu_cxx12_Lock_policyE2EED2Ev=so_stub_for_libtelux_power
-Wl,--defsym=_ZNSt23_Sp_counted_ptr_inplaceIN5telux5power22TcuActivityManagerImplESaIS2_ELN9__gnu_cxx12_Lock_policyE2EE10_M_destroyEv=so_stub_for_libtelux_power
-Wl,--defsym=_ZNSt23_Sp_counted_ptr_inplaceIN5telux5power22TcuActivityManagerImplESaIS2_ELN9__gnu_cxx12_Lock_policyE2EE10_M_disposeEv=so_stub_for_libtelux_power
-Wl,--defsym=_ZNSt23_Sp_counted_ptr_inplaceIN5telux5power22TcuActivityManagerImplESaIS2_ELN9__gnu_cxx12_Lock_policyE2EE14_M_get_deleterERKSt9type_info=so_stub_for_libtelux_power
-Wl,--defsym=_ZNSt23_Sp_counted_ptr_inplaceIN5telux5power22TcuActivityManagerImplESaIS2_ELN9__gnu_cxx12_Lock_policyE2EED0Ev=so_stub_for_libtelux_power
-Wl,--defsym=_ZNSt23_Sp_counted_ptr_inplaceIN5telux5power22TcuActivityManagerImplESaIS2_ELN9__gnu_cxx12_Lock_policyE2EED1Ev=so_stub_for_libtelux_power
-Wl,--defsym=_ZNSt23_Sp_counted_ptr_inplaceIN5telux5power22TcuActivityManagerImplESaIS2_ELN9__gnu_cxx12_Lock_policyE2EED2Ev=so_stub_for_libtelux_power
-Wl,--defsym=_ZNSt23_Sp_counted_ptr_inplaceIN5telux6common15ListenerManagerINS0_5power20ITcuActivityListenerEEESaIS5_ELN9__gnu_cxx12_Lock_policyE2EE10_M_destroyEv=so_stub_for_libtelux_power
-Wl,--defsym=_ZNSt23_Sp_counted_ptr_inplaceIN5telux6common15ListenerManagerINS0_5power20ITcuActivityListenerEEESaIS5_ELN9__gnu_cxx12_Lock_policyE2EE10_M_disposeEv=so_stub_for_libtelux_power
-Wl,--defsym=_ZNSt23_Sp_counted_ptr_inplaceIN5telux6common15ListenerManagerINS0_5power20ITcuActivityListenerEEESaIS5_ELN9__gnu_cxx12_Lock_policyE2EE14_M_get_deleterERKSt9type_info=so_stub_for_libtelux_power
-Wl,--defsym=_ZNSt23_Sp_counted_ptr_inplaceIN5telux6common15ListenerManagerINS0_5power20ITcuActivityListenerEEESaIS5_ELN9__gnu_cxx12_Lock_policyE2EED0Ev=so_stub_for_libtelux_power
-Wl,--defsym=_ZNSt23_Sp_counted_ptr_inplaceIN5telux6common15ListenerManagerINS0_5power20ITcuActivityListenerEEESaIS5_ELN9__gnu_cxx12_Lock_policyE2EED1Ev=so_stub_for_libtelux_power
-Wl,--defsym=_ZNSt23_Sp_counted_ptr_inplaceIN5telux6common15ListenerManagerINS0_5power20ITcuActivityListenerEEESaIS5_ELN9__gnu_cxx12_Lock_policyE2EED2Ev=so_stub_for_libtelux_power
-Wl,--defsym=_ZNSt23_Sp_counted_ptr_inplaceIN5telux6common15ListenerManagerINS1_22IServiceStatusListenerEEESaIS4_ELN9__gnu_cxx12_Lock_policyE2EE10_M_destroyEv=so_stub_for_libtelux_power
-Wl,--defsym=_ZNSt23_Sp_counted_ptr_inplaceIN5telux6common15ListenerManagerINS1_22IServiceStatusListenerEEESaIS4_ELN9__gnu_cxx12_Lock_policyE2EE10_M_disposeEv=so_stub_for_libtelux_power
-Wl,--defsym=_ZNSt23_Sp_counted_ptr_inplaceIN5telux6common15ListenerManagerINS1_22IServiceStatusListenerEEESaIS4_ELN9__gnu_cxx12_Lock_policyE2EE14_M_get_deleterERKSt9type_info=so_stub_for_libtelux_power
-Wl,--defsym=_ZNSt23_Sp_counted_ptr_inplaceIN5telux6common15ListenerManagerINS1_22IServiceStatusListenerEEESaIS4_ELN9__gnu_cxx12_Lock_policyE2EED0Ev=so_stub_for_libtelux_power
-Wl,--defsym=_ZNSt23_Sp_counted_ptr_inplaceIN5telux6common15ListenerManagerINS1_22IServiceStatusListenerEEESaIS4_ELN9__gnu_cxx12_Lock_policyE2EED1Ev=so_stub_for_libtelux_power
-Wl,--defsym=_ZNSt23_Sp_counted_ptr_inplaceIN5telux6common15ListenerManagerINS1_22IServiceStatusListenerEEESaIS4_ELN9__gnu_cxx12_Lock_policyE2EED2Ev=so_stub_for_libtelux_power
-Wl,--defsym=_ZNSt23_Sp_counted_ptr_inplaceIN5telux6common18FunctionalCallbackIJNS1_9ErrorCodeEEEESaIS4_ELN9__gnu_cxx12_Lock_policyE2EE10_M_destroyEv=so_stub_for_libtelux_power
-Wl,--defsym=_ZNSt23_Sp_counted_ptr_inplaceIN5telux6common18FunctionalCallbackIJNS1_9ErrorCodeEEEESaIS4_ELN9__gnu_cxx12_Lock_policyE2EE10_M_disposeEv=so_stub_for_libtelux_power
-Wl,--defsym=_ZNSt23_Sp_counted_ptr_inplaceIN5telux6common18FunctionalCallbackIJNS1_9ErrorCodeEEEESaIS4_ELN9__gnu_cxx12_Lock_policyE2EE14_M_get_deleterERKSt9type_info=so_stub_for_libtelux_power
-Wl,--defsym=_ZNSt23_Sp_counted_ptr_inplaceIN5telux6common18FunctionalCallbackIJNS1_9ErrorCodeEEEESaIS4_ELN9__gnu_cxx12_Lock_policyE2EED0Ev=so_stub_for_libtelux_power
-Wl,--defsym=_ZNSt23_Sp_counted_ptr_inplaceIN5telux6common18FunctionalCallbackIJNS1_9ErrorCodeEEEESaIS4_ELN9__gnu_cxx12_Lock_policyE2EED1Ev=so_stub_for_libtelux_power
-Wl,--defsym=_ZNSt23_Sp_counted_ptr_inplaceIN5telux6common18FunctionalCallbackIJNS1_9ErrorCodeEEEESaIS4_ELN9__gnu_cxx12_Lock_policyE2EED2Ev=so_stub_for_libtelux_power
-Wl,--defsym=_ZNSt5dequeISt13shared_futureIvESaIS1_EE16_M_push_back_auxIJRKS1_EEEvDpOT_=so_stub_for_libtelux_power
-Wl,--defsym=_ZNSt5dequeISt13shared_futureIvESaIS1_EE19_M_destroy_data_auxESt15_Deque_iteratorIS1_RS1_PS1_ES7_=so_stub_for_libtelux_power
-Wl,--defsym=_ZNSt5dequeISt13shared_futureIvESaIS1_EE8_M_eraseESt15_Deque_iteratorIS1_RS1_PS1_E=so_stub_for_libtelux_power
-Wl,--defsym=_ZNSt5dequeISt13shared_futureIvESaIS1_EE8pop_backEv=so_stub_for_libtelux_power
-Wl,--defsym=_ZNSt5dequeISt13shared_futureIvESaIS1_EE9pop_frontEv=so_stub_for_libtelux_power
-Wl,--defsym=_ZNSt5dequeISt13shared_futureIvESaIS1_EE9push_backERKS1_=so_stub_for_libtelux_power
-Wl,--defsym=_ZNSt5dequeISt13shared_futureIvESaIS1_EED1Ev=so_stub_for_libtelux_power
-Wl,--defsym=_ZNSt5dequeISt13shared_futureIvESaIS1_EED2Ev=so_stub_for_libtelux_power
-Wl,--defsym=_ZNSt6futureIbE3getEv=so_stub_for_libtelux_power
-Wl,--defsym=_ZNSt6vectorISt8weak_ptrIN5telux5power20ITcuActivityListenerEESaIS4_EE17_M_realloc_insertIJRS4_EEEvN9__gnu_cxx17__normal_iteratorIPS4_S6_EEDpOT_=so_stub_for_libtelux_power
-Wl,--defsym=_ZNSt6vectorISt8weak_ptrIN5telux5power20ITcuActivityListenerEESaIS4_EE17_M_realloc_insertIJRSt10shared_ptrIS3_EEEEvN9__gnu_cxx17__normal_iteratorIPS4_S6_EEDpOT_=so_stub_for_libtelux_power
-Wl,--defsym=_ZNSt6vectorISt8weak_ptrIN5telux5power20ITcuActivityListenerEESaIS4_EE8_M_eraseEN9__gnu_cxx17__normal_iteratorIPS4_S6_EE=so_stub_for_libtelux_power
-Wl,--defsym=_ZNSt6vectorISt8weak_ptrIN5telux5power20ITcuActivityListenerEESaIS4_EED1Ev=so_stub_for_libtelux_power
-Wl,--defsym=_ZNSt6vectorISt8weak_ptrIN5telux5power20ITcuActivityListenerEESaIS4_EED2Ev=so_stub_for_libtelux_power
-Wl,--defsym=_ZNSt6vectorISt8weak_ptrIN5telux6common22IServiceStatusListenerEESaIS4_EE17_M_realloc_insertIJRS4_EEEvN9__gnu_cxx17__normal_iteratorIPS4_S6_EEDpOT_=so_stub_for_libtelux_power
-Wl,--defsym=_ZNSt6vectorISt8weak_ptrIN5telux6common22IServiceStatusListenerEESaIS4_EE17_M_realloc_insertIJRSt10shared_ptrIS3_EEEEvN9__gnu_cxx17__normal_iteratorIPS4_S6_EEDpOT_=so_stub_for_libtelux_power
-Wl,--defsym=_ZNSt6vectorISt8weak_ptrIN5telux6common22IServiceStatusListenerEESaIS4_EE8_M_eraseEN9__gnu_cxx17__normal_iteratorIPS4_S6_EE=so_stub_for_libtelux_power
-Wl,--defsym=_ZNSt6vectorISt8weak_ptrIN5telux6common22IServiceStatusListenerEESaIS4_EED1Ev=so_stub_for_libtelux_power
-Wl,--defsym=_ZNSt6vectorISt8weak_ptrIN5telux6common22IServiceStatusListenerEESaIS4_EED2Ev=so_stub_for_libtelux_power
-Wl,--defsym=_ZNSt7__cxx1112basic_stringIcSt11char_traitsIcESaIcEE12_M_constructIPcEEvT_S7_St20forward_iterator_tag=so_stub_for_libtelux_power
-Wl,--defsym=_ZNSt7__cxx1112basic_stringIcSt11char_traitsIcESaIcEE12_M_constructIPKcEEvT_S8_St20forward_iterator_tag=so_stub_for_libtelux_power
-Wl,--defsym=_ZNSt8__detail9_Map_baseIiSt4pairIKiSt10shared_ptrIN5telux6common16ICommandCallbackEEESaIS8_ENS_10_Select1stESt8equal_toIiESt4hashIiENS_18_Mod_range_hashingENS_20_Default_ranged_hashENS_20_Prime_rehash_policyENS_17_Hashtable_traitsILb0ELb0ELb1EEELb1EEixERS2_=so_stub_for_libtelux_power
-Wl,--defsym=_ZNSt8functionIFvN5telux6common9ErrorCodeEEEC1ERKS4_=so_stub_for_libtelux_power
-Wl,--defsym=_ZNSt8functionIFvN5telux6common9ErrorCodeEEEC2ERKS4_=so_stub_for_libtelux_power
-Wl,--defsym=_ZSt13move_backwardISt13shared_futureIvEESt15_Deque_iteratorIT_RS3_PS3_ES2_IS3_RKS3_PS7_ESA_S6_=so_stub_for_libtelux_power
-Wl,--defsym=_ZSt18make_exception_ptrISt12future_errorENSt15__exception_ptr13exception_ptrET_=so_stub_for_libtelux_power
-Wl,--defsym=_ZSt20__throw_bad_weak_ptrv=so_stub_for_libtelux_power
-Wl,--defsym=_ZSt4moveISt13shared_futureIvEESt15_Deque_iteratorIT_RS3_PS3_ES6_S6_S6_=so_stub_for_libtelux_power
-Wl,--defsym=_ZSt7find_ifIN9__gnu_cxx17__normal_iteratorIPSt8weak_ptrIN5telux5power20ITcuActivityListenerEESt6vectorIS6_SaIS6_EEEEZNS3_6common15ListenerManagerIS5_E16registerListenerES6_EUlS6_E_ET_SG_SG_T0_=so_stub_for_libtelux_power
-Wl,--defsym=_ZSt7find_ifIN9__gnu_cxx17__normal_iteratorIPSt8weak_ptrIN5telux6common22IServiceStatusListenerEESt6vectorIS6_SaIS6_EEEEZNS4_15ListenerManagerIS5_E16registerListenerES6_EUlS6_E_ET_SF_SF_T0_=so_stub_for_libtelux_power
-Wl,--defsym=_ZSt9__find_ifIN9__gnu_cxx17__normal_iteratorIPSt8weak_ptrIN5telux5power20ITcuActivityListenerEESt6vectorIS6_SaIS6_EEEENS0_5__ops10_Iter_predIZNS3_6common15ListenerManagerIS5_E16registerListenerES6_EUlS6_E_EEET_SJ_SJ_T0_=so_stub_for_libtelux_power
-Wl,--defsym=_ZSt9__find_ifIN9__gnu_cxx17__normal_iteratorIPSt8weak_ptrIN5telux5power20ITcuActivityListenerEESt6vectorIS6_SaIS6_EEEENS0_5__ops10_Iter_predIZNS3_6common15ListenerManagerIS5_E16registerListenerES6_EUlS6_E_EEET_SJ_SJ_T0_St26random_access_iterator_tag=so_stub_for_libtelux_power
-Wl,--defsym=_ZSt9__find_ifIN9__gnu_cxx17__normal_iteratorIPSt8weak_ptrIN5telux6common22IServiceStatusListenerEESt6vectorIS6_SaIS6_EEEENS0_5__ops10_Iter_predIZNS4_15ListenerManagerIS5_E16registerListenerES6_EUlS6_E_EEET_SI_SI_T0_=so_stub_for_libtelux_power
-Wl,--defsym=_ZSt9__find_ifIN9__gnu_cxx17__normal_iteratorIPSt8weak_ptrIN5telux6common22IServiceStatusListenerEESt6vectorIS6_SaIS6_EEEENS0_5__ops10_Iter_predIZNS4_15ListenerManagerIS5_E16registerListenerES6_EUlS6_E_EEET_SI_SI_T0_St26random_access_iterator_tag=so_stub_for_libtelux_power
-Wl,--defsym=_ZSteqRKSt10error_codeRKSt15error_condition=so_stub_for_libtelux_power
-Wl,--defsym=_ZThn12_N5telux5power22TcuActivityManagerImpl21onTcuStateAckResponseEiPv=so_stub_for_libtelux_power
-Wl,--defsym=_ZThn12_N5telux5power22TcuActivityManagerImplD0Ev=so_stub_for_libtelux_power
-Wl,--defsym=_ZThn12_N5telux5power22TcuActivityManagerImplD1Ev=so_stub_for_libtelux_power
-Wl,--defsym=_ZThn16_N5telux5power22TcuActivityManagerImpl25onTcuStateCommandResponseEiPv=so_stub_for_libtelux_power
-Wl,--defsym=_ZThn16_N5telux5power22TcuActivityManagerImplD0Ev=so_stub_for_libtelux_power
-Wl,--defsym=_ZThn16_N5telux5power22TcuActivityManagerImplD1Ev=so_stub_for_libtelux_power
-Wl,--defsym=_ZThn4_N5telux5power17ModemStateUpdater33onSendDeviceActivityStateResponseEiPv=so_stub_for_libtelux_power
-Wl,--defsym=_ZThn4_N5telux5power17ModemStateUpdaterD0Ev=so_stub_for_libtelux_power
-Wl,--defsym=_ZThn4_N5telux5power17ModemStateUpdaterD1Ev=so_stub_for_libtelux_power
-Wl,--defsym=_ZThn4_N5telux5power22TcuActivityManagerImpl16onTcuStateUpdateEP36pwr_mgr_broadcast_indication_msg_v01=so_stub_for_libtelux_power
-Wl,--defsym=_ZThn4_N5telux5power22TcuActivityManagerImpl22onSlaveAckStatusUpdateE24pwr_mgr_state_change_v01=so_stub_for_libtelux_power
-Wl,--defsym=_ZThn4_N5telux5power22TcuActivityManagerImpl32onTcuActivityServiceStatusChangeENS_6common13ServiceStatusE=so_stub_for_libtelux_power
-Wl,--defsym=_ZThn4_N5telux5power22TcuActivityManagerImplD0Ev=so_stub_for_libtelux_power
-Wl,--defsym=_ZThn4_N5telux5power22TcuActivityManagerImplD1Ev=so_stub_for_libtelux_power
-Wl,--defsym=_ZThn8_N5telux5power17ModemStateUpdater31onDmsIndicationRegisterResponseEiPv=so_stub_for_libtelux_power
-Wl,--defsym=_ZThn8_N5telux5power17ModemStateUpdaterD0Ev=so_stub_for_libtelux_power
-Wl,--defsym=_ZThn8_N5telux5power17ModemStateUpdaterD1Ev=so_stub_for_libtelux_power
-Wl,--defsym=_ZThn8_N5telux5power22TcuActivityManagerImpl22registerEventsResponseEiP29pwr_mgr_register_resp_msg_v01Pv=so_stub_for_libtelux_power
-Wl,--defsym=_ZThn8_N5telux5power22TcuActivityManagerImplD0Ev=so_stub_for_libtelux_power
-Wl,--defsym=_ZThn8_N5telux5power22TcuActivityManagerImplD1Ev=so_stub_for_libtelux_power
-Wl,--defsym=_ZTIN5telux3qmi12IQmiListenerE=so_stub_for_libtelux_power
-Wl,--defsym=_ZTIN5telux3qmi15IQmiDmsListenerE=so_stub_for_libtelux_power
-Wl,--defsym=_ZTIN5telux3qmi23IQmiTcuActivityListenerE=so_stub_for_libtelux_power
-Wl,--defsym=_ZTIN5telux3qmi23IQmiTcuStateAckCallbackE=so_stub_for_libtelux_power
-Wl,--defsym=_ZTIN5telux3qmi27IQmiTcuStateCommandCallbackE=so_stub_for_libtelux_power
-Wl,--defsym=_ZTIN5telux3qmi31IQmiDeviceActivityStateCallbackE=so_stub_for_libtelux_power
-Wl,--defsym=_ZTIN5telux3qmi33IQmiRegisterDmsIndicationCallbackE=so_stub_for_libtelux_power
-Wl,--defsym=_ZTIN5telux3qmi33IQmiRegisterTcuStateEventCallbackE=so_stub_for_libtelux_power
-Wl,--defsym=_ZTIN5telux5power17ModemStateUpdaterE=so_stub_for_libtelux_power
-Wl,--defsym=_ZTIN5telux5power19ITcuActivityManagerE=so_stub_for_libtelux_power
-Wl,--defsym=_ZTIN5telux5power22TcuActivityManagerImplE=so_stub_for_libtelux_power
-Wl,--defsym=_ZTIN5telux6common16ICommandCallbackE=so_stub_for_libtelux_power
-Wl,--defsym=_ZTIN5telux6common18FunctionalCallbackIJNS0_9ErrorCodeEEEE=so_stub_for_libtelux_power
-Wl,--defsym=_ZTINSt13__future_base13_State_baseV2E=so_stub_for_libtelux_power
-Wl,--defsym=_ZTINSt13__future_base21_Async_state_commonV2E=so_stub_for_libtelux_power
-Wl,--defsym=_ZTINSt13__future_base7_ResultIbEE=so_stub_for_libtelux_power
-Wl,--defsym=_ZTINSt13__future_base7_ResultIvEE=so_stub_for_libtelux_power
-Wl,--defsym=_ZTISt11_Mutex_baseILN9__gnu_cxx12_Lock_policyE2EE=so_stub_for_libtelux_power
-Wl,--defsym=_ZTISt16_Sp_counted_baseILN9__gnu_cxx12_Lock_policyE2EE=so_stub_for_libtelux_power
-Wl,--defsym=_ZTISt19_Sp_make_shared_tag=so_stub_for_libtelux_power
-Wl,--defsym=_ZTISt23enable_shared_from_thisIN5telux5power17ModemStateUpdaterEE=so_stub_for_libtelux_power
-Wl,--defsym=_ZTISt23enable_shared_from_thisIN5telux5power22TcuActivityManagerImplEE=so_stub_for_libtelux_power
-Wl,--defsym=_ZTISt23_Sp_counted_ptr_inplaceIN5telux5power17ModemStateUpdaterESaIS2_ELN9__gnu_cxx12_Lock_policyE2EE=so_stub_for_libtelux_power
-Wl,--defsym=_ZTISt23_Sp_counted_ptr_inplaceIN5telux5power22TcuActivityManagerImplESaIS2_ELN9__gnu_cxx12_Lock_policyE2EE=so_stub_for_libtelux_power
-Wl,--defsym=_ZTISt23_Sp_counted_ptr_inplaceIN5telux6common15ListenerManagerINS0_5power20ITcuActivityListenerEEESaIS5_ELN9__gnu_cxx12_Lock_policyE2EE=so_stub_for_libtelux_power
-Wl,--defsym=_ZTISt23_Sp_counted_ptr_inplaceIN5telux6common15ListenerManagerINS1_22IServiceStatusListenerEEESaIS4_ELN9__gnu_cxx12_Lock_policyE2EE=so_stub_for_libtelux_power
-Wl,--defsym=_ZTISt23_Sp_counted_ptr_inplaceIN5telux6common18FunctionalCallbackIJNS1_9ErrorCodeEEEESaIS4_ELN9__gnu_cxx12_Lock_policyE2EE=so_stub_for_libtelux_power
-Wl,--defsym=_ZTSN5telux3qmi12IQmiListenerE=so_stub_for_libtelux_power
-Wl,--defsym=_ZTSN5telux3qmi15IQmiDmsListenerE=so_stub_for_libtelux_power
-Wl,--defsym=_ZTSN5telux3qmi23IQmiTcuActivityListenerE=so_stub_for_libtelux_power
-Wl,--defsym=_ZTSN5telux3qmi23IQmiTcuStateAckCallbackE=so_stub_for_libtelux_power
-Wl,--defsym=_ZTSN5telux3qmi27IQmiTcuStateCommandCallbackE=so_stub_for_libtelux_power
-Wl,--defsym=_ZTSN5telux3qmi31IQmiDeviceActivityStateCallbackE=so_stub_for_libtelux_power
-Wl,--defsym=_ZTSN5telux3qmi33IQmiRegisterDmsIndicationCallbackE=so_stub_for_libtelux_power
-Wl,--defsym=_ZTSN5telux3qmi33IQmiRegisterTcuStateEventCallbackE=so_stub_for_libtelux_power
-Wl,--defsym=_ZTSN5telux5power17ModemStateUpdaterE=so_stub_for_libtelux_power
-Wl,--defsym=_ZTSN5telux5power19ITcuActivityManagerE=so_stub_for_libtelux_power
-Wl,--defsym=_ZTSN5telux5power22TcuActivityManagerImplE=so_stub_for_libtelux_power
-Wl,--defsym=_ZTSN5telux6common16ICommandCallbackE=so_stub_for_libtelux_power
-Wl,--defsym=_ZTSN5telux6common18FunctionalCallbackIJNS0_9ErrorCodeEEEE=so_stub_for_libtelux_power
-Wl,--defsym=_ZTSNSt13__future_base13_State_baseV2E=so_stub_for_libtelux_power
-Wl,--defsym=_ZTSNSt13__future_base21_Async_state_commonV2E=so_stub_for_libtelux_power
-Wl,--defsym=_ZTSNSt13__future_base7_ResultIbEE=so_stub_for_libtelux_power
-Wl,--defsym=_ZTSNSt13__future_base7_ResultIvEE=so_stub_for_libtelux_power
-Wl,--defsym=_ZTSSt11_Mutex_baseILN9__gnu_cxx12_Lock_policyE2EE=so_stub_for_libtelux_power
-Wl,--defsym=_ZTSSt16_Sp_counted_baseILN9__gnu_cxx12_Lock_policyE2EE=so_stub_for_libtelux_power
-Wl,--defsym=_ZTSSt19_Sp_make_shared_tag=so_stub_for_libtelux_power
-Wl,--defsym=_ZTSSt23enable_shared_from_thisIN5telux5power17ModemStateUpdaterEE=so_stub_for_libtelux_power
-Wl,--defsym=_ZTSSt23enable_shared_from_thisIN5telux5power22TcuActivityManagerImplEE=so_stub_for_libtelux_power
-Wl,--defsym=_ZTSSt23_Sp_counted_ptr_inplaceIN5telux5power17ModemStateUpdaterESaIS2_ELN9__gnu_cxx12_Lock_policyE2EE=so_stub_for_libtelux_power
-Wl,--defsym=_ZTSSt23_Sp_counted_ptr_inplaceIN5telux5power22TcuActivityManagerImplESaIS2_ELN9__gnu_cxx12_Lock_policyE2EE=so_stub_for_libtelux_power
-Wl,--defsym=_ZTSSt23_Sp_counted_ptr_inplaceIN5telux6common15ListenerManagerINS0_5power20ITcuActivityListenerEEESaIS5_ELN9__gnu_cxx12_Lock_policyE2EE=so_stub_for_libtelux_power
-Wl,--defsym=_ZTSSt23_Sp_counted_ptr_inplaceIN5telux6common15ListenerManagerINS1_22IServiceStatusListenerEEESaIS4_ELN9__gnu_cxx12_Lock_policyE2EE=so_stub_for_libtelux_power
-Wl,--defsym=_ZTSSt23_Sp_counted_ptr_inplaceIN5telux6common18FunctionalCallbackIJNS1_9ErrorCodeEEEESaIS4_ELN9__gnu_cxx12_Lock_policyE2EE=so_stub_for_libtelux_power
-Wl,--defsym=_ZTVN5telux5power17ModemStateUpdaterE=so_stub_for_libtelux_power
-Wl,--defsym=_ZTVN5telux5power22TcuActivityManagerImplE=so_stub_for_libtelux_power
-Wl,--defsym=_ZTVN5telux6common18FunctionalCallbackIJNS0_9ErrorCodeEEEE=so_stub_for_libtelux_power
-Wl,--defsym=_ZTVNSt13__future_base13_State_baseV2E=so_stub_for_libtelux_power
-Wl,--defsym=_ZTVNSt13__future_base21_Async_state_commonV2E=so_stub_for_libtelux_power
-Wl,--defsym=_ZTVNSt13__future_base7_ResultIbEE=so_stub_for_libtelux_power
-Wl,--defsym=_ZTVNSt13__future_base7_ResultIvEE=so_stub_for_libtelux_power
-Wl,--defsym=_ZTVSt23_Sp_counted_ptr_inplaceIN5telux5power17ModemStateUpdaterESaIS2_ELN9__gnu_cxx12_Lock_policyE2EE=so_stub_for_libtelux_power
-Wl,--defsym=_ZTVSt23_Sp_counted_ptr_inplaceIN5telux5power22TcuActivityManagerImplESaIS2_ELN9__gnu_cxx12_Lock_policyE2EE=so_stub_for_libtelux_power
-Wl,--defsym=_ZTVSt23_Sp_counted_ptr_inplaceIN5telux6common15ListenerManagerINS0_5power20ITcuActivityListenerEEESaIS5_ELN9__gnu_cxx12_Lock_policyE2EE=so_stub_for_libtelux_power
-Wl,--defsym=_ZTVSt23_Sp_counted_ptr_inplaceIN5telux6common15ListenerManagerINS1_22IServiceStatusListenerEEESaIS4_ELN9__gnu_cxx12_Lock_policyE2EE=so_stub_for_libtelux_power
-Wl,--defsym=_ZTVSt23_Sp_counted_ptr_inplaceIN5telux6common18FunctionalCallbackIJNS1_9ErrorCodeEEEESaIS4_ELN9__gnu_cxx12_Lock_policyE2EE=so_stub_for_libtelux_power
-Wl,--defsym=_ZZSt9call_onceIMNSt13__future_base13_State_baseV2EFvPSt8functionIFSt10unique_ptrINS0_12_Result_baseENS4_8_DeleterEEvEEPbEJPS1_S9_SA_EEvRSt9once_flagOT_DpOT0_ENKUlvE0_clEv=so_stub_for_libtelux_power
-Wl,--defsym=_ZZSt9call_onceIMNSt13__future_base13_State_baseV2EFvPSt8functionIFSt10unique_ptrINS0_12_Result_baseENS4_8_DeleterEEvEEPbEJPS1_S9_SA_EEvRSt9once_flagOT_DpOT0_ENUlvE0_4_FUNEv=so_stub_for_libtelux_power
-Wl,--defsym=_ZZSt9call_onceIMSt6threadFvvEJPS0_EEvRSt9once_flagOT_DpOT0_ENKUlvE0_clEv=so_stub_for_libtelux_power
-Wl,--defsym=_ZZSt9call_onceIMSt6threadFvvEJPS0_EEvRSt9once_flagOT_DpOT0_ENUlvE0_4_FUNEv=so_stub_for_libtelux_power
