-Wl,--defsym=__gcov_error_file=so_stub_for_libtelux_common
-Wl,--defsym=__gcov_master=so_stub_for_libtelux_common
-Wl,--defsym=__gcov_sort_n_vals=so_stub_for_libtelux_common
-Wl,--defsym=__gcov_var=so_stub_for_libtelux_common
-Wl,--defsym=_ZGVZNKSt8__detail11_AnyMatcherINSt7__cxx1112regex_traitsIcEELb0ELb0ELb0EEclEcE5__nul=so_stub_for_libtelux_common
-Wl,--defsym=_ZGVZNKSt8__detail11_AnyMatcherINSt7__cxx1112regex_traitsIcEELb0ELb0ELb1EEclEcE5__nul=so_stub_for_libtelux_common
-Wl,--defsym=_ZGVZNKSt8__detail11_AnyMatcherINSt7__cxx1112regex_traitsIcEELb0ELb1ELb0EEclEcE5__nul=so_stub_for_libtelux_common
-Wl,--defsym=_ZGVZNKSt8__detail11_AnyMatcherINSt7__cxx1112regex_traitsIcEELb0ELb1ELb1EEclEcE5__nul=so_stub_for_libtelux_common
-Wl,--defsym=_ZN5telux6common10fileExistsERKNSt7__cxx1112basic_stringIcSt11char_traitsIcESaIcEEE=so_stub_for_libtelux_common
-Wl,--defsym=_ZN5telux6common10TaskThread10isShutdownEv=so_stub_for_libtelux_common
-Wl,--defsym=_ZN5telux6common10TaskThread12processTasksEv=so_stub_for_libtelux_common
-Wl,--defsym=_ZN5telux6common10TaskThread5startEv=so_stub_for_libtelux_common
-Wl,--defsym=_ZN5telux6common10TaskThreadC1ESt10shared_ptrINS0_9TaskQueueEE=so_stub_for_libtelux_common
-Wl,--defsym=_ZN5telux6common10TaskThreadC2ESt10shared_ptrINS0_9TaskQueueEE=so_stub_for_libtelux_common
-Wl,--defsym=_ZN5telux6common10TaskThreadD1Ev=so_stub_for_libtelux_common
-Wl,--defsym=_ZN5telux6common10TaskThreadD2Ev=so_stub_for_libtelux_common
-Wl,--defsym=_ZN5telux6common11CommonUtils11splitStringERKNSt7__cxx1112basic_stringIcSt11char_traitsIcESaIcEEEc=so_stub_for_libtelux_common
-Wl,--defsym=_ZN5telux6common11CommonUtils14isEqualStringsENSt7__cxx1112basic_stringIcSt11char_traitsIcESaIcEEES7_=so_stub_for_libtelux_common
-Wl,--defsym=_ZN5telux6common11CommonUtils7hexDumpEPKci=so_stub_for_libtelux_common
-Wl,--defsym=_ZN5telux6common11ErrorHelper12initialized_E=so_stub_for_libtelux_common
-Wl,--defsym=_ZN5telux6common11ErrorHelper16getErrorAsStringB5cxx11Ei=so_stub_for_libtelux_common
-Wl,--defsym=_ZN5telux6common11ErrorHelper18qmiClientErrorMap_E=so_stub_for_libtelux_common
-Wl,--defsym=_ZN5telux6common11ErrorHelper19getQmiErrorAsStringB5cxx11Ei=so_stub_for_libtelux_common
-Wl,--defsym=_ZN5telux6common11ErrorHelper19qmiErrorOverlapMap_E=so_stub_for_libtelux_common
-Wl,--defsym=_ZN5telux6common11ErrorHelper19qmiErrorToErrorCodeEi=so_stub_for_libtelux_common
-Wl,--defsym=_ZN5telux6common11ErrorHelper20getErrorCodeAsStringB5cxx11ENS0_9ErrorCodeE=so_stub_for_libtelux_common
-Wl,--defsym=_ZN5telux6common11ErrorHelper20qmiErrorToStringMap_B5cxx11E=so_stub_for_libtelux_common
-Wl,--defsym=_ZN5telux6common11ErrorHelper21errorCodeToStringMap_B5cxx11E=so_stub_for_libtelux_common
-Wl,--defsym=_ZN5telux6common11ErrorHelper23initQmiErrorToStringMapEv=so_stub_for_libtelux_common
-Wl,--defsym=_ZN5telux6common11ErrorHelper24initErrorCodeToStringMapEv=so_stub_for_libtelux_common
-Wl,--defsym=_ZN5telux6common11ErrorHelper26initQmiErrorToErrorCodeMapEv=so_stub_for_libtelux_common
-Wl,--defsym=_ZN5telux6common11ErrorHelper26qmiClientErrorToStringMap_B5cxx11E=so_stub_for_libtelux_common
-Wl,--defsym=_ZN5telux6common11ErrorHelper27wdsExtendedErrorToErrorCodeEi=so_stub_for_libtelux_common
-Wl,--defsym=_ZN5telux6common11ErrorHelper29initQmiClientErrorToStringMapEv=so_stub_for_libtelux_common
-Wl,--defsym=_ZN5telux6common11ErrorHelper32initQmiClientErrorToErrorCodeMapEv=so_stub_for_libtelux_common
-Wl,--defsym=_ZN5telux6common11ErrorHelper4initEv=so_stub_for_libtelux_common
-Wl,--defsym=_ZN5telux6common11ErrorHelper6mutex_E=so_stub_for_libtelux_common
-Wl,--defsym=_ZN5telux6common11ErrorHelperC1Ev=so_stub_for_libtelux_common
-Wl,--defsym=_ZN5telux6common11ErrorHelperC2Ev=so_stub_for_libtelux_common
-Wl,--defsym=_ZN5telux6common11ErrorHelperD1Ev=so_stub_for_libtelux_common
-Wl,--defsym=_ZN5telux6common11ErrorHelperD2Ev=so_stub_for_libtelux_common
-Wl,--defsym=_ZN5telux6common11make_uniqueINS0_10TaskThreadEJRSt10shared_ptrINS0_9TaskQueueEEEEESt10unique_ptrIT_St14default_deleteIS8_EEDpOT0_=so_stub_for_libtelux_common
-Wl,--defsym=_ZN5telux6common12DeviceConfig19isMultiSimSupportedEv=so_stub_for_libtelux_common
-Wl,--defsym=_ZN5telux6common12UnsolManager14removeListenerEiSt10shared_ptrINS0_15ResponseHandlerEE=so_stub_for_libtelux_common
-Wl,--defsym=_ZN5telux6common12UnsolManager15getUnsolManagerEv=so_stub_for_libtelux_common
-Wl,--defsym=_ZN5telux6common12UnsolManager16registerListenerEiSt10shared_ptrINS0_15ResponseHandlerEE=so_stub_for_libtelux_common
-Wl,--defsym=_ZN5telux6common12UnsolManager21unsolResponseHandler_E=so_stub_for_libtelux_common
-Wl,--defsym=_ZN5telux6common12UnsolManager23handleSolicitedResponseESt10shared_ptrINS0_6ResultEE=so_stub_for_libtelux_common
-Wl,--defsym=_ZN5telux6common12UnsolManager25handleUnsolicitedResponseESt10shared_ptrINS0_6ResultEE=so_stub_for_libtelux_common
-Wl,--defsym=_ZN5telux6common12UnsolManagerC1Ev=so_stub_for_libtelux_common
-Wl,--defsym=_ZN5telux6common12UnsolManagerC2Ev=so_stub_for_libtelux_common
-Wl,--defsym=_ZN5telux6common12UnsolManagerD0Ev=so_stub_for_libtelux_common
-Wl,--defsym=_ZN5telux6common12UnsolManagerD1Ev=so_stub_for_libtelux_common
-Wl,--defsym=_ZN5telux6common12UnsolManagerD2Ev=so_stub_for_libtelux_common
-Wl,--defsym=_ZN5telux6common14TaskDispatcher8shutdownEv=so_stub_for_libtelux_common
-Wl,--defsym=_ZN5telux6common14TaskDispatcherC1Ei=so_stub_for_libtelux_common
-Wl,--defsym=_ZN5telux6common14TaskDispatcherC1Ev=so_stub_for_libtelux_common
-Wl,--defsym=_ZN5telux6common14TaskDispatcherC2Ei=so_stub_for_libtelux_common
-Wl,--defsym=_ZN5telux6common14TaskDispatcherC2Ev=so_stub_for_libtelux_common
-Wl,--defsym=_ZN5telux6common14TaskDispatcherD1Ev=so_stub_for_libtelux_common
-Wl,--defsym=_ZN5telux6common14TaskDispatcherD2Ev=so_stub_for_libtelux_common
-Wl,--defsym=_ZN5telux6common22CommandCallbackManager11addCallbackESt10shared_ptrINS0_16ICommandCallbackEE=so_stub_for_libtelux_common
-Wl,--defsym=_ZN5telux6common22CommandCallbackManager16getNextCommandIdEv=so_stub_for_libtelux_common
-Wl,--defsym=_ZN5telux6common22CommandCallbackManager21findAndRemoveCallbackEi=so_stub_for_libtelux_common
-Wl,--defsym=_ZN5telux6common22CommandCallbackManagerC1Ev=so_stub_for_libtelux_common
-Wl,--defsym=_ZN5telux6common22CommandCallbackManagerC2Ev=so_stub_for_libtelux_common
-Wl,--defsym=_ZN5telux6common22CommandCallbackManagerD1Ev=so_stub_for_libtelux_common
-Wl,--defsym=_ZN5telux6common22CommandCallbackManagerD2Ev=so_stub_for_libtelux_common
-Wl,--defsym=_ZN5telux6common3Log10logMessageIJNSt7__cxx1112basic_stringIcSt11char_traitsIcESaIcEEEEEEvNS0_8LogLevelERKS8_SB_RKiDpT_=so_stub_for_libtelux_common
-Wl,--defsym=_ZN5telux6common3Log10logMessageIJPKcEEEvNS0_8LogLevelERKNSt7__cxx1112basic_stringIcSt11char_traitsIcESaIcEEESD_RKiDpT_=so_stub_for_libtelux_common
-Wl,--defsym=_ZN5telux6common3Log10logMessageIJPKciEEEvNS0_8LogLevelERKNSt7__cxx1112basic_stringIcSt11char_traitsIcESaIcEEESD_RKiDpT_=so_stub_for_libtelux_common
-Wl,--defsym=_ZN5telux6common3Log10logMessageIJPKcS4_iEEEvNS0_8LogLevelERKNSt7__cxx1112basic_stringIcSt11char_traitsIcESaIcEEESD_RKiDpT_=so_stub_for_libtelux_common
-Wl,--defsym=_ZN5telux6common3Log10logMessageIJPKcS4_iS4_EEEvNS0_8LogLevelERKNSt7__cxx1112basic_stringIcSt11char_traitsIcESaIcEEESD_RKiDpT_=so_stub_for_libtelux_common
-Wl,--defsym=_ZN5telux6common3Log10logMessageIJPKcS4_iS4_jEEEvNS0_8LogLevelERKNSt7__cxx1112basic_stringIcSt11char_traitsIcESaIcEEESD_RKiDpT_=so_stub_for_libtelux_common
-Wl,--defsym=_ZN5telux6common3Log10logMessageIJPKcS4_jEEEvNS0_8LogLevelERKNSt7__cxx1112basic_stringIcSt11char_traitsIcESaIcEEESD_RKiDpT_=so_stub_for_libtelux_common
-Wl,--defsym=_ZN5telux6common3Log16constructMessageINSt7__cxx1119basic_ostringstreamIcSt11char_traitsIcESaIcEEEPKcJSA_iSA_jEEEvRT_T0_DpT1_=so_stub_for_libtelux_common
-Wl,--defsym=_ZN5telux6common6Logger11getInstanceEv=so_stub_for_libtelux_common
-Wl,--defsym=_ZN5telux6common6Logger11getLogLevelENSt7__cxx1112basic_stringIcSt11char_traitsIcESaIcEEE=so_stub_for_libtelux_common
-Wl,--defsym=_ZN5telux6common6Logger11writeToDiagERNSt7__cxx1119basic_ostringstreamIcSt11char_traitsIcESaIcEEENS0_8LogLevelE=so_stub_for_libtelux_common
-Wl,--defsym=_ZN5telux6common6Logger11writeToFileERNSt7__cxx1119basic_ostringstreamIcSt11char_traitsIcESaIcEEE=so_stub_for_libtelux_common
-Wl,--defsym=_ZN5telux6common6Logger12initDateTimeEv=so_stub_for_libtelux_common
-Wl,--defsym=_ZN5telux6common6Logger13initProcessIdEv=so_stub_for_libtelux_common
-Wl,--defsym=_ZN5telux6common6Logger14getCurrentTimeB5cxx11Ev=so_stub_for_libtelux_common
-Wl,--defsym=_ZN5telux6common6Logger14getTimeStampNsEP8timespec=so_stub_for_libtelux_common
-Wl,--defsym=_ZN5telux6common6Logger14writeToConsoleERNSt7__cxx1119basic_ostringstreamIcSt11char_traitsIcESaIcEEE=so_stub_for_libtelux_common
-Wl,--defsym=_ZN5telux6common6Logger15getDiagLogLevelEv=so_stub_for_libtelux_common
-Wl,--defsym=_ZN5telux6common6Logger15getFileLogLevelEv=so_stub_for_libtelux_common
-Wl,--defsym=_ZN5telux6common6Logger15initDiagLoggingEv=so_stub_for_libtelux_common
-Wl,--defsym=_ZN5telux6common6Logger15initFileLoggingEv=so_stub_for_libtelux_common
-Wl,--defsym=_ZN5telux6common6Logger15initLogFileNameEv=so_stub_for_libtelux_common
-Wl,--defsym=_ZN5telux6common6Logger15initProcessNameEv=so_stub_for_libtelux_common
-Wl,--defsym=_ZN5telux6common6Logger15writeLogMessageERNSt7__cxx1119basic_ostringstreamIcSt11char_traitsIcESaIcEEENS0_8LogLevelERKNS2_12basic_stringIcS5_S6_EERKiSD_=so_stub_for_libtelux_common
-Wl,--defsym=_ZN5telux6common6Logger16initDiagLogLevelEv=so_stub_for_libtelux_common
-Wl,--defsym=_ZN5telux6common6Logger16initFileLogLevelEv=so_stub_for_libtelux_common
-Wl,--defsym=_ZN5telux6common6Logger17isComponentLoggedEi=so_stub_for_libtelux_common
-Wl,--defsym=_ZN5telux6common6Logger18getConsoleLogLevelEv=so_stub_for_libtelux_common
-Wl,--defsym=_ZN5telux6common6Logger18initConsoleLoggingEv=so_stub_for_libtelux_common
-Wl,--defsym=_ZN5telux6common6Logger18initLogFileMaxSizeEv=so_stub_for_libtelux_common
-Wl,--defsym=_ZN5telux6common6Logger19initConsoleLogLevelEv=so_stub_for_libtelux_common
-Wl,--defsym=_ZN5telux6common6Logger20initComponentLoggingEv=so_stub_for_libtelux_common
-Wl,--defsym=_ZN5telux6common6Logger4initEv=so_stub_for_libtelux_common
-Wl,--defsym=_ZN5telux6common6LoggerC1Ev=so_stub_for_libtelux_common
-Wl,--defsym=_ZN5telux6common6LoggerC2Ev=so_stub_for_libtelux_common
-Wl,--defsym=_ZN5telux6common6LoggerD1Ev=so_stub_for_libtelux_common
-Wl,--defsym=_ZN5telux6common6LoggerD2Ev=so_stub_for_libtelux_common
-Wl,--defsym=_ZN5telux6common7Version13getSdkVersionEv=so_stub_for_libtelux_common
-Wl,--defsym=_ZN5telux6common7Version14getReleaseNameB5cxx11Ev=so_stub_for_libtelux_common
-Wl,--defsym=_ZN5telux6common8EnvUtils10getAppPathB5cxx11Ev=so_stub_for_libtelux_common
-Wl,--defsym=_ZN5telux6common8EnvUtils17getCurrentAppNameB5cxx11Ev=so_stub_for_libtelux_common
-Wl,--defsym=_ZN5telux6common8EnvUtils21getCurrentProcessPathB5cxx11Ev=so_stub_for_libtelux_common
-Wl,--defsym=_ZN5telux6common8Settings11configFile_B5cxx11E=so_stub_for_libtelux_common
-Wl,--defsym=_ZN5telux6common8Settings12settingsMap_B5cxx11E=so_stub_for_libtelux_common
-Wl,--defsym=_ZN5telux6common8Settings13printSettingsEv=so_stub_for_libtelux_common
-Wl,--defsym=_ZN5telux6common8Settings16readSettingsFileENSt7__cxx1112basic_stringIcSt11char_traitsIcESaIcEEE=so_stub_for_libtelux_common
-Wl,--defsym=_ZN5telux6common8Settings17getConfigFilePathB5cxx11Ev=so_stub_for_libtelux_common
-Wl,--defsym=_ZN5telux6common8Settings8appPath_B5cxx11E=so_stub_for_libtelux_common
-Wl,--defsym=_ZN5telux6common8Settings8getValueENSt7__cxx1112basic_stringIcSt11char_traitsIcESaIcEEEb=so_stub_for_libtelux_common
-Wl,--defsym=_ZN5telux6common9TaskQueue10isShutdownEv=so_stub_for_libtelux_common
-Wl,--defsym=_ZN5telux6common9TaskQueue3popEv=so_stub_for_libtelux_common
-Wl,--defsym=_ZN5telux6common9TaskQueue8shutdownEv=so_stub_for_libtelux_common
-Wl,--defsym=_ZN5telux6common9TaskQueueC1Ev=so_stub_for_libtelux_common
-Wl,--defsym=_ZN5telux6common9TaskQueueC2Ev=so_stub_for_libtelux_common
-Wl,--defsym=_ZN9__gnu_cxx12__to_xstringINSt7__cxx1112basic_stringIcSt11char_traitsIcESaIcEEEcEET_PFiPT0_jPKS8_St9__va_listEjSB_z=so_stub_for_libtelux_common
-Wl,--defsym=_ZN9__gnu_cxx6__stoaIlicJiEEET0_PFT_PKT1_PPS3_DpT2_EPKcS5_PjS9_=so_stub_for_libtelux_common
-Wl,--defsym=_ZNK5telux6common14TaskDispatcher10isShutdownEv=so_stub_for_libtelux_common
-Wl,--defsym=_ZNKSt5ctypeIcE8do_widenEc=so_stub_for_libtelux_common
-Wl,--defsym=_ZNKSt5ctypeIcE9do_narrowEcc=so_stub_for_libtelux_common
-Wl,--defsym=_ZNKSt7__cxx1112regex_traitsIcE16lookup_classnameIPKcEENS1_10_RegexMaskET_S6_b=so_stub_for_libtelux_common
-Wl,--defsym=_ZNKSt7__cxx1112regex_traitsIcE17transform_primaryIPKcEENS_12basic_stringIcSt11char_traitsIcESaIcEEET_SA_=so_stub_for_libtelux_common
-Wl,--defsym=_ZNKSt7__cxx1112regex_traitsIcE18lookup_collatenameIPKcEENS_12basic_stringIcSt11char_traitsIcESaIcEEET_SA_=so_stub_for_libtelux_common
-Wl,--defsym=_ZNKSt7__cxx1112regex_traitsIcE5valueEci=so_stub_for_libtelux_common
-Wl,--defsym=_ZNKSt7__cxx1112regex_traitsIcE9transformIN9__gnu_cxx17__normal_iteratorIPcNS_12basic_stringIcSt11char_traitsIcESaIcEEEEEEESA_T_SC_=so_stub_for_libtelux_common
-Wl,--defsym=_ZNKSt7__cxx1112regex_traitsIcE9transformIPcEENS_12basic_stringIcSt11char_traitsIcESaIcEEET_S9_=so_stub_for_libtelux_common
-Wl,--defsym=_ZNKSt7__cxx1113match_resultsIN9__gnu_cxx17__normal_iteratorIPKcNS_12basic_stringIcSt11char_traitsIcESaIcEEEEESaINS_9sub_matchISA_EEEE6formatISt20back_insert_iteratorIS9_EEET_SI_S4_S4_NSt15regex_constants15match_flag_typeE=so_stub_for_libtelux_common
-Wl,--defsym=_ZNKSt7__cxx1114regex_iteratorIN9__gnu_cxx17__normal_iteratorIPKcNS_12basic_stringIcSt11char_traitsIcESaIcEEEEEcNS_12regex_traitsIcEEEeqERKSD_=so_stub_for_libtelux_common
-Wl,--defsym=_ZNKSt7__cxx119sub_matchIN9__gnu_cxx17__normal_iteratorIPKcNS_12basic_stringIcSt11char_traitsIcESaIcEEEEEE7compareERKSB_=so_stub_for_libtelux_common
-Wl,--defsym=_ZNKSt8__detail11_AnyMatcherINSt7__cxx1112regex_traitsIcEELb0ELb1ELb0EEclEc=so_stub_for_libtelux_common
-Wl,--defsym=_ZNKSt8__detail11_AnyMatcherINSt7__cxx1112regex_traitsIcEELb0ELb1ELb1EEclEc=so_stub_for_libtelux_common
-Wl,--defsym=_ZNKSt8__detail11_AnyMatcherINSt7__cxx1112regex_traitsIcEELb1ELb1ELb0EE8_M_applyEcSt17integral_constantIbLb1EE=so_stub_for_libtelux_common
-Wl,--defsym=_ZNKSt8__detail11_AnyMatcherINSt7__cxx1112regex_traitsIcEELb1ELb1ELb1EE8_M_applyEcSt17integral_constantIbLb1EE=so_stub_for_libtelux_common
-Wl,--defsym=_ZNKSt8__detail20_RegexTranslatorBaseINSt7__cxx1112regex_traitsIcEELb0ELb1EE12_M_transformEc=so_stub_for_libtelux_common
-Wl,--defsym=_ZNKSt8__detail20_RegexTranslatorBaseINSt7__cxx1112regex_traitsIcEELb1ELb0EE17_M_in_range_icaseEccc=so_stub_for_libtelux_common
-Wl,--defsym=_ZNKSt8__detail20_RegexTranslatorBaseINSt7__cxx1112regex_traitsIcEELb1ELb1EE12_M_transformEc=so_stub_for_libtelux_common
-Wl,--defsym=_ZNKSt8__detail20_RegexTranslatorBaseINSt7__cxx1112regex_traitsIcEELb1ELb1EE17_M_in_range_icaseEccc=so_stub_for_libtelux_common
-Wl,--defsym=_ZNKSt8__detail9_ExecutorIN9__gnu_cxx17__normal_iteratorIPKcNSt7__cxx1112basic_stringIcSt11char_traitsIcESaIcEEEEESaINS5_9sub_matchISB_EEENS5_12regex_traitsIcEELb0EE16_M_word_boundaryEv=so_stub_for_libtelux_common
-Wl,--defsym=_ZNKSt8__detail9_ExecutorIN9__gnu_cxx17__normal_iteratorIPKcNSt7__cxx1112basic_stringIcSt11char_traitsIcESaIcEEEEESaINS5_9sub_matchISB_EEENS5_12regex_traitsIcEELb1EE16_M_word_boundaryEv=so_stub_for_libtelux_common
-Wl,--defsym=_ZNSt10_HashtableIiSt4pairIKiSt10shared_ptrIN5telux6common16ICommandCallbackEEESaIS7_ENSt8__detail10_Select1stESt8equal_toIiESt4hashIiENS9_18_Mod_range_hashingENS9_20_Default_ranged_hashENS9_20_Prime_rehash_policyENS9_17_Hashtable_traitsILb0ELb0ELb1EEEE13_M_rehash_auxEjSt17integral_constantIbLb1EE=so_stub_for_libtelux_common
-Wl,--defsym=_ZNSt10_HashtableIiSt4pairIKiSt10shared_ptrIN5telux6common16ICommandCallbackEEESaIS7_ENSt8__detail10_Select1stESt8equal_toIiESt4hashIiENS9_18_Mod_range_hashingENS9_20_Default_ranged_hashENS9_20_Prime_rehash_policyENS9_17_Hashtable_traitsILb0ELb0ELb1EEEE21_M_insert_unique_nodeEjjPNS9_10_Hash_nodeIS7_Lb0EEEj=so_stub_for_libtelux_common
-Wl,--defsym=_ZNSt10_HashtableIiSt4pairIKiSt10shared_ptrIN5telux6common16ICommandCallbackEEESaIS7_ENSt8__detail10_Select1stESt8equal_toIiESt4hashIiENS9_18_Mod_range_hashingENS9_20_Default_ranged_hashENS9_20_Prime_rehash_policyENS9_17_Hashtable_traitsILb0ELb0ELb1EEEE5clearEv=so_stub_for_libtelux_common
-Wl,--defsym=_ZNSt10_HashtableIiSt4pairIKiSt10shared_ptrIN5telux6common16ICommandCallbackEEESaIS7_ENSt8__detail10_Select1stESt8equal_toIiESt4hashIiENS9_18_Mod_range_hashingENS9_20_Default_ranged_hashENS9_20_Prime_rehash_policyENS9_17_Hashtable_traitsILb0ELb0ELb1EEEE8_M_eraseEjPNS9_15_Hash_node_baseEPNS9_10_Hash_nodeIS7_Lb0EEE=so_stub_for_libtelux_common
-Wl,--defsym=_ZNSt10_HashtableIiSt4pairIKiSt10shared_ptrIN5telux6common16ICommandCallbackEEESaIS7_ENSt8__detail10_Select1stESt8equal_toIiESt4hashIiENS9_18_Mod_range_hashingENS9_20_Default_ranged_hashENS9_20_Prime_rehash_policyENS9_17_Hashtable_traitsILb0ELb0ELb1EEEE9_M_rehashEjRKj=so_stub_for_libtelux_common
-Wl,--defsym=_ZNSt10_HashtableIiSt4pairIKiSt10shared_ptrIN5telux6common16ICommandCallbackEEESaIS7_ENSt8__detail10_Select1stESt8equal_toIiESt4hashIiENS9_18_Mod_range_hashingENS9_20_Default_ranged_hashENS9_20_Prime_rehash_policyENS9_17_Hashtable_traitsILb0ELb0ELb1EEEED1Ev=so_stub_for_libtelux_common
-Wl,--defsym=_ZNSt10_HashtableIiSt4pairIKiSt10shared_ptrIN5telux6common16ICommandCallbackEEESaIS7_ENSt8__detail10_Select1stESt8equal_toIiESt4hashIiENS9_18_Mod_range_hashingENS9_20_Default_ranged_hashENS9_20_Prime_rehash_policyENS9_17_Hashtable_traitsILb0ELb0ELb1EEEED2Ev=so_stub_for_libtelux_common
-Wl,--defsym=_ZNSt10_HashtableIiSt4pairIKiSt8weak_ptrIN5telux6common16ICommandCallbackEEESaIS7_ENSt8__detail10_Select1stESt8equal_toIiESt4hashIiENS9_18_Mod_range_hashingENS9_20_Default_ranged_hashENS9_20_Prime_rehash_policyENS9_17_Hashtable_traitsILb0ELb0ELb1EEEE13_M_rehash_auxEjSt17integral_constantIbLb1EE=so_stub_for_libtelux_common
-Wl,--defsym=_ZNSt10_HashtableIiSt4pairIKiSt8weak_ptrIN5telux6common16ICommandCallbackEEESaIS7_ENSt8__detail10_Select1stESt8equal_toIiESt4hashIiENS9_18_Mod_range_hashingENS9_20_Default_ranged_hashENS9_20_Prime_rehash_policyENS9_17_Hashtable_traitsILb0ELb0ELb1EEEE21_M_insert_unique_nodeEjjPNS9_10_Hash_nodeIS7_Lb0EEEj=so_stub_for_libtelux_common
-Wl,--defsym=_ZNSt10_HashtableIiSt4pairIKiSt8weak_ptrIN5telux6common16ICommandCallbackEEESaIS7_ENSt8__detail10_Select1stESt8equal_toIiESt4hashIiENS9_18_Mod_range_hashingENS9_20_Default_ranged_hashENS9_20_Prime_rehash_policyENS9_17_Hashtable_traitsILb0ELb0ELb1EEEE5clearEv=so_stub_for_libtelux_common
-Wl,--defsym=_ZNSt10_HashtableIiSt4pairIKiSt8weak_ptrIN5telux6common16ICommandCallbackEEESaIS7_ENSt8__detail10_Select1stESt8equal_toIiESt4hashIiENS9_18_Mod_range_hashingENS9_20_Default_ranged_hashENS9_20_Prime_rehash_policyENS9_17_Hashtable_traitsILb0ELb0ELb1EEEE8_M_eraseEjPNS9_15_Hash_node_baseEPNS9_10_Hash_nodeIS7_Lb0EEE=so_stub_for_libtelux_common
-Wl,--defsym=_ZNSt10_HashtableIiSt4pairIKiSt8weak_ptrIN5telux6common16ICommandCallbackEEESaIS7_ENSt8__detail10_Select1stESt8equal_toIiESt4hashIiENS9_18_Mod_range_hashingENS9_20_Default_ranged_hashENS9_20_Prime_rehash_policyENS9_17_Hashtable_traitsILb0ELb0ELb1EEEE9_M_rehashEjRKj=so_stub_for_libtelux_common
-Wl,--defsym=_ZNSt10_HashtableIiSt4pairIKiSt8weak_ptrIN5telux6common16ICommandCallbackEEESaIS7_ENSt8__detail10_Select1stESt8equal_toIiESt4hashIiENS9_18_Mod_range_hashingENS9_20_Default_ranged_hashENS9_20_Prime_rehash_policyENS9_17_Hashtable_traitsILb0ELb0ELb1EEEED1Ev=so_stub_for_libtelux_common
-Wl,--defsym=_ZNSt10_HashtableIiSt4pairIKiSt8weak_ptrIN5telux6common16ICommandCallbackEEESaIS7_ENSt8__detail10_Select1stESt8equal_toIiESt4hashIiENS9_18_Mod_range_hashingENS9_20_Default_ranged_hashENS9_20_Prime_rehash_policyENS9_17_Hashtable_traitsILb0ELb0ELb1EEEED2Ev=so_stub_for_libtelux_common
-Wl,--defsym=_ZNSt10shared_ptrIN5telux6common12UnsolManagerEED1Ev=so_stub_for_libtelux_common
-Wl,--defsym=_ZNSt10shared_ptrIN5telux6common12UnsolManagerEED2Ev=so_stub_for_libtelux_common
-Wl,--defsym=_ZNSt10unique_ptrIN5telux6common10TaskThreadESt14default_deleteIS2_EED1Ev=so_stub_for_libtelux_common
-Wl,--defsym=_ZNSt10unique_ptrIN5telux6common10TaskThreadESt14default_deleteIS2_EED2Ev=so_stub_for_libtelux_common
-Wl,--defsym=_ZNSt11_Deque_baseIlSaIlEE15_M_create_nodesEPPlS3_=so_stub_for_libtelux_common
-Wl,--defsym=_ZNSt11_Deque_baseIlSaIlEE17_M_initialize_mapEj=so_stub_for_libtelux_common
-Wl,--defsym=_ZNSt11_Deque_baseIlSaIlEED1Ev=so_stub_for_libtelux_common
-Wl,--defsym=_ZNSt11_Deque_baseIlSaIlEED2Ev=so_stub_for_libtelux_common
-Wl,--defsym=_ZNSt11_Deque_baseINSt8__detail9_StateSeqINSt7__cxx1112regex_traitsIcEEEESaIS5_EE15_M_create_nodesEPPS5_S9_=so_stub_for_libtelux_common
-Wl,--defsym=_ZNSt11_Deque_baseINSt8__detail9_StateSeqINSt7__cxx1112regex_traitsIcEEEESaIS5_EE17_M_initialize_mapEj=so_stub_for_libtelux_common
-Wl,--defsym=_ZNSt11_Deque_baseINSt8__detail9_StateSeqINSt7__cxx1112regex_traitsIcEEEESaIS5_EED1Ev=so_stub_for_libtelux_common
-Wl,--defsym=_ZNSt11_Deque_baseINSt8__detail9_StateSeqINSt7__cxx1112regex_traitsIcEEEESaIS5_EED2Ev=so_stub_for_libtelux_common
-Wl,--defsym=_ZNSt11_Deque_baseISt13packaged_taskIFvvEESaIS2_EE15_M_create_nodesEPPS2_S6_=so_stub_for_libtelux_common
-Wl,--defsym=_ZNSt11_Deque_baseISt13packaged_taskIFvvEESaIS2_EE17_M_initialize_mapEj=so_stub_for_libtelux_common
-Wl,--defsym=_ZNSt11_Deque_baseISt13packaged_taskIFvvEESaIS2_EED1Ev=so_stub_for_libtelux_common
-Wl,--defsym=_ZNSt11_Deque_baseISt13packaged_taskIFvvEESaIS2_EED2Ev=so_stub_for_libtelux_common
-Wl,--defsym=_ZNSt12future_errorC1ESt10error_code=so_stub_for_libtelux_common
-Wl,--defsym=_ZNSt12future_errorC2ESt10error_code=so_stub_for_libtelux_common
-Wl,--defsym=_ZNSt12__shared_ptrIN5telux6common15ResponseHandlerELN9__gnu_cxx12_Lock_policyE2EEC1ERKSt10__weak_ptrIS2_LS4_2EESt9nothrow_t=so_stub_for_libtelux_common
-Wl,--defsym=_ZNSt12__shared_ptrIN5telux6common15ResponseHandlerELN9__gnu_cxx12_Lock_policyE2EEC2ERKSt10__weak_ptrIS2_LS4_2EESt9nothrow_t=so_stub_for_libtelux_common
-Wl,--defsym=_ZNSt12__shared_ptrINSt8__detail4_NFAINSt7__cxx1112regex_traitsIcEEEELN9__gnu_cxx12_Lock_policyE2EEC1ISaIS5_EJRKSt6localeRNSt15regex_constants18syntax_option_typeEEEESt19_Sp_make_shared_tagRKT_DpOT0_=so_stub_for_libtelux_common
-Wl,--defsym=_ZNSt12__shared_ptrINSt8__detail4_NFAINSt7__cxx1112regex_traitsIcEEEELN9__gnu_cxx12_Lock_policyE2EEC2ISaIS5_EJRKSt6localeRNSt15regex_constants18syntax_option_typeEEEESt19_Sp_make_shared_tagRKT_DpOT0_=so_stub_for_libtelux_common
-Wl,--defsym=_ZNSt13__future_base13_State_baseV216_M_break_promiseESt10unique_ptrINS_12_Result_baseENS2_8_DeleterEE=so_stub_for_libtelux_common
-Wl,--defsym=_ZNSt13__future_base7_ResultIvE10_M_destroyEv=so_stub_for_libtelux_common
-Wl,--defsym=_ZNSt13packaged_taskIFvvEED1Ev=so_stub_for_libtelux_common
-Wl,--defsym=_ZNSt13packaged_taskIFvvEED2Ev=so_stub_for_libtelux_common
-Wl,--defsym=_ZNSt14_Function_base13_Base_managerINSt8__detail11_AnyMatcherINSt7__cxx1112regex_traitsIcEELb0ELb0ELb0EEEE10_M_managerERSt9_Any_dataRKS8_St18_Manager_operation=so_stub_for_libtelux_common
-Wl,--defsym=_ZNSt14_Function_base13_Base_managerINSt8__detail11_AnyMatcherINSt7__cxx1112regex_traitsIcEELb0ELb0ELb1EEEE10_M_managerERSt9_Any_dataRKS8_St18_Manager_operation=so_stub_for_libtelux_common
-Wl,--defsym=_ZNSt14_Function_base13_Base_managerINSt8__detail11_AnyMatcherINSt7__cxx1112regex_traitsIcEELb0ELb1ELb0EEEE10_M_managerERSt9_Any_dataRKS8_St18_Manager_operation=so_stub_for_libtelux_common
-Wl,--defsym=_ZNSt14_Function_base13_Base_managerINSt8__detail11_AnyMatcherINSt7__cxx1112regex_traitsIcEELb0ELb1ELb1EEEE10_M_managerERSt9_Any_dataRKS8_St18_Manager_operation=so_stub_for_libtelux_common
-Wl,--defsym=_ZNSt14_Function_base13_Base_managerINSt8__detail11_AnyMatcherINSt7__cxx1112regex_traitsIcEELb1ELb0ELb0EEEE10_M_managerERSt9_Any_dataRKS8_St18_Manager_operation=so_stub_for_libtelux_common
-Wl,--defsym=_ZNSt14_Function_base13_Base_managerINSt8__detail11_AnyMatcherINSt7__cxx1112regex_traitsIcEELb1ELb0ELb1EEEE10_M_managerERSt9_Any_dataRKS8_St18_Manager_operation=so_stub_for_libtelux_common
-Wl,--defsym=_ZNSt14_Function_base13_Base_managerINSt8__detail11_AnyMatcherINSt7__cxx1112regex_traitsIcEELb1ELb1ELb0EEEE10_M_managerERSt9_Any_dataRKS8_St18_Manager_operation=so_stub_for_libtelux_common
-Wl,--defsym=_ZNSt14_Function_base13_Base_managerINSt8__detail11_AnyMatcherINSt7__cxx1112regex_traitsIcEELb1ELb1ELb1EEEE10_M_managerERSt9_Any_dataRKS8_St18_Manager_operation=so_stub_for_libtelux_common
-Wl,--defsym=_ZNSt14_Function_base13_Base_managerINSt8__detail12_CharMatcherINSt7__cxx1112regex_traitsIcEELb0ELb0EEEE10_M_managerERSt9_Any_dataRKS8_St18_Manager_operation=so_stub_for_libtelux_common
-Wl,--defsym=_ZNSt14_Function_base13_Base_managerINSt8__detail12_CharMatcherINSt7__cxx1112regex_traitsIcEELb0ELb1EEEE10_M_managerERSt9_Any_dataRKS8_St18_Manager_operation=so_stub_for_libtelux_common
-Wl,--defsym=_ZNSt14_Function_base13_Base_managerINSt8__detail12_CharMatcherINSt7__cxx1112regex_traitsIcEELb1ELb0EEEE10_M_managerERSt9_Any_dataRKS8_St18_Manager_operation=so_stub_for_libtelux_common
-Wl,--defsym=_ZNSt14_Function_base13_Base_managerINSt8__detail12_CharMatcherINSt7__cxx1112regex_traitsIcEELb1ELb1EEEE10_M_managerERSt9_Any_dataRKS8_St18_Manager_operation=so_stub_for_libtelux_common
-Wl,--defsym=_ZNSt14_Function_base13_Base_managerINSt8__detail15_BracketMatcherINSt7__cxx1112regex_traitsIcEELb0ELb0EEEE10_M_managerERSt9_Any_dataRKS8_St18_Manager_operation=so_stub_for_libtelux_common
-Wl,--defsym=_ZNSt14_Function_base13_Base_managerINSt8__detail15_BracketMatcherINSt7__cxx1112regex_traitsIcEELb0ELb1EEEE10_M_managerERSt9_Any_dataRKS8_St18_Manager_operation=so_stub_for_libtelux_common
-Wl,--defsym=_ZNSt14_Function_base13_Base_managerINSt8__detail15_BracketMatcherINSt7__cxx1112regex_traitsIcEELb1ELb0EEEE10_M_managerERSt9_Any_dataRKS8_St18_Manager_operation=so_stub_for_libtelux_common
-Wl,--defsym=_ZNSt14_Function_base13_Base_managerINSt8__detail15_BracketMatcherINSt7__cxx1112regex_traitsIcEELb1ELb1EEEE10_M_managerERSt9_Any_dataRKS8_St18_Manager_operation=so_stub_for_libtelux_common
-Wl,--defsym=_ZNSt14__shared_countILN9__gnu_cxx12_Lock_policyE2EEC1ERKSt12__weak_countILS1_2EESt9nothrow_t=so_stub_for_libtelux_common
-Wl,--defsym=_ZNSt14__shared_countILN9__gnu_cxx12_Lock_policyE2EEC1IN5telux6common9TaskQueueESaIS6_EJEEESt19_Sp_make_shared_tagPT_RKT0_DpOT1_=so_stub_for_libtelux_common
-Wl,--defsym=_ZNSt14__shared_countILN9__gnu_cxx12_Lock_policyE2EEC1IPN5telux6common12UnsolManagerEEET_=so_stub_for_libtelux_common
-Wl,--defsym=_ZNSt14__shared_countILN9__gnu_cxx12_Lock_policyE2EEC2ERKSt12__weak_countILS1_2EESt9nothrow_t=so_stub_for_libtelux_common
-Wl,--defsym=_ZNSt14__shared_countILN9__gnu_cxx12_Lock_policyE2EEC2IN5telux6common9TaskQueueESaIS6_EJEEESt19_Sp_make_shared_tagPT_RKT0_DpOT1_=so_stub_for_libtelux_common
-Wl,--defsym=_ZNSt14__shared_countILN9__gnu_cxx12_Lock_policyE2EEC2IPN5telux6common12UnsolManagerEEET_=so_stub_for_libtelux_common
-Wl,--defsym=_ZNSt15__exception_ptr12__dest_thunkISt12future_errorEEvPv=so_stub_for_libtelux_common
-Wl,--defsym=_ZNSt15_Sp_counted_ptrIDnLN9__gnu_cxx12_Lock_policyE2EE10_M_disposeEv=so_stub_for_libtelux_common
-Wl,--defsym=_ZNSt15_Sp_counted_ptrIPN5telux6common12UnsolManagerELN9__gnu_cxx12_Lock_policyE2EE10_M_destroyEv=so_stub_for_libtelux_common
-Wl,--defsym=_ZNSt15_Sp_counted_ptrIPN5telux6common12UnsolManagerELN9__gnu_cxx12_Lock_policyE2EE10_M_disposeEv=so_stub_for_libtelux_common
-Wl,--defsym=_ZNSt15_Sp_counted_ptrIPN5telux6common12UnsolManagerELN9__gnu_cxx12_Lock_policyE2EE14_M_get_deleterERKSt9type_info=so_stub_for_libtelux_common
-Wl,--defsym=_ZNSt15_Sp_counted_ptrIPN5telux6common12UnsolManagerELN9__gnu_cxx12_Lock_policyE2EED0Ev=so_stub_for_libtelux_common
-Wl,--defsym=_ZNSt15_Sp_counted_ptrIPN5telux6common12UnsolManagerELN9__gnu_cxx12_Lock_policyE2EED1Ev=so_stub_for_libtelux_common
-Wl,--defsym=_ZNSt15_Sp_counted_ptrIPN5telux6common12UnsolManagerELN9__gnu_cxx12_Lock_policyE2EED2Ev=so_stub_for_libtelux_common
-Wl,--defsym=_ZNSt16_Sp_counted_baseILN9__gnu_cxx12_Lock_policyE2EE10_M_destroyEv=so_stub_for_libtelux_common
-Wl,--defsym=_ZNSt16_Sp_counted_baseILN9__gnu_cxx12_Lock_policyE2EE10_M_releaseEv=so_stub_for_libtelux_common
-Wl,--defsym=_ZNSt16_Sp_counted_baseILN9__gnu_cxx12_Lock_policyE2EE15_M_weak_releaseEv=so_stub_for_libtelux_common
-Wl,--defsym=_ZNSt17_Function_handlerIFbcENSt8__detail11_AnyMatcherINSt7__cxx1112regex_traitsIcEELb0ELb0ELb0EEEE9_M_invokeERKSt9_Any_dataOc=so_stub_for_libtelux_common
-Wl,--defsym=_ZNSt17_Function_handlerIFbcENSt8__detail11_AnyMatcherINSt7__cxx1112regex_traitsIcEELb0ELb0ELb1EEEE9_M_invokeERKSt9_Any_dataOc=so_stub_for_libtelux_common
-Wl,--defsym=_ZNSt17_Function_handlerIFbcENSt8__detail11_AnyMatcherINSt7__cxx1112regex_traitsIcEELb0ELb1ELb0EEEE9_M_invokeERKSt9_Any_dataOc=so_stub_for_libtelux_common
-Wl,--defsym=_ZNSt17_Function_handlerIFbcENSt8__detail11_AnyMatcherINSt7__cxx1112regex_traitsIcEELb0ELb1ELb1EEEE9_M_invokeERKSt9_Any_dataOc=so_stub_for_libtelux_common
-Wl,--defsym=_ZNSt17_Function_handlerIFbcENSt8__detail11_AnyMatcherINSt7__cxx1112regex_traitsIcEELb1ELb0ELb0EEEE9_M_invokeERKSt9_Any_dataOc=so_stub_for_libtelux_common
-Wl,--defsym=_ZNSt17_Function_handlerIFbcENSt8__detail11_AnyMatcherINSt7__cxx1112regex_traitsIcEELb1ELb0ELb1EEEE9_M_invokeERKSt9_Any_dataOc=so_stub_for_libtelux_common
-Wl,--defsym=_ZNSt17_Function_handlerIFbcENSt8__detail11_AnyMatcherINSt7__cxx1112regex_traitsIcEELb1ELb1ELb0EEEE9_M_invokeERKSt9_Any_dataOc=so_stub_for_libtelux_common
-Wl,--defsym=_ZNSt17_Function_handlerIFbcENSt8__detail11_AnyMatcherINSt7__cxx1112regex_traitsIcEELb1ELb1ELb1EEEE9_M_invokeERKSt9_Any_dataOc=so_stub_for_libtelux_common
-Wl,--defsym=_ZNSt17_Function_handlerIFbcENSt8__detail12_CharMatcherINSt7__cxx1112regex_traitsIcEELb0ELb0EEEE9_M_invokeERKSt9_Any_dataOc=so_stub_for_libtelux_common
-Wl,--defsym=_ZNSt17_Function_handlerIFbcENSt8__detail12_CharMatcherINSt7__cxx1112regex_traitsIcEELb0ELb1EEEE9_M_invokeERKSt9_Any_dataOc=so_stub_for_libtelux_common
-Wl,--defsym=_ZNSt17_Function_handlerIFbcENSt8__detail12_CharMatcherINSt7__cxx1112regex_traitsIcEELb1ELb0EEEE9_M_invokeERKSt9_Any_dataOc=so_stub_for_libtelux_common
-Wl,--defsym=_ZNSt17_Function_handlerIFbcENSt8__detail12_CharMatcherINSt7__cxx1112regex_traitsIcEELb1ELb1EEEE9_M_invokeERKSt9_Any_dataOc=so_stub_for_libtelux_common
-Wl,--defsym=_ZNSt17_Function_handlerIFbcENSt8__detail15_BracketMatcherINSt7__cxx1112regex_traitsIcEELb0ELb0EEEE9_M_invokeERKSt9_Any_dataOc=so_stub_for_libtelux_common
-Wl,--defsym=_ZNSt17_Function_handlerIFbcENSt8__detail15_BracketMatcherINSt7__cxx1112regex_traitsIcEELb0ELb1EEEE9_M_invokeERKSt9_Any_dataOc=so_stub_for_libtelux_common
-Wl,--defsym=_ZNSt17_Function_handlerIFbcENSt8__detail15_BracketMatcherINSt7__cxx1112regex_traitsIcEELb1ELb0EEEE9_M_invokeERKSt9_Any_dataOc=so_stub_for_libtelux_common
-Wl,--defsym=_ZNSt17_Function_handlerIFbcENSt8__detail15_BracketMatcherINSt7__cxx1112regex_traitsIcEELb1ELb1EEEE9_M_invokeERKSt9_Any_dataOc=so_stub_for_libtelux_common
-Wl,--defsym=_ZNSt20__uninitialized_copyILb0EE13__uninit_copyIN9__gnu_cxx17__normal_iteratorIPKNSt7__cxx1112basic_stringIcSt11char_traitsIcESaIcEEESt6vectorIS9_SaIS9_EEEEPS9_EET0_T_SI_SH_=so_stub_for_libtelux_common
-Wl,--defsym=_ZNSt20__uninitialized_copyILb0EE13__uninit_copyIN9__gnu_cxx17__normal_iteratorIPKSt4pairINSt7__cxx1112basic_stringIcSt11char_traitsIcESaIcEEESA_ESt6vectorISB_SaISB_EEEEPSB_EET0_T_SK_SJ_=so_stub_for_libtelux_common
-Wl,--defsym=_ZNSt20__uninitialized_copyILb0EE13__uninit_copyIPKNSt8__detail6_StateIcEEPS4_EET0_T_S9_S8_=so_stub_for_libtelux_common
-Wl,--defsym=_ZNSt20__uninitialized_copyILb0EE13__uninit_copyISt13move_iteratorIPSt4pairINSt7__cxx1112basic_stringIcSt11char_traitsIcESaIcEEES9_EESB_EET0_T_SE_SD_=so_stub_for_libtelux_common
-Wl,--defsym=_ZNSt23_Sp_counted_ptr_inplaceIN5telux6common9TaskQueueESaIS2_ELN9__gnu_cxx12_Lock_policyE2EE10_M_destroyEv=so_stub_for_libtelux_common
-Wl,--defsym=_ZNSt23_Sp_counted_ptr_inplaceIN5telux6common9TaskQueueESaIS2_ELN9__gnu_cxx12_Lock_policyE2EE10_M_disposeEv=so_stub_for_libtelux_common
-Wl,--defsym=_ZNSt23_Sp_counted_ptr_inplaceIN5telux6common9TaskQueueESaIS2_ELN9__gnu_cxx12_Lock_policyE2EE14_M_get_deleterERKSt9type_info=so_stub_for_libtelux_common
-Wl,--defsym=_ZNSt23_Sp_counted_ptr_inplaceIN5telux6common9TaskQueueESaIS2_ELN9__gnu_cxx12_Lock_policyE2EED0Ev=so_stub_for_libtelux_common
-Wl,--defsym=_ZNSt23_Sp_counted_ptr_inplaceIN5telux6common9TaskQueueESaIS2_ELN9__gnu_cxx12_Lock_policyE2EED1Ev=so_stub_for_libtelux_common
-Wl,--defsym=_ZNSt23_Sp_counted_ptr_inplaceIN5telux6common9TaskQueueESaIS2_ELN9__gnu_cxx12_Lock_policyE2EED2Ev=so_stub_for_libtelux_common
-Wl,--defsym=_ZNSt23_Sp_counted_ptr_inplaceINSt8__detail4_NFAINSt7__cxx1112regex_traitsIcEEEESaIS5_ELN9__gnu_cxx12_Lock_policyE2EE10_M_destroyEv=so_stub_for_libtelux_common
-Wl,--defsym=_ZNSt23_Sp_counted_ptr_inplaceINSt8__detail4_NFAINSt7__cxx1112regex_traitsIcEEEESaIS5_ELN9__gnu_cxx12_Lock_policyE2EE10_M_disposeEv=so_stub_for_libtelux_common
-Wl,--defsym=_ZNSt23_Sp_counted_ptr_inplaceINSt8__detail4_NFAINSt7__cxx1112regex_traitsIcEEEESaIS5_ELN9__gnu_cxx12_Lock_policyE2EE14_M_get_deleterERKSt9type_info=so_stub_for_libtelux_common
-Wl,--defsym=_ZNSt23_Sp_counted_ptr_inplaceINSt8__detail4_NFAINSt7__cxx1112regex_traitsIcEEEESaIS5_ELN9__gnu_cxx12_Lock_policyE2EED0Ev=so_stub_for_libtelux_common
-Wl,--defsym=_ZNSt23_Sp_counted_ptr_inplaceINSt8__detail4_NFAINSt7__cxx1112regex_traitsIcEEEESaIS5_ELN9__gnu_cxx12_Lock_policyE2EED1Ev=so_stub_for_libtelux_common
-Wl,--defsym=_ZNSt23_Sp_counted_ptr_inplaceINSt8__detail4_NFAINSt7__cxx1112regex_traitsIcEEEESaIS5_ELN9__gnu_cxx12_Lock_policyE2EED2Ev=so_stub_for_libtelux_common
-Wl,--defsym=_ZNSt3mapIiN5telux6common9ErrorCodeESt4lessIiESaISt4pairIKiS2_EEED1Ev=so_stub_for_libtelux_common
-Wl,--defsym=_ZNSt3mapIiN5telux6common9ErrorCodeESt4lessIiESaISt4pairIKiS2_EEED2Ev=so_stub_for_libtelux_common
-Wl,--defsym=_ZNSt3mapIiN5telux6common9ErrorCodeESt4lessIiESaISt4pairIKiS2_EEEixEOi=so_stub_for_libtelux_common
-Wl,--defsym=_ZNSt3mapIiN5telux6common9ErrorCodeESt4lessIiESaISt4pairIKiS2_EEEixERS6_=so_stub_for_libtelux_common
-Wl,--defsym=_ZNSt3mapIiNSt7__cxx1112basic_stringIcSt11char_traitsIcESaIcEEESt4lessIiESaISt4pairIKiS5_EEED1Ev=so_stub_for_libtelux_common
-Wl,--defsym=_ZNSt3mapIiNSt7__cxx1112basic_stringIcSt11char_traitsIcESaIcEEESt4lessIiESaISt4pairIKiS5_EEED2Ev=so_stub_for_libtelux_common
-Wl,--defsym=_ZNSt3mapIiNSt7__cxx1112basic_stringIcSt11char_traitsIcESaIcEEESt4lessIiESaISt4pairIKiS5_EEEixEOi=so_stub_for_libtelux_common
-Wl,--defsym=_ZNSt3mapIiNSt7__cxx1112basic_stringIcSt11char_traitsIcESaIcEEESt4lessIiESaISt4pairIKiS5_EEEixERS9_=so_stub_for_libtelux_common
-Wl,--defsym=_ZNSt3mapIiNSt7__cxx114listISt8weak_ptrIN5telux6common15ResponseHandlerEESaIS6_EEESt4lessIiESaISt4pairIKiS8_EEEixERSC_=so_stub_for_libtelux_common
-Wl,--defsym=_ZNSt3mapIllSt4lessIlESaISt4pairIKllEEEixERS3_=so_stub_for_libtelux_common
-Wl,--defsym=_ZNSt3mapIN5telux6common9ErrorCodeENSt7__cxx1112basic_stringIcSt11char_traitsIcESaIcEEESt4lessIS2_ESaISt4pairIKS2_S8_EEED1Ev=so_stub_for_libtelux_common
-Wl,--defsym=_ZNSt3mapIN5telux6common9ErrorCodeENSt7__cxx1112basic_stringIcSt11char_traitsIcESaIcEEESt4lessIS2_ESaISt4pairIKS2_S8_EEED2Ev=so_stub_for_libtelux_common
-Wl,--defsym=_ZNSt3mapIN5telux6common9ErrorCodeENSt7__cxx1112basic_stringIcSt11char_traitsIcESaIcEEESt4lessIS2_ESaISt4pairIKS2_S8_EEEixEOS2_=so_stub_for_libtelux_common
-Wl,--defsym=_ZNSt3mapIN5telux6common9ErrorCodeENSt7__cxx1112basic_stringIcSt11char_traitsIcESaIcEEESt4lessIS2_ESaISt4pairIKS2_S8_EEEixERSC_=so_stub_for_libtelux_common
-Wl,--defsym=_ZNSt3mapINSt7__cxx1112basic_stringIcSt11char_traitsIcESaIcEEES5_St4lessIS5_ESaISt4pairIKS5_S5_EEED1Ev=so_stub_for_libtelux_common
-Wl,--defsym=_ZNSt3mapINSt7__cxx1112basic_stringIcSt11char_traitsIcESaIcEEES5_St4lessIS5_ESaISt4pairIKS5_S5_EEED2Ev=so_stub_for_libtelux_common
-Wl,--defsym=_ZNSt3mapINSt7__cxx1112basic_stringIcSt11char_traitsIcESaIcEEES5_St4lessIS5_ESaISt4pairIKS5_S5_EEEixERS9_=so_stub_for_libtelux_common
-Wl,--defsym=_ZNSt4pairIKNSt7__cxx1112basic_stringIcSt11char_traitsIcESaIcEEES5_ED1Ev=so_stub_for_libtelux_common
-Wl,--defsym=_ZNSt4pairIKNSt7__cxx1112basic_stringIcSt11char_traitsIcESaIcEEES5_ED2Ev=so_stub_for_libtelux_common
-Wl,--defsym=_ZNSt4pairINSt7__cxx1112basic_stringIcSt11char_traitsIcESaIcEEES5_ED1Ev=so_stub_for_libtelux_common
-Wl,--defsym=_ZNSt4pairINSt7__cxx1112basic_stringIcSt11char_traitsIcESaIcEEES5_ED2Ev=so_stub_for_libtelux_common
-Wl,--defsym=_ZNSt5dequeIlSaIlEE16_M_push_back_auxIJRKlEEEvDpOT_=so_stub_for_libtelux_common
-Wl,--defsym=_ZNSt5dequeINSt8__detail9_StateSeqINSt7__cxx1112regex_traitsIcEEEESaIS5_EE16_M_push_back_auxIJRKS5_EEEvDpOT_=so_stub_for_libtelux_common
-Wl,--defsym=_ZNSt5dequeINSt8__detail9_StateSeqINSt7__cxx1112regex_traitsIcEEEESaIS5_EE16_M_push_back_auxIJS5_EEEvDpOT_=so_stub_for_libtelux_common
-Wl,--defsym=_ZNSt5dequeINSt8__detail9_StateSeqINSt7__cxx1112regex_traitsIcEEEESaIS5_EE17_M_reallocate_mapEjb=so_stub_for_libtelux_common
-Wl,--defsym=_ZNSt5dequeISt13packaged_taskIFvvEESaIS2_EE15_M_erase_at_endESt15_Deque_iteratorIS2_RS2_PS2_E=so_stub_for_libtelux_common
-Wl,--defsym=_ZNSt5dequeISt13packaged_taskIFvvEESaIS2_EE19_M_destroy_data_auxESt15_Deque_iteratorIS2_RS2_PS2_ES8_=so_stub_for_libtelux_common
-Wl,--defsym=_ZNSt5dequeISt13packaged_taskIFvvEESaIS2_EED1Ev=so_stub_for_libtelux_common
-Wl,--defsym=_ZNSt5dequeISt13packaged_taskIFvvEESaIS2_EED2Ev=so_stub_for_libtelux_common
-Wl,--defsym=_ZNSt6vectorIcSaIcEE17_M_realloc_insertIJcEEEvN9__gnu_cxx17__normal_iteratorIPcS1_EEDpOT_=so_stub_for_libtelux_common
-Wl,--defsym=_ZNSt6vectorIcSaIcEEC1ERKS1_=so_stub_for_libtelux_common
-Wl,--defsym=_ZNSt6vectorIcSaIcEEC1IPKcvEET_S5_RKS0_=so_stub_for_libtelux_common
-Wl,--defsym=_ZNSt6vectorIcSaIcEEC2ERKS1_=so_stub_for_libtelux_common
-Wl,--defsym=_ZNSt6vectorIcSaIcEEC2IPKcvEET_S5_RKS0_=so_stub_for_libtelux_common
-Wl,--defsym=_ZNSt6vectorIjSaIjEE17_M_realloc_insertIJRKjEEEvN9__gnu_cxx17__normal_iteratorIPjS1_EEDpOT_=so_stub_for_libtelux_common
-Wl,--defsym=_ZNSt6vectorINSt7__cxx1112basic_stringIcSt11char_traitsIcESaIcEEESaIS5_EE17_M_realloc_insertIJRKS5_EEEvN9__gnu_cxx17__normal_iteratorIPS5_S7_EEDpOT_=so_stub_for_libtelux_common
-Wl,--defsym=_ZNSt6vectorINSt7__cxx1112basic_stringIcSt11char_traitsIcESaIcEEESaIS5_EE17_M_realloc_insertIJRS5_EEEvN9__gnu_cxx17__normal_iteratorIPS5_S7_EEDpOT_=so_stub_for_libtelux_common
-Wl,--defsym=_ZNSt6vectorINSt7__cxx1112basic_stringIcSt11char_traitsIcESaIcEEESaIS5_EE9push_backERKS5_=so_stub_for_libtelux_common
-Wl,--defsym=_ZNSt6vectorINSt7__cxx1112basic_stringIcSt11char_traitsIcESaIcEEESaIS5_EEC1ERKS7_=so_stub_for_libtelux_common
-Wl,--defsym=_ZNSt6vectorINSt7__cxx1112basic_stringIcSt11char_traitsIcESaIcEEESaIS5_EEC2ERKS7_=so_stub_for_libtelux_common
-Wl,--defsym=_ZNSt6vectorINSt7__cxx1112basic_stringIcSt11char_traitsIcESaIcEEESaIS5_EED1Ev=so_stub_for_libtelux_common
-Wl,--defsym=_ZNSt6vectorINSt7__cxx1112basic_stringIcSt11char_traitsIcESaIcEEESaIS5_EED2Ev=so_stub_for_libtelux_common
-Wl,--defsym=_ZNSt6vectorINSt7__cxx1112regex_traitsIcE10_RegexMaskESaIS3_EE17_M_realloc_insertIJRKS3_EEEvN9__gnu_cxx17__normal_iteratorIPS3_S5_EEDpOT_=so_stub_for_libtelux_common
-Wl,--defsym=_ZNSt6vectorINSt7__cxx1112regex_traitsIcE10_RegexMaskESaIS3_EEC1ERKS5_=so_stub_for_libtelux_common
-Wl,--defsym=_ZNSt6vectorINSt7__cxx1112regex_traitsIcE10_RegexMaskESaIS3_EEC2ERKS5_=so_stub_for_libtelux_common
-Wl,--defsym=_ZNSt6vectorINSt7__cxx119sub_matchIN9__gnu_cxx17__normal_iteratorIPKcNS0_12basic_stringIcSt11char_traitsIcESaIcEEEEEEESaISC_EE17_M_default_appendEj=so_stub_for_libtelux_common
-Wl,--defsym=_ZNSt6vectorINSt7__cxx119sub_matchIN9__gnu_cxx17__normal_iteratorIPKcNS0_12basic_stringIcSt11char_traitsIcESaIcEEEEEEESaISC_EE6resizeEj=so_stub_for_libtelux_common
-Wl,--defsym=_ZNSt6vectorINSt7__cxx119sub_matchIN9__gnu_cxx17__normal_iteratorIPKcNS0_12basic_stringIcSt11char_traitsIcESaIcEEEEEEESaISC_EEaSERKSE_=so_stub_for_libtelux_common
-Wl,--defsym=_ZNSt6vectorINSt7__cxx119sub_matchIN9__gnu_cxx17__normal_iteratorIPKcNS0_12basic_stringIcSt11char_traitsIcESaIcEEEEEEESaISC_EEC1ERKSE_=so_stub_for_libtelux_common
-Wl,--defsym=_ZNSt6vectorINSt7__cxx119sub_matchIN9__gnu_cxx17__normal_iteratorIPKcNS0_12basic_stringIcSt11char_traitsIcESaIcEEEEEEESaISC_EEC2ERKSE_=so_stub_for_libtelux_common
-Wl,--defsym=_ZNSt6vectorINSt8__detail6_StateIcEESaIS2_EE12emplace_backIJS2_EEEvDpOT_=so_stub_for_libtelux_common
-Wl,--defsym=_ZNSt6vectorINSt8__detail6_StateIcEESaIS2_EE17_M_realloc_insertIJS2_EEEvN9__gnu_cxx17__normal_iteratorIPS2_S4_EEDpOT_=so_stub_for_libtelux_common
-Wl,--defsym=_ZNSt6vectorINSt8__detail6_StateIcEESaIS2_EED1Ev=so_stub_for_libtelux_common
-Wl,--defsym=_ZNSt6vectorINSt8__detail6_StateIcEESaIS2_EED2Ev=so_stub_for_libtelux_common
-Wl,--defsym=_ZNSt6vectorISt10unique_ptrIN5telux6common10TaskThreadESt14default_deleteIS3_EESaIS6_EE17_M_realloc_insertIJS6_EEEvN9__gnu_cxx17__normal_iteratorIPS6_S8_EEDpOT_=so_stub_for_libtelux_common
-Wl,--defsym=_ZNSt6vectorISt10unique_ptrIN5telux6common10TaskThreadESt14default_deleteIS3_EESaIS6_EED1Ev=so_stub_for_libtelux_common
-Wl,--defsym=_ZNSt6vectorISt10unique_ptrIN5telux6common10TaskThreadESt14default_deleteIS3_EESaIS6_EED2Ev=so_stub_for_libtelux_common
-Wl,--defsym=_ZNSt6vectorISt4pairIccESaIS1_EE17_M_realloc_insertIJS1_EEEvN9__gnu_cxx17__normal_iteratorIPS1_S3_EEDpOT_=so_stub_for_libtelux_common
-Wl,--defsym=_ZNSt6vectorISt4pairIccESaIS1_EEC1ERKS3_=so_stub_for_libtelux_common
-Wl,--defsym=_ZNSt6vectorISt4pairIccESaIS1_EEC2ERKS3_=so_stub_for_libtelux_common
-Wl,--defsym=_ZNSt6vectorISt4pairIlS_INSt7__cxx119sub_matchIN9__gnu_cxx17__normal_iteratorIPKcNS1_12basic_stringIcSt11char_traitsIcESaIcEEEEEEESaISD_EEESaISG_EE12emplace_backIJRlRKSF_EEEvDpOT_=so_stub_for_libtelux_common
-Wl,--defsym=_ZNSt6vectorISt4pairIlS_INSt7__cxx119sub_matchIN9__gnu_cxx17__normal_iteratorIPKcNS1_12basic_stringIcSt11char_traitsIcESaIcEEEEEEESaISD_EEESaISG_EE17_M_realloc_insertIJRlRKSF_EEEvNS4_IPSG_SI_EEDpOT_=so_stub_for_libtelux_common
-Wl,--defsym=_ZNSt6vectorISt4pairIlS_INSt7__cxx119sub_matchIN9__gnu_cxx17__normal_iteratorIPKcNS1_12basic_stringIcSt11char_traitsIcESaIcEEEEEEESaISD_EEESaISG_EED1Ev=so_stub_for_libtelux_common
-Wl,--defsym=_ZNSt6vectorISt4pairIlS_INSt7__cxx119sub_matchIN9__gnu_cxx17__normal_iteratorIPKcNS1_12basic_stringIcSt11char_traitsIcESaIcEEEEEEESaISD_EEESaISG_EED2Ev=so_stub_for_libtelux_common
-Wl,--defsym=_ZNSt6vectorISt4pairIN9__gnu_cxx17__normal_iteratorIPKcNSt7__cxx1112basic_stringIcSt11char_traitsIcESaIcEEEEEiESaISC_EEC1EjRKSD_=so_stub_for_libtelux_common
-Wl,--defsym=_ZNSt6vectorISt4pairIN9__gnu_cxx17__normal_iteratorIPKcNSt7__cxx1112basic_stringIcSt11char_traitsIcESaIcEEEEEiESaISC_EEC2EjRKSD_=so_stub_for_libtelux_common
-Wl,--defsym=_ZNSt6vectorISt4pairINSt7__cxx1112basic_stringIcSt11char_traitsIcESaIcEEES6_ESaIS7_EE12emplace_backIJS7_EEEvDpOT_=so_stub_for_libtelux_common
-Wl,--defsym=_ZNSt6vectorISt4pairINSt7__cxx1112basic_stringIcSt11char_traitsIcESaIcEEES6_ESaIS7_EE17_M_realloc_insertIJS7_EEEvN9__gnu_cxx17__normal_iteratorIPS7_S9_EEDpOT_=so_stub_for_libtelux_common
-Wl,--defsym=_ZNSt6vectorISt4pairINSt7__cxx1112basic_stringIcSt11char_traitsIcESaIcEEES6_ESaIS7_EEC1ERKS9_=so_stub_for_libtelux_common
-Wl,--defsym=_ZNSt6vectorISt4pairINSt7__cxx1112basic_stringIcSt11char_traitsIcESaIcEEES6_ESaIS7_EEC2ERKS9_=so_stub_for_libtelux_common
-Wl,--defsym=_ZNSt6vectorISt4pairINSt7__cxx1112basic_stringIcSt11char_traitsIcESaIcEEES6_ESaIS7_EED1Ev=so_stub_for_libtelux_common
-Wl,--defsym=_ZNSt6vectorISt4pairINSt7__cxx1112basic_stringIcSt11char_traitsIcESaIcEEES6_ESaIS7_EED2Ev=so_stub_for_libtelux_common
-Wl,--defsym=_ZNSt7__cxx1110_List_baseISt10shared_ptrIN5telux6common15ResponseHandlerEESaIS5_EE8_M_clearEv=so_stub_for_libtelux_common
-Wl,--defsym=_ZNSt7__cxx1110_List_baseISt8weak_ptrIN5telux6common15ResponseHandlerEESaIS5_EE8_M_clearEv=so_stub_for_libtelux_common
-Wl,--defsym=_ZNSt7__cxx1111basic_regexIcNS_12regex_traitsIcEEEC1IPKcEET_S7_NSt15regex_constants18syntax_option_typeE=so_stub_for_libtelux_common
-Wl,--defsym=_ZNSt7__cxx1111basic_regexIcNS_12regex_traitsIcEEEC2IPKcEET_S7_NSt15regex_constants18syntax_option_typeE=so_stub_for_libtelux_common
-Wl,--defsym=_ZNSt7__cxx1111basic_regexIcNS_12regex_traitsIcEEED1Ev=so_stub_for_libtelux_common
-Wl,--defsym=_ZNSt7__cxx1111basic_regexIcNS_12regex_traitsIcEEED2Ev=so_stub_for_libtelux_common
-Wl,--defsym=_ZNSt7__cxx1112basic_stringIcSt11char_traitsIcESaIcEE12_M_constructIN9__gnu_cxx17__normal_iteratorIPKcS4_EEEEvT_SB_St20forward_iterator_tag=so_stub_for_libtelux_common
-Wl,--defsym=_ZNSt7__cxx1112basic_stringIcSt11char_traitsIcESaIcEE12_M_constructIPcEEvT_S7_St20forward_iterator_tag=so_stub_for_libtelux_common
-Wl,--defsym=_ZNSt7__cxx1112basic_stringIcSt11char_traitsIcESaIcEE12_M_constructIPKcEEvT_S8_St20forward_iterator_tag=so_stub_for_libtelux_common
-Wl,--defsym=_ZNSt7__cxx1114regex_iteratorIN9__gnu_cxx17__normal_iteratorIPKcNS_12basic_stringIcSt11char_traitsIcESaIcEEEEEcNS_12regex_traitsIcEEEC1ESA_SA_RKNS_11basic_regexIcSC_EENSt15regex_constants15match_flag_typeE=so_stub_for_libtelux_common
-Wl,--defsym=_ZNSt7__cxx1114regex_iteratorIN9__gnu_cxx17__normal_iteratorIPKcNS_12basic_stringIcSt11char_traitsIcESaIcEEEEEcNS_12regex_traitsIcEEEC2ESA_SA_RKNS_11basic_regexIcSC_EENSt15regex_constants15match_flag_typeE=so_stub_for_libtelux_common
-Wl,--defsym=_ZNSt7__cxx1114regex_iteratorIN9__gnu_cxx17__normal_iteratorIPKcNS_12basic_stringIcSt11char_traitsIcESaIcEEEEEcNS_12regex_traitsIcEEEppEv=so_stub_for_libtelux_common
-Wl,--defsym=_ZNSt7__cxx114listISt8weak_ptrIN5telux6common15ResponseHandlerEESaIS5_EE8_M_eraseESt14_List_iteratorIS5_E=so_stub_for_libtelux_common
-Wl,--defsym=_ZNSt7__cxx114listISt8weak_ptrIN5telux6common15ResponseHandlerEESaIS5_EE9_M_insertIJRSt10shared_ptrIS4_EEEEvSt14_List_iteratorIS5_EDpOT_=so_stub_for_libtelux_common
-Wl,--defsym=_ZNSt8__detail12_ScannerBaseC1ENSt15regex_constants18syntax_option_typeE=so_stub_for_libtelux_common
-Wl,--defsym=_ZNSt8__detail12_ScannerBaseC2ENSt15regex_constants18syntax_option_typeE=so_stub_for_libtelux_common
-Wl,--defsym=_ZNSt8__detail13__compile_nfaINSt7__cxx1112regex_traitsIcEEPKcEENSt9enable_ifIXsrNS_27__is_contiguous_normal_iterIT0_EE5valueESt10shared_ptrIKNS_4_NFAIT_EEEE4typeES8_S8_RKNSC_11locale_typeENSt15regex_constants18syntax_option_typeE=so_stub_for_libtelux_common
-Wl,--defsym=_ZNSt8__detail15_BracketMatcherINSt7__cxx1112regex_traitsIcEELb0ELb0EE13_M_make_cacheESt17integral_constantIbLb1EE=so_stub_for_libtelux_common
-Wl,--defsym=_ZNSt8__detail15_BracketMatcherINSt7__cxx1112regex_traitsIcEELb0ELb0EE13_M_make_rangeEcc=so_stub_for_libtelux_common
-Wl,--defsym=_ZNSt8__detail15_BracketMatcherINSt7__cxx1112regex_traitsIcEELb0ELb0EE22_M_add_character_classERKNS1_12basic_stringIcSt11char_traitsIcESaIcEEEb=so_stub_for_libtelux_common
-Wl,--defsym=_ZNSt8__detail15_BracketMatcherINSt7__cxx1112regex_traitsIcEELb0ELb0EE22_M_add_collate_elementERKNS1_12basic_stringIcSt11char_traitsIcESaIcEEE=so_stub_for_libtelux_common
-Wl,--defsym=_ZNSt8__detail15_BracketMatcherINSt7__cxx1112regex_traitsIcEELb0ELb0EE24_M_add_equivalence_classERKNS1_12basic_stringIcSt11char_traitsIcESaIcEEE=so_stub_for_libtelux_common
-Wl,--defsym=_ZNSt8__detail15_BracketMatcherINSt7__cxx1112regex_traitsIcEELb0ELb0EE8_M_readyEv=so_stub_for_libtelux_common
-Wl,--defsym=_ZNSt8__detail15_BracketMatcherINSt7__cxx1112regex_traitsIcEELb0ELb0EEC1EOS4_=so_stub_for_libtelux_common
-Wl,--defsym=_ZNSt8__detail15_BracketMatcherINSt7__cxx1112regex_traitsIcEELb0ELb0EEC1ERKS4_=so_stub_for_libtelux_common
-Wl,--defsym=_ZNSt8__detail15_BracketMatcherINSt7__cxx1112regex_traitsIcEELb0ELb0EEC2EOS4_=so_stub_for_libtelux_common
-Wl,--defsym=_ZNSt8__detail15_BracketMatcherINSt7__cxx1112regex_traitsIcEELb0ELb0EEC2ERKS4_=so_stub_for_libtelux_common
-Wl,--defsym=_ZNSt8__detail15_BracketMatcherINSt7__cxx1112regex_traitsIcEELb0ELb0EED1Ev=so_stub_for_libtelux_common
-Wl,--defsym=_ZNSt8__detail15_BracketMatcherINSt7__cxx1112regex_traitsIcEELb0ELb0EED2Ev=so_stub_for_libtelux_common
-Wl,--defsym=_ZNSt8__detail15_BracketMatcherINSt7__cxx1112regex_traitsIcEELb0ELb1EE13_M_make_cacheESt17integral_constantIbLb1EE=so_stub_for_libtelux_common
-Wl,--defsym=_ZNSt8__detail15_BracketMatcherINSt7__cxx1112regex_traitsIcEELb0ELb1EE13_M_make_rangeEcc=so_stub_for_libtelux_common
-Wl,--defsym=_ZNSt8__detail15_BracketMatcherINSt7__cxx1112regex_traitsIcEELb0ELb1EE22_M_add_character_classERKNS1_12basic_stringIcSt11char_traitsIcESaIcEEEb=so_stub_for_libtelux_common
-Wl,--defsym=_ZNSt8__detail15_BracketMatcherINSt7__cxx1112regex_traitsIcEELb0ELb1EE22_M_add_collate_elementERKNS1_12basic_stringIcSt11char_traitsIcESaIcEEE=so_stub_for_libtelux_common
-Wl,--defsym=_ZNSt8__detail15_BracketMatcherINSt7__cxx1112regex_traitsIcEELb0ELb1EE24_M_add_equivalence_classERKNS1_12basic_stringIcSt11char_traitsIcESaIcEEE=so_stub_for_libtelux_common
-Wl,--defsym=_ZNSt8__detail15_BracketMatcherINSt7__cxx1112regex_traitsIcEELb0ELb1EE8_M_readyEv=so_stub_for_libtelux_common
-Wl,--defsym=_ZNSt8__detail15_BracketMatcherINSt7__cxx1112regex_traitsIcEELb0ELb1EEC1EOS4_=so_stub_for_libtelux_common
-Wl,--defsym=_ZNSt8__detail15_BracketMatcherINSt7__cxx1112regex_traitsIcEELb0ELb1EEC1ERKS4_=so_stub_for_libtelux_common
-Wl,--defsym=_ZNSt8__detail15_BracketMatcherINSt7__cxx1112regex_traitsIcEELb0ELb1EEC2EOS4_=so_stub_for_libtelux_common
-Wl,--defsym=_ZNSt8__detail15_BracketMatcherINSt7__cxx1112regex_traitsIcEELb0ELb1EEC2ERKS4_=so_stub_for_libtelux_common
-Wl,--defsym=_ZNSt8__detail15_BracketMatcherINSt7__cxx1112regex_traitsIcEELb0ELb1EED1Ev=so_stub_for_libtelux_common
-Wl,--defsym=_ZNSt8__detail15_BracketMatcherINSt7__cxx1112regex_traitsIcEELb0ELb1EED2Ev=so_stub_for_libtelux_common
-Wl,--defsym=_ZNSt8__detail15_BracketMatcherINSt7__cxx1112regex_traitsIcEELb1ELb0EE11_M_add_charEc=so_stub_for_libtelux_common
-Wl,--defsym=_ZNSt8__detail15_BracketMatcherINSt7__cxx1112regex_traitsIcEELb1ELb0EE13_M_make_cacheESt17integral_constantIbLb1EE=so_stub_for_libtelux_common
-Wl,--defsym=_ZNSt8__detail15_BracketMatcherINSt7__cxx1112regex_traitsIcEELb1ELb0EE13_M_make_rangeEcc=so_stub_for_libtelux_common
-Wl,--defsym=_ZNSt8__detail15_BracketMatcherINSt7__cxx1112regex_traitsIcEELb1ELb0EE22_M_add_character_classERKNS1_12basic_stringIcSt11char_traitsIcESaIcEEEb=so_stub_for_libtelux_common
-Wl,--defsym=_ZNSt8__detail15_BracketMatcherINSt7__cxx1112regex_traitsIcEELb1ELb0EE22_M_add_collate_elementERKNS1_12basic_stringIcSt11char_traitsIcESaIcEEE=so_stub_for_libtelux_common
-Wl,--defsym=_ZNSt8__detail15_BracketMatcherINSt7__cxx1112regex_traitsIcEELb1ELb0EE24_M_add_equivalence_classERKNS1_12basic_stringIcSt11char_traitsIcESaIcEEE=so_stub_for_libtelux_common
-Wl,--defsym=_ZNSt8__detail15_BracketMatcherINSt7__cxx1112regex_traitsIcEELb1ELb0EE8_M_readyEv=so_stub_for_libtelux_common
-Wl,--defsym=_ZNSt8__detail15_BracketMatcherINSt7__cxx1112regex_traitsIcEELb1ELb0EEC1EOS4_=so_stub_for_libtelux_common
-Wl,--defsym=_ZNSt8__detail15_BracketMatcherINSt7__cxx1112regex_traitsIcEELb1ELb0EEC1ERKS4_=so_stub_for_libtelux_common
-Wl,--defsym=_ZNSt8__detail15_BracketMatcherINSt7__cxx1112regex_traitsIcEELb1ELb0EEC2EOS4_=so_stub_for_libtelux_common
-Wl,--defsym=_ZNSt8__detail15_BracketMatcherINSt7__cxx1112regex_traitsIcEELb1ELb0EEC2ERKS4_=so_stub_for_libtelux_common
-Wl,--defsym=_ZNSt8__detail15_BracketMatcherINSt7__cxx1112regex_traitsIcEELb1ELb0EED1Ev=so_stub_for_libtelux_common
-Wl,--defsym=_ZNSt8__detail15_BracketMatcherINSt7__cxx1112regex_traitsIcEELb1ELb0EED2Ev=so_stub_for_libtelux_common
-Wl,--defsym=_ZNSt8__detail15_BracketMatcherINSt7__cxx1112regex_traitsIcEELb1ELb1EE11_M_add_charEc=so_stub_for_libtelux_common
-Wl,--defsym=_ZNSt8__detail15_BracketMatcherINSt7__cxx1112regex_traitsIcEELb1ELb1EE13_M_make_cacheESt17integral_constantIbLb1EE=so_stub_for_libtelux_common
-Wl,--defsym=_ZNSt8__detail15_BracketMatcherINSt7__cxx1112regex_traitsIcEELb1ELb1EE13_M_make_rangeEcc=so_stub_for_libtelux_common
-Wl,--defsym=_ZNSt8__detail15_BracketMatcherINSt7__cxx1112regex_traitsIcEELb1ELb1EE22_M_add_character_classERKNS1_12basic_stringIcSt11char_traitsIcESaIcEEEb=so_stub_for_libtelux_common
-Wl,--defsym=_ZNSt8__detail15_BracketMatcherINSt7__cxx1112regex_traitsIcEELb1ELb1EE22_M_add_collate_elementERKNS1_12basic_stringIcSt11char_traitsIcESaIcEEE=so_stub_for_libtelux_common
-Wl,--defsym=_ZNSt8__detail15_BracketMatcherINSt7__cxx1112regex_traitsIcEELb1ELb1EE24_M_add_equivalence_classERKNS1_12basic_stringIcSt11char_traitsIcESaIcEEE=so_stub_for_libtelux_common
-Wl,--defsym=_ZNSt8__detail15_BracketMatcherINSt7__cxx1112regex_traitsIcEELb1ELb1EE8_M_readyEv=so_stub_for_libtelux_common
-Wl,--defsym=_ZNSt8__detail15_BracketMatcherINSt7__cxx1112regex_traitsIcEELb1ELb1EEC1EOS4_=so_stub_for_libtelux_common
-Wl,--defsym=_ZNSt8__detail15_BracketMatcherINSt7__cxx1112regex_traitsIcEELb1ELb1EEC1ERKS4_=so_stub_for_libtelux_common
-Wl,--defsym=_ZNSt8__detail15_BracketMatcherINSt7__cxx1112regex_traitsIcEELb1ELb1EEC2EOS4_=so_stub_for_libtelux_common
-Wl,--defsym=_ZNSt8__detail15_BracketMatcherINSt7__cxx1112regex_traitsIcEELb1ELb1EEC2ERKS4_=so_stub_for_libtelux_common
-Wl,--defsym=_ZNSt8__detail15_BracketMatcherINSt7__cxx1112regex_traitsIcEELb1ELb1EED1Ev=so_stub_for_libtelux_common
-Wl,--defsym=_ZNSt8__detail15_BracketMatcherINSt7__cxx1112regex_traitsIcEELb1ELb1EED2Ev=so_stub_for_libtelux_common
-Wl,--defsym=_ZNSt8__detail16_Backref_matcherIN9__gnu_cxx17__normal_iteratorIPKcNSt7__cxx1112basic_stringIcSt11char_traitsIcESaIcEEEEENS5_12regex_traitsIcEEE8_M_applyESB_SB_SB_SB_=so_stub_for_libtelux_common
-Wl,--defsym=_ZNSt8__detail17__regex_algo_implIN9__gnu_cxx17__normal_iteratorIPKcNSt7__cxx1112basic_stringIcSt11char_traitsIcESaIcEEEEESaINS5_9sub_matchISB_EEEcNS5_12regex_traitsIcEELNS_20_RegexExecutorPolicyE0ELb0EEEbT_SI_RNS5_13match_resultsISI_T0_EERKNS5_11basic_regexIT1_T2_EENSt15regex_constants15match_flag_typeE=so_stub_for_libtelux_common
-Wl,--defsym=_ZNSt8__detail4_NFAINSt7__cxx1112regex_traitsIcEEE13_M_insert_altEllb=so_stub_for_libtelux_common
-Wl,--defsym=_ZNSt8__detail4_NFAINSt7__cxx1112regex_traitsIcEEE15_M_insert_dummyEv=so_stub_for_libtelux_common
-Wl,--defsym=_ZNSt8__detail4_NFAINSt7__cxx1112regex_traitsIcEEE16_M_insert_acceptEv=so_stub_for_libtelux_common
-Wl,--defsym=_ZNSt8__detail4_NFAINSt7__cxx1112regex_traitsIcEEE16_M_insert_repeatEllb=so_stub_for_libtelux_common
-Wl,--defsym=_ZNSt8__detail4_NFAINSt7__cxx1112regex_traitsIcEEE17_M_insert_backrefEj=so_stub_for_libtelux_common
-Wl,--defsym=_ZNSt8__detail4_NFAINSt7__cxx1112regex_traitsIcEEE17_M_insert_matcherESt8functionIFbcEE=so_stub_for_libtelux_common
-Wl,--defsym=_ZNSt8__detail4_NFAINSt7__cxx1112regex_traitsIcEEE18_M_eliminate_dummyEv=so_stub_for_libtelux_common
-Wl,--defsym=_ZNSt8__detail4_NFAINSt7__cxx1112regex_traitsIcEEE18_M_insert_line_endEv=so_stub_for_libtelux_common
-Wl,--defsym=_ZNSt8__detail4_NFAINSt7__cxx1112regex_traitsIcEEE19_M_insert_lookaheadElb=so_stub_for_libtelux_common
-Wl,--defsym=_ZNSt8__detail4_NFAINSt7__cxx1112regex_traitsIcEEE20_M_insert_line_beginEv=so_stub_for_libtelux_common
-Wl,--defsym=_ZNSt8__detail4_NFAINSt7__cxx1112regex_traitsIcEEE20_M_insert_word_boundEb=so_stub_for_libtelux_common
-Wl,--defsym=_ZNSt8__detail4_NFAINSt7__cxx1112regex_traitsIcEEE21_M_insert_subexpr_endEv=so_stub_for_libtelux_common
-Wl,--defsym=_ZNSt8__detail4_NFAINSt7__cxx1112regex_traitsIcEEE23_M_insert_subexpr_beginEv=so_stub_for_libtelux_common
-Wl,--defsym=_ZNSt8__detail4_NFAINSt7__cxx1112regex_traitsIcEEEC1ERKSt6localeNSt15regex_constants18syntax_option_typeE=so_stub_for_libtelux_common
-Wl,--defsym=_ZNSt8__detail4_NFAINSt7__cxx1112regex_traitsIcEEEC2ERKSt6localeNSt15regex_constants18syntax_option_typeE=so_stub_for_libtelux_common
-Wl,--defsym=_ZNSt8__detail8_ScannerIcE10_M_advanceEv=so_stub_for_libtelux_common
-Wl,--defsym=_ZNSt8__detail8_ScannerIcE12_M_eat_classEc=so_stub_for_libtelux_common
-Wl,--defsym=_ZNSt8__detail8_ScannerIcE14_M_scan_normalEv=so_stub_for_libtelux_common
-Wl,--defsym=_ZNSt8__detail8_ScannerIcE16_M_scan_in_braceEv=so_stub_for_libtelux_common
-Wl,--defsym=_ZNSt8__detail8_ScannerIcE17_M_eat_escape_awkEv=so_stub_for_libtelux_common
-Wl,--defsym=_ZNSt8__detail8_ScannerIcE18_M_eat_escape_ecmaEv=so_stub_for_libtelux_common
-Wl,--defsym=_ZNSt8__detail8_ScannerIcE18_M_scan_in_bracketEv=so_stub_for_libtelux_common
-Wl,--defsym=_ZNSt8__detail8_ScannerIcE19_M_eat_escape_posixEv=so_stub_for_libtelux_common
-Wl,--defsym=_ZNSt8__detail8_ScannerIcEC1EPKcS3_NSt15regex_constants18syntax_option_typeESt6locale=so_stub_for_libtelux_common
-Wl,--defsym=_ZNSt8__detail8_ScannerIcEC2EPKcS3_NSt15regex_constants18syntax_option_typeESt6locale=so_stub_for_libtelux_common
-Wl,--defsym=_ZNSt8__detail9_CompilerINSt7__cxx1112regex_traitsIcEEE11_M_try_charEv=so_stub_for_libtelux_common
-Wl,--defsym=_ZNSt8__detail9_CompilerINSt7__cxx1112regex_traitsIcEEE12_M_assertionEv=so_stub_for_libtelux_common
-Wl,--defsym=_ZNSt8__detail9_CompilerINSt7__cxx1112regex_traitsIcEEE13_M_quantifierEv=so_stub_for_libtelux_common
-Wl,--defsym=_ZNSt8__detail9_CompilerINSt7__cxx1112regex_traitsIcEEE14_M_alternativeEv=so_stub_for_libtelux_common
-Wl,--defsym=_ZNSt8__detail9_CompilerINSt7__cxx1112regex_traitsIcEEE14_M_disjunctionEv=so_stub_for_libtelux_common
-Wl,--defsym=_ZNSt8__detail9_CompilerINSt7__cxx1112regex_traitsIcEEE18_M_expression_termILb0ELb0EEEbRSt4pairIbcERNS_15_BracketMatcherIS3_XT_EXT0_EEE=so_stub_for_libtelux_common
-Wl,--defsym=_ZNSt8__detail9_CompilerINSt7__cxx1112regex_traitsIcEEE18_M_expression_termILb0ELb1EEEbRSt4pairIbcERNS_15_BracketMatcherIS3_XT_EXT0_EEE=so_stub_for_libtelux_common
-Wl,--defsym=_ZNSt8__detail9_CompilerINSt7__cxx1112regex_traitsIcEEE18_M_expression_termILb1ELb0EEEbRSt4pairIbcERNS_15_BracketMatcherIS3_XT_EXT0_EEE=so_stub_for_libtelux_common
-Wl,--defsym=_ZNSt8__detail9_CompilerINSt7__cxx1112regex_traitsIcEEE18_M_expression_termILb1ELb1EEEbRSt4pairIbcERNS_15_BracketMatcherIS3_XT_EXT0_EEE=so_stub_for_libtelux_common
-Wl,--defsym=_ZNSt8__detail9_CompilerINSt7__cxx1112regex_traitsIcEEE21_M_bracket_expressionEv=so_stub_for_libtelux_common
-Wl,--defsym=_ZNSt8__detail9_CompilerINSt7__cxx1112regex_traitsIcEEE22_M_insert_char_matcherILb0ELb0EEEvv=so_stub_for_libtelux_common
-Wl,--defsym=_ZNSt8__detail9_CompilerINSt7__cxx1112regex_traitsIcEEE22_M_insert_char_matcherILb0ELb1EEEvv=so_stub_for_libtelux_common
-Wl,--defsym=_ZNSt8__detail9_CompilerINSt7__cxx1112regex_traitsIcEEE22_M_insert_char_matcherILb1ELb0EEEvv=so_stub_for_libtelux_common
-Wl,--defsym=_ZNSt8__detail9_CompilerINSt7__cxx1112regex_traitsIcEEE22_M_insert_char_matcherILb1ELb1EEEvv=so_stub_for_libtelux_common
-Wl,--defsym=_ZNSt8__detail9_CompilerINSt7__cxx1112regex_traitsIcEEE25_M_insert_bracket_matcherILb0ELb0EEEvb=so_stub_for_libtelux_common
-Wl,--defsym=_ZNSt8__detail9_CompilerINSt7__cxx1112regex_traitsIcEEE25_M_insert_bracket_matcherILb0ELb1EEEvb=so_stub_for_libtelux_common
-Wl,--defsym=_ZNSt8__detail9_CompilerINSt7__cxx1112regex_traitsIcEEE25_M_insert_bracket_matcherILb1ELb0EEEvb=so_stub_for_libtelux_common
-Wl,--defsym=_ZNSt8__detail9_CompilerINSt7__cxx1112regex_traitsIcEEE25_M_insert_bracket_matcherILb1ELb1EEEvb=so_stub_for_libtelux_common
-Wl,--defsym=_ZNSt8__detail9_CompilerINSt7__cxx1112regex_traitsIcEEE26_M_insert_any_matcher_ecmaILb0ELb0EEEvv=so_stub_for_libtelux_common
-Wl,--defsym=_ZNSt8__detail9_CompilerINSt7__cxx1112regex_traitsIcEEE26_M_insert_any_matcher_ecmaILb0ELb1EEEvv=so_stub_for_libtelux_common
-Wl,--defsym=_ZNSt8__detail9_CompilerINSt7__cxx1112regex_traitsIcEEE26_M_insert_any_matcher_ecmaILb1ELb0EEEvv=so_stub_for_libtelux_common
-Wl,--defsym=_ZNSt8__detail9_CompilerINSt7__cxx1112regex_traitsIcEEE26_M_insert_any_matcher_ecmaILb1ELb1EEEvv=so_stub_for_libtelux_common
-Wl,--defsym=_ZNSt8__detail9_CompilerINSt7__cxx1112regex_traitsIcEEE27_M_insert_any_matcher_posixILb0ELb0EEEvv=so_stub_for_libtelux_common
-Wl,--defsym=_ZNSt8__detail9_CompilerINSt7__cxx1112regex_traitsIcEEE27_M_insert_any_matcher_posixILb0ELb1EEEvv=so_stub_for_libtelux_common
-Wl,--defsym=_ZNSt8__detail9_CompilerINSt7__cxx1112regex_traitsIcEEE27_M_insert_any_matcher_posixILb1ELb0EEEvv=so_stub_for_libtelux_common
-Wl,--defsym=_ZNSt8__detail9_CompilerINSt7__cxx1112regex_traitsIcEEE27_M_insert_any_matcher_posixILb1ELb1EEEvv=so_stub_for_libtelux_common
-Wl,--defsym=_ZNSt8__detail9_CompilerINSt7__cxx1112regex_traitsIcEEE33_M_insert_character_class_matcherILb0ELb0EEEvv=so_stub_for_libtelux_common
-Wl,--defsym=_ZNSt8__detail9_CompilerINSt7__cxx1112regex_traitsIcEEE33_M_insert_character_class_matcherILb0ELb1EEEvv=so_stub_for_libtelux_common
-Wl,--defsym=_ZNSt8__detail9_CompilerINSt7__cxx1112regex_traitsIcEEE33_M_insert_character_class_matcherILb1ELb0EEEvv=so_stub_for_libtelux_common
-Wl,--defsym=_ZNSt8__detail9_CompilerINSt7__cxx1112regex_traitsIcEEE33_M_insert_character_class_matcherILb1ELb1EEEvv=so_stub_for_libtelux_common
-Wl,--defsym=_ZNSt8__detail9_CompilerINSt7__cxx1112regex_traitsIcEEE6_M_popEv=so_stub_for_libtelux_common
-Wl,--defsym=_ZNSt8__detail9_CompilerINSt7__cxx1112regex_traitsIcEEE7_M_atomEv=so_stub_for_libtelux_common
-Wl,--defsym=_ZNSt8__detail9_CompilerINSt7__cxx1112regex_traitsIcEEE7_M_termEv=so_stub_for_libtelux_common
-Wl,--defsym=_ZNSt8__detail9_CompilerINSt7__cxx1112regex_traitsIcEEEC1EPKcS6_RKSt6localeNSt15regex_constants18syntax_option_typeE=so_stub_for_libtelux_common
-Wl,--defsym=_ZNSt8__detail9_CompilerINSt7__cxx1112regex_traitsIcEEEC2EPKcS6_RKSt6localeNSt15regex_constants18syntax_option_typeE=so_stub_for_libtelux_common
-Wl,--defsym=_ZNSt8__detail9_CompilerINSt7__cxx1112regex_traitsIcEEED1Ev=so_stub_for_libtelux_common
-Wl,--defsym=_ZNSt8__detail9_CompilerINSt7__cxx1112regex_traitsIcEEED2Ev=so_stub_for_libtelux_common
-Wl,--defsym=_ZNSt8__detail9_ExecutorIN9__gnu_cxx17__normal_iteratorIPKcNSt7__cxx1112basic_stringIcSt11char_traitsIcESaIcEEEEESaINS5_9sub_matchISB_EEENS5_12regex_traitsIcEELb0EE12_M_lookaheadEl=so_stub_for_libtelux_common
-Wl,--defsym=_ZNSt8__detail9_ExecutorIN9__gnu_cxx17__normal_iteratorIPKcNSt7__cxx1112basic_stringIcSt11char_traitsIcESaIcEEEEESaINS5_9sub_matchISB_EEENS5_12regex_traitsIcEELb0EE16_M_handle_repeatENSH_11_Match_modeEl=so_stub_for_libtelux_common
-Wl,--defsym=_ZNSt8__detail9_ExecutorIN9__gnu_cxx17__normal_iteratorIPKcNSt7__cxx1112basic_stringIcSt11char_traitsIcESaIcEEEEESaINS5_9sub_matchISB_EEENS5_12regex_traitsIcEELb0EE16_M_main_dispatchENSH_11_Match_modeESt17integral_constantIbLb0EE=so_stub_for_libtelux_common
-Wl,--defsym=_ZNSt8__detail9_ExecutorIN9__gnu_cxx17__normal_iteratorIPKcNSt7__cxx1112basic_stringIcSt11char_traitsIcESaIcEEEEESaINS5_9sub_matchISB_EEENS5_12regex_traitsIcEELb0EE16_M_rep_once_moreENSH_11_Match_modeEl=so_stub_for_libtelux_common
-Wl,--defsym=_ZNSt8__detail9_ExecutorIN9__gnu_cxx17__normal_iteratorIPKcNSt7__cxx1112basic_stringIcSt11char_traitsIcESaIcEEEEESaINS5_9sub_matchISB_EEENS5_12regex_traitsIcEELb0EE17_M_handle_backrefENSH_11_Match_modeEl=so_stub_for_libtelux_common
-Wl,--defsym=_ZNSt8__detail9_ExecutorIN9__gnu_cxx17__normal_iteratorIPKcNSt7__cxx1112basic_stringIcSt11char_traitsIcESaIcEEEEESaINS5_9sub_matchISB_EEENS5_12regex_traitsIcEELb0EE21_M_handle_alternativeENSH_11_Match_modeEl=so_stub_for_libtelux_common
-Wl,--defsym=_ZNSt8__detail9_ExecutorIN9__gnu_cxx17__normal_iteratorIPKcNSt7__cxx1112basic_stringIcSt11char_traitsIcESaIcEEEEESaINS5_9sub_matchISB_EEENS5_12regex_traitsIcEELb0EE23_M_handle_word_boundaryENSH_11_Match_modeEl=so_stub_for_libtelux_common
-Wl,--defsym=_ZNSt8__detail9_ExecutorIN9__gnu_cxx17__normal_iteratorIPKcNSt7__cxx1112basic_stringIcSt11char_traitsIcESaIcEEEEESaINS5_9sub_matchISB_EEENS5_12regex_traitsIcEELb0EE27_M_handle_subexpr_lookaheadENSH_11_Match_modeEl=so_stub_for_libtelux_common
-Wl,--defsym=_ZNSt8__detail9_ExecutorIN9__gnu_cxx17__normal_iteratorIPKcNSt7__cxx1112basic_stringIcSt11char_traitsIcESaIcEEEEESaINS5_9sub_matchISB_EEENS5_12regex_traitsIcEELb0EE6_M_dfsENSH_11_Match_modeEl=so_stub_for_libtelux_common
-Wl,--defsym=_ZNSt8__detail9_ExecutorIN9__gnu_cxx17__normal_iteratorIPKcNSt7__cxx1112basic_stringIcSt11char_traitsIcESaIcEEEEESaINS5_9sub_matchISB_EEENS5_12regex_traitsIcEELb0EE9_M_searchEv=so_stub_for_libtelux_common
-Wl,--defsym=_ZNSt8__detail9_ExecutorIN9__gnu_cxx17__normal_iteratorIPKcNSt7__cxx1112basic_stringIcSt11char_traitsIcESaIcEEEEESaINS5_9sub_matchISB_EEENS5_12regex_traitsIcEELb0EEC1ESB_SB_RSt6vectorISD_SE_ERKNS5_11basic_regexIcSG_EENSt15regex_constants15match_flag_typeE=so_stub_for_libtelux_common
-Wl,--defsym=_ZNSt8__detail9_ExecutorIN9__gnu_cxx17__normal_iteratorIPKcNSt7__cxx1112basic_stringIcSt11char_traitsIcESaIcEEEEESaINS5_9sub_matchISB_EEENS5_12regex_traitsIcEELb0EEC2ESB_SB_RSt6vectorISD_SE_ERKNS5_11basic_regexIcSG_EENSt15regex_constants15match_flag_typeE=so_stub_for_libtelux_common
-Wl,--defsym=_ZNSt8__detail9_ExecutorIN9__gnu_cxx17__normal_iteratorIPKcNSt7__cxx1112basic_stringIcSt11char_traitsIcESaIcEEEEESaINS5_9sub_matchISB_EEENS5_12regex_traitsIcEELb0EED1Ev=so_stub_for_libtelux_common
-Wl,--defsym=_ZNSt8__detail9_ExecutorIN9__gnu_cxx17__normal_iteratorIPKcNSt7__cxx1112basic_stringIcSt11char_traitsIcESaIcEEEEESaINS5_9sub_matchISB_EEENS5_12regex_traitsIcEELb0EED2Ev=so_stub_for_libtelux_common
-Wl,--defsym=_ZNSt8__detail9_ExecutorIN9__gnu_cxx17__normal_iteratorIPKcNSt7__cxx1112basic_stringIcSt11char_traitsIcESaIcEEEEESaINS5_9sub_matchISB_EEENS5_12regex_traitsIcEELb1EE12_M_lookaheadEl=so_stub_for_libtelux_common
-Wl,--defsym=_ZNSt8__detail9_ExecutorIN9__gnu_cxx17__normal_iteratorIPKcNSt7__cxx1112basic_stringIcSt11char_traitsIcESaIcEEEEESaINS5_9sub_matchISB_EEENS5_12regex_traitsIcEELb1EE15_M_handle_matchENSH_11_Match_modeEl=so_stub_for_libtelux_common
-Wl,--defsym=_ZNSt8__detail9_ExecutorIN9__gnu_cxx17__normal_iteratorIPKcNSt7__cxx1112basic_stringIcSt11char_traitsIcESaIcEEEEESaINS5_9sub_matchISB_EEENS5_12regex_traitsIcEELb1EE16_M_handle_acceptENSH_11_Match_modeEl=so_stub_for_libtelux_common
-Wl,--defsym=_ZNSt8__detail9_ExecutorIN9__gnu_cxx17__normal_iteratorIPKcNSt7__cxx1112basic_stringIcSt11char_traitsIcESaIcEEEEESaINS5_9sub_matchISB_EEENS5_12regex_traitsIcEELb1EE16_M_handle_repeatENSH_11_Match_modeEl=so_stub_for_libtelux_common
-Wl,--defsym=_ZNSt8__detail9_ExecutorIN9__gnu_cxx17__normal_iteratorIPKcNSt7__cxx1112basic_stringIcSt11char_traitsIcESaIcEEEEESaINS5_9sub_matchISB_EEENS5_12regex_traitsIcEELb1EE16_M_rep_once_moreENSH_11_Match_modeEl=so_stub_for_libtelux_common
-Wl,--defsym=_ZNSt8__detail9_ExecutorIN9__gnu_cxx17__normal_iteratorIPKcNSt7__cxx1112basic_stringIcSt11char_traitsIcESaIcEEEEESaINS5_9sub_matchISB_EEENS5_12regex_traitsIcEELb1EE17_M_handle_backrefENSH_11_Match_modeEl=so_stub_for_libtelux_common
-Wl,--defsym=_ZNSt8__detail9_ExecutorIN9__gnu_cxx17__normal_iteratorIPKcNSt7__cxx1112basic_stringIcSt11char_traitsIcESaIcEEEEESaINS5_9sub_matchISB_EEENS5_12regex_traitsIcEELb1EE21_M_handle_alternativeENSH_11_Match_modeEl=so_stub_for_libtelux_common
-Wl,--defsym=_ZNSt8__detail9_ExecutorIN9__gnu_cxx17__normal_iteratorIPKcNSt7__cxx1112basic_stringIcSt11char_traitsIcESaIcEEEEESaINS5_9sub_matchISB_EEENS5_12regex_traitsIcEELb1EE23_M_handle_word_boundaryENSH_11_Match_modeEl=so_stub_for_libtelux_common
-Wl,--defsym=_ZNSt8__detail9_ExecutorIN9__gnu_cxx17__normal_iteratorIPKcNSt7__cxx1112basic_stringIcSt11char_traitsIcESaIcEEEEESaINS5_9sub_matchISB_EEENS5_12regex_traitsIcEELb1EE27_M_handle_subexpr_lookaheadENSH_11_Match_modeEl=so_stub_for_libtelux_common
-Wl,--defsym=_ZNSt8__detail9_ExecutorIN9__gnu_cxx17__normal_iteratorIPKcNSt7__cxx1112basic_stringIcSt11char_traitsIcESaIcEEEEESaINS5_9sub_matchISB_EEENS5_12regex_traitsIcEELb1EE6_M_dfsENSH_11_Match_modeEl=so_stub_for_libtelux_common
-Wl,--defsym=_ZNSt8__detail9_ExecutorIN9__gnu_cxx17__normal_iteratorIPKcNSt7__cxx1112basic_stringIcSt11char_traitsIcESaIcEEEEESaINS5_9sub_matchISB_EEENS5_12regex_traitsIcEELb1EE9_M_searchEv=so_stub_for_libtelux_common
-Wl,--defsym=_ZNSt8__detail9_ExecutorIN9__gnu_cxx17__normal_iteratorIPKcNSt7__cxx1112basic_stringIcSt11char_traitsIcESaIcEEEEESaINS5_9sub_matchISB_EEENS5_12regex_traitsIcEELb1EEC1ESB_SB_RSt6vectorISD_SE_ERKNS5_11basic_regexIcSG_EENSt15regex_constants15match_flag_typeE=so_stub_for_libtelux_common
-Wl,--defsym=_ZNSt8__detail9_ExecutorIN9__gnu_cxx17__normal_iteratorIPKcNSt7__cxx1112basic_stringIcSt11char_traitsIcESaIcEEEEESaINS5_9sub_matchISB_EEENS5_12regex_traitsIcEELb1EEC2ESB_SB_RSt6vectorISD_SE_ERKNS5_11basic_regexIcSG_EENSt15regex_constants15match_flag_typeE=so_stub_for_libtelux_common
-Wl,--defsym=_ZNSt8__detail9_ExecutorIN9__gnu_cxx17__normal_iteratorIPKcNSt7__cxx1112basic_stringIcSt11char_traitsIcESaIcEEEEESaINS5_9sub_matchISB_EEENS5_12regex_traitsIcEELb1EED1Ev=so_stub_for_libtelux_common
-Wl,--defsym=_ZNSt8__detail9_ExecutorIN9__gnu_cxx17__normal_iteratorIPKcNSt7__cxx1112basic_stringIcSt11char_traitsIcESaIcEEEEESaINS5_9sub_matchISB_EEENS5_12regex_traitsIcEELb1EED2Ev=so_stub_for_libtelux_common
-Wl,--defsym=_ZNSt8__detail9_Map_baseIiSt4pairIKiSt10shared_ptrIN5telux6common16ICommandCallbackEEESaIS8_ENS_10_Select1stESt8equal_toIiESt4hashIiENS_18_Mod_range_hashingENS_20_Default_ranged_hashENS_20_Prime_rehash_policyENS_17_Hashtable_traitsILb0ELb0ELb1EEELb1EEixERS2_=so_stub_for_libtelux_common
-Wl,--defsym=_ZNSt8__detail9_Map_baseIiSt4pairIKiSt8weak_ptrIN5telux6common16ICommandCallbackEEESaIS8_ENS_10_Select1stESt8equal_toIiESt4hashIiENS_18_Mod_range_hashingENS_20_Default_ranged_hashENS_20_Prime_rehash_policyENS_17_Hashtable_traitsILb0ELb0ELb1EEELb1EEixERS2_=so_stub_for_libtelux_common
-Wl,--defsym=_ZNSt8__detail9_StateSeqINSt7__cxx1112regex_traitsIcEEE8_M_cloneEv=so_stub_for_libtelux_common
-Wl,--defsym=_ZNSt8functionIFbcEEaSEOS1_=so_stub_for_libtelux_common
-Wl,--defsym=_ZNSt8functionIFbcEEC1ERKS1_=so_stub_for_libtelux_common
-Wl,--defsym=_ZNSt8functionIFbcEEC1INSt8__detail15_BracketMatcherINSt7__cxx1112regex_traitsIcEELb0ELb0EEEvvEET_=so_stub_for_libtelux_common
-Wl,--defsym=_ZNSt8functionIFbcEEC1INSt8__detail15_BracketMatcherINSt7__cxx1112regex_traitsIcEELb0ELb1EEEvvEET_=so_stub_for_libtelux_common
-Wl,--defsym=_ZNSt8functionIFbcEEC1INSt8__detail15_BracketMatcherINSt7__cxx1112regex_traitsIcEELb1ELb0EEEvvEET_=so_stub_for_libtelux_common
-Wl,--defsym=_ZNSt8functionIFbcEEC1INSt8__detail15_BracketMatcherINSt7__cxx1112regex_traitsIcEELb1ELb1EEEvvEET_=so_stub_for_libtelux_common
-Wl,--defsym=_ZNSt8functionIFbcEEC2ERKS1_=so_stub_for_libtelux_common
-Wl,--defsym=_ZNSt8functionIFbcEEC2INSt8__detail15_BracketMatcherINSt7__cxx1112regex_traitsIcEELb0ELb0EEEvvEET_=so_stub_for_libtelux_common
-Wl,--defsym=_ZNSt8functionIFbcEEC2INSt8__detail15_BracketMatcherINSt7__cxx1112regex_traitsIcEELb0ELb1EEEvvEET_=so_stub_for_libtelux_common
-Wl,--defsym=_ZNSt8functionIFbcEEC2INSt8__detail15_BracketMatcherINSt7__cxx1112regex_traitsIcEELb1ELb0EEEvvEET_=so_stub_for_libtelux_common
-Wl,--defsym=_ZNSt8functionIFbcEEC2INSt8__detail15_BracketMatcherINSt7__cxx1112regex_traitsIcEELb1ELb1EEEvvEET_=so_stub_for_libtelux_common
-Wl,--defsym=_ZNSt8_Rb_treeIiSt4pairIKiN5telux6common9ErrorCodeEESt10_Select1stIS5_ESt4lessIiESaIS5_EE14_M_insert_nodeEPSt18_Rb_tree_node_baseSD_PSt13_Rb_tree_nodeIS5_E=so_stub_for_libtelux_common
-Wl,--defsym=_ZNSt8_Rb_treeIiSt4pairIKiN5telux6common9ErrorCodeEESt10_Select1stIS5_ESt4lessIiESaIS5_EE22_M_emplace_hint_uniqueIJRKSt21piecewise_construct_tSt5tupleIJOiEESG_IJEEEEESt17_Rb_tree_iteratorIS5_ESt23_Rb_tree_const_iteratorIS5_EDpOT_=so_stub_for_libtelux_common
-Wl,--defsym=_ZNSt8_Rb_treeIiSt4pairIKiN5telux6common9ErrorCodeEESt10_Select1stIS5_ESt4lessIiESaIS5_EE22_M_emplace_hint_uniqueIJRKSt21piecewise_construct_tSt5tupleIJRS1_EESG_IJEEEEESt17_Rb_tree_iteratorIS5_ESt23_Rb_tree_const_iteratorIS5_EDpOT_=so_stub_for_libtelux_common
-Wl,--defsym=_ZNSt8_Rb_treeIiSt4pairIKiN5telux6common9ErrorCodeEESt10_Select1stIS5_ESt4lessIiESaIS5_EE24_M_get_insert_unique_posERS1_=so_stub_for_libtelux_common
-Wl,--defsym=_ZNSt8_Rb_treeIiSt4pairIKiN5telux6common9ErrorCodeEESt10_Select1stIS5_ESt4lessIiESaIS5_EE29_M_get_insert_hint_unique_posESt23_Rb_tree_const_iteratorIS5_ERS1_=so_stub_for_libtelux_common
-Wl,--defsym=_ZNSt8_Rb_treeIiSt4pairIKiN5telux6common9ErrorCodeEESt10_Select1stIS5_ESt4lessIiESaIS5_EE8_M_eraseEPSt13_Rb_tree_nodeIS5_E=so_stub_for_libtelux_common
-Wl,--defsym=_ZNSt8_Rb_treeIiSt4pairIKiNSt7__cxx1112basic_stringIcSt11char_traitsIcESaIcEEEESt10_Select1stIS8_ESt4lessIiESaIS8_EE14_M_insert_nodeEPSt18_Rb_tree_node_baseSG_PSt13_Rb_tree_nodeIS8_E=so_stub_for_libtelux_common
-Wl,--defsym=_ZNSt8_Rb_treeIiSt4pairIKiNSt7__cxx1112basic_stringIcSt11char_traitsIcESaIcEEEESt10_Select1stIS8_ESt4lessIiESaIS8_EE22_M_emplace_hint_uniqueIJRKSt21piecewise_construct_tSt5tupleIJOiEESJ_IJEEEEESt17_Rb_tree_iteratorIS8_ESt23_Rb_tree_const_iteratorIS8_EDpOT_=so_stub_for_libtelux_common
-Wl,--defsym=_ZNSt8_Rb_treeIiSt4pairIKiNSt7__cxx1112basic_stringIcSt11char_traitsIcESaIcEEEESt10_Select1stIS8_ESt4lessIiESaIS8_EE22_M_emplace_hint_uniqueIJRKSt21piecewise_construct_tSt5tupleIJRS1_EESJ_IJEEEEESt17_Rb_tree_iteratorIS8_ESt23_Rb_tree_const_iteratorIS8_EDpOT_=so_stub_for_libtelux_common
-Wl,--defsym=_ZNSt8_Rb_treeIiSt4pairIKiNSt7__cxx1112basic_stringIcSt11char_traitsIcESaIcEEEESt10_Select1stIS8_ESt4lessIiESaIS8_EE24_M_get_insert_unique_posERS1_=so_stub_for_libtelux_common
-Wl,--defsym=_ZNSt8_Rb_treeIiSt4pairIKiNSt7__cxx1112basic_stringIcSt11char_traitsIcESaIcEEEESt10_Select1stIS8_ESt4lessIiESaIS8_EE29_M_get_insert_hint_unique_posESt23_Rb_tree_const_iteratorIS8_ERS1_=so_stub_for_libtelux_common
-Wl,--defsym=_ZNSt8_Rb_treeIiSt4pairIKiNSt7__cxx1112basic_stringIcSt11char_traitsIcESaIcEEEESt10_Select1stIS8_ESt4lessIiESaIS8_EE8_M_eraseEPSt13_Rb_tree_nodeIS8_E=so_stub_for_libtelux_common
-Wl,--defsym=_ZNSt8_Rb_treeIiSt4pairIKiNSt7__cxx114listISt8weak_ptrIN5telux6common15ResponseHandlerEESaIS8_EEEESt10_Select1stISB_ESt4lessIiESaISB_EE22_M_emplace_hint_uniqueIJRKSt21piecewise_construct_tSt5tupleIJRS1_EESM_IJEEEEESt17_Rb_tree_iteratorISB_ESt23_Rb_tree_const_iteratorISB_EDpOT_=so_stub_for_libtelux_common
-Wl,--defsym=_ZNSt8_Rb_treeIiSt4pairIKiNSt7__cxx114listISt8weak_ptrIN5telux6common15ResponseHandlerEESaIS8_EEEESt10_Select1stISB_ESt4lessIiESaISB_EE24_M_get_insert_unique_posERS1_=so_stub_for_libtelux_common
-Wl,--defsym=_ZNSt8_Rb_treeIiSt4pairIKiNSt7__cxx114listISt8weak_ptrIN5telux6common15ResponseHandlerEESaIS8_EEEESt10_Select1stISB_ESt4lessIiESaISB_EE29_M_get_insert_hint_unique_posESt23_Rb_tree_const_iteratorISB_ERS1_=so_stub_for_libtelux_common
-Wl,--defsym=_ZNSt8_Rb_treeIiSt4pairIKiNSt7__cxx114listISt8weak_ptrIN5telux6common15ResponseHandlerEESaIS8_EEEESt10_Select1stISB_ESt4lessIiESaISB_EE8_M_eraseEPSt13_Rb_tree_nodeISB_E=so_stub_for_libtelux_common
-Wl,--defsym=_ZNSt8_Rb_treeIlSt4pairIKllESt10_Select1stIS2_ESt4lessIlESaIS2_EE22_M_emplace_hint_uniqueIJRKSt21piecewise_construct_tSt5tupleIJRS1_EESD_IJEEEEESt17_Rb_tree_iteratorIS2_ESt23_Rb_tree_const_iteratorIS2_EDpOT_=so_stub_for_libtelux_common
-Wl,--defsym=_ZNSt8_Rb_treeIlSt4pairIKllESt10_Select1stIS2_ESt4lessIlESaIS2_EE24_M_get_insert_unique_posERS1_=so_stub_for_libtelux_common
-Wl,--defsym=_ZNSt8_Rb_treeIlSt4pairIKllESt10_Select1stIS2_ESt4lessIlESaIS2_EE29_M_get_insert_hint_unique_posESt23_Rb_tree_const_iteratorIS2_ERS1_=so_stub_for_libtelux_common
-Wl,--defsym=_ZNSt8_Rb_treeIlSt4pairIKllESt10_Select1stIS2_ESt4lessIlESaIS2_EE8_M_eraseEPSt13_Rb_tree_nodeIS2_E=so_stub_for_libtelux_common
-Wl,--defsym=_ZNSt8_Rb_treeIN5telux6common9ErrorCodeESt4pairIKS2_NSt7__cxx1112basic_stringIcSt11char_traitsIcESaIcEEEESt10_Select1stISB_ESt4lessIS2_ESaISB_EE14_M_insert_nodeEPSt18_Rb_tree_node_baseSJ_PSt13_Rb_tree_nodeISB_E=so_stub_for_libtelux_common
-Wl,--defsym=_ZNSt8_Rb_treeIN5telux6common9ErrorCodeESt4pairIKS2_NSt7__cxx1112basic_stringIcSt11char_traitsIcESaIcEEEESt10_Select1stISB_ESt4lessIS2_ESaISB_EE22_M_emplace_hint_uniqueIJRKSt21piecewise_construct_tSt5tupleIJOS2_EESM_IJEEEEESt17_Rb_tree_iteratorISB_ESt23_Rb_tree_const_iteratorISB_EDpOT_=so_stub_for_libtelux_common
-Wl,--defsym=_ZNSt8_Rb_treeIN5telux6common9ErrorCodeESt4pairIKS2_NSt7__cxx1112basic_stringIcSt11char_traitsIcESaIcEEEESt10_Select1stISB_ESt4lessIS2_ESaISB_EE22_M_emplace_hint_uniqueIJRKSt21piecewise_construct_tSt5tupleIJRS4_EESM_IJEEEEESt17_Rb_tree_iteratorISB_ESt23_Rb_tree_const_iteratorISB_EDpOT_=so_stub_for_libtelux_common
-Wl,--defsym=_ZNSt8_Rb_treeIN5telux6common9ErrorCodeESt4pairIKS2_NSt7__cxx1112basic_stringIcSt11char_traitsIcESaIcEEEESt10_Select1stISB_ESt4lessIS2_ESaISB_EE24_M_get_insert_unique_posERS4_=so_stub_for_libtelux_common
-Wl,--defsym=_ZNSt8_Rb_treeIN5telux6common9ErrorCodeESt4pairIKS2_NSt7__cxx1112basic_stringIcSt11char_traitsIcESaIcEEEESt10_Select1stISB_ESt4lessIS2_ESaISB_EE29_M_get_insert_hint_unique_posESt23_Rb_tree_const_iteratorISB_ERS4_=so_stub_for_libtelux_common
-Wl,--defsym=_ZNSt8_Rb_treeIN5telux6common9ErrorCodeESt4pairIKS2_NSt7__cxx1112basic_stringIcSt11char_traitsIcESaIcEEEESt10_Select1stISB_ESt4lessIS2_ESaISB_EE8_M_eraseEPSt13_Rb_tree_nodeISB_E=so_stub_for_libtelux_common
-Wl,--defsym=_ZNSt8_Rb_treeINSt7__cxx1112basic_stringIcSt11char_traitsIcESaIcEEESt4pairIKS5_S5_ESt10_Select1stIS8_ESt4lessIS5_ESaIS8_EE14_M_insert_nodeEPSt18_Rb_tree_node_baseSG_PSt13_Rb_tree_nodeIS8_E=so_stub_for_libtelux_common
-Wl,--defsym=_ZNSt8_Rb_treeINSt7__cxx1112basic_stringIcSt11char_traitsIcESaIcEEESt4pairIKS5_S5_ESt10_Select1stIS8_ESt4lessIS5_ESaIS8_EE22_M_emplace_hint_uniqueIJRKSt21piecewise_construct_tSt5tupleIJRS7_EESJ_IJEEEEESt17_Rb_tree_iteratorIS8_ESt23_Rb_tree_const_iteratorIS8_EDpOT_=so_stub_for_libtelux_common
-Wl,--defsym=_ZNSt8_Rb_treeINSt7__cxx1112basic_stringIcSt11char_traitsIcESaIcEEESt4pairIKS5_S5_ESt10_Select1stIS8_ESt4lessIS5_ESaIS8_EE24_M_get_insert_unique_posERS7_=so_stub_for_libtelux_common
-Wl,--defsym=_ZNSt8_Rb_treeINSt7__cxx1112basic_stringIcSt11char_traitsIcESaIcEEESt4pairIKS5_S5_ESt10_Select1stIS8_ESt4lessIS5_ESaIS8_EE29_M_get_insert_hint_unique_posESt23_Rb_tree_const_iteratorIS8_ERS7_=so_stub_for_libtelux_common
-Wl,--defsym=_ZNSt8_Rb_treeINSt7__cxx1112basic_stringIcSt11char_traitsIcESaIcEEESt4pairIKS5_S5_ESt10_Select1stIS8_ESt4lessIS5_ESaIS8_EE4findERS7_=so_stub_for_libtelux_common
-Wl,--defsym=_ZNSt8_Rb_treeINSt7__cxx1112basic_stringIcSt11char_traitsIcESaIcEEESt4pairIKS5_S5_ESt10_Select1stIS8_ESt4lessIS5_ESaIS8_EE8_M_eraseEPSt13_Rb_tree_nodeIS8_E=so_stub_for_libtelux_common
-Wl,--defsym=_ZSt13__adjust_heapIN9__gnu_cxx17__normal_iteratorIPcSt6vectorIcSaIcEEEEicNS0_5__ops15_Iter_less_iterEEvT_T0_SA_T1_T2_=so_stub_for_libtelux_common
-Wl,--defsym=_ZSt13binary_searchIN9__gnu_cxx17__normal_iteratorIPKcSt6vectorIcSaIcEEEEcEbT_S8_RKT0_=so_stub_for_libtelux_common
-Wl,--defsym=_ZSt13regex_replaceINSt7__cxx1112regex_traitsIcEEcSt11char_traitsIcESaIcEENS0_12basic_stringIT0_T1_T2_EERKSA_RKNS0_11basic_regexIS7_T_EEPKS7_NSt15regex_constants15match_flag_typeE=so_stub_for_libtelux_common
-Wl,--defsym=_ZSt13regex_replaceISt20back_insert_iteratorINSt7__cxx1112basic_stringIcSt11char_traitsIcESaIcEEEEN9__gnu_cxx17__normal_iteratorIPKcS6_EENS1_12regex_traitsIcEEcET_SF_T0_SG_RKNS1_11basic_regexIT2_T1_EEPKSI_NSt15regex_constants15match_flag_typeE=so_stub_for_libtelux_common
-Wl,--defsym=_ZSt16__insertion_sortIN9__gnu_cxx17__normal_iteratorIPcSt6vectorIcSaIcEEEENS0_5__ops15_Iter_less_iterEEvT_S9_T0_=so_stub_for_libtelux_common
-Wl,--defsym=_ZSt18make_exception_ptrISt12future_errorENSt15__exception_ptr13exception_ptrET_=so_stub_for_libtelux_common
-Wl,--defsym=_ZSt19__throw_regex_errorNSt15regex_constants10error_typeEPKc=so_stub_for_libtelux_common
-Wl,--defsym=_ZSt22__final_insertion_sortIN9__gnu_cxx17__normal_iteratorIPcSt6vectorIcSaIcEEEENS0_5__ops15_Iter_less_iterEEvT_S9_T0_=so_stub_for_libtelux_common
-Wl,--defsym=_ZSt4swapISt6localeENSt9enable_ifIXsrSt6__and_IJSt6__not_ISt15__is_tuple_likeIT_EESt21is_move_constructibleIS5_ESt18is_move_assignableIS5_EEE5valueEvE4typeERS5_SF_=so_stub_for_libtelux_common
-Wl,--defsym=_ZSt8__uniqueIN9__gnu_cxx17__normal_iteratorIPcSt6vectorIcSaIcEEEENS0_5__ops19_Iter_equal_to_iterEET_S9_S9_T0_=so_stub_for_libtelux_common
-Wl,--defsym=_ZSt9__find_ifIN9__gnu_cxx17__normal_iteratorIPcNSt7__cxx1112basic_stringIcSt11char_traitsIcESaIcEEEEENS0_5__ops16_Iter_equals_valIKcEEET_SE_SE_T0_St26random_access_iterator_tag=so_stub_for_libtelux_common
-Wl,--defsym=_ZSt9__find_ifIN9__gnu_cxx17__normal_iteratorIPKNSt7__cxx1112basic_stringIcSt11char_traitsIcESaIcEEESt6vectorIS7_SaIS7_EEEENS0_5__ops16_Iter_equals_valIS8_EEET_SH_SH_T0_St26random_access_iterator_tag=so_stub_for_libtelux_common
-Wl,--defsym=_ZSt9__find_ifIPKcN9__gnu_cxx5__ops16_Iter_equals_valIS0_EEET_S6_S6_T0_St26random_access_iterator_tag=so_stub_for_libtelux_common
-Wl,--defsym=_ZStlsIcSt11char_traitsIcEERSt13basic_ostreamIT_T0_ES6_St9_Put_timeIS3_E=so_stub_for_libtelux_common
-Wl,--defsym=_ZStplIcSt11char_traitsIcESaIcEENSt7__cxx1112basic_stringIT_T0_T1_EEOS8_S9_=so_stub_for_libtelux_common
-Wl,--defsym=_ZStplIcSt11char_traitsIcESaIcEENSt7__cxx1112basic_stringIT_T0_T1_EEPKS5_RKS8_=so_stub_for_libtelux_common
-Wl,--defsym=_ZStplIcSt11char_traitsIcESaIcEENSt7__cxx1112basic_stringIT_T0_T1_EERKS8_PKS5_=so_stub_for_libtelux_common
-Wl,--defsym=_ZTIN5telux6common12UnsolManagerE=so_stub_for_libtelux_common
-Wl,--defsym=_ZTIN5telux6common15ResponseHandlerE=so_stub_for_libtelux_common
-Wl,--defsym=_ZTINSt8__detail11_AnyMatcherINSt7__cxx1112regex_traitsIcEELb0ELb0ELb0EEE=so_stub_for_libtelux_common
-Wl,--defsym=_ZTINSt8__detail11_AnyMatcherINSt7__cxx1112regex_traitsIcEELb0ELb0ELb1EEE=so_stub_for_libtelux_common
-Wl,--defsym=_ZTINSt8__detail11_AnyMatcherINSt7__cxx1112regex_traitsIcEELb0ELb1ELb0EEE=so_stub_for_libtelux_common
-Wl,--defsym=_ZTINSt8__detail11_AnyMatcherINSt7__cxx1112regex_traitsIcEELb0ELb1ELb1EEE=so_stub_for_libtelux_common
-Wl,--defsym=_ZTINSt8__detail11_AnyMatcherINSt7__cxx1112regex_traitsIcEELb1ELb0ELb0EEE=so_stub_for_libtelux_common
-Wl,--defsym=_ZTINSt8__detail11_AnyMatcherINSt7__cxx1112regex_traitsIcEELb1ELb0ELb1EEE=so_stub_for_libtelux_common
-Wl,--defsym=_ZTINSt8__detail11_AnyMatcherINSt7__cxx1112regex_traitsIcEELb1ELb1ELb0EEE=so_stub_for_libtelux_common
-Wl,--defsym=_ZTINSt8__detail11_AnyMatcherINSt7__cxx1112regex_traitsIcEELb1ELb1ELb1EEE=so_stub_for_libtelux_common
-Wl,--defsym=_ZTINSt8__detail12_CharMatcherINSt7__cxx1112regex_traitsIcEELb0ELb0EEE=so_stub_for_libtelux_common
-Wl,--defsym=_ZTINSt8__detail12_CharMatcherINSt7__cxx1112regex_traitsIcEELb0ELb1EEE=so_stub_for_libtelux_common
-Wl,--defsym=_ZTINSt8__detail12_CharMatcherINSt7__cxx1112regex_traitsIcEELb1ELb0EEE=so_stub_for_libtelux_common
-Wl,--defsym=_ZTINSt8__detail12_CharMatcherINSt7__cxx1112regex_traitsIcEELb1ELb1EEE=so_stub_for_libtelux_common
-Wl,--defsym=_ZTINSt8__detail15_BracketMatcherINSt7__cxx1112regex_traitsIcEELb0ELb0EEE=so_stub_for_libtelux_common
-Wl,--defsym=_ZTINSt8__detail15_BracketMatcherINSt7__cxx1112regex_traitsIcEELb0ELb1EEE=so_stub_for_libtelux_common
-Wl,--defsym=_ZTINSt8__detail15_BracketMatcherINSt7__cxx1112regex_traitsIcEELb1ELb0EEE=so_stub_for_libtelux_common
-Wl,--defsym=_ZTINSt8__detail15_BracketMatcherINSt7__cxx1112regex_traitsIcEELb1ELb1EEE=so_stub_for_libtelux_common
-Wl,--defsym=_ZTISt11_Mutex_baseILN9__gnu_cxx12_Lock_policyE2EE=so_stub_for_libtelux_common
-Wl,--defsym=_ZTISt15_Sp_counted_ptrIPN5telux6common12UnsolManagerELN9__gnu_cxx12_Lock_policyE2EE=so_stub_for_libtelux_common
-Wl,--defsym=_ZTISt16_Sp_counted_baseILN9__gnu_cxx12_Lock_policyE2EE=so_stub_for_libtelux_common
-Wl,--defsym=_ZTISt19_Sp_make_shared_tag=so_stub_for_libtelux_common
-Wl,--defsym=_ZTISt23_Sp_counted_ptr_inplaceIN5telux6common9TaskQueueESaIS2_ELN9__gnu_cxx12_Lock_policyE2EE=so_stub_for_libtelux_common
-Wl,--defsym=_ZTISt23_Sp_counted_ptr_inplaceINSt8__detail4_NFAINSt7__cxx1112regex_traitsIcEEEESaIS5_ELN9__gnu_cxx12_Lock_policyE2EE=so_stub_for_libtelux_common
-Wl,--defsym=_ZTSN5telux6common12UnsolManagerE=so_stub_for_libtelux_common
-Wl,--defsym=_ZTSN5telux6common15ResponseHandlerE=so_stub_for_libtelux_common
-Wl,--defsym=_ZTSNSt8__detail11_AnyMatcherINSt7__cxx1112regex_traitsIcEELb0ELb0ELb0EEE=so_stub_for_libtelux_common
-Wl,--defsym=_ZTSNSt8__detail11_AnyMatcherINSt7__cxx1112regex_traitsIcEELb0ELb0ELb1EEE=so_stub_for_libtelux_common
-Wl,--defsym=_ZTSNSt8__detail11_AnyMatcherINSt7__cxx1112regex_traitsIcEELb0ELb1ELb0EEE=so_stub_for_libtelux_common
-Wl,--defsym=_ZTSNSt8__detail11_AnyMatcherINSt7__cxx1112regex_traitsIcEELb0ELb1ELb1EEE=so_stub_for_libtelux_common
-Wl,--defsym=_ZTSNSt8__detail11_AnyMatcherINSt7__cxx1112regex_traitsIcEELb1ELb0ELb0EEE=so_stub_for_libtelux_common
-Wl,--defsym=_ZTSNSt8__detail11_AnyMatcherINSt7__cxx1112regex_traitsIcEELb1ELb0ELb1EEE=so_stub_for_libtelux_common
-Wl,--defsym=_ZTSNSt8__detail11_AnyMatcherINSt7__cxx1112regex_traitsIcEELb1ELb1ELb0EEE=so_stub_for_libtelux_common
-Wl,--defsym=_ZTSNSt8__detail11_AnyMatcherINSt7__cxx1112regex_traitsIcEELb1ELb1ELb1EEE=so_stub_for_libtelux_common
-Wl,--defsym=_ZTSNSt8__detail12_CharMatcherINSt7__cxx1112regex_traitsIcEELb0ELb0EEE=so_stub_for_libtelux_common
-Wl,--defsym=_ZTSNSt8__detail12_CharMatcherINSt7__cxx1112regex_traitsIcEELb0ELb1EEE=so_stub_for_libtelux_common
-Wl,--defsym=_ZTSNSt8__detail12_CharMatcherINSt7__cxx1112regex_traitsIcEELb1ELb0EEE=so_stub_for_libtelux_common
-Wl,--defsym=_ZTSNSt8__detail12_CharMatcherINSt7__cxx1112regex_traitsIcEELb1ELb1EEE=so_stub_for_libtelux_common
-Wl,--defsym=_ZTSNSt8__detail15_BracketMatcherINSt7__cxx1112regex_traitsIcEELb0ELb0EEE=so_stub_for_libtelux_common
-Wl,--defsym=_ZTSNSt8__detail15_BracketMatcherINSt7__cxx1112regex_traitsIcEELb0ELb1EEE=so_stub_for_libtelux_common
-Wl,--defsym=_ZTSNSt8__detail15_BracketMatcherINSt7__cxx1112regex_traitsIcEELb1ELb0EEE=so_stub_for_libtelux_common
-Wl,--defsym=_ZTSNSt8__detail15_BracketMatcherINSt7__cxx1112regex_traitsIcEELb1ELb1EEE=so_stub_for_libtelux_common
-Wl,--defsym=_ZTSSt11_Mutex_baseILN9__gnu_cxx12_Lock_policyE2EE=so_stub_for_libtelux_common
-Wl,--defsym=_ZTSSt15_Sp_counted_ptrIPN5telux6common12UnsolManagerELN9__gnu_cxx12_Lock_policyE2EE=so_stub_for_libtelux_common
-Wl,--defsym=_ZTSSt16_Sp_counted_baseILN9__gnu_cxx12_Lock_policyE2EE=so_stub_for_libtelux_common
-Wl,--defsym=_ZTSSt19_Sp_make_shared_tag=so_stub_for_libtelux_common
-Wl,--defsym=_ZTSSt23_Sp_counted_ptr_inplaceIN5telux6common9TaskQueueESaIS2_ELN9__gnu_cxx12_Lock_policyE2EE=so_stub_for_libtelux_common
-Wl,--defsym=_ZTSSt23_Sp_counted_ptr_inplaceINSt8__detail4_NFAINSt7__cxx1112regex_traitsIcEEEESaIS5_ELN9__gnu_cxx12_Lock_policyE2EE=so_stub_for_libtelux_common
-Wl,--defsym=_ZTVN5telux6common12UnsolManagerE=so_stub_for_libtelux_common
-Wl,--defsym=_ZTVSt15_Sp_counted_ptrIPN5telux6common12UnsolManagerELN9__gnu_cxx12_Lock_policyE2EE=so_stub_for_libtelux_common
-Wl,--defsym=_ZTVSt23_Sp_counted_ptr_inplaceIN5telux6common9TaskQueueESaIS2_ELN9__gnu_cxx12_Lock_policyE2EE=so_stub_for_libtelux_common
-Wl,--defsym=_ZTVSt23_Sp_counted_ptr_inplaceINSt8__detail4_NFAINSt7__cxx1112regex_traitsIcEEEESaIS5_ELN9__gnu_cxx12_Lock_policyE2EE=so_stub_for_libtelux_common
-Wl,--defsym=_ZZNKSt7__cxx1112regex_traitsIcE16lookup_classnameIPKcEENS1_10_RegexMaskET_S6_bE12__classnames=so_stub_for_libtelux_common
-Wl,--defsym=_ZZNKSt7__cxx1112regex_traitsIcE18lookup_collatenameIPKcEENS_12basic_stringIcSt11char_traitsIcESaIcEEET_SA_E14__collatenames=so_stub_for_libtelux_common
-Wl,--defsym=_ZZNKSt7__cxx1113match_resultsIN9__gnu_cxx17__normal_iteratorIPKcNS_12basic_stringIcSt11char_traitsIcESaIcEEEEESaINS_9sub_matchISA_EEEE6formatISt20back_insert_iteratorIS9_EEET_SI_S4_S4_NSt15regex_constants15match_flag_typeEENKUljE_clEj=so_stub_for_libtelux_common
-Wl,--defsym=_ZZNKSt8__detail11_AnyMatcherINSt7__cxx1112regex_traitsIcEELb0ELb0ELb0EEclEcE5__nul=so_stub_for_libtelux_common
-Wl,--defsym=_ZZNKSt8__detail11_AnyMatcherINSt7__cxx1112regex_traitsIcEELb0ELb0ELb1EEclEcE5__nul=so_stub_for_libtelux_common
-Wl,--defsym=_ZZNKSt8__detail11_AnyMatcherINSt7__cxx1112regex_traitsIcEELb0ELb1ELb0EEclEcE5__nul=so_stub_for_libtelux_common
-Wl,--defsym=_ZZNKSt8__detail11_AnyMatcherINSt7__cxx1112regex_traitsIcEELb0ELb1ELb1EEclEcE5__nul=so_stub_for_libtelux_common
-Wl,--defsym=_ZZNKSt8__detail15_BracketMatcherINSt7__cxx1112regex_traitsIcEELb0ELb0EE8_M_applyEcSt17integral_constantIbLb0EEENKUlvE_clEv=so_stub_for_libtelux_common
-Wl,--defsym=_ZZNKSt8__detail15_BracketMatcherINSt7__cxx1112regex_traitsIcEELb0ELb1EE8_M_applyEcSt17integral_constantIbLb0EEENKUlvE_clEv=so_stub_for_libtelux_common
-Wl,--defsym=_ZZNKSt8__detail15_BracketMatcherINSt7__cxx1112regex_traitsIcEELb1ELb0EE8_M_applyEcSt17integral_constantIbLb0EEENKUlvE_clEv=so_stub_for_libtelux_common
-Wl,--defsym=_ZZNKSt8__detail15_BracketMatcherINSt7__cxx1112regex_traitsIcEELb1ELb1EE8_M_applyEcSt17integral_constantIbLb0EEENKUlvE_clEv=so_stub_for_libtelux_common
-Wl,--defsym=_ZZNKSt8__detail9_ExecutorIN9__gnu_cxx17__normal_iteratorIPKcNSt7__cxx1112basic_stringIcSt11char_traitsIcESaIcEEEEESaINS5_9sub_matchISB_EEENS5_12regex_traitsIcEELb0EE10_M_is_wordEcE3__s=so_stub_for_libtelux_common
-Wl,--defsym=_ZZNKSt8__detail9_ExecutorIN9__gnu_cxx17__normal_iteratorIPKcNSt7__cxx1112basic_stringIcSt11char_traitsIcESaIcEEEEESaINS5_9sub_matchISB_EEENS5_12regex_traitsIcEELb1EE10_M_is_wordEcE3__s=so_stub_for_libtelux_common
