-Wl,--defsym=__gcov_error_file=so_stub_for_libtelux_tel
-Wl,--defsym=__gcov_master=so_stub_for_libtelux_tel
-Wl,--defsym=__gcov_sort_n_vals=so_stub_for_libtelux_tel
-Wl,--defsym=__gcov_var=so_stub_for_libtelux_tel
-Wl,--defsym=_Z27handleEventReportCmasBuffer9RadioTechSt8functionIFbS_RK17CmasCellbroadcastEESt6vectorIhSaIhEE=so_stub_for_libtelux_tel
-Wl,--defsym=_ZGVZNKSt8__detail11_AnyMatcherINSt7__cxx1112regex_traitsIcEELb0ELb0ELb0EEclEcE5__nul=so_stub_for_libtelux_tel
-Wl,--defsym=_ZGVZNKSt8__detail11_AnyMatcherINSt7__cxx1112regex_traitsIcEELb0ELb0ELb1EEclEcE5__nul=so_stub_for_libtelux_tel
-Wl,--defsym=_ZGVZNKSt8__detail11_AnyMatcherINSt7__cxx1112regex_traitsIcEELb0ELb1ELb0EEclEcE5__nul=so_stub_for_libtelux_tel
-Wl,--defsym=_ZGVZNKSt8__detail11_AnyMatcherINSt7__cxx1112regex_traitsIcEELb0ELb1ELb1EEclEcE5__nul=so_stub_for_libtelux_tel
-Wl,--defsym=_ZN17CmasCellbroadcastC1ERKS_=so_stub_for_libtelux_tel
-Wl,--defsym=_ZN17CmasCellbroadcastC1ESt6vectorIhSaIhEE=so_stub_for_libtelux_tel
-Wl,--defsym=_ZN17CmasCellbroadcastC1Ev=so_stub_for_libtelux_tel
-Wl,--defsym=_ZN17CmasCellbroadcastC2ERKS_=so_stub_for_libtelux_tel
-Wl,--defsym=_ZN17CmasCellbroadcastC2ESt6vectorIhSaIhEE=so_stub_for_libtelux_tel
-Wl,--defsym=_ZN17CmasCellbroadcastC2Ev=so_stub_for_libtelux_tel
-Wl,--defsym=_ZN17CmasCellbroadcastD0Ev=so_stub_for_libtelux_tel
-Wl,--defsym=_ZN17CmasCellbroadcastD1Ev=so_stub_for_libtelux_tel
-Wl,--defsym=_ZN17CmasCellbroadcastD2Ev=so_stub_for_libtelux_tel
-Wl,--defsym=_ZN20GsmCmasCellbroadcastC1ESt6vectorIhSaIhEE=so_stub_for_libtelux_tel
-Wl,--defsym=_ZN20GsmCmasCellbroadcastC2ESt6vectorIhSaIhEE=so_stub_for_libtelux_tel
-Wl,--defsym=_ZN20GsmCmasCellbroadcastD0Ev=so_stub_for_libtelux_tel
-Wl,--defsym=_ZN20GsmCmasCellbroadcastD1Ev=so_stub_for_libtelux_tel
-Wl,--defsym=_ZN20GsmCmasCellbroadcastD2Ev=so_stub_for_libtelux_tel
-Wl,--defsym=_ZN21UmtsCmasCellbroadcast15setSerialNumberEi=so_stub_for_libtelux_tel
-Wl,--defsym=_ZN21UmtsCmasCellbroadcast20setGeographicalScopeEi=so_stub_for_libtelux_tel
-Wl,--defsym=_ZN21UmtsCmasCellbroadcast20setMessageIdentifierEj=so_stub_for_libtelux_tel
-Wl,--defsym=_ZN21UmtsCmasCellbroadcast6setDcsEi=so_stub_for_libtelux_tel
-Wl,--defsym=_ZN21UmtsCmasCellbroadcast8setPagesERKSt6vectorIS0_IhSaIhEESaIS2_EE=so_stub_for_libtelux_tel
-Wl,--defsym=_ZN21UmtsCmasCellbroadcastC1ESt6vectorIhSaIhEE=so_stub_for_libtelux_tel
-Wl,--defsym=_ZN21UmtsCmasCellbroadcastC1Ev=so_stub_for_libtelux_tel
-Wl,--defsym=_ZN21UmtsCmasCellbroadcastC2ESt6vectorIhSaIhEE=so_stub_for_libtelux_tel
-Wl,--defsym=_ZN21UmtsCmasCellbroadcastC2Ev=so_stub_for_libtelux_tel
-Wl,--defsym=_ZN21UmtsCmasCellbroadcastD0Ev=so_stub_for_libtelux_tel
-Wl,--defsym=_ZN21UmtsCmasCellbroadcastD1Ev=so_stub_for_libtelux_tel
-Wl,--defsym=_ZN21UmtsCmasCellbroadcastD2Ev=so_stub_for_libtelux_tel
-Wl,--defsym=_ZN36MultipartGsmCmasCellbroadcastHandler12setRadioTechE9RadioTech=so_stub_for_libtelux_tel
-Wl,--defsym=_ZN36MultipartGsmCmasCellbroadcastHandler5resetEv=so_stub_for_libtelux_tel
-Wl,--defsym=_ZN36MultipartGsmCmasCellbroadcastHandler6appendE20GsmCmasCellbroadcast=so_stub_for_libtelux_tel
-Wl,--defsym=_ZN36MultipartGsmCmasCellbroadcastHandlerC1Ev=so_stub_for_libtelux_tel
-Wl,--defsym=_ZN36MultipartGsmCmasCellbroadcastHandlerC2Ev=so_stub_for_libtelux_tel
-Wl,--defsym=_ZN36MultipartGsmCmasCellbroadcastHandlerD1Ev=so_stub_for_libtelux_tel
-Wl,--defsym=_ZN36MultipartGsmCmasCellbroadcastHandlerD2Ev=so_stub_for_libtelux_tel
-Wl,--defsym=_ZN5telux3qmi15IQmiDmsListener21onOperatingModeChangeEi=so_stub_for_libtelux_tel
-Wl,--defsym=_ZN5telux3qmi15IQmiDmsListener26onModemActivityClientReadyEb=so_stub_for_libtelux_tel
-Wl,--defsym=_ZN5telux3qmi15IQmiNasListener19onSystemInfoChangedEP24nas_sys_info_ind_msg_v01=so_stub_for_libtelux_tel
-Wl,--defsym=_ZN5telux3qmi15IQmiNasListener20onV2xNotificationIndERK28nas_v2x_notification_ind_v01=so_stub_for_libtelux_tel
-Wl,--defsym=_ZN5telux3qmi15IQmiNasListener23onHighCapabilityChangedEP35nas_high_capability_sub_ind_msg_v01=so_stub_for_libtelux_tel
-Wl,--defsym=_ZN5telux3qmi15IQmiNasListener34onSystemSelectionPreferenceChangedEP43nas_system_selection_preference_ind_msg_v01=so_stub_for_libtelux_tel
-Wl,--defsym=_ZN5telux3qmi15IQmiUimListener15onAddProfileIndERK27uim_add_profile_ind_msg_v01=so_stub_for_libtelux_tel
-Wl,--defsym=_ZN5telux3qmi15IQmiUimListener19onSlotStatusChangedE34uim_slot_status_change_ind_msg_v01=so_stub_for_libtelux_tel
-Wl,--defsym=_ZN5telux3qmi17IQmiVoiceListener13onECallStatusEP30voice_ecall_status_ind_msg_v02i=so_stub_for_libtelux_tel
-Wl,--defsym=_ZN5telux3qmi17IQmiVoiceListener15onECallOprtModeEP33voice_ecall_oprt_mode_ind_msg_v02i=so_stub_for_libtelux_tel
-Wl,--defsym=_ZN5telux3qmi17IQmiVoiceListener22onECallHlapTimerStatusEP41voice_ecall_hlap_timer_status_ind_msg_v02i=so_stub_for_libtelux_tel
-Wl,--defsym=_ZN5telux3tel10CallHelper12readCallListEv=so_stub_for_libtelux_tel
-Wl,--defsym=_ZN5telux3tel10CallHelper13readCallStateEi=so_stub_for_libtelux_tel
-Wl,--defsym=_ZN5telux3tel10CallHelper17readCallDirectionEi=so_stub_for_libtelux_tel
-Wl,--defsym=_ZN5telux3tel10CallHelper18getCallStateStringB5cxx11ENS0_9CallStateE=so_stub_for_libtelux_tel
-Wl,--defsym=_ZN5telux3tel10CallHelper22getCallDirectionStringB5cxx11ENS0_13CallDirectionE=so_stub_for_libtelux_tel
-Wl,--defsym=_ZN5telux3tel10CallHelperC1ESt10shared_ptrI6ParcelE=so_stub_for_libtelux_tel
-Wl,--defsym=_ZN5telux3tel10CallHelperC1Ev=so_stub_for_libtelux_tel
-Wl,--defsym=_ZN5telux3tel10CallHelperC2ESt10shared_ptrI6ParcelE=so_stub_for_libtelux_tel
-Wl,--defsym=_ZN5telux3tel10CallHelperC2Ev=so_stub_for_libtelux_tel
-Wl,--defsym=_ZN5telux3tel10CardHelper11readAppTypeEi=so_stub_for_libtelux_tel
-Wl,--defsym=_ZN5telux3tel10CardHelper12readAppStateEi=so_stub_for_libtelux_tel
-Wl,--defsym=_ZN5telux3tel10CardHelper12readPinStateEi=so_stub_for_libtelux_tel
-Wl,--defsym=_ZN5telux3tel10CardHelper13readCardStateEi=so_stub_for_libtelux_tel
-Wl,--defsym=_ZN5telux3tel10CardHelper14readCardStatusEv=so_stub_for_libtelux_tel
-Wl,--defsym=_ZN5telux3tel10CardHelper17readPersoSubstateEi=so_stub_for_libtelux_tel
-Wl,--defsym=_ZN5telux3tel10CardHelper20readRefreshSimResultEv=so_stub_for_libtelux_tel
-Wl,--defsym=_ZN5telux3tel10CardHelper9readIccIoEv=so_stub_for_libtelux_tel
-Wl,--defsym=_ZN5telux3tel10CardHelperC1ESt10shared_ptrI6ParcelE=so_stub_for_libtelux_tel
-Wl,--defsym=_ZN5telux3tel10CardHelperC2ESt10shared_ptrI6ParcelE=so_stub_for_libtelux_tel
-Wl,--defsym=_ZN5telux3tel10cdmaDbmMapE=so_stub_for_libtelux_tel
-Wl,--defsym=_ZN5telux3tel10evdoDbmMapE=so_stub_for_libtelux_tel
-Wl,--defsym=_ZN5telux3tel10evdoSnrMapE=so_stub_for_libtelux_tel
-Wl,--defsym=_ZN5telux3tel10SimProfile11getIconTypeEv=so_stub_for_libtelux_tel
-Wl,--defsym=_ZN5telux3tel10SimProfile11getNickNameB5cxx11Ev=so_stub_for_libtelux_tel
-Wl,--defsym=_ZN5telux3tel10SimProfile12getProfileIdEv=so_stub_for_libtelux_tel
-Wl,--defsym=_ZN5telux3tel10SimProfile13getPolicyRuleEv=so_stub_for_libtelux_tel
-Wl,--defsym=_ZN5telux3tel10SimProfile6getSPNB5cxx11Ev=so_stub_for_libtelux_tel
-Wl,--defsym=_ZN5telux3tel10SimProfile7getIconEv=so_stub_for_libtelux_tel
-Wl,--defsym=_ZN5telux3tel10SimProfile7getNameB5cxx11Ev=so_stub_for_libtelux_tel
-Wl,--defsym=_ZN5telux3tel10SimProfile7getTypeEv=so_stub_for_libtelux_tel
-Wl,--defsym=_ZN5telux3tel10SimProfile8getClassEv=so_stub_for_libtelux_tel
-Wl,--defsym=_ZN5telux3tel10SimProfile8getIccidB5cxx11Ev=so_stub_for_libtelux_tel
-Wl,--defsym=_ZN5telux3tel10SimProfile8isActiveEv=so_stub_for_libtelux_tel
-Wl,--defsym=_ZN5telux3tel10SimProfile8toStringB5cxx11Ev=so_stub_for_libtelux_tel
-Wl,--defsym=_ZN5telux3tel10SimProfileC1EiNS0_11ProfileTypeERKNSt7__cxx1112basic_stringIcSt11char_traitsIcESaIcEEEbSA_SA_SA_NS0_8IconTypeESt6vectorIhSaIhEENS0_12ProfileClassESt6bitsetILj16EE=so_stub_for_libtelux_tel
-Wl,--defsym=_ZN5telux3tel10SimProfileC2EiNS0_11ProfileTypeERKNSt7__cxx1112basic_stringIcSt11char_traitsIcESaIcEEEbSA_SA_SA_NS0_8IconTypeESt6vectorIhSaIhEENS0_12ProfileClassESt6bitsetILj16EE=so_stub_for_libtelux_tel
-Wl,--defsym=_ZN5telux3tel10SimProfileD1Ev=so_stub_for_libtelux_tel
-Wl,--defsym=_ZN5telux3tel10SimProfileD2Ev=so_stub_for_libtelux_tel
-Wl,--defsym=_ZN5telux3tel10SmsManager10getPhoneIdEv=so_stub_for_libtelux_tel
-Wl,--defsym=_ZN5telux3tel10SmsManager14removeListenerESt8weak_ptrINS0_12ISmsListenerEE=so_stub_for_libtelux_tel
-Wl,--defsym=_ZN5telux3tel10SmsManager14setSmscAddressERKNSt7__cxx1112basic_stringIcSt11char_traitsIcESaIcEEESt8functionIFvNS_6common9ErrorCodeEEE=so_stub_for_libtelux_tel
-Wl,--defsym=_ZN5telux3tel10SmsManager16registerListenerESt8weak_ptrINS0_12ISmsListenerEE=so_stub_for_libtelux_tel
-Wl,--defsym=_ZN5telux3tel10SmsManager17notifySmsListenerESt10shared_ptrINS0_10SmsMessageEE=so_stub_for_libtelux_tel
-Wl,--defsym=_ZN5telux3tel10SmsManager18requestImsRegStateEv=so_stub_for_libtelux_tel
-Wl,--defsym=_ZN5telux3tel10SmsManager18requestSmscAddressESt10shared_ptrINS0_20ISmscAddressCallbackEE=so_stub_for_libtelux_tel
-Wl,--defsym=_ZN5telux3tel10SmsManager21handleSendSmsResponseEiPvSt10shared_ptrINS_6common16ICommandCallbackEE=so_stub_for_libtelux_tel
-Wl,--defsym=_ZN5telux3tel10SmsManager21onServiceStatusChangeENS_6common13ServiceStatusE=so_stub_for_libtelux_tel
-Wl,--defsym=_ZN5telux3tel10SmsManager23handleSolicitedResponseESt10shared_ptrINS_6common6ResultEE=so_stub_for_libtelux_tel
-Wl,--defsym=_ZN5telux3tel10SmsManager25handleImsRegStateResponseEiPv=so_stub_for_libtelux_tel
-Wl,--defsym=_ZN5telux3tel10SmsManager25handleIncomingSmsResponseEiPv=so_stub_for_libtelux_tel
-Wl,--defsym=_ZN5telux3tel10SmsManager25handleSmscAddressResponseEiPvSt10shared_ptrINS_6common16ICommandCallbackEE=so_stub_for_libtelux_tel
-Wl,--defsym=_ZN5telux3tel10SmsManager25handleUnsolicitedResponseESt10shared_ptrINS_6common6ResultEE=so_stub_for_libtelux_tel
-Wl,--defsym=_ZN5telux3tel10SmsManager26calculateMessageAttributesERKNSt7__cxx1112basic_stringIcSt11char_traitsIcESaIcEEE=so_stub_for_libtelux_tel
-Wl,--defsym=_ZN5telux3tel10SmsManager27addDeliveryCallbackMapEntryEiSt8weak_ptrINS_6common24ICommandResponseCallbackEE=so_stub_for_libtelux_tel
-Wl,--defsym=_ZN5telux3tel10SmsManager28handleSetSmscAddressResponseEiSt10shared_ptrINS_6common16ICommandCallbackEE=so_stub_for_libtelux_tel
-Wl,--defsym=_ZN5telux3tel10SmsManager29cleanDeliveryCallbackMapEntryEv=so_stub_for_libtelux_tel
-Wl,--defsym=_ZN5telux3tel10SmsManager29handleSmsStatusReportResponseEiPvSt10shared_ptrINS_6common16ICommandCallbackEE=so_stub_for_libtelux_tel
-Wl,--defsym=_ZN5telux3tel10SmsManager30removeDeliveryCallbackMapEntryEi=so_stub_for_libtelux_tel
-Wl,--defsym=_ZN5telux3tel10SmsManager4initEv=so_stub_for_libtelux_tel
-Wl,--defsym=_ZN5telux3tel10SmsManager7cleanupEv=so_stub_for_libtelux_tel
-Wl,--defsym=_ZN5telux3tel10SmsManager7isReadyEv=so_stub_for_libtelux_tel
-Wl,--defsym=_ZN5telux3tel10SmsManager7sendSmsERKNSt7__cxx1112basic_stringIcSt11char_traitsIcESaIcEEES9_St10shared_ptrINS_6common24ICommandResponseCallbackEESD_=so_stub_for_libtelux_tel
-Wl,--defsym=_ZN5telux3tel10SmsManager8initSyncEv=so_stub_for_libtelux_tel
-Wl,--defsym=_ZN5telux3tel10SmsManagerC1Ei=so_stub_for_libtelux_tel
-Wl,--defsym=_ZN5telux3tel10SmsManagerC2Ei=so_stub_for_libtelux_tel
-Wl,--defsym=_ZN5telux3tel10SmsManagerD0Ev=so_stub_for_libtelux_tel
-Wl,--defsym=_ZN5telux3tel10SmsManagerD1Ev=so_stub_for_libtelux_tel
-Wl,--defsym=_ZN5telux3tel10SmsManagerD2Ev=so_stub_for_libtelux_tel
-Wl,--defsym=_ZN5telux3tel10SmsMessageC1ENSt7__cxx1112basic_stringIcSt11char_traitsIcESaIcEEES7_S7_NS0_11SmsEncodingES7_=so_stub_for_libtelux_tel
-Wl,--defsym=_ZN5telux3tel10SmsMessageC2ENSt7__cxx1112basic_stringIcSt11char_traitsIcESaIcEEES7_S7_NS0_11SmsEncodingES7_=so_stub_for_libtelux_tel
-Wl,--defsym=_ZN5telux3tel10SmsMessageD1Ev=so_stub_for_libtelux_tel
-Wl,--defsym=_ZN5telux3tel10SmsMessageD2Ev=so_stub_for_libtelux_tel
-Wl,--defsym=_ZN5telux3tel11CallManager10conferenceESt10shared_ptrINS0_5ICallEES4_S2_INS_6common24ICommandResponseCallbackEE=so_stub_for_libtelux_tel
-Wl,--defsym=_ZN5telux3tel11CallManager13onECallStatusEP30voice_ecall_status_ind_msg_v02i=so_stub_for_libtelux_tel
-Wl,--defsym=_ZN5telux3tel11CallManager14addLatestCallsERSt6vectorINS0_8CallInfoESaIS3_EEi=so_stub_for_libtelux_tel
-Wl,--defsym=_ZN5telux3tel11CallManager14removeListenerESt10shared_ptrINS0_13ICallListenerEE=so_stub_for_libtelux_tel
-Wl,--defsym=_ZN5telux3tel11CallManager14updateECallMsdEiRKNS0_12ECallMsdDataESt10shared_ptrINS_6common24ICommandResponseCallbackEE=so_stub_for_libtelux_tel
-Wl,--defsym=_ZN5telux3tel11CallManager14updateECallMsdEiRKSt6vectorIhSaIhEESt8functionIFvNS_6common9ErrorCodeEEE=so_stub_for_libtelux_tel
-Wl,--defsym=_ZN5telux3tel11CallManager15ResponseHandler23handleSolicitedResponseESt10shared_ptrINS_6common6ResultEE=so_stub_for_libtelux_tel
-Wl,--defsym=_ZN5telux3tel11CallManager15ResponseHandler25handleUnsolicitedResponseESt10shared_ptrINS_6common6ResultEE=so_stub_for_libtelux_tel
-Wl,--defsym=_ZN5telux3tel11CallManager15ResponseHandlerD0Ev=so_stub_for_libtelux_tel
-Wl,--defsym=_ZN5telux3tel11CallManager15ResponseHandlerD1Ev=so_stub_for_libtelux_tel
-Wl,--defsym=_ZN5telux3tel11CallManager15ResponseHandlerD2Ev=so_stub_for_libtelux_tel
-Wl,--defsym=_ZN5telux3tel11CallManager16findMatchingCallESt10shared_ptrINS0_5ICallEE=so_stub_for_libtelux_tel
-Wl,--defsym=_ZN5telux3tel11CallManager16isSubsystemReadyEv=so_stub_for_libtelux_tel
-Wl,--defsym=_ZN5telux3tel11CallManager16onSubsystemReadyEv=so_stub_for_libtelux_tel
-Wl,--defsym=_ZN5telux3tel11CallManager16registerListenerESt10shared_ptrINS0_13ICallListenerEE=so_stub_for_libtelux_tel
-Wl,--defsym=_ZN5telux3tel11CallManager16sendECallRequestEiNSt7__cxx1112basic_stringIcSt11char_traitsIcESaIcEEERKNS0_12ECallMsdDataEiiSt10shared_ptrINS0_17IMakeCallCallbackEE=so_stub_for_libtelux_tel
-Wl,--defsym=_ZN5telux3tel11CallManager16sendECallRequestEiNSt7__cxx1112basic_stringIcSt11char_traitsIcESaIcEEERKSt6vectorIhSaIhEEbiiSt8functionIFvNS_6common9ErrorCodeESt10shared_ptrINS0_5ICallEEEE=so_stub_for_libtelux_tel
-Wl,--defsym=_ZN5telux3tel11CallManager16updateReadyStateEv=so_stub_for_libtelux_tel
-Wl,--defsym=_ZN5telux3tel11CallManager17addNewCallDetailsESt10shared_ptrINS0_5ICallEE=so_stub_for_libtelux_tel
-Wl,--defsym=_ZN5telux3tel11CallManager18getInProgressCallsEv=so_stub_for_libtelux_tel
-Wl,--defsym=_ZN5telux3tel11CallManager18getResponseHandlerEv=so_stub_for_libtelux_tel
-Wl,--defsym=_ZN5telux3tel11CallManager18notifyIncomingCallESt10shared_ptrINS0_5ICallEE=so_stub_for_libtelux_tel
-Wl,--defsym=_ZN5telux3tel11CallManager18onRegisterResponseEi=so_stub_for_libtelux_tel
-Wl,--defsym=_ZN5telux3tel11CallManager18refreshCachedCallsERSt6vectorINS0_8CallInfoESaIS3_EEi=so_stub_for_libtelux_tel
-Wl,--defsym=_ZN5telux3tel11CallManager18updateCurrentCallsEv=so_stub_for_libtelux_tel
-Wl,--defsym=_ZN5telux3tel11CallManager19updateLastFailCauseEi=so_stub_for_libtelux_tel
-Wl,--defsym=_ZN5telux3tel11CallManager20notifyCallInfoChangeESt10shared_ptrINS0_5ICallEE=so_stub_for_libtelux_tel
-Wl,--defsym=_ZN5telux3tel11CallManager21onServiceStatusChangeENS_6common13ServiceStatusE=so_stub_for_libtelux_tel
-Wl,--defsym=_ZN5telux3tel11CallManager21waitForInitializationEv=so_stub_for_libtelux_tel
-Wl,--defsym=_ZN5telux3tel11CallManager22convertHlapTimerStatusE32ecall_hlap_timer_status_enum_v02=so_stub_for_libtelux_tel
-Wl,--defsym=_ZN5telux3tel11CallManager22handleSwapCallResponseEiSt10shared_ptrINS_6common16ICommandCallbackEE=so_stub_for_libtelux_tel
-Wl,--defsym=_ZN5telux3tel11CallManager22initiateUpdateECallMsdERKSt6vectorIhSaIhEEiib=so_stub_for_libtelux_tel
-Wl,--defsym=_ZN5telux3tel11CallManager22onECallHlapTimerStatusEP41voice_ecall_hlap_timer_status_ind_msg_v02i=so_stub_for_libtelux_tel
-Wl,--defsym=_ZN5telux3tel11CallManager24convertTimerEventFromIndE32ecall_hlap_timer_status_enum_v02=so_stub_for_libtelux_tel
-Wl,--defsym=_ZN5telux3tel11CallManager24handleServiceStateChangeENS_6common13ServiceStatusE=so_stub_for_libtelux_tel
-Wl,--defsym=_ZN5telux3tel11CallManager24onVoiceSetConfigResponseEiPv=so_stub_for_libtelux_tel
-Wl,--defsym=_ZN5telux3tel11CallManager26onVoiceServiceStatusChangeENS_6common13ServiceStatusEi=so_stub_for_libtelux_tel
-Wl,--defsym=_ZN5telux3tel11CallManager27notifyAndRemoveDroppedCallsENS0_12CallEndCauseEi=so_stub_for_libtelux_tel
-Wl,--defsym=_ZN5telux3tel11CallManager27requestECallHlapTimerStatusEiSt8functionIFvNS_6common9ErrorCodeEiNS0_20ECallHlapTimerStatusEEE=so_stub_for_libtelux_tel
-Wl,--defsym=_ZN5telux3tel11CallManager28handleConferenceCallResponseEiSt10shared_ptrINS_6common16ICommandCallbackEE=so_stub_for_libtelux_tel
-Wl,--defsym=_ZN5telux3tel11CallManager32handleUpdateCurrentCallsResponseEPvii=so_stub_for_libtelux_tel
-Wl,--defsym=_ZN5telux3tel11CallManager32notifyECallMsdTransmissionStatusEiNS0_26ECallMsdTransmissionStatusE=so_stub_for_libtelux_tel
-Wl,--defsym=_ZN5telux3tel11CallManager32notifyECallMsdTransmissionStatusEiNS_6common9ErrorCodeE=so_stub_for_libtelux_tel
-Wl,--defsym=_ZN5telux3tel11CallManager33onGetECallHlapTimerStatusResponseEP46voice_get_ecall_hlap_timer_status_resp_msg_v02iiPv=so_stub_for_libtelux_tel
-Wl,--defsym=_ZN5telux3tel11CallManager4initEv=so_stub_for_libtelux_tel
-Wl,--defsym=_ZN5telux3tel11CallManager4swapESt10shared_ptrINS0_5ICallEES4_S2_INS_6common24ICommandResponseCallbackEE=so_stub_for_libtelux_tel
-Wl,--defsym=_ZN5telux3tel11CallManager7cleanupEv=so_stub_for_libtelux_tel
-Wl,--defsym=_ZN5telux3tel11CallManager8initCallESt10shared_ptrINS0_4CallEE=so_stub_for_libtelux_tel
-Wl,--defsym=_ZN5telux3tel11CallManager8initSyncEv=so_stub_for_libtelux_tel
-Wl,--defsym=_ZN5telux3tel11CallManager8makeCallEiRKNSt7__cxx1112basic_stringIcSt11char_traitsIcESaIcEEESt10shared_ptrINS0_17IMakeCallCallbackEE=so_stub_for_libtelux_tel
-Wl,--defsym=_ZN5telux3tel11CallManager9makeECallEiiiSt8functionIFvNS_6common9ErrorCodeESt10shared_ptrINS0_5ICallEEEE=so_stub_for_libtelux_tel
-Wl,--defsym=_ZN5telux3tel11CallManager9makeECallEiNSt7__cxx1112basic_stringIcSt11char_traitsIcESaIcEEEiSt8functionIFvNS_6common9ErrorCodeESt10shared_ptrINS0_5ICallEEEE=so_stub_for_libtelux_tel
-Wl,--defsym=_ZN5telux3tel11CallManager9makeECallEiNSt7__cxx1112basic_stringIcSt11char_traitsIcESaIcEEERKNS0_12ECallMsdDataEiSt10shared_ptrINS0_17IMakeCallCallbackEE=so_stub_for_libtelux_tel
-Wl,--defsym=_ZN5telux3tel11CallManager9makeECallEiNSt7__cxx1112basic_stringIcSt11char_traitsIcESaIcEEERKSt6vectorIhSaIhEEiSt8functionIFvNS_6common9ErrorCodeESt10shared_ptrINS0_5ICallEEEE=so_stub_for_libtelux_tel
-Wl,--defsym=_ZN5telux3tel11CallManager9makeECallEiRKNS0_12ECallMsdDataEiiSt10shared_ptrINS0_17IMakeCallCallbackEE=so_stub_for_libtelux_tel
-Wl,--defsym=_ZN5telux3tel11CallManager9makeECallEiRKSt6vectorIhSaIhEEiiSt8functionIFvNS_6common9ErrorCodeESt10shared_ptrINS0_5ICallEEEE=so_stub_for_libtelux_tel
-Wl,--defsym=_ZN5telux3tel11CallManagerC1Ev=so_stub_for_libtelux_tel
-Wl,--defsym=_ZN5telux3tel11CallManagerC2Ev=so_stub_for_libtelux_tel
-Wl,--defsym=_ZN5telux3tel11CallManagerD0Ev=so_stub_for_libtelux_tel
-Wl,--defsym=_ZN5telux3tel11CallManagerD1Ev=so_stub_for_libtelux_tel
-Wl,--defsym=_ZN5telux3tel11CallManagerD2Ev=so_stub_for_libtelux_tel
-Wl,--defsym=_ZN5telux3tel11CardAppImpl10getAppTypeEv=so_stub_for_libtelux_tel
-Wl,--defsym=_ZN5telux3tel11CardAppImpl11getAppStateEv=so_stub_for_libtelux_tel
-Wl,--defsym=_ZN5telux3tel11CardAppImpl11setCardLockENS0_12CardLockTypeENSt7__cxx1112basic_stringIcSt11char_traitsIcESaIcEEEbSt8functionIFviNS_6common9ErrorCodeEEE=so_stub_for_libtelux_tel
-Wl,--defsym=_ZN5telux3tel11CardAppImpl13updateCardAppERNS0_13CardAppStatusE=so_stub_for_libtelux_tel
-Wl,--defsym=_ZN5telux3tel11CardAppImpl15unlockCardByPinENS0_12CardLockTypeENSt7__cxx1112basic_stringIcSt11char_traitsIcESaIcEEESt8functionIFviNS_6common9ErrorCodeEEE=so_stub_for_libtelux_tel
-Wl,--defsym=_ZN5telux3tel11CardAppImpl15unlockCardByPukENS0_12CardLockTypeENSt7__cxx1112basic_stringIcSt11char_traitsIcESaIcEEES8_St8functionIFviNS_6common9ErrorCodeEEE=so_stub_for_libtelux_tel
-Wl,--defsym=_ZN5telux3tel11CardAppImpl16getPersoSubStateEv=so_stub_for_libtelux_tel
-Wl,--defsym=_ZN5telux3tel11CardAppImpl17logCardAppDetailsEv=so_stub_for_libtelux_tel
-Wl,--defsym=_ZN5telux3tel11CardAppImpl17queryFdnLockStateESt8functionIFvbbNS_6common9ErrorCodeEEE=so_stub_for_libtelux_tel
-Wl,--defsym=_ZN5telux3tel11CardAppImpl18changeCardPasswordENS0_12CardLockTypeENSt7__cxx1112basic_stringIcSt11char_traitsIcESaIcEEES8_St8functionIFviNS_6common9ErrorCodeEEE=so_stub_for_libtelux_tel
-Wl,--defsym=_ZN5telux3tel11CardAppImpl18queryPin1LockStateESt8functionIFvbNS_6common9ErrorCodeEEE=so_stub_for_libtelux_tel
-Wl,--defsym=_ZN5telux3tel11CardAppImpl19handleQueryFdnEventEiPSt6vectorIiSaIiEESt10shared_ptrINS_6common16ICommandCallbackEE=so_stub_for_libtelux_tel
-Wl,--defsym=_ZN5telux3tel11CardAppImpl19handleQueryPinEventEiPSt6vectorIiSaIiEESt10shared_ptrINS_6common16ICommandCallbackEE=so_stub_for_libtelux_tel
-Wl,--defsym=_ZN5telux3tel11CardAppImpl20handlePinUpdateEventEiPSt6vectorIiSaIiEESt10shared_ptrINS_6common16ICommandCallbackEE=so_stub_for_libtelux_tel
-Wl,--defsym=_ZN5telux3tel11CardAppImpl23handleSolicitedResponseESt10shared_ptrINS_6common6ResultEE=so_stub_for_libtelux_tel
-Wl,--defsym=_ZN5telux3tel11CardAppImpl25handleUnsolicitedResponseESt10shared_ptrINS_6common6ResultEE=so_stub_for_libtelux_tel
-Wl,--defsym=_ZN5telux3tel11CardAppImpl5matchERNS0_13CardAppStatusE=so_stub_for_libtelux_tel
-Wl,--defsym=_ZN5telux3tel11CardAppImpl8getAppIdB5cxx11Ev=so_stub_for_libtelux_tel
-Wl,--defsym=_ZN5telux3tel11CardAppImplC1EiNS0_13CardAppStatusE=so_stub_for_libtelux_tel
-Wl,--defsym=_ZN5telux3tel11CardAppImplC2EiNS0_13CardAppStatusE=so_stub_for_libtelux_tel
-Wl,--defsym=_ZN5telux3tel11CardAppImplD0Ev=so_stub_for_libtelux_tel
-Wl,--defsym=_ZN5telux3tel11CardAppImplD1Ev=so_stub_for_libtelux_tel
-Wl,--defsym=_ZN5telux3tel11CardAppImplD2Ev=so_stub_for_libtelux_tel
-Wl,--defsym=_ZN5telux3tel11cdmaEcioMapE=so_stub_for_libtelux_tel
-Wl,--defsym=_ZN5telux3tel11GsmCellInfo15getCellIdentityEv=so_stub_for_libtelux_tel
-Wl,--defsym=_ZN5telux3tel11GsmCellInfo21getSignalStrengthInfoEv=so_stub_for_libtelux_tel
-Wl,--defsym=_ZN5telux3tel11GsmCellInfoC1EiNS0_15GsmCellIdentityENS0_21GsmSignalStrengthInfoE=so_stub_for_libtelux_tel
-Wl,--defsym=_ZN5telux3tel11GsmCellInfoC2EiNS0_15GsmCellIdentityENS0_21GsmSignalStrengthInfoE=so_stub_for_libtelux_tel
-Wl,--defsym=_ZN5telux3tel11gsmLevelMapE=so_stub_for_libtelux_tel
-Wl,--defsym=_ZN5telux3tel11LteCellInfo15getCellIdentityEv=so_stub_for_libtelux_tel
-Wl,--defsym=_ZN5telux3tel11LteCellInfo21getSignalStrengthInfoEv=so_stub_for_libtelux_tel
-Wl,--defsym=_ZN5telux3tel11LteCellInfoC1EiNS0_15LteCellIdentityENS0_21LteSignalStrengthInfoE=so_stub_for_libtelux_tel
-Wl,--defsym=_ZN5telux3tel11LteCellInfoC2EiNS0_15LteCellIdentityENS0_21LteSignalStrengthInfoE=so_stub_for_libtelux_tel
-Wl,--defsym=_ZN5telux3tel11lteLevelMapE=so_stub_for_libtelux_tel
-Wl,--defsym=_ZN5telux3tel12CdmaCellInfo15getCellIdentityEv=so_stub_for_libtelux_tel
-Wl,--defsym=_ZN5telux3tel12CdmaCellInfo21getSignalStrengthInfoEv=so_stub_for_libtelux_tel
-Wl,--defsym=_ZN5telux3tel12CdmaCellInfoC1EiNS0_16CdmaCellIdentityENS0_22CdmaSignalStrengthInfoE=so_stub_for_libtelux_tel
-Wl,--defsym=_ZN5telux3tel12CdmaCellInfoC2EiNS0_16CdmaCellIdentityENS0_22CdmaSignalStrengthInfoE=so_stub_for_libtelux_tel
-Wl,--defsym=_ZN5telux3tel12ISmsListener13onIncomingSmsEiSt10shared_ptrINS0_10SmsMessageEE=so_stub_for_libtelux_tel
-Wl,--defsym=_ZN5telux3tel12OperatorInfo6getMccB5cxx11Ev=so_stub_for_libtelux_tel
-Wl,--defsym=_ZN5telux3tel12OperatorInfo6getMncB5cxx11Ev=so_stub_for_libtelux_tel
-Wl,--defsym=_ZN5telux3tel12OperatorInfo7getNameB5cxx11Ev=so_stub_for_libtelux_tel
-Wl,--defsym=_ZN5telux3tel12OperatorInfo9getStatusEv=so_stub_for_libtelux_tel
-Wl,--defsym=_ZN5telux3tel12OperatorInfoC1ENSt7__cxx1112basic_stringIcSt11char_traitsIcESaIcEEES7_S7_NS0_14OperatorStatusE=so_stub_for_libtelux_tel
-Wl,--defsym=_ZN5telux3tel12OperatorInfoC1EOS1_=so_stub_for_libtelux_tel
-Wl,--defsym=_ZN5telux3tel12OperatorInfoC1ERKS1_=so_stub_for_libtelux_tel
-Wl,--defsym=_ZN5telux3tel12OperatorInfoC2ENSt7__cxx1112basic_stringIcSt11char_traitsIcESaIcEEES7_S7_NS0_14OperatorStatusE=so_stub_for_libtelux_tel
-Wl,--defsym=_ZN5telux3tel12OperatorInfoC2EOS1_=so_stub_for_libtelux_tel
-Wl,--defsym=_ZN5telux3tel12OperatorInfoC2ERKS1_=so_stub_for_libtelux_tel
-Wl,--defsym=_ZN5telux3tel12OperatorInfoD1Ev=so_stub_for_libtelux_tel
-Wl,--defsym=_ZN5telux3tel12OperatorInfoD2Ev=so_stub_for_libtelux_tel
-Wl,--defsym=_ZN5telux3tel12PhoneFactory11getInstanceEv=so_stub_for_libtelux_tel
-Wl,--defsym=_ZN5telux3tel12PhoneFactory13getSmsManagerEi=so_stub_for_libtelux_tel
-Wl,--defsym=_ZN5telux3tel12PhoneFactory14getCallManagerEv=so_stub_for_libtelux_tel
-Wl,--defsym=_ZN5telux3tel12PhoneFactory14getCardManagerEv=so_stub_for_libtelux_tel
-Wl,--defsym=_ZN5telux3tel12PhoneFactory15getPhoneManagerEv=so_stub_for_libtelux_tel
-Wl,--defsym=_ZN5telux3tel12PhoneFactory17getSapCardManagerEi=so_stub_for_libtelux_tel
-Wl,--defsym=_ZN5telux3tel12PhoneFactory18getMultiSimManagerEv=so_stub_for_libtelux_tel
-Wl,--defsym=_ZN5telux3tel12PhoneFactory19getRemoteSimManagerEi=so_stub_for_libtelux_tel
-Wl,--defsym=_ZN5telux3tel12PhoneFactory20getSimProfileManagerEv=so_stub_for_libtelux_tel
-Wl,--defsym=_ZN5telux3tel12PhoneFactory22getSubscriptionManagerEv=so_stub_for_libtelux_tel
-Wl,--defsym=_ZN5telux3tel12PhoneFactory23getCellBroadcastManagerE6SlotId=so_stub_for_libtelux_tel
-Wl,--defsym=_ZN5telux3tel12PhoneFactory23getServingSystemManagerEi=so_stub_for_libtelux_tel
-Wl,--defsym=_ZN5telux3tel12PhoneFactory26getNetworkSelectionManagerEi=so_stub_for_libtelux_tel
-Wl,--defsym=_ZN5telux3tel12PhoneFactoryC1Ev=so_stub_for_libtelux_tel
-Wl,--defsym=_ZN5telux3tel12PhoneFactoryC2Ev=so_stub_for_libtelux_tel
-Wl,--defsym=_ZN5telux3tel12PhoneFactoryD1Ev=so_stub_for_libtelux_tel
-Wl,--defsym=_ZN5telux3tel12PhoneFactoryD2Ev=so_stub_for_libtelux_tel
-Wl,--defsym=_ZN5telux3tel12PhoneManager10initPhonesEi=so_stub_for_libtelux_tel
-Wl,--defsym=_ZN5telux3tel12PhoneManager11getPhoneIdsERSt6vectorIiSaIiEE=so_stub_for_libtelux_tel
-Wl,--defsym=_ZN5telux3tel12PhoneManager14removeListenerESt8weak_ptrINS0_14IPhoneListenerEE=so_stub_for_libtelux_tel
-Wl,--defsym=_ZN5telux3tel12PhoneManager16isSubsystemReadyEv=so_stub_for_libtelux_tel
-Wl,--defsym=_ZN5telux3tel12PhoneManager16onSubsystemReadyEv=so_stub_for_libtelux_tel
-Wl,--defsym=_ZN5telux3tel12PhoneManager16registerListenerESt8weak_ptrINS0_14IPhoneListenerEE=so_stub_for_libtelux_tel
-Wl,--defsym=_ZN5telux3tel12PhoneManager16setOperatingModeENS0_13OperatingModeESt8functionIFvNS_6common9ErrorCodeEEE=so_stub_for_libtelux_tel
-Wl,--defsym=_ZN5telux3tel12PhoneManager16updateRadioStateENS0_13OperatingModeE=so_stub_for_libtelux_tel
-Wl,--defsym=_ZN5telux3tel12PhoneManager19onRadioStateChangedEiNS0_10RadioStateE=so_stub_for_libtelux_tel
-Wl,--defsym=_ZN5telux3tel12PhoneManager20getPhoneIdFromSlotIdEi=so_stub_for_libtelux_tel
-Wl,--defsym=_ZN5telux3tel12PhoneManager20getSlotIdFromPhoneIdEi=so_stub_for_libtelux_tel
-Wl,--defsym=_ZN5telux3tel12PhoneManager20requestOperatingModeESt10shared_ptrINS0_22IOperatingModeCallbackEE=so_stub_for_libtelux_tel
-Wl,--defsym=_ZN5telux3tel12PhoneManager21onCellInfoListChangedEiSt6vectorISt10shared_ptrINS0_8CellInfoEESaIS5_EE=so_stub_for_libtelux_tel
-Wl,--defsym=_ZN5telux3tel12PhoneManager21onOperatingModeChangeEi=so_stub_for_libtelux_tel
-Wl,--defsym=_ZN5telux3tel12PhoneManager21onServiceStateChangedEiNS0_12ServiceStateE=so_stub_for_libtelux_tel
-Wl,--defsym=_ZN5telux3tel12PhoneManager21onServiceStatusChangeENS_6common13ServiceStatusE=so_stub_for_libtelux_tel
-Wl,--defsym=_ZN5telux3tel12PhoneManager21waitForInitializationEv=so_stub_for_libtelux_tel
-Wl,--defsym=_ZN5telux3tel12PhoneManager22setEventReportResponseEiPv=so_stub_for_libtelux_tel
-Wl,--defsym=_ZN5telux3tel12PhoneManager23onSignalStrengthChangedEiSt10shared_ptrINS0_14SignalStrengthEE=so_stub_for_libtelux_tel
-Wl,--defsym=_ZN5telux3tel12PhoneManager24getOperatingModeResponseEiiPv=so_stub_for_libtelux_tel
-Wl,--defsym=_ZN5telux3tel12PhoneManager24handleServiceStateChangeENS_6common13ServiceStatusE=so_stub_for_libtelux_tel
-Wl,--defsym=_ZN5telux3tel12PhoneManager24onDmsServiceStatusChangeENS_6common13ServiceStatusEi=so_stub_for_libtelux_tel
-Wl,--defsym=_ZN5telux3tel12PhoneManager24setOperatingModeResponseEiPv=so_stub_for_libtelux_tel
-Wl,--defsym=_ZN5telux3tel12PhoneManager26onECallOperatingModeChangeEiNS0_13ECallModeInfoE=so_stub_for_libtelux_tel
-Wl,--defsym=_ZN5telux3tel12PhoneManager26onVoiceServiceStateChangedEiRKSt10shared_ptrINS0_16VoiceServiceInfoEE=so_stub_for_libtelux_tel
-Wl,--defsym=_ZN5telux3tel12PhoneManager26onVoiceServiceStatusChangeENS_6common13ServiceStatusEi=so_stub_for_libtelux_tel
-Wl,--defsym=_ZN5telux3tel12PhoneManager29getCellularCapabilityResponseEP31dms_get_device_cap_resp_msg_v01iPv=so_stub_for_libtelux_tel
-Wl,--defsym=_ZN5telux3tel12PhoneManager29onVoiceRadioTechnologyChangedEiNS0_15RadioTechnologyE=so_stub_for_libtelux_tel
-Wl,--defsym=_ZN5telux3tel12PhoneManager29requestCellularCapabilityInfoESt10shared_ptrINS0_27ICellularCapabilityCallbackEE=so_stub_for_libtelux_tel
-Wl,--defsym=_ZN5telux3tel12PhoneManager4initEv=so_stub_for_libtelux_tel
-Wl,--defsym=_ZN5telux3tel12PhoneManager7cleanupEv=so_stub_for_libtelux_tel
-Wl,--defsym=_ZN5telux3tel12PhoneManager8getPhoneEi=so_stub_for_libtelux_tel
-Wl,--defsym=_ZN5telux3tel12PhoneManager8initSyncEv=so_stub_for_libtelux_tel
-Wl,--defsym=_ZN5telux3tel12PhoneManagerC1Ev=so_stub_for_libtelux_tel
-Wl,--defsym=_ZN5telux3tel12PhoneManagerC2Ev=so_stub_for_libtelux_tel
-Wl,--defsym=_ZN5telux3tel12PhoneManagerD0Ev=so_stub_for_libtelux_tel
-Wl,--defsym=_ZN5telux3tel12PhoneManagerD1Ev=so_stub_for_libtelux_tel
-Wl,--defsym=_ZN5telux3tel12PhoneManagerD2Ev=so_stub_for_libtelux_tel
-Wl,--defsym=_ZN5telux3tel13CardAppStatusC1ERKS1_=so_stub_for_libtelux_tel
-Wl,--defsym=_ZN5telux3tel13CardAppStatusC2ERKS1_=so_stub_for_libtelux_tel
-Wl,--defsym=_ZN5telux3tel13CardAppStatusD1Ev=so_stub_for_libtelux_tel
-Wl,--defsym=_ZN5telux3tel13CardAppStatusD2Ev=so_stub_for_libtelux_tel
-Wl,--defsym=_ZN5telux3tel13ICallListener14onIncomingCallESt10shared_ptrINS0_5ICallEE=so_stub_for_libtelux_tel
-Wl,--defsym=_ZN5telux3tel13ICallListener16onCallInfoChangeESt10shared_ptrINS0_5ICallEE=so_stub_for_libtelux_tel
-Wl,--defsym=_ZN5telux3tel13ICallListener21onECallHlapTimerEventEiNS0_20ECallHlapTimerEventsE=so_stub_for_libtelux_tel
-Wl,--defsym=_ZN5telux3tel13ICallListener28onECallMsdTransmissionStatusEiNS0_26ECallMsdTransmissionStatusE=so_stub_for_libtelux_tel
-Wl,--defsym=_ZN5telux3tel13ICallListener28onECallMsdTransmissionStatusEiNS_6common9ErrorCodeE=so_stub_for_libtelux_tel
-Wl,--defsym=_ZN5telux3tel13ICardListener17onCardInfoChangedEi=so_stub_for_libtelux_tel
-Wl,--defsym=_ZN5telux3tel13WcdmaCellInfo15getCellIdentityEv=so_stub_for_libtelux_tel
-Wl,--defsym=_ZN5telux3tel13WcdmaCellInfo21getSignalStrengthInfoEv=so_stub_for_libtelux_tel
-Wl,--defsym=_ZN5telux3tel13WcdmaCellInfoC1EiNS0_17WcdmaCellIdentityENS0_23WcdmaSignalStrengthInfoE=so_stub_for_libtelux_tel
-Wl,--defsym=_ZN5telux3tel13WcdmaCellInfoC2EiNS0_17WcdmaCellIdentityENS0_23WcdmaSignalStrengthInfoE=so_stub_for_libtelux_tel
-Wl,--defsym=_ZN5telux3tel13wcdmaLevelMapE=so_stub_for_libtelux_tel
-Wl,--defsym=_ZN5telux3tel14IPhoneListener22onOperatingModeChangedENS0_13OperatingModeE=so_stub_for_libtelux_tel
-Wl,--defsym=_ZN5telux3tel14MultiSimHelper18getSlotIdFromIndexEh=so_stub_for_libtelux_tel
-Wl,--defsym=_ZN5telux3tel14MultiSimHelper23convertCardErrorFromQmiE28uim_card_error_code_enum_v01=so_stub_for_libtelux_tel
-Wl,--defsym=_ZN5telux3tel14MultiSimHelper23convertCardStateFromQmiE32uim_physical_card_state_enum_v01=so_stub_for_libtelux_tel
-Wl,--defsym=_ZN5telux3tel14MultiSimHelper23convertSlotStateFromQmiE32uim_physical_slot_state_enum_v01=so_stub_for_libtelux_tel
-Wl,--defsym=_ZN5telux3tel14MultiSimHelper26convertExtCardStateFromQmiE32uim_extended_card_state_enum_v01=so_stub_for_libtelux_tel
-Wl,--defsym=_ZN5telux3tel14SignalStrength20getGsmSignalStrengthEv=so_stub_for_libtelux_tel
-Wl,--defsym=_ZN5telux3tel14SignalStrength20getLteSignalStrengthEv=so_stub_for_libtelux_tel
-Wl,--defsym=_ZN5telux3tel14SignalStrength21getCdmaSignalStrengthEv=so_stub_for_libtelux_tel
-Wl,--defsym=_ZN5telux3tel14SignalStrength21getNr5gSignalStrengthEv=so_stub_for_libtelux_tel
-Wl,--defsym=_ZN5telux3tel14SignalStrength22getWcdmaSignalStrengthEv=so_stub_for_libtelux_tel
-Wl,--defsym=_ZN5telux3tel14SignalStrength24getTdscdmaSignalStrengthEv=so_stub_for_libtelux_tel
-Wl,--defsym=_ZN5telux3tel14SignalStrengthC1ESt10shared_ptrINS0_21LteSignalStrengthInfoEES2_INS0_21GsmSignalStrengthInfoEES2_INS0_22CdmaSignalStrengthInfoEES2_INS0_23WcdmaSignalStrengthInfoEES2_INS0_25TdscdmaSignalStrengthInfoEES2_INS0_22Nr5gSignalStrengthInfoEE=so_stub_for_libtelux_tel
-Wl,--defsym=_ZN5telux3tel14SignalStrengthC2ESt10shared_ptrINS0_21LteSignalStrengthInfoEES2_INS0_21GsmSignalStrengthInfoEES2_INS0_22CdmaSignalStrengthInfoEES2_INS0_23WcdmaSignalStrengthInfoEES2_INS0_25TdscdmaSignalStrengthInfoEES2_INS0_22Nr5gSignalStrengthInfoEE=so_stub_for_libtelux_tel
-Wl,--defsym=_ZN5telux3tel14SignalStrengthD1Ev=so_stub_for_libtelux_tel
-Wl,--defsym=_ZN5telux3tel14SignalStrengthD2Ev=so_stub_for_libtelux_tel
-Wl,--defsym=_ZN5telux3tel15CardManagerImpl10getSlotIdsERSt6vectorIiSaIiEE=so_stub_for_libtelux_tel
-Wl,--defsym=_ZN5telux3tel15CardManagerImpl12getSlotCountERi=so_stub_for_libtelux_tel
-Wl,--defsym=_ZN5telux3tel15CardManagerImpl14removeListenerESt10shared_ptrINS0_13ICardListenerEE=so_stub_for_libtelux_tel
-Wl,--defsym=_ZN5telux3tel15CardManagerImpl16isSubsystemReadyEv=so_stub_for_libtelux_tel
-Wl,--defsym=_ZN5telux3tel15CardManagerImpl16onSubsystemReadyEv=so_stub_for_libtelux_tel
-Wl,--defsym=_ZN5telux3tel15CardManagerImpl16registerListenerESt10shared_ptrINS0_13ICardListenerEE=so_stub_for_libtelux_tel
-Wl,--defsym=_ZN5telux3tel15CardManagerImpl18notifyCardListenerENS0_13CardEventTypeEi=so_stub_for_libtelux_tel
-Wl,--defsym=_ZN5telux3tel15CardManagerImpl19requestGetSimStatusEi=so_stub_for_libtelux_tel
-Wl,--defsym=_ZN5telux3tel15CardManagerImpl21onServiceStatusChangeENS_6common13ServiceStatusE=so_stub_for_libtelux_tel
-Wl,--defsym=_ZN5telux3tel15CardManagerImpl21waitForInitializationEv=so_stub_for_libtelux_tel
-Wl,--defsym=_ZN5telux3tel15CardManagerImpl23handleSolicitedResponseESt10shared_ptrINS_6common6ResultEE=so_stub_for_libtelux_tel
-Wl,--defsym=_ZN5telux3tel15CardManagerImpl24handleServiceStateChangeENS_6common13ServiceStatusE=so_stub_for_libtelux_tel
-Wl,--defsym=_ZN5telux3tel15CardManagerImpl24onUimServiceStatusChangeENS_6common13ServiceStatusE=so_stub_for_libtelux_tel
-Wl,--defsym=_ZN5telux3tel15CardManagerImpl25handleUnsolicitedResponseESt10shared_ptrINS_6common6ResultEE=so_stub_for_libtelux_tel
-Wl,--defsym=_ZN5telux3tel15CardManagerImpl4initEv=so_stub_for_libtelux_tel
-Wl,--defsym=_ZN5telux3tel15CardManagerImpl7cleanupEv=so_stub_for_libtelux_tel
-Wl,--defsym=_ZN5telux3tel15CardManagerImpl7getCardEiPNS_6common6StatusE=so_stub_for_libtelux_tel
-Wl,--defsym=_ZN5telux3tel15CardManagerImpl8initSyncEv=so_stub_for_libtelux_tel
-Wl,--defsym=_ZN5telux3tel15CardManagerImpl9initCardsEv=so_stub_for_libtelux_tel
-Wl,--defsym=_ZN5telux3tel15CardManagerImplC1Ev=so_stub_for_libtelux_tel
-Wl,--defsym=_ZN5telux3tel15CardManagerImplC2Ev=so_stub_for_libtelux_tel
-Wl,--defsym=_ZN5telux3tel15CardManagerImplD0Ev=so_stub_for_libtelux_tel
-Wl,--defsym=_ZN5telux3tel15CardManagerImplD1Ev=so_stub_for_libtelux_tel
-Wl,--defsym=_ZN5telux3tel15CardManagerImplD2Ev=so_stub_for_libtelux_tel
-Wl,--defsym=_ZN5telux3tel15GsmCellIdentity11getIdentityEv=so_stub_for_libtelux_tel
-Wl,--defsym=_ZN5telux3tel15GsmCellIdentity26getBaseStationIdentityCodeEv=so_stub_for_libtelux_tel
-Wl,--defsym=_ZN5telux3tel15GsmCellIdentity6getLacEv=so_stub_for_libtelux_tel
-Wl,--defsym=_ZN5telux3tel15GsmCellIdentity6getMccEv=so_stub_for_libtelux_tel
-Wl,--defsym=_ZN5telux3tel15GsmCellIdentity6getMncEv=so_stub_for_libtelux_tel
-Wl,--defsym=_ZN5telux3tel15GsmCellIdentity8getArfcnEv=so_stub_for_libtelux_tel
-Wl,--defsym=_ZN5telux3tel15GsmCellIdentityC1Eiiiiii=so_stub_for_libtelux_tel
-Wl,--defsym=_ZN5telux3tel15GsmCellIdentityC2Eiiiiii=so_stub_for_libtelux_tel
-Wl,--defsym=_ZN5telux3tel15LteCellIdentity11getIdentityEv=so_stub_for_libtelux_tel
-Wl,--defsym=_ZN5telux3tel15LteCellIdentity17getPhysicalCellIdEv=so_stub_for_libtelux_tel
-Wl,--defsym=_ZN5telux3tel15LteCellIdentity19getTrackingAreaCodeEv=so_stub_for_libtelux_tel
-Wl,--defsym=_ZN5telux3tel15LteCellIdentity6getMccEv=so_stub_for_libtelux_tel
-Wl,--defsym=_ZN5telux3tel15LteCellIdentity6getMncEv=so_stub_for_libtelux_tel
-Wl,--defsym=_ZN5telux3tel15LteCellIdentity9getEarfcnEv=so_stub_for_libtelux_tel
-Wl,--defsym=_ZN5telux3tel15LteCellIdentityC1Eiiiiii=so_stub_for_libtelux_tel
-Wl,--defsym=_ZN5telux3tel15LteCellIdentityC2Eiiiiii=so_stub_for_libtelux_tel
-Wl,--defsym=_ZN5telux3tel15lteRsrpLevelMapE=so_stub_for_libtelux_tel
-Wl,--defsym=_ZN5telux3tel15MultiSimManager10onResponseEiPvi=so_stub_for_libtelux_tel
-Wl,--defsym=_ZN5telux3tel15MultiSimManager10onResponseEP40nas_get_high_capability_sub_resp_msg_v01Pvi=so_stub_for_libtelux_tel
-Wl,--defsym=_ZN5telux3tel15MultiSimManager11updateReadyEv=so_stub_for_libtelux_tel
-Wl,--defsym=_ZN5telux3tel15MultiSimManager12getSlotCountERi=so_stub_for_libtelux_tel
-Wl,--defsym=_ZN5telux3tel15MultiSimManager16isSubsystemReadyEv=so_stub_for_libtelux_tel
-Wl,--defsym=_ZN5telux3tel15MultiSimManager16onSubsystemReadyEv=so_stub_for_libtelux_tel
-Wl,--defsym=_ZN5telux3tel15MultiSimManager16registerListenerESt8weak_ptrINS0_17IMultiSimListenerEE=so_stub_for_libtelux_tel
-Wl,--defsym=_ZN5telux3tel15MultiSimManager16switchActiveSlotE6SlotIdSt8functionIFvNS_6common9ErrorCodeEEE=so_stub_for_libtelux_tel
-Wl,--defsym=_ZN5telux3tel15MultiSimManager17requestSlotStatusESt8functionIFvSt3mapI6SlotIdNS0_10SlotStatusESt4lessIS4_ESaISt4pairIKS4_S5_EEENS_6common9ErrorCodeEEE=so_stub_for_libtelux_tel
-Wl,--defsym=_ZN5telux3tel15MultiSimManager17setHighCapabilityEiSt8functionIFvNS_6common9ErrorCodeEEE=so_stub_for_libtelux_tel
-Wl,--defsym=_ZN5telux3tel15MultiSimManager18deregisterListenerESt8weak_ptrINS0_17IMultiSimListenerEE=so_stub_for_libtelux_tel
-Wl,--defsym=_ZN5telux3tel15MultiSimManager19onSlotStatusChangedE34uim_slot_status_change_ind_msg_v01=so_stub_for_libtelux_tel
-Wl,--defsym=_ZN5telux3tel15MultiSimManager20onSlotStatusResponseEP33uim_get_slots_status_resp_msg_v01Pvi=so_stub_for_libtelux_tel
-Wl,--defsym=_ZN5telux3tel15MultiSimManager21onIndRegisterResponseEii=so_stub_for_libtelux_tel
-Wl,--defsym=_ZN5telux3tel15MultiSimManager21onUimEventRegResponseEii=so_stub_for_libtelux_tel
-Wl,--defsym=_ZN5telux3tel15MultiSimManager21requestHighCapabilityESt8functionIFviNS_6common9ErrorCodeEEE=so_stub_for_libtelux_tel
-Wl,--defsym=_ZN5telux3tel15MultiSimManager21waitForInitializationEv=so_stub_for_libtelux_tel
-Wl,--defsym=_ZN5telux3tel15MultiSimManager23onHighCapabilityChangedEP35nas_high_capability_sub_ind_msg_v01=so_stub_for_libtelux_tel
-Wl,--defsym=_ZN5telux3tel15MultiSimManager24handleServiceStateChangeENS_6common13ServiceStatusE=so_stub_for_libtelux_tel
-Wl,--defsym=_ZN5telux3tel15MultiSimManager24onNasServiceStatusChangeENS_6common13ServiceStatusE=so_stub_for_libtelux_tel
-Wl,--defsym=_ZN5telux3tel15MultiSimManager24onUimServiceStatusChangeENS_6common13ServiceStatusE=so_stub_for_libtelux_tel
-Wl,--defsym=_ZN5telux3tel15MultiSimManager4initEv=so_stub_for_libtelux_tel
-Wl,--defsym=_ZN5telux3tel15MultiSimManager7cleanupEv=so_stub_for_libtelux_tel
-Wl,--defsym=_ZN5telux3tel15MultiSimManager8initSyncEv=so_stub_for_libtelux_tel
-Wl,--defsym=_ZN5telux3tel15MultiSimManagerC1Ev=so_stub_for_libtelux_tel
-Wl,--defsym=_ZN5telux3tel15MultiSimManagerC2Ev=so_stub_for_libtelux_tel
-Wl,--defsym=_ZN5telux3tel15MultiSimManagerD0Ev=so_stub_for_libtelux_tel
-Wl,--defsym=_ZN5telux3tel15MultiSimManagerD1Ev=so_stub_for_libtelux_tel
-Wl,--defsym=_ZN5telux3tel15MultiSimManagerD2Ev=so_stub_for_libtelux_tel
-Wl,--defsym=_ZN5telux3tel15RemoteSimHelper13convertSlotIdEi=so_stub_for_libtelux_tel
-Wl,--defsym=_ZN5telux3tel15RemoteSimHelper16updateApduParamsEjRKSt6vectorIhSaIhEEbjjiR27uim_remote_apdu_req_msg_v01=so_stub_for_libtelux_tel
-Wl,--defsym=_ZN5telux3tel15RemoteSimHelper20updateEventReqParamsEiiR28uim_remote_event_req_msg_v01=so_stub_for_libtelux_tel
-Wl,--defsym=_ZN5telux3tel15RemoteSimHelper21convertCardErrorCauseENS0_14CardErrorCauseE=so_stub_for_libtelux_tel
-Wl,--defsym=_ZN5telux3tel15RemoteSimHelper21updateCardErrorParamsENS0_14CardErrorCauseEiR28uim_remote_event_req_msg_v01=so_stub_for_libtelux_tel
-Wl,--defsym=_ZN5telux3tel15RemoteSimHelper21updateCardResetParamsERKSt6vectorIhSaIhEEiR28uim_remote_event_req_msg_v01=so_stub_for_libtelux_tel
-Wl,--defsym=_ZN5telux3tel15RemoteSimHelper24updateCardInsertedParamsERKSt6vectorIhSaIhEEiR28uim_remote_event_req_msg_v01=so_stub_for_libtelux_tel
-Wl,--defsym=_ZN5telux3tel15RemoteSimHelper26updateApduIndicationParamsEP27uim_remote_apdu_ind_msg_v01RiRjRSt6vectorIhSaIhEE=so_stub_for_libtelux_tel
-Wl,--defsym=_ZN5telux3tel15TdscdmaCellInfo15getCellIdentityEv=so_stub_for_libtelux_tel
-Wl,--defsym=_ZN5telux3tel15TdscdmaCellInfo21getSignalStrengthInfoEv=so_stub_for_libtelux_tel
-Wl,--defsym=_ZN5telux3tel15TdscdmaCellInfoC1EiNS0_19TdscdmaCellIdentityENS0_25TdscdmaSignalStrengthInfoE=so_stub_for_libtelux_tel
-Wl,--defsym=_ZN5telux3tel15TdscdmaCellInfoC2EiNS0_19TdscdmaCellIdentityENS0_25TdscdmaSignalStrengthInfoE=so_stub_for_libtelux_tel
-Wl,--defsym=_ZN5telux3tel16CdmaCellIdentity11getLatitudeEv=so_stub_for_libtelux_tel
-Wl,--defsym=_ZN5telux3tel16CdmaCellIdentity12getLongitudeEv=so_stub_for_libtelux_tel
-Wl,--defsym=_ZN5telux3tel16CdmaCellIdentity16getBaseStationIdEv=so_stub_for_libtelux_tel
-Wl,--defsym=_ZN5telux3tel16CdmaCellIdentity6getNidEv=so_stub_for_libtelux_tel
-Wl,--defsym=_ZN5telux3tel16CdmaCellIdentity6getSidEv=so_stub_for_libtelux_tel
-Wl,--defsym=_ZN5telux3tel16CdmaCellIdentityC1Eiiiii=so_stub_for_libtelux_tel
-Wl,--defsym=_ZN5telux3tel16CdmaCellIdentityC2Eiiiii=so_stub_for_libtelux_tel
-Wl,--defsym=_ZN5telux3tel16iconTypeToStringB5cxx11ENS0_8IconTypeE=so_stub_for_libtelux_tel
-Wl,--defsym=_ZN5telux3tel16lteRssnrLevelMapE=so_stub_for_libtelux_tel
-Wl,--defsym=_ZN5telux3tel16nr5gRsrpLevelMapE=so_stub_for_libtelux_tel
-Wl,--defsym=_ZN5telux3tel16RemoteSimManager13sendCardErrorENS0_14CardErrorCauseESt8functionIFvNS_6common9ErrorCodeEEE=so_stub_for_libtelux_tel
-Wl,--defsym=_ZN5telux3tel16RemoteSimManager13sendCardResetERKSt6vectorIhSaIhEESt8functionIFvNS_6common9ErrorCodeEEE=so_stub_for_libtelux_tel
-Wl,--defsym=_ZN5telux3tel16RemoteSimManager13setReadyStateEb=so_stub_for_libtelux_tel
-Wl,--defsym=_ZN5telux3tel16RemoteSimManager14onApduResponseEP28uim_remote_apdu_resp_msg_v01iPv=so_stub_for_libtelux_tel
-Wl,--defsym=_ZN5telux3tel16RemoteSimManager14sendCardWakeupESt8functionIFvNS_6common9ErrorCodeEEE=so_stub_for_libtelux_tel
-Wl,--defsym=_ZN5telux3tel16RemoteSimManager15onEventResponseEP29uim_remote_event_resp_msg_v01iPv=so_stub_for_libtelux_tel
-Wl,--defsym=_ZN5telux3tel16RemoteSimManager15onResetResponseEP29uim_remote_reset_resp_msg_v01iPv=so_stub_for_libtelux_tel
-Wl,--defsym=_ZN5telux3tel16RemoteSimManager15sendCardRemovedESt8functionIFvNS_6common9ErrorCodeEEE=so_stub_for_libtelux_tel
-Wl,--defsym=_ZN5telux3tel16RemoteSimManager16isSubsystemReadyEv=so_stub_for_libtelux_tel
-Wl,--defsym=_ZN5telux3tel16RemoteSimManager16onSubsystemReadyEv=so_stub_for_libtelux_tel
-Wl,--defsym=_ZN5telux3tel16RemoteSimManager16registerListenerESt8weak_ptrINS0_18IRemoteSimListenerEE=so_stub_for_libtelux_tel
-Wl,--defsym=_ZN5telux3tel16RemoteSimManager16sendCardInsertedERKSt6vectorIhSaIhEESt8functionIFvNS_6common9ErrorCodeEEE=so_stub_for_libtelux_tel
-Wl,--defsym=_ZN5telux3tel16RemoteSimManager18deregisterListenerESt8weak_ptrINS0_18IRemoteSimListenerEE=so_stub_for_libtelux_tel
-Wl,--defsym=_ZN5telux3tel16RemoteSimManager21waitForInitializationEv=so_stub_for_libtelux_tel
-Wl,--defsym=_ZN5telux3tel16RemoteSimManager23onCardResetNotificationEP33uim_remote_card_reset_ind_msg_v01=so_stub_for_libtelux_tel
-Wl,--defsym=_ZN5telux3tel16RemoteSimManager23sendConnectionAvailableESt8functionIFvNS_6common9ErrorCodeEEE=so_stub_for_libtelux_tel
-Wl,--defsym=_ZN5telux3tel16RemoteSimManager25onCardConnectNotificationEP30uim_remote_connect_ind_msg_v01=so_stub_for_libtelux_tel
-Wl,--defsym=_ZN5telux3tel16RemoteSimManager25onCardPowerUpNotificationEP36uim_remote_card_power_up_ind_msg_v01=so_stub_for_libtelux_tel
-Wl,--defsym=_ZN5telux3tel16RemoteSimManager25sendConnectionUnavailableESt8functionIFvNS_6common9ErrorCodeEEE=so_stub_for_libtelux_tel
-Wl,--defsym=_ZN5telux3tel16RemoteSimManager26onApduTransferNotificationEP27uim_remote_apdu_ind_msg_v01=so_stub_for_libtelux_tel
-Wl,--defsym=_ZN5telux3tel16RemoteSimManager27onCardPowerDownNotificationEP38uim_remote_card_power_down_ind_msg_v01=so_stub_for_libtelux_tel
-Wl,--defsym=_ZN5telux3tel16RemoteSimManager28onCardDisconnectNotificationEP33uim_remote_disconnect_ind_msg_v01=so_stub_for_libtelux_tel
-Wl,--defsym=_ZN5telux3tel16RemoteSimManager30onRemoteSimServiceStatusChangeENS_6common13ServiceStatusE=so_stub_for_libtelux_tel
-Wl,--defsym=_ZN5telux3tel16RemoteSimManager4initEv=so_stub_for_libtelux_tel
-Wl,--defsym=_ZN5telux3tel16RemoteSimManager7cleanupEv=so_stub_for_libtelux_tel
-Wl,--defsym=_ZN5telux3tel16RemoteSimManager8initSyncEv=so_stub_for_libtelux_tel
-Wl,--defsym=_ZN5telux3tel16RemoteSimManager8sendApduEjRKSt6vectorIhSaIhEEbjjSt8functionIFvNS_6common9ErrorCodeEEE=so_stub_for_libtelux_tel
-Wl,--defsym=_ZN5telux3tel16RemoteSimManager9getSlotIdEv=so_stub_for_libtelux_tel
-Wl,--defsym=_ZN5telux3tel16RemoteSimManager9sendResetESt8functionIFvNS_6common9ErrorCodeEEE=so_stub_for_libtelux_tel
-Wl,--defsym=_ZN5telux3tel16RemoteSimManagerC1Ei=so_stub_for_libtelux_tel
-Wl,--defsym=_ZN5telux3tel16RemoteSimManagerC2Ei=so_stub_for_libtelux_tel
-Wl,--defsym=_ZN5telux3tel16RemoteSimManagerD0Ev=so_stub_for_libtelux_tel
-Wl,--defsym=_ZN5telux3tel16RemoteSimManagerD1Ev=so_stub_for_libtelux_tel
-Wl,--defsym=_ZN5telux3tel16RemoteSimManagerD2Ev=so_stub_for_libtelux_tel
-Wl,--defsym=_ZN5telux3tel16SubscriptionImpl12OperatorInfoC1ENSt7__cxx1112basic_stringIcSt11char_traitsIcESaIcEEES8_S8_=so_stub_for_libtelux_tel
-Wl,--defsym=_ZN5telux3tel16SubscriptionImpl12OperatorInfoC1ERKS2_=so_stub_for_libtelux_tel
-Wl,--defsym=_ZN5telux3tel16SubscriptionImpl12OperatorInfoC2ENSt7__cxx1112basic_stringIcSt11char_traitsIcESaIcEEES8_S8_=so_stub_for_libtelux_tel
-Wl,--defsym=_ZN5telux3tel16SubscriptionImpl12OperatorInfoC2ERKS2_=so_stub_for_libtelux_tel
-Wl,--defsym=_ZN5telux3tel16SubscriptionImpl12OperatorInfoD1Ev=so_stub_for_libtelux_tel
-Wl,--defsym=_ZN5telux3tel16SubscriptionImpl12OperatorInfoD2Ev=so_stub_for_libtelux_tel
-Wl,--defsym=_ZN5telux3tel16SubscriptionImpl12requestIccIdEv=so_stub_for_libtelux_tel
-Wl,--defsym=_ZN5telux3tel16SubscriptionImpl13getCountryISOB5cxx11Ev=so_stub_for_libtelux_tel
-Wl,--defsym=_ZN5telux3tel16SubscriptionImpl13requestMsisdnEv=so_stub_for_libtelux_tel
-Wl,--defsym=_ZN5telux3tel16SubscriptionImpl13setCountryISOEv=so_stub_for_libtelux_tel
-Wl,--defsym=_ZN5telux3tel16SubscriptionImpl14getCarrierNameB5cxx11Ev=so_stub_for_libtelux_tel
-Wl,--defsym=_ZN5telux3tel16SubscriptionImpl14getPhoneNumberB5cxx11Ev=so_stub_for_libtelux_tel
-Wl,--defsym=_ZN5telux3tel16SubscriptionImpl14removeListenerESt8weak_ptrINS0_21ISubscriptionListenerEE=so_stub_for_libtelux_tel
-Wl,--defsym=_ZN5telux3tel16SubscriptionImpl14setCarrierNameEv=so_stub_for_libtelux_tel
-Wl,--defsym=_ZN5telux3tel16SubscriptionImpl14setPhoneNumberENSt7__cxx1112basic_stringIcSt11char_traitsIcESaIcEEE=so_stub_for_libtelux_tel
-Wl,--defsym=_ZN5telux3tel16SubscriptionImpl15getOperatorInfoEv=so_stub_for_libtelux_tel
-Wl,--defsym=_ZN5telux3tel16SubscriptionImpl16onSubsystemReadyEv=so_stub_for_libtelux_tel
-Wl,--defsym=_ZN5telux3tel16SubscriptionImpl16registerListenerESt8weak_ptrINS0_21ISubscriptionListenerEE=so_stub_for_libtelux_tel
-Wl,--defsym=_ZN5telux3tel16SubscriptionImpl18extractOperatorMccB5cxx11Ev=so_stub_for_libtelux_tel
-Wl,--defsym=_ZN5telux3tel16SubscriptionImpl18extractOperatorMncB5cxx11Ev=so_stub_for_libtelux_tel
-Wl,--defsym=_ZN5telux3tel16SubscriptionImpl18requestSimOperatorEv=so_stub_for_libtelux_tel
-Wl,--defsym=_ZN5telux3tel16SubscriptionImpl20setRequestStatusFlagEj=so_stub_for_libtelux_tel
-Wl,--defsym=_ZN5telux3tel16SubscriptionImpl21onServiceStatusChangeENS_6common13ServiceStatusE=so_stub_for_libtelux_tel
-Wl,--defsym=_ZN5telux3tel16SubscriptionImpl21waitForInitializationEv=so_stub_for_libtelux_tel
-Wl,--defsym=_ZN5telux3tel16SubscriptionImpl22onDmsMsisdnRequestRespEP27dms_get_msisdn_resp_msg_v01Pv=so_stub_for_libtelux_tel
-Wl,--defsym=_ZN5telux3tel16SubscriptionImpl22resetRequestStatusFlagEj=so_stub_for_libtelux_tel
-Wl,--defsym=_ZN5telux3tel16SubscriptionImpl23handleSolicitedResponseESt10shared_ptrINS_6common6ResultEE=so_stub_for_libtelux_tel
-Wl,--defsym=_ZN5telux3tel16SubscriptionImpl24handleServiceStateChangeENS_6common13ServiceStatusE=so_stub_for_libtelux_tel
-Wl,--defsym=_ZN5telux3tel16SubscriptionImpl24onDmsServiceStatusChangeENS_6common13ServiceStatusEi=so_stub_for_libtelux_tel
-Wl,--defsym=_ZN5telux3tel16SubscriptionImpl24onUimServiceStatusChangeENS_6common13ServiceStatusE=so_stub_for_libtelux_tel
-Wl,--defsym=_ZN5telux3tel16SubscriptionImpl25handleGetOperatorResponseEiPSt6vectorINSt7__cxx1112basic_stringIcSt11char_traitsIcESaIcEEESaIS8_EE=so_stub_for_libtelux_tel
-Wl,--defsym=_ZN5telux3tel16SubscriptionImpl25handleUnsolicitedResponseESt10shared_ptrINS_6common6ResultEE=so_stub_for_libtelux_tel
-Wl,--defsym=_ZN5telux3tel16SubscriptionImpl26notifySubscriptionListenerESt10shared_ptrINS0_13ISubscriptionEE=so_stub_for_libtelux_tel
-Wl,--defsym=_ZN5telux3tel16SubscriptionImpl30isSubscriptionRequestsCompleteEv=so_stub_for_libtelux_tel
-Wl,--defsym=_ZN5telux3tel16SubscriptionImpl32onReadTransparentRequestResponseEP33uim_read_transparent_resp_msg_v01Pv=so_stub_for_libtelux_tel
-Wl,--defsym=_ZN5telux3tel16SubscriptionImpl4initEv=so_stub_for_libtelux_tel
-Wl,--defsym=_ZN5telux3tel16SubscriptionImpl6getMccEv=so_stub_for_libtelux_tel
-Wl,--defsym=_ZN5telux3tel16SubscriptionImpl6getMncEv=so_stub_for_libtelux_tel
-Wl,--defsym=_ZN5telux3tel16SubscriptionImpl6setMccEi=so_stub_for_libtelux_tel
-Wl,--defsym=_ZN5telux3tel16SubscriptionImpl6setMncEi=so_stub_for_libtelux_tel
-Wl,--defsym=_ZN5telux3tel16SubscriptionImpl7cleanupEv=so_stub_for_libtelux_tel
-Wl,--defsym=_ZN5telux3tel16SubscriptionImpl7getImsiB5cxx11Ev=so_stub_for_libtelux_tel
-Wl,--defsym=_ZN5telux3tel16SubscriptionImpl7isReadyEv=so_stub_for_libtelux_tel
-Wl,--defsym=_ZN5telux3tel16SubscriptionImpl7setImsiENSt7__cxx1112basic_stringIcSt11char_traitsIcESaIcEEE=so_stub_for_libtelux_tel
-Wl,--defsym=_ZN5telux3tel16SubscriptionImpl8getIccIdB5cxx11Ev=so_stub_for_libtelux_tel
-Wl,--defsym=_ZN5telux3tel16SubscriptionImpl8initSyncEv=so_stub_for_libtelux_tel
-Wl,--defsym=_ZN5telux3tel16SubscriptionImpl8setIccIdENSt7__cxx1112basic_stringIcSt11char_traitsIcESaIcEEE=so_stub_for_libtelux_tel
-Wl,--defsym=_ZN5telux3tel16SubscriptionImpl9getSlotIdEv=so_stub_for_libtelux_tel
-Wl,--defsym=_ZN5telux3tel16SubscriptionImplC1Ei=so_stub_for_libtelux_tel
-Wl,--defsym=_ZN5telux3tel16SubscriptionImplC1EiNSt7__cxx1112basic_stringIcSt11char_traitsIcESaIcEEES7_S7_iiS7_S7_=so_stub_for_libtelux_tel
-Wl,--defsym=_ZN5telux3tel16SubscriptionImplC2Ei=so_stub_for_libtelux_tel
-Wl,--defsym=_ZN5telux3tel16SubscriptionImplC2EiNSt7__cxx1112basic_stringIcSt11char_traitsIcESaIcEEES7_S7_iiS7_S7_=so_stub_for_libtelux_tel
-Wl,--defsym=_ZN5telux3tel16SubscriptionImplD0Ev=so_stub_for_libtelux_tel
-Wl,--defsym=_ZN5telux3tel16SubscriptionImplD1Ev=so_stub_for_libtelux_tel
-Wl,--defsym=_ZN5telux3tel16SubscriptionImplD2Ev=so_stub_for_libtelux_tel
-Wl,--defsym=_ZN5telux3tel16VoiceServiceInfo11isEmergencyEv=so_stub_for_libtelux_tel
-Wl,--defsym=_ZN5telux3tel16VoiceServiceInfo11isInServiceEv=so_stub_for_libtelux_tel
-Wl,--defsym=_ZN5telux3tel16VoiceServiceInfo14isOutOfServiceEv=so_stub_for_libtelux_tel
-Wl,--defsym=_ZN5telux3tel16VoiceServiceInfo20getVoiceServiceStateEv=so_stub_for_libtelux_tel
-Wl,--defsym=_ZN5telux3tel16VoiceServiceInfo26getVoiceServiceDenialCauseEv=so_stub_for_libtelux_tel
-Wl,--defsym=_ZN5telux3tel16VoiceServiceInfoC1ENS0_17VoiceServiceStateENS0_23VoiceServiceDenialCauseE=so_stub_for_libtelux_tel
-Wl,--defsym=_ZN5telux3tel16VoiceServiceInfoC2ENS0_17VoiceServiceStateENS0_23VoiceServiceDenialCauseE=so_stub_for_libtelux_tel
-Wl,--defsym=_ZN5telux3tel17IMakeCallCallback16makeCallResponseENS_6common9ErrorCodeESt10shared_ptrINS0_5ICallEE=so_stub_for_libtelux_tel
-Wl,--defsym=_ZN5telux3tel17IMultiSimListener19onSlotStatusChangedESt3mapI6SlotIdNS0_10SlotStatusESt4lessIS3_ESaISt4pairIKS3_S4_EEE=so_stub_for_libtelux_tel
-Wl,--defsym=_ZN5telux3tel17IMultiSimListener23onHighCapabilityChangedEi=so_stub_for_libtelux_tel
-Wl,--defsym=_ZN5telux3tel17nr5gRssnrLevelMapE=so_stub_for_libtelux_tel
-Wl,--defsym=_ZN5telux3tel17WcdmaCellIdentity11getIdentityEv=so_stub_for_libtelux_tel
-Wl,--defsym=_ZN5telux3tel17WcdmaCellIdentity24getPrimaryScramblingCodeEv=so_stub_for_libtelux_tel
-Wl,--defsym=_ZN5telux3tel17WcdmaCellIdentity6getLacEv=so_stub_for_libtelux_tel
-Wl,--defsym=_ZN5telux3tel17WcdmaCellIdentity6getMccEv=so_stub_for_libtelux_tel
-Wl,--defsym=_ZN5telux3tel17WcdmaCellIdentity6getMncEv=so_stub_for_libtelux_tel
-Wl,--defsym=_ZN5telux3tel17WcdmaCellIdentity9getUarfcnEv=so_stub_for_libtelux_tel
-Wl,--defsym=_ZN5telux3tel17WcdmaCellIdentityC1Eiiiiii=so_stub_for_libtelux_tel
-Wl,--defsym=_ZN5telux3tel17WcdmaCellIdentityC2Eiiiiii=so_stub_for_libtelux_tel
-Wl,--defsym=_ZN5telux3tel18CellInfoListHelper13parseCellInfoEiiRSt6vectorISt10shared_ptrINS0_8CellInfoEESaIS5_EES3_I6ParcelE=so_stub_for_libtelux_tel
-Wl,--defsym=_ZN5telux3tel18CellInfoListHelper14logGSMCellInfoESt10shared_ptrINS0_11GsmCellInfoEE=so_stub_for_libtelux_tel
-Wl,--defsym=_ZN5telux3tel18CellInfoListHelper14logLteCellInfoESt10shared_ptrINS0_11LteCellInfoEE=so_stub_for_libtelux_tel
-Wl,--defsym=_ZN5telux3tel18CellInfoListHelper14parseCellCountESt10shared_ptrI6ParcelE=so_stub_for_libtelux_tel
-Wl,--defsym=_ZN5telux3tel18CellInfoListHelper14parseTimestampESt10shared_ptrI6ParcelE=so_stub_for_libtelux_tel
-Wl,--defsym=_ZN5telux3tel18CellInfoListHelper15getCellInfoListESt10shared_ptrI6ParcelE=so_stub_for_libtelux_tel
-Wl,--defsym=_ZN5telux3tel18CellInfoListHelper15logCdmaCellInfoESt10shared_ptrINS0_12CdmaCellInfoEE=so_stub_for_libtelux_tel
-Wl,--defsym=_ZN5telux3tel18CellInfoListHelper16logTimeStampTypeEi=so_stub_for_libtelux_tel
-Wl,--defsym=_ZN5telux3tel18CellInfoListHelper16logWcdmaCellInfoESt10shared_ptrINS0_13WcdmaCellInfoEE=so_stub_for_libtelux_tel
-Wl,--defsym=_ZN5telux3tel18CellInfoListHelper16parseGsmCellInfoEiSt10shared_ptrI6ParcelE=so_stub_for_libtelux_tel
-Wl,--defsym=_ZN5telux3tel18CellInfoListHelper16parseLteCellInfoEiSt10shared_ptrI6ParcelE=so_stub_for_libtelux_tel
-Wl,--defsym=_ZN5telux3tel18CellInfoListHelper17parseCdmaCellInfoEiSt10shared_ptrI6ParcelE=so_stub_for_libtelux_tel
-Wl,--defsym=_ZN5telux3tel18CellInfoListHelper17parseCellInfoTypeESt10shared_ptrI6ParcelE=so_stub_for_libtelux_tel
-Wl,--defsym=_ZN5telux3tel18CellInfoListHelper18logTdscdmaCellInfoESt10shared_ptrINS0_15TdscdmaCellInfoEE=so_stub_for_libtelux_tel
-Wl,--defsym=_ZN5telux3tel18CellInfoListHelper18parseTimestampTypeESt10shared_ptrI6ParcelE=so_stub_for_libtelux_tel
-Wl,--defsym=_ZN5telux3tel18CellInfoListHelper18parseWcdmaCellInfoEiSt10shared_ptrI6ParcelE=so_stub_for_libtelux_tel
-Wl,--defsym=_ZN5telux3tel18CellInfoListHelper20parseTdscdmaCellInfoEiSt10shared_ptrI6ParcelE=so_stub_for_libtelux_tel
-Wl,--defsym=_ZN5telux3tel18CellInfoListHelper21parseCellRegistrationESt10shared_ptrI6ParcelE=so_stub_for_libtelux_tel
-Wl,--defsym=_ZN5telux3tel18IRemoteSimListener11onCardResetEv=so_stub_for_libtelux_tel
-Wl,--defsym=_ZN5telux3tel18IRemoteSimListener13onCardConnectEv=so_stub_for_libtelux_tel
-Wl,--defsym=_ZN5telux3tel18IRemoteSimListener13onCardPowerUpEv=so_stub_for_libtelux_tel
-Wl,--defsym=_ZN5telux3tel18IRemoteSimListener14onApduTransferEjRKSt6vectorIhSaIhEE=so_stub_for_libtelux_tel
-Wl,--defsym=_ZN5telux3tel18IRemoteSimListener15onCardPowerDownEv=so_stub_for_libtelux_tel
-Wl,--defsym=_ZN5telux3tel18IRemoteSimListener16onCardDisconnectEv=so_stub_for_libtelux_tel
-Wl,--defsym=_ZN5telux3tel18SapCardManagerImpl10requestAtrESt10shared_ptrINS0_20IAtrResponseCallbackEE=so_stub_for_libtelux_tel
-Wl,--defsym=_ZN5telux3tel18SapCardManagerImpl12transmitApduEhhhhhSt6vectorIhSaIhEEhSt10shared_ptrINS0_23ISapCardCommandCallbackEE=so_stub_for_libtelux_tel
-Wl,--defsym=_ZN5telux3tel18SapCardManagerImpl14openConnectionENS0_12SapConditionESt10shared_ptrINS_6common24ICommandResponseCallbackEE=so_stub_for_libtelux_tel
-Wl,--defsym=_ZN5telux3tel18SapCardManagerImpl14removeListenerESt10shared_ptrINS0_16ISapCardListenerEE=so_stub_for_libtelux_tel
-Wl,--defsym=_ZN5telux3tel18SapCardManagerImpl15closeConnectionESt10shared_ptrINS_6common24ICommandResponseCallbackEE=so_stub_for_libtelux_tel
-Wl,--defsym=_ZN5telux3tel18SapCardManagerImpl15requestSapStateESt8functionIFvNS0_8SapStateENS_6common9ErrorCodeEEE=so_stub_for_libtelux_tel
-Wl,--defsym=_ZN5telux3tel18SapCardManagerImpl15requestSimResetESt10shared_ptrINS_6common24ICommandResponseCallbackEE=so_stub_for_libtelux_tel
-Wl,--defsym=_ZN5telux3tel18SapCardManagerImpl16registerListenerESt10shared_ptrINS0_16ISapCardListenerEE=so_stub_for_libtelux_tel
-Wl,--defsym=_ZN5telux3tel18SapCardManagerImpl17requestSimPowerOnESt10shared_ptrINS_6common24ICommandResponseCallbackEE=so_stub_for_libtelux_tel
-Wl,--defsym=_ZN5telux3tel18SapCardManagerImpl18requestSimPowerOffESt10shared_ptrINS_6common24ICommandResponseCallbackEE=so_stub_for_libtelux_tel
-Wl,--defsym=_ZN5telux3tel18SapCardManagerImpl20onSapRequestResponseEP28uim_sap_request_resp_msg_v01Pv=so_stub_for_libtelux_tel
-Wl,--defsym=_ZN5telux3tel18SapCardManagerImpl21waitForInitializationEv=so_stub_for_libtelux_tel
-Wl,--defsym=_ZN5telux3tel18SapCardManagerImpl23onSapConnectionResponseEP31uim_sap_connection_resp_msg_v01Pv=so_stub_for_libtelux_tel
-Wl,--defsym=_ZN5telux3tel18SapCardManagerImpl23requestCardReaderStatusESt10shared_ptrINS0_19ICardReaderCallbackEE=so_stub_for_libtelux_tel
-Wl,--defsym=_ZN5telux3tel18SapCardManagerImpl24onUimServiceStatusChangeENS_6common13ServiceStatusE=so_stub_for_libtelux_tel
-Wl,--defsym=_ZN5telux3tel18SapCardManagerImpl4initEv=so_stub_for_libtelux_tel
-Wl,--defsym=_ZN5telux3tel18SapCardManagerImpl7isReadyEv=so_stub_for_libtelux_tel
-Wl,--defsym=_ZN5telux3tel18SapCardManagerImpl7onReadyEv=so_stub_for_libtelux_tel
-Wl,--defsym=_ZN5telux3tel18SapCardManagerImpl8getStateERNS0_8SapStateE=so_stub_for_libtelux_tel
-Wl,--defsym=_ZN5telux3tel18SapCardManagerImpl8initSyncEv=so_stub_for_libtelux_tel
-Wl,--defsym=_ZN5telux3tel18SapCardManagerImpl9getSlotIdEv=so_stub_for_libtelux_tel
-Wl,--defsym=_ZN5telux3tel18SapCardManagerImplC1Ei=so_stub_for_libtelux_tel
-Wl,--defsym=_ZN5telux3tel18SapCardManagerImplC2Ei=so_stub_for_libtelux_tel
-Wl,--defsym=_ZN5telux3tel18SapCardManagerImplD0Ev=so_stub_for_libtelux_tel
-Wl,--defsym=_ZN5telux3tel18SapCardManagerImplD1Ev=so_stub_for_libtelux_tel
-Wl,--defsym=_ZN5telux3tel18SapCardManagerImplD2Ev=so_stub_for_libtelux_tel
-Wl,--defsym=_ZN5telux3tel19CellBroadcastHelper11ratToStringB5cxx11E9RadioTech=so_stub_for_libtelux_tel
-Wl,--defsym=_ZN5telux3tel19CellBroadcastHelper13isCmasMessageEj=so_stub_for_libtelux_tel
-Wl,--defsym=_ZN5telux3tel19CellBroadcastHelper13isEtwsMessageEj=so_stub_for_libtelux_tel
-Wl,--defsym=_ZN5telux3tel19CellBroadcastHelper14getCmasUrgencyEj=so_stub_for_libtelux_tel
-Wl,--defsym=_ZN5telux3tel19CellBroadcastHelper15getCmasSeverityEj=so_stub_for_libtelux_tel
-Wl,--defsym=_ZN5telux3tel19CellBroadcastHelper16getCmasCertaintyEj=so_stub_for_libtelux_tel
-Wl,--defsym=_ZN5telux3tel19CellBroadcastHelper16isEtwsPopupAlertEj=so_stub_for_libtelux_tel
-Wl,--defsym=_ZN5telux3tel19CellBroadcastHelper18getEtwsWarningTypeEj=so_stub_for_libtelux_tel
-Wl,--defsym=_ZN5telux3tel19CellBroadcastHelper18isEmergencyMessageEj=so_stub_for_libtelux_tel
-Wl,--defsym=_ZN5telux3tel19CellBroadcastHelper19getCmasMessageClassEj=so_stub_for_libtelux_tel
-Wl,--defsym=_ZN5telux3tel19CellBroadcastHelper20cbRatInfoToRadioTechERK28wms_event_report_ind_msg_v01=so_stub_for_libtelux_tel
-Wl,--defsym=_ZN5telux3tel19CellBroadcastHelper24isEtwsEmergencyUserAlertEj=so_stub_for_libtelux_tel
-Wl,--defsym=_ZN5telux3tel19ISimProfileListener18onAddProfileUpdateE6SlotIdbNS0_14DownloadStatusEhNS0_18DownloadErrorCauseESt6bitsetILj16EE=so_stub_for_libtelux_tel
-Wl,--defsym=_ZN5telux3tel19profileTypeToStringB5cxx11ENS0_11ProfileTypeE=so_stub_for_libtelux_tel
-Wl,--defsym=_ZN5telux3tel19SubscriptionManager14removeListenerESt8weak_ptrINS0_21ISubscriptionListenerEE=so_stub_for_libtelux_tel
-Wl,--defsym=_ZN5telux3tel19SubscriptionManager15getSubscriptionEiPNS_6common6StatusE=so_stub_for_libtelux_tel
-Wl,--defsym=_ZN5telux3tel19SubscriptionManager16isSubsystemReadyEv=so_stub_for_libtelux_tel
-Wl,--defsym=_ZN5telux3tel19SubscriptionManager16onSubsystemReadyEv=so_stub_for_libtelux_tel
-Wl,--defsym=_ZN5telux3tel19SubscriptionManager16registerListenerESt8weak_ptrINS0_21ISubscriptionListenerEE=so_stub_for_libtelux_tel
-Wl,--defsym=_ZN5telux3tel19SubscriptionManager17onCardInfoChangedEi=so_stub_for_libtelux_tel
-Wl,--defsym=_ZN5telux3tel19SubscriptionManager18addNewSubscriptionEi=so_stub_for_libtelux_tel
-Wl,--defsym=_ZN5telux3tel19SubscriptionManager19getAllSubscriptionsEPNS_6common6StatusE=so_stub_for_libtelux_tel
-Wl,--defsym=_ZN5telux3tel19SubscriptionManager21onServiceStatusChangeENS_6common13ServiceStatusE=so_stub_for_libtelux_tel
-Wl,--defsym=_ZN5telux3tel19SubscriptionManager21waitForInitializationEv=so_stub_for_libtelux_tel
-Wl,--defsym=_ZN5telux3tel19SubscriptionManager25onSubscriptionInfoChangedESt10shared_ptrINS0_13ISubscriptionEE=so_stub_for_libtelux_tel
-Wl,--defsym=_ZN5telux3tel19SubscriptionManager26notifySubscriptionListenerESt10shared_ptrINS0_13ISubscriptionEE=so_stub_for_libtelux_tel
-Wl,--defsym=_ZN5telux3tel19SubscriptionManager27notifyNumberOfSubscriptionsEi=so_stub_for_libtelux_tel
-Wl,--defsym=_ZN5telux3tel19SubscriptionManager30updateSubscriptionMapAndNotifyEi=so_stub_for_libtelux_tel
-Wl,--defsym=_ZN5telux3tel19SubscriptionManager4initEv=so_stub_for_libtelux_tel
-Wl,--defsym=_ZN5telux3tel19SubscriptionManager7cleanupEv=so_stub_for_libtelux_tel
-Wl,--defsym=_ZN5telux3tel19SubscriptionManager8initSyncEv=so_stub_for_libtelux_tel
-Wl,--defsym=_ZN5telux3tel19SubscriptionManagerC1Ev=so_stub_for_libtelux_tel
-Wl,--defsym=_ZN5telux3tel19SubscriptionManagerC2Ev=so_stub_for_libtelux_tel
-Wl,--defsym=_ZN5telux3tel19SubscriptionManagerD0Ev=so_stub_for_libtelux_tel
-Wl,--defsym=_ZN5telux3tel19SubscriptionManagerD1Ev=so_stub_for_libtelux_tel
-Wl,--defsym=_ZN5telux3tel19SubscriptionManagerD2Ev=so_stub_for_libtelux_tel
-Wl,--defsym=_ZN5telux3tel19TdscdmaCellIdentity11getIdentityEv=so_stub_for_libtelux_tel
-Wl,--defsym=_ZN5telux3tel19TdscdmaCellIdentity15getParametersIdEv=so_stub_for_libtelux_tel
-Wl,--defsym=_ZN5telux3tel19TdscdmaCellIdentity6getLacEv=so_stub_for_libtelux_tel
-Wl,--defsym=_ZN5telux3tel19TdscdmaCellIdentity6getMccEv=so_stub_for_libtelux_tel
-Wl,--defsym=_ZN5telux3tel19TdscdmaCellIdentity6getMncEv=so_stub_for_libtelux_tel
-Wl,--defsym=_ZN5telux3tel19TdscdmaCellIdentityC1Eiiiii=so_stub_for_libtelux_tel
-Wl,--defsym=_ZN5telux3tel19TdscdmaCellIdentityC2Eiiiii=so_stub_for_libtelux_tel
-Wl,--defsym=_ZN5telux3tel20CellBroadcastMessageC1ENS0_11MessageTypeESt10shared_ptrINS0_8EtwsInfoEES3_INS0_8CmasInfoEE=so_stub_for_libtelux_tel
-Wl,--defsym=_ZN5telux3tel20CellBroadcastMessageC2ENS0_11MessageTypeESt10shared_ptrINS0_8EtwsInfoEES3_INS0_8CmasInfoEE=so_stub_for_libtelux_tel
-Wl,--defsym=_ZN5telux3tel20logSdkVersionDetailsEv=so_stub_for_libtelux_tel
-Wl,--defsym=_ZN5telux3tel20profileClassToStringB5cxx11ENS0_12ProfileClassE=so_stub_for_libtelux_tel
-Wl,--defsym=_ZN5telux3tel20ServingSystemManager10onResponseEiPvi=so_stub_for_libtelux_tel
-Wl,--defsym=_ZN5telux3tel20ServingSystemManager11getDcStatusEv=so_stub_for_libtelux_tel
-Wl,--defsym=_ZN5telux3tel20ServingSystemManager16isSubsystemReadyEv=so_stub_for_libtelux_tel
-Wl,--defsym=_ZN5telux3tel20ServingSystemManager16onSubsystemReadyEv=so_stub_for_libtelux_tel
-Wl,--defsym=_ZN5telux3tel20ServingSystemManager16registerListenerESt8weak_ptrINS0_22IServingSystemListenerEE=so_stub_for_libtelux_tel
-Wl,--defsym=_ZN5telux3tel20ServingSystemManager16setRatPreferenceESt6bitsetILj16EESt8functionIFvNS_6common9ErrorCodeEEE=so_stub_for_libtelux_tel
-Wl,--defsym=_ZN5telux3tel20ServingSystemManager17onSysInfoResponseEP29nas_get_sys_info_resp_msg_v01Pvi=so_stub_for_libtelux_tel
-Wl,--defsym=_ZN5telux3tel20ServingSystemManager18deregisterListenerESt8weak_ptrINS0_22IServingSystemListenerEE=so_stub_for_libtelux_tel
-Wl,--defsym=_ZN5telux3tel20ServingSystemManager19onSystemInfoChangedEP24nas_sys_info_ind_msg_v01=so_stub_for_libtelux_tel
-Wl,--defsym=_ZN5telux3tel20ServingSystemManager20requestRatPreferenceESt8functionIFvSt6bitsetILj16EENS_6common9ErrorCodeEEE=so_stub_for_libtelux_tel
-Wl,--defsym=_ZN5telux3tel20ServingSystemManager21onIndRegisterResponseEii=so_stub_for_libtelux_tel
-Wl,--defsym=_ZN5telux3tel20ServingSystemManager21waitForInitializationEv=so_stub_for_libtelux_tel
-Wl,--defsym=_ZN5telux3tel20ServingSystemManager24convertServiceDomainPrefE33nas_srv_domain_pref_enum_type_v01=so_stub_for_libtelux_tel
-Wl,--defsym=_ZN5telux3tel20ServingSystemManager24onNasServiceStatusChangeENS_6common13ServiceStatusE=so_stub_for_libtelux_tel
-Wl,--defsym=_ZN5telux3tel20ServingSystemManager26setServiceDomainPreferenceENS0_23ServiceDomainPreferenceESt8functionIFvNS_6common9ErrorCodeEEE=so_stub_for_libtelux_tel
-Wl,--defsym=_ZN5telux3tel20ServingSystemManager30requestServiceDomainPreferenceESt8functionIFvNS0_23ServiceDomainPreferenceENS_6common9ErrorCodeEEE=so_stub_for_libtelux_tel
-Wl,--defsym=_ZN5telux3tel20ServingSystemManager34onSystemSelectionPreferenceChangedEP43nas_system_selection_preference_ind_msg_v01=so_stub_for_libtelux_tel
-Wl,--defsym=_ZN5telux3tel20ServingSystemManager35onSystemSelectionPreferenceResponseEP48nas_get_system_selection_preference_resp_msg_v01Pvi=so_stub_for_libtelux_tel
-Wl,--defsym=_ZN5telux3tel20ServingSystemManager4initEv=so_stub_for_libtelux_tel
-Wl,--defsym=_ZN5telux3tel20ServingSystemManager8initSyncEv=so_stub_for_libtelux_tel
-Wl,--defsym=_ZN5telux3tel20ServingSystemManagerC1Ei=so_stub_for_libtelux_tel
-Wl,--defsym=_ZN5telux3tel20ServingSystemManagerC2Ei=so_stub_for_libtelux_tel
-Wl,--defsym=_ZN5telux3tel20ServingSystemManagerD0Ev=so_stub_for_libtelux_tel
-Wl,--defsym=_ZN5telux3tel20ServingSystemManagerD1Ev=so_stub_for_libtelux_tel
-Wl,--defsym=_ZN5telux3tel20ServingSystemManagerD2Ev=so_stub_for_libtelux_tel
-Wl,--defsym=_ZN5telux3tel21GsmSignalStrengthInfo16getTimingAdvanceEv=so_stub_for_libtelux_tel
-Wl,--defsym=_ZN5telux3tel21GsmSignalStrengthInfoC1Eiii=so_stub_for_libtelux_tel
-Wl,--defsym=_ZN5telux3tel21GsmSignalStrengthInfoC2Eiii=so_stub_for_libtelux_tel
-Wl,--defsym=_ZN5telux3tel21ISubscriptionListener25onSubscriptionInfoChangedESt10shared_ptrINS0_13ISubscriptionEE=so_stub_for_libtelux_tel
-Wl,--defsym=_ZN5telux3tel21ISubscriptionListener30onNumberOfSubscriptionsChangedEi=so_stub_for_libtelux_tel
-Wl,--defsym=_ZN5telux3tel21LteSignalStrengthInfoC1Eiiiiii=so_stub_for_libtelux_tel
-Wl,--defsym=_ZN5telux3tel21LteSignalStrengthInfoC2Eiiiiii=so_stub_for_libtelux_tel
-Wl,--defsym=_ZN5telux3tel21SimProfileManagerImpl10addProfileE6SlotIdRKNSt7__cxx1112basic_stringIcSt11char_traitsIcESaIcEEESA_bSt8functionIFvNS_6common9ErrorCodeEEE=so_stub_for_libtelux_tel
-Wl,--defsym=_ZN5telux3tel21SimProfileManagerImpl10requestEidE6SlotIdSt8functionIFvNSt7__cxx1112basic_stringIcSt11char_traitsIcESaIcEEENS_6common9ErrorCodeEEE=so_stub_for_libtelux_tel
-Wl,--defsym=_ZN5telux3tel21SimProfileManagerImpl10setProfileE6SlotIdibSt8functionIFvNS_6common9ErrorCodeEEE=so_stub_for_libtelux_tel
-Wl,--defsym=_ZN5telux3tel21SimProfileManagerImpl13deleteProfileE6SlotIdiSt8functionIFvNS_6common9ErrorCodeEEE=so_stub_for_libtelux_tel
-Wl,--defsym=_ZN5telux3tel21SimProfileManagerImpl13onEidResponseEP24uim_get_eid_resp_msg_v01Pvi=so_stub_for_libtelux_tel
-Wl,--defsym=_ZN5telux3tel21SimProfileManagerImpl14updateNickNameE6SlotIdiRKNSt7__cxx1112basic_stringIcSt11char_traitsIcESaIcEEESt8functionIFvNS_6common9ErrorCodeEEE=so_stub_for_libtelux_tel
-Wl,--defsym=_ZN5telux3tel21SimProfileManagerImpl15onAddProfileIndERK27uim_add_profile_ind_msg_v01=so_stub_for_libtelux_tel
-Wl,--defsym=_ZN5telux3tel21SimProfileManagerImpl16isSubsystemReadyEv=so_stub_for_libtelux_tel
-Wl,--defsym=_ZN5telux3tel21SimProfileManagerImpl16onSubsystemReadyEv=so_stub_for_libtelux_tel
-Wl,--defsym=_ZN5telux3tel21SimProfileManagerImpl16registerListenerESt8weak_ptrINS0_19ISimProfileListenerEE=so_stub_for_libtelux_tel
-Wl,--defsym=_ZN5telux3tel21SimProfileManagerImpl17setSubsystemReadyEb=so_stub_for_libtelux_tel
-Wl,--defsym=_ZN5telux3tel21SimProfileManagerImpl18deregisterListenerESt8weak_ptrINS0_19ISimProfileListenerEE=so_stub_for_libtelux_tel
-Wl,--defsym=_ZN5telux3tel21SimProfileManagerImpl18provideUserConsentE6SlotIdbSt8functionIFvNS_6common9ErrorCodeEEE=so_stub_for_libtelux_tel
-Wl,--defsym=_ZN5telux3tel21SimProfileManagerImpl18requestProfileInfoE6SlotIdiPNS0_24RemoteSimProfileUserDataE=so_stub_for_libtelux_tel
-Wl,--defsym=_ZN5telux3tel21SimProfileManagerImpl18requestProfileListE6SlotIdSt8functionIFvRKSt6vectorISt10shared_ptrINS0_10SimProfileEESaIS7_EENS_6common9ErrorCodeEEE=so_stub_for_libtelux_tel
-Wl,--defsym=_ZN5telux3tel21SimProfileManagerImpl19notifyAddProfileIndERK27uim_add_profile_ind_msg_v01=so_stub_for_libtelux_tel
-Wl,--defsym=_ZN5telux3tel21SimProfileManagerImpl20onAddProfileResponseEP28uim_add_profile_resp_msg_v01Pvi=so_stub_for_libtelux_tel
-Wl,--defsym=_ZN5telux3tel21SimProfileManagerImpl20onSetProfileResponseEP32uim_set_sim_profile_resp_msg_v01Pvi=so_stub_for_libtelux_tel
-Wl,--defsym=_ZN5telux3tel21SimProfileManagerImpl21onProfileInfoResponseEP33uim_get_profile_info_resp_msg_v01Pvi=so_stub_for_libtelux_tel
-Wl,--defsym=_ZN5telux3tel21SimProfileManagerImpl21onProfileListResponseEP32uim_get_sim_profile_resp_msg_v01Pvi=so_stub_for_libtelux_tel
-Wl,--defsym=_ZN5telux3tel21SimProfileManagerImpl21onUserConsentResponseEP37uim_profile_user_consent_resp_msg_v01Pvi=so_stub_for_libtelux_tel
-Wl,--defsym=_ZN5telux3tel21SimProfileManagerImpl21waitForInitializationEv=so_stub_for_libtelux_tel
-Wl,--defsym=_ZN5telux3tel21SimProfileManagerImpl23onDeleteProfileResponseEP31uim_delete_profile_resp_msg_v01Pvi=so_stub_for_libtelux_tel
-Wl,--defsym=_ZN5telux3tel21SimProfileManagerImpl24onUimServiceStatusChangeENS_6common13ServiceStatusE=so_stub_for_libtelux_tel
-Wl,--defsym=_ZN5telux3tel21SimProfileManagerImpl24onUpdateNickNameResponseEP40uim_update_profile_nickname_resp_msg_v01Pvi=so_stub_for_libtelux_tel
-Wl,--defsym=_ZN5telux3tel21SimProfileManagerImpl28convertProfilePolicyRuleMaskEy=so_stub_for_libtelux_tel
-Wl,--defsym=_ZN5telux3tel21SimProfileManagerImpl4initEv=so_stub_for_libtelux_tel
-Wl,--defsym=_ZN5telux3tel21SimProfileManagerImpl7cleanupEv=so_stub_for_libtelux_tel
-Wl,--defsym=_ZN5telux3tel21SimProfileManagerImpl8initSyncEv=so_stub_for_libtelux_tel
-Wl,--defsym=_ZN5telux3tel21SimProfileManagerImplC1Ev=so_stub_for_libtelux_tel
-Wl,--defsym=_ZN5telux3tel21SimProfileManagerImplC2Ev=so_stub_for_libtelux_tel
-Wl,--defsym=_ZN5telux3tel21SimProfileManagerImplD0Ev=so_stub_for_libtelux_tel
-Wl,--defsym=_ZN5telux3tel21SimProfileManagerImplD1Ev=so_stub_for_libtelux_tel
-Wl,--defsym=_ZN5telux3tel21SimProfileManagerImplD2Ev=so_stub_for_libtelux_tel
-Wl,--defsym=_ZN5telux3tel22CdmaSignalStrengthInfoC1Eiiiii=so_stub_for_libtelux_tel
-Wl,--defsym=_ZN5telux3tel22CdmaSignalStrengthInfoC2Eiiiii=so_stub_for_libtelux_tel
-Wl,--defsym=_ZN5telux3tel22ICellBroadcastListener17onIncomingMessageESt10shared_ptrINS0_20CellBroadcastMessageEE=so_stub_for_libtelux_tel
-Wl,--defsym=_ZN5telux3tel22IOperatingModeCallback21operatingModeResponseENS0_13OperatingModeENS_6common9ErrorCodeE=so_stub_for_libtelux_tel
-Wl,--defsym=_ZN5telux3tel22IServingSystemListener17onDcStatusChangedENS0_8DcStatusE=so_stub_for_libtelux_tel
-Wl,--defsym=_ZN5telux3tel22IServingSystemListener22onRatPreferenceChangedESt6bitsetILj16EE=so_stub_for_libtelux_tel
-Wl,--defsym=_ZN5telux3tel22IServingSystemListener32onServiceDomainPreferenceChangedENS0_23ServiceDomainPreferenceE=so_stub_for_libtelux_tel
-Wl,--defsym=_ZN5telux3tel22Nr5gSignalStrengthInfoC1Eiii=so_stub_for_libtelux_tel
-Wl,--defsym=_ZN5telux3tel22Nr5gSignalStrengthInfoC2Eiii=so_stub_for_libtelux_tel
-Wl,--defsym=_ZN5telux3tel23ISignalStrengthCallback22signalStrengthResponseESt10shared_ptrINS0_14SignalStrengthEENS_6common9ErrorCodeE=so_stub_for_libtelux_tel
-Wl,--defsym=_ZN5telux3tel23NetworkSelectionManager10onResponseEiPvi=so_stub_for_libtelux_tel
-Wl,--defsym=_ZN5telux3tel23NetworkSelectionManager10onResponseEP37nas_perform_network_scan_resp_msg_v01Pvi=so_stub_for_libtelux_tel
-Wl,--defsym=_ZN5telux3tel23NetworkSelectionManager10onResponseEP39nas_get_preferred_networks_resp_msg_v01Pvi=so_stub_for_libtelux_tel
-Wl,--defsym=_ZN5telux3tel23NetworkSelectionManager16isSubsystemReadyEv=so_stub_for_libtelux_tel
-Wl,--defsym=_ZN5telux3tel23NetworkSelectionManager16onSubsystemReadyEv=so_stub_for_libtelux_tel
-Wl,--defsym=_ZN5telux3tel23NetworkSelectionManager16registerListenerESt8weak_ptrINS0_25INetworkSelectionListenerEE=so_stub_for_libtelux_tel
-Wl,--defsym=_ZN5telux3tel23NetworkSelectionManager18deregisterListenerESt8weak_ptrINS0_25INetworkSelectionListenerEE=so_stub_for_libtelux_tel
-Wl,--defsym=_ZN5telux3tel23NetworkSelectionManager18performNetworkScanESt8functionIFvSt6vectorINS0_12OperatorInfoESaIS4_EENS_6common9ErrorCodeEEE=so_stub_for_libtelux_tel
-Wl,--defsym=_ZN5telux3tel23NetworkSelectionManager20convertNetworkStatusEh=so_stub_for_libtelux_tel
-Wl,--defsym=_ZN5telux3tel23NetworkSelectionManager20setPreferredNetworksESt6vectorINS0_20PreferredNetworkInfoESaIS3_EEbSt8functionIFvNS_6common9ErrorCodeEEE=so_stub_for_libtelux_tel
-Wl,--defsym=_ZN5telux3tel23NetworkSelectionManager21onIndRegisterResponseEii=so_stub_for_libtelux_tel
-Wl,--defsym=_ZN5telux3tel23NetworkSelectionManager21waitForInitializationEv=so_stub_for_libtelux_tel
-Wl,--defsym=_ZN5telux3tel23NetworkSelectionManager23setNetworkSelectionModeENS0_20NetworkSelectionModeENSt7__cxx1112basic_stringIcSt11char_traitsIcESaIcEEES8_St8functionIFvNS_6common9ErrorCodeEEE=so_stub_for_libtelux_tel
-Wl,--defsym=_ZN5telux3tel23NetworkSelectionManager24onNasServiceStatusChangeENS_6common13ServiceStatusE=so_stub_for_libtelux_tel
-Wl,--defsym=_ZN5telux3tel23NetworkSelectionManager24requestPreferredNetworksESt8functionIFvSt6vectorINS0_20PreferredNetworkInfoESaIS4_EES6_NS_6common9ErrorCodeEEE=so_stub_for_libtelux_tel
-Wl,--defsym=_ZN5telux3tel23NetworkSelectionManager27convertNetworkSelectionModeE25nas_net_sel_pref_enum_v01=so_stub_for_libtelux_tel
-Wl,--defsym=_ZN5telux3tel23NetworkSelectionManager27requestNetworkSelectionModeESt8functionIFvNS0_20NetworkSelectionModeENS_6common9ErrorCodeEEE=so_stub_for_libtelux_tel
-Wl,--defsym=_ZN5telux3tel23NetworkSelectionManager34onSystemSelectionPreferenceChangedEP43nas_system_selection_preference_ind_msg_v01=so_stub_for_libtelux_tel
-Wl,--defsym=_ZN5telux3tel23NetworkSelectionManager35onSystemSelectionPreferenceResponseEP48nas_get_system_selection_preference_resp_msg_v01Pvi=so_stub_for_libtelux_tel
-Wl,--defsym=_ZN5telux3tel23NetworkSelectionManager4initEv=so_stub_for_libtelux_tel
-Wl,--defsym=_ZN5telux3tel23NetworkSelectionManager8initSyncEv=so_stub_for_libtelux_tel
-Wl,--defsym=_ZN5telux3tel23NetworkSelectionManagerC1Ei=so_stub_for_libtelux_tel
-Wl,--defsym=_ZN5telux3tel23NetworkSelectionManagerC2Ei=so_stub_for_libtelux_tel
-Wl,--defsym=_ZN5telux3tel23NetworkSelectionManagerD0Ev=so_stub_for_libtelux_tel
-Wl,--defsym=_ZN5telux3tel23NetworkSelectionManagerD1Ev=so_stub_for_libtelux_tel
-Wl,--defsym=_ZN5telux3tel23NetworkSelectionManagerD2Ev=so_stub_for_libtelux_tel
-Wl,--defsym=_ZN5telux3tel23WcdmaSignalStrengthInfoC1Eii=so_stub_for_libtelux_tel
-Wl,--defsym=_ZN5telux3tel23WcdmaSignalStrengthInfoC2Eii=so_stub_for_libtelux_tel
-Wl,--defsym=_ZN5telux3tel24CellBroadcastManagerImpl11updateReadyEv=so_stub_for_libtelux_tel
-Wl,--defsym=_ZN5telux3tel24CellBroadcastManagerImpl13getCmasBufferERK28wms_event_report_ind_msg_v01=so_stub_for_libtelux_tel
-Wl,--defsym=_ZN5telux3tel24CellBroadcastManagerImpl15createCbMessageE9RadioTechRK17CmasCellbroadcastSt10shared_ptrISt6vectorIS7_IhSaIhEESaIS9_EEE=so_stub_for_libtelux_tel
-Wl,--defsym=_ZN5telux3tel24CellBroadcastManagerImpl15notifyCbMessageESt10shared_ptrINS0_20CellBroadcastMessageEE=so_stub_for_libtelux_tel
-Wl,--defsym=_ZN5telux3tel24CellBroadcastManagerImpl16isSubsystemReadyEv=so_stub_for_libtelux_tel
-Wl,--defsym=_ZN5telux3tel24CellBroadcastManagerImpl16onSubsystemReadyEv=so_stub_for_libtelux_tel
-Wl,--defsym=_ZN5telux3tel24CellBroadcastManagerImpl16registerListenerESt8weak_ptrINS0_22ICellBroadcastListenerEE=so_stub_for_libtelux_tel
-Wl,--defsym=_ZN5telux3tel24CellBroadcastManagerImpl18deregisterListenerESt8weak_ptrINS0_22ICellBroadcastListenerEE=so_stub_for_libtelux_tel
-Wl,--defsym=_ZN5telux3tel24CellBroadcastManagerImpl18handleSmsCbMessageE9RadioTechRK17CmasCellbroadcast=so_stub_for_libtelux_tel
-Wl,--defsym=_ZN5telux3tel24CellBroadcastManagerImpl19handleETWSCbMessageESt6vectorIhSaIhEE=so_stub_for_libtelux_tel
-Wl,--defsym=_ZN5telux3tel24CellBroadcastManagerImpl19setActivationStatusEbSt8functionIFvNS_6common9ErrorCodeEEE=so_stub_for_libtelux_tel
-Wl,--defsym=_ZN5telux3tel24CellBroadcastManagerImpl20updateMessageFiltersESt6vectorINS0_19CellBroadcastFilterESaIS3_EESt8functionIFvNS_6common9ErrorCodeEEE=so_stub_for_libtelux_tel
-Wl,--defsym=_ZN5telux3tel24CellBroadcastManagerImpl21byteBufferToHexStringB5cxx11ERKSt6vectorIhSaIhEE=so_stub_for_libtelux_tel
-Wl,--defsym=_ZN5telux3tel24CellBroadcastManagerImpl21getEtwsPrimaryMessageB5cxx11ENS0_15EtwsWarningTypeE=so_stub_for_libtelux_tel
-Wl,--defsym=_ZN5telux3tel24CellBroadcastManagerImpl21onGetCbConfigResponseEP37wms_get_broadcast_config_resp_msg_v01Pvi=so_stub_for_libtelux_tel
-Wl,--defsym=_ZN5telux3tel24CellBroadcastManagerImpl21onRegisterIndResponseEP36wms_indication_register_resp_msg_v01Pvi=so_stub_for_libtelux_tel
-Wl,--defsym=_ZN5telux3tel24CellBroadcastManagerImpl21onSetCbConfigResponseEP37wms_set_broadcast_config_resp_msg_v01Pvi=so_stub_for_libtelux_tel
-Wl,--defsym=_ZN5telux3tel24CellBroadcastManagerImpl21requestMessageFiltersESt8functionIFvSt6vectorINS0_19CellBroadcastFilterESaIS4_EENS_6common9ErrorCodeEEE=so_stub_for_libtelux_tel
-Wl,--defsym=_ZN5telux3tel24CellBroadcastManagerImpl21waitForInitializationEv=so_stub_for_libtelux_tel
-Wl,--defsym=_ZN5telux3tel24CellBroadcastManagerImpl23onEventReportIndicationEP28wms_event_report_ind_msg_v01=so_stub_for_libtelux_tel
-Wl,--defsym=_ZN5telux3tel24CellBroadcastManagerImpl23requestActivationStatusESt8functionIFvbNS_6common9ErrorCodeEEE=so_stub_for_libtelux_tel
-Wl,--defsym=_ZN5telux3tel24CellBroadcastManagerImpl24onSetEventReportResponseEP33wms_set_event_report_resp_msg_v01Pvi=so_stub_for_libtelux_tel
-Wl,--defsym=_ZN5telux3tel24CellBroadcastManagerImpl24onWmsServiceStatusChangeENS_6common13ServiceStatusE=so_stub_for_libtelux_tel
-Wl,--defsym=_ZN5telux3tel24CellBroadcastManagerImpl25onSetCbActivationResponseEP41wms_set_broadcast_activation_resp_msg_v01Pvi=so_stub_for_libtelux_tel
-Wl,--defsym=_ZN5telux3tel24CellBroadcastManagerImpl26getBroadcastConfigurationsEPv=so_stub_for_libtelux_tel
-Wl,--defsym=_ZN5telux3tel24CellBroadcastManagerImpl31onBroadcastConfigurationChangedEP32wms_broadcast_config_ind_msg_v01=so_stub_for_libtelux_tel
-Wl,--defsym=_ZN5telux3tel24CellBroadcastManagerImpl4initEv=so_stub_for_libtelux_tel
-Wl,--defsym=_ZN5telux3tel24CellBroadcastManagerImpl7cleanupEv=so_stub_for_libtelux_tel
-Wl,--defsym=_ZN5telux3tel24CellBroadcastManagerImpl7getHashB5cxx11Eii=so_stub_for_libtelux_tel
-Wl,--defsym=_ZN5telux3tel24CellBroadcastManagerImpl8initSyncEv=so_stub_for_libtelux_tel
-Wl,--defsym=_ZN5telux3tel24CellBroadcastManagerImpl9getSlotIdEv=so_stub_for_libtelux_tel
-Wl,--defsym=_ZN5telux3tel24CellBroadcastManagerImplC1E6SlotId=so_stub_for_libtelux_tel
-Wl,--defsym=_ZN5telux3tel24CellBroadcastManagerImplC2E6SlotId=so_stub_for_libtelux_tel
-Wl,--defsym=_ZN5telux3tel24CellBroadcastManagerImplD0Ev=so_stub_for_libtelux_tel
-Wl,--defsym=_ZN5telux3tel24CellBroadcastManagerImplD1Ev=so_stub_for_libtelux_tel
-Wl,--defsym=_ZN5telux3tel24CellBroadcastManagerImplD2Ev=so_stub_for_libtelux_tel
-Wl,--defsym=_ZN5telux3tel24CellularCapabilityHelper25cellularCapabilityFromQmiEP31dms_get_device_cap_resp_msg_v01RNS0_22CellularCapabilityInfoE=so_stub_for_libtelux_tel
-Wl,--defsym=_ZN5telux3tel24CellularCapabilityHelper26ratCapabilitiesMaskFromQmiEiRSt6bitsetILj16EE=so_stub_for_libtelux_tel
-Wl,--defsym=_ZN5telux3tel24CellularCapabilityHelper35voiceServiceTechnologiesMaskFromQmiEiRSt6bitsetILj16EE=so_stub_for_libtelux_tel
-Wl,--defsym=_ZN5telux3tel25INetworkSelectionListener22onSelectionModeChangedENS0_20NetworkSelectionModeE=so_stub_for_libtelux_tel
-Wl,--defsym=_ZN5telux3tel25TdscdmaSignalStrengthInfoC1Ei=so_stub_for_libtelux_tel
-Wl,--defsym=_ZN5telux3tel25TdscdmaSignalStrengthInfoC2Ei=so_stub_for_libtelux_tel
-Wl,--defsym=_ZN5telux3tel27ICellularCapabilityCallback26cellularCapabilityResponseENS0_22CellularCapabilityInfoENS_6common9ErrorCodeE=so_stub_for_libtelux_tel
-Wl,--defsym=_ZN5telux3tel29convertPolicyRuleMaskToStringB5cxx11ESt6bitsetILj16EE=so_stub_for_libtelux_tel
-Wl,--defsym=_ZN5telux3tel32ECallVehicleIdentificationNumberD1Ev=so_stub_for_libtelux_tel
-Wl,--defsym=_ZN5telux3tel32ECallVehicleIdentificationNumberD2Ev=so_stub_for_libtelux_tel
-Wl,--defsym=_ZN5telux3tel3ril11logResponseERNSt7__cxx1118basic_stringstreamIcSt11char_traitsIcESaIcEEE=so_stub_for_libtelux_tel
-Wl,--defsym=_ZN5telux3tel3ril11unsolRoutesE=so_stub_for_libtelux_tel
-Wl,--defsym=_ZN5telux3tel3ril13beginResponseERNSt7__cxx1118basic_stringstreamIcSt11char_traitsIcESaIcEEEbiii=so_stub_for_libtelux_tel
-Wl,--defsym=_ZN5telux3tel3ril14ResponseRouter11ResponseIntESt10shared_ptrI6ParcelEiiS3_INS_6common15ResponseHandlerEEbiS3_INS6_16ICommandCallbackEEPvi=so_stub_for_libtelux_tel
-Wl,--defsym=_ZN5telux3tel3ril14ResponseRouter11ResponseRawESt10shared_ptrI6ParcelEiiS3_INS_6common15ResponseHandlerEEbiS3_INS6_16ICommandCallbackEEPvi=so_stub_for_libtelux_tel
-Wl,--defsym=_ZN5telux3tel3ril14ResponseRouter12ResponseIntsESt10shared_ptrI6ParcelEiiS3_INS_6common15ResponseHandlerEEbiS3_INS6_16ICommandCallbackEEPvi=so_stub_for_libtelux_tel
-Wl,--defsym=_ZN5telux3tel3ril14ResponseRouter12ResponseVoidESt10shared_ptrI6ParcelEiiS3_INS_6common15ResponseHandlerEEbiS3_INS6_16ICommandCallbackEEPvi=so_stub_for_libtelux_tel
-Wl,--defsym=_ZN5telux3tel3ril14ResponseRouter13ResponseIccIoESt10shared_ptrI6ParcelEiiS3_INS_6common15ResponseHandlerEEbiS3_INS6_16ICommandCallbackEEPvi=so_stub_for_libtelux_tel
-Wl,--defsym=_ZN5telux3tel3ril14ResponseRouter14ResponseNewSMSESt10shared_ptrI6ParcelEiiS3_INS_6common15ResponseHandlerEEbiS3_INS6_16ICommandCallbackEEPvi=so_stub_for_libtelux_tel
-Wl,--defsym=_ZN5telux3tel3ril14ResponseRouter14ResponseStringESt10shared_ptrI6ParcelEiiS3_INS_6common15ResponseHandlerEEbiS3_INS6_16ICommandCallbackEEPvi=so_stub_for_libtelux_tel
-Wl,--defsym=_ZN5telux3tel3ril14ResponseRouter15ResponseCdmaSmsESt10shared_ptrI6ParcelEiiS3_INS_6common15ResponseHandlerEEbiS3_INS6_16ICommandCallbackEEPvi=so_stub_for_libtelux_tel
-Wl,--defsym=_ZN5telux3tel3ril14ResponseRouter15ResponseRilNitzESt10shared_ptrI6ParcelEiiS3_INS_6common15ResponseHandlerEEbiS3_INS6_16ICommandCallbackEEPvi=so_stub_for_libtelux_tel
-Wl,--defsym=_ZN5telux3tel3ril14ResponseRouter15ResponseSendSmsESt10shared_ptrI6ParcelEiiS3_INS_6common15ResponseHandlerEEbiS3_INS6_16ICommandCallbackEEPvi=so_stub_for_libtelux_tel
-Wl,--defsym=_ZN5telux3tel3ril14ResponseRouter15ResponseStringsESt10shared_ptrI6ParcelEiiS3_INS_6common15ResponseHandlerEEbiS3_INS6_16ICommandCallbackEEPvi=so_stub_for_libtelux_tel
-Wl,--defsym=_ZN5telux3tel3ril14ResponseRouter16ResponseCallListESt10shared_ptrI6ParcelEiiS3_INS_6common15ResponseHandlerEEbiS3_INS6_16ICommandCallbackEEPvi=so_stub_for_libtelux_tel
-Wl,--defsym=_ZN5telux3tel3ril14ResponseRouter16ResponseCellInfoESt10shared_ptrI6ParcelEiiS3_INS_6common15ResponseHandlerEEbiS3_INS6_16ICommandCallbackEEPvi=so_stub_for_libtelux_tel
-Wl,--defsym=_ZN5telux3tel3ril14ResponseRouter18ResponseSimRefreshESt10shared_ptrI6ParcelEiiS3_INS_6common15ResponseHandlerEEbiS3_INS6_16ICommandCallbackEEPvi=so_stub_for_libtelux_tel
-Wl,--defsym=_ZN5telux3tel3ril14ResponseRouter20ResponseDataCallListESt10shared_ptrI6ParcelEiiS3_INS_6common15ResponseHandlerEEbiS3_INS6_16ICommandCallbackEEPvi=so_stub_for_libtelux_tel
-Wl,--defsym=_ZN5telux3tel3ril14ResponseRouter20ResponseNotSupportedESt10shared_ptrI6ParcelEiiS3_INS_6common15ResponseHandlerEEbiS3_INS6_16ICommandCallbackEEPvi=so_stub_for_libtelux_tel
-Wl,--defsym=_ZN5telux3tel3ril14ResponseRouter21ResponseIccCardStatusESt10shared_ptrI6ParcelEiiS3_INS_6common15ResponseHandlerEEbiS3_INS6_16ICommandCallbackEEPvi=so_stub_for_libtelux_tel
-Wl,--defsym=_ZN5telux3tel3ril14ResponseRouter22ResponseSignalStrengthESt10shared_ptrI6ParcelEiiS3_INS_6common15ResponseHandlerEEbiS3_INS6_16ICommandCallbackEEPvi=so_stub_for_libtelux_tel
-Wl,--defsym=_ZN5telux3tel3ril14ResponseRouter23ResponseCdmaCallWaitingESt10shared_ptrI6ParcelEiiS3_INS_6common15ResponseHandlerEEbiS3_INS6_16ICommandCallbackEEPvi=so_stub_for_libtelux_tel
-Wl,--defsym=_ZN5telux3tel3ril14ResponseRouter23ResponseCdmaInfoRecordsESt10shared_ptrI6ParcelEiiS3_INS_6common15ResponseHandlerEEbiS3_INS6_16ICommandCallbackEEPvi=so_stub_for_libtelux_tel
-Wl,--defsym=_ZN5telux3tel3ril14ResponseRouter24ResponseLastCallEndCauseESt10shared_ptrI6ParcelEiiS3_INS_6common15ResponseHandlerEEbiS3_INS6_16ICommandCallbackEEPvi=so_stub_for_libtelux_tel
-Wl,--defsym=_ZN5telux3tel3ril14ResponseRouter26ResponseNewSMSStatusReportESt10shared_ptrI6ParcelEiiS3_INS_6common15ResponseHandlerEEbiS3_INS6_16ICommandCallbackEEPvi=so_stub_for_libtelux_tel
-Wl,--defsym=_ZN5telux3tel3ril15ISocketListener9onConnectEi=so_stub_for_libtelux_tel
-Wl,--defsym=_ZN5telux3tel3ril19writeStringToParcelER6ParcelPKc=so_stub_for_libtelux_tel
-Wl,--defsym=_ZN5telux3tel3ril3Ril10answerCallESt10shared_ptrINS_6common15ResponseHandlerEES3_INS4_16ICommandCallbackEEi=so_stub_for_libtelux_tel
-Wl,--defsym=_ZN5telux3tel3ril3Ril10disconnectEv=so_stub_for_libtelux_tel
-Wl,--defsym=_ZN5telux3tel3ril3Ril10rejectCallESt10shared_ptrINS_6common15ResponseHandlerEES3_INS4_16ICommandCallbackEEi=so_stub_for_libtelux_tel
-Wl,--defsym=_ZN5telux3tel3ril3Ril11getInstanceEv=so_stub_for_libtelux_tel
-Wl,--defsym=_ZN5telux3tel3ril3Ril11updateReadyEv=so_stub_for_libtelux_tel
-Wl,--defsym=_ZN5telux3tel3ril3Ril12requestIccIoESt10shared_ptrINS_6common15ResponseHandlerEEiiNSt7__cxx1112basic_stringIcSt11char_traitsIcESaIcEEEiiiSC_SC_SC_S3_INS4_16ICommandCallbackEEi=so_stub_for_libtelux_tel
-Wl,--defsym=_ZN5telux3tel3ril3Ril12sendStopDtmfESt10shared_ptrINS_6common15ResponseHandlerEES3_INS4_16ICommandCallbackEEi=so_stub_for_libtelux_tel
-Wl,--defsym=_ZN5telux3tel3ril3Ril13requestThreadEv=so_stub_for_libtelux_tel
-Wl,--defsym=_ZN5telux3tel3ril3Ril13sendStartDtmfERKcSt10shared_ptrINS_6common15ResponseHandlerEES5_INS6_16ICommandCallbackEEi=so_stub_for_libtelux_tel
-Wl,--defsym=_ZN5telux3tel3ril3Ril14conferenceCallESt10shared_ptrINS_6common15ResponseHandlerEES3_INS4_16ICommandCallbackEEi=so_stub_for_libtelux_tel
-Wl,--defsym=_ZN5telux3tel3ril3Ril14sendSimImsiReqESt10shared_ptrINS_6common15ResponseHandlerEENSt7__cxx1112basic_stringIcSt11char_traitsIcESaIcEEE=so_stub_for_libtelux_tel
-Wl,--defsym=_ZN5telux3tel3ril3Ril14SocketListener12onDisconnectEi=so_stub_for_libtelux_tel
-Wl,--defsym=_ZN5telux3tel3ril3Ril14SocketListener14onDataReceivedESt10shared_ptrI6ParcelE=so_stub_for_libtelux_tel
-Wl,--defsym=_ZN5telux3tel3ril3Ril14SocketListener9onConnectEi=so_stub_for_libtelux_tel
-Wl,--defsym=_ZN5telux3tel3ril3Ril14SocketListenerC1EPS2_i=so_stub_for_libtelux_tel
-Wl,--defsym=_ZN5telux3tel3ril3Ril14SocketListenerC2EPS2_i=so_stub_for_libtelux_tel
-Wl,--defsym=_ZN5telux3tel3ril3Ril14SocketListenerD0Ev=so_stub_for_libtelux_tel
-Wl,--defsym=_ZN5telux3tel3ril3Ril14SocketListenerD1Ev=so_stub_for_libtelux_tel
-Wl,--defsym=_ZN5telux3tel3ril3Ril14SocketListenerD2Ev=so_stub_for_libtelux_tel
-Wl,--defsym=_ZN5telux3tel3ril3Ril15getCurrentCallsESt10shared_ptrINS_6common15ResponseHandlerEEi=so_stub_for_libtelux_tel
-Wl,--defsym=_ZN5telux3tel3ril3Ril15processResponseESt10shared_ptrI6ParcelEi=so_stub_for_libtelux_tel
-Wl,--defsym=_ZN5telux3tel3ril3Ril15sendDialRequestERKNSt7__cxx1112basic_stringIcSt11char_traitsIcESaIcEEEiSt10shared_ptrINS_6common15ResponseHandlerEESB_INSC_16ICommandCallbackEEi=so_stub_for_libtelux_tel
-Wl,--defsym=_ZN5telux3tel3ril3Ril15sendRequestDtmfERKcSt10shared_ptrINS_6common15ResponseHandlerEES5_INS6_16ICommandCallbackEEi=so_stub_for_libtelux_tel
-Wl,--defsym=_ZN5telux3tel3ril3Ril16hangupConnectionEiSt10shared_ptrINS_6common15ResponseHandlerEES3_INS4_16ICommandCallbackEEi=so_stub_for_libtelux_tel
-Wl,--defsym=_ZN5telux3tel3ril3Ril16registerListenerESt8weak_ptrINS1_12IRilListenerEE=so_stub_for_libtelux_tel
-Wl,--defsym=_ZN5telux3tel3ril3Ril16sendGetSimStatusESt10shared_ptrINS_6common15ResponseHandlerEEi=so_stub_for_libtelux_tel
-Wl,--defsym=_ZN5telux3tel3ril3Ril17sendGsmSmsRequestENSt7__cxx1112basic_stringIcSt11char_traitsIcESaIcEEESt10shared_ptrINS_6common15ResponseHandlerEES9_INSA_16ICommandCallbackEEi=so_stub_for_libtelux_tel
-Wl,--defsym=_ZN5telux3tel3ril3Ril17sendRadioPowerReqEbSt10shared_ptrINS_6common15ResponseHandlerEES3_INS4_16ICommandCallbackEEi=so_stub_for_libtelux_tel
-Wl,--defsym=_ZN5telux3tel3ril3Ril18deregisterListenerESt8weak_ptrINS1_12IRilListenerEE=so_stub_for_libtelux_tel
-Wl,--defsym=_ZN5telux3tel3ril3Ril18sendGetOperatorReqESt10shared_ptrINS_6common15ResponseHandlerEES3_INS4_16ICommandCallbackEEi=so_stub_for_libtelux_tel
-Wl,--defsym=_ZN5telux3tel3ril3Ril19sendChangeSimPinReqENS1_8LockTypeENSt7__cxx1112basic_stringIcSt11char_traitsIcESaIcEEES9_S9_St10shared_ptrINS_6common15ResponseHandlerEESA_INSB_16ICommandCallbackEEi=so_stub_for_libtelux_tel
-Wl,--defsym=_ZN5telux3tel3ril3Ril19sendSimPinUnlockReqENS1_8LockTypeENSt7__cxx1112basic_stringIcSt11char_traitsIcESaIcEEES9_St10shared_ptrINS_6common15ResponseHandlerEESA_INSB_16ICommandCallbackEEi=so_stub_for_libtelux_tel
-Wl,--defsym=_ZN5telux3tel3ril3Ril19sendSimPukUnlockReqENS1_8LockTypeENSt7__cxx1112basic_stringIcSt11char_traitsIcESaIcEEES9_S9_St10shared_ptrINS_6common15ResponseHandlerEESA_INSB_16ICommandCallbackEEi=so_stub_for_libtelux_tel
-Wl,--defsym=_ZN5telux3tel3ril3Ril19sendSwapCallRequestESt10shared_ptrINS_6common15ResponseHandlerEES3_INS4_16ICommandCallbackEEi=so_stub_for_libtelux_tel
-Wl,--defsym=_ZN5telux3tel3ril3Ril20FindAndRemoveRequestEi=so_stub_for_libtelux_tel
-Wl,--defsym=_ZN5telux3tel3ril3Ril20sendAckGsmSmsRequestEbiSt10shared_ptrINS_6common15ResponseHandlerEEi=so_stub_for_libtelux_tel
-Wl,--defsym=_ZN5telux3tel3ril3Ril20sendImsGsmSmsRequestENSt7__cxx1112basic_stringIcSt11char_traitsIcESaIcEEESt10shared_ptrINS_6common15ResponseHandlerEES9_INSA_16ICommandCallbackEEi=so_stub_for_libtelux_tel
-Wl,--defsym=_ZN5telux3tel3ril3Ril21addOutstandingRequestESt10shared_ptrINS1_7RequestEE=so_stub_for_libtelux_tel
-Wl,--defsym=_ZN5telux3tel3ril3Ril21sendIccOpenChannelReqESt10shared_ptrINS_6common15ResponseHandlerEERKNSt7__cxx1112basic_stringIcSt11char_traitsIcESaIcEEES3_INS4_16ICommandCallbackEEi=so_stub_for_libtelux_tel
-Wl,--defsym=_ZN5telux3tel3ril3Ril21sendSignalStrengthReqESt10shared_ptrINS_6common15ResponseHandlerEES3_INS4_16ICommandCallbackEE=so_stub_for_libtelux_tel
-Wl,--defsym=_ZN5telux3tel3ril3Ril21sendVoiceRadioTechReqESt10shared_ptrINS_6common15ResponseHandlerEES3_INS4_16ICommandCallbackEEi=so_stub_for_libtelux_tel
-Wl,--defsym=_ZN5telux3tel3ril3Ril21setSmscAddressRequestENSt7__cxx1112basic_stringIcSt11char_traitsIcESaIcEEESt10shared_ptrINS_6common15ResponseHandlerEES9_INSA_16ICommandCallbackEEi=so_stub_for_libtelux_tel
-Wl,--defsym=_ZN5telux3tel3ril3Ril22sendIccCloseChannelReqESt10shared_ptrINS_6common15ResponseHandlerEEiS3_INS4_16ICommandCallbackEEi=so_stub_for_libtelux_tel
-Wl,--defsym=_ZN5telux3tel3ril3Ril22sendIccTransmitApduReqESt10shared_ptrINS_6common15ResponseHandlerEEiiiiiiRKNSt7__cxx1112basic_stringIcSt11char_traitsIcESaIcEEESE_S3_INS4_16ICommandCallbackEEi=so_stub_for_libtelux_tel
-Wl,--defsym=_ZN5telux3tel3ril3Ril22sendSetFacilityLockReqENSt7__cxx1112basic_stringIcSt11char_traitsIcESaIcEEEbS8_iS8_St10shared_ptrINS_6common15ResponseHandlerEES9_INSA_16ICommandCallbackEEi=so_stub_for_libtelux_tel
-Wl,--defsym=_ZN5telux3tel3ril3Ril22sendSmscAddressRequestESt10shared_ptrINS_6common15ResponseHandlerEES3_INS4_16ICommandCallbackEEi=so_stub_for_libtelux_tel
-Wl,--defsym=_ZN5telux3tel3ril3Ril23requestLastCallEndCauseESt10shared_ptrINS_6common15ResponseHandlerEEi=so_stub_for_libtelux_tel
-Wl,--defsym=_ZN5telux3tel3ril3Ril23sendCellInfoListRequestESt10shared_ptrINS_6common15ResponseHandlerEEPvS3_INS4_16ICommandCallbackEEi=so_stub_for_libtelux_tel
-Wl,--defsym=_ZN5telux3tel3ril3Ril24notifyServiceStateChangeEb=so_stub_for_libtelux_tel
-Wl,--defsym=_ZN5telux3tel3ril3Ril24responseDispatcherThreadEv=so_stub_for_libtelux_tel
-Wl,--defsym=_ZN5telux3tel3ril3Ril24sendGetDeviceIdentityReqESt10shared_ptrINS_6common15ResponseHandlerEE=so_stub_for_libtelux_tel
-Wl,--defsym=_ZN5telux3tel3ril3Ril24sendQueryFacilityLockReqENSt7__cxx1112basic_stringIcSt11char_traitsIcESaIcEEES8_iS8_St10shared_ptrINS_6common15ResponseHandlerEES9_INSA_16ICommandCallbackEEi=so_stub_for_libtelux_tel
-Wl,--defsym=_ZN5telux3tel3ril3Ril25hangupWaitingOrBackgroundESt10shared_ptrINS_6common15ResponseHandlerEES3_INS4_16ICommandCallbackEEi=so_stub_for_libtelux_tel
-Wl,--defsym=_ZN5telux3tel3ril3Ril27sendImsRegistrationStateReqESt10shared_ptrINS_6common15ResponseHandlerEES3_INS4_16ICommandCallbackEEi=so_stub_for_libtelux_tel
-Wl,--defsym=_ZN5telux3tel3ril3Ril29sendVoiceRegistrationStateReqESt10shared_ptrINS_6common15ResponseHandlerEES3_INS4_16ICommandCallbackEEi=so_stub_for_libtelux_tel
-Wl,--defsym=_ZN5telux3tel3ril3Ril30sendSetCellInfoListRateRequestEjSt10shared_ptrINS_6common15ResponseHandlerEES3_INS4_16ICommandCallbackEEi=so_stub_for_libtelux_tel
-Wl,--defsym=_ZN5telux3tel3ril3Ril4initEv=so_stub_for_libtelux_tel
-Wl,--defsym=_ZN5telux3tel3ril3Ril4sendESt10shared_ptrINS1_7RequestEE=so_stub_for_libtelux_tel
-Wl,--defsym=_ZN5telux3tel3ril3Ril7isReadyEv=so_stub_for_libtelux_tel
-Wl,--defsym=_ZN5telux3tel3ril3Ril9getSocketEi=so_stub_for_libtelux_tel
-Wl,--defsym=_ZN5telux3tel3ril3Ril9isExitingEv=so_stub_for_libtelux_tel
-Wl,--defsym=_ZN5telux3tel3ril3RilC1Ev=so_stub_for_libtelux_tel
-Wl,--defsym=_ZN5telux3tel3ril3RilC2Ev=so_stub_for_libtelux_tel
-Wl,--defsym=_ZN5telux3tel3ril3RilD1Ev=so_stub_for_libtelux_tel
-Wl,--defsym=_ZN5telux3tel3ril3RilD2Ev=so_stub_for_libtelux_tel
-Wl,--defsym=_ZN5telux3tel3ril6Socket11isConnectedEv=so_stub_for_libtelux_tel
-Wl,--defsym=_ZN5telux3tel3ril6Socket12onDisconnectEv=so_stub_for_libtelux_tel
-Wl,--defsym=_ZN5telux3tel3ril6Socket17setSocketListenerESt10shared_ptrINS1_15ISocketListenerEE=so_stub_for_libtelux_tel
-Wl,--defsym=_ZN5telux3tel3ril6Socket18socketReaderThreadEv=so_stub_for_libtelux_tel
-Wl,--defsym=_ZN5telux3tel3ril6Socket4initEv=so_stub_for_libtelux_tel
-Wl,--defsym=_ZN5telux3tel3ril6Socket4sendERK6Parcel=so_stub_for_libtelux_tel
-Wl,--defsym=_ZN5telux3tel3ril6Socket5closeEv=so_stub_for_libtelux_tel
-Wl,--defsym=_ZN5telux3tel3ril6Socket5getFdEv=so_stub_for_libtelux_tel
-Wl,--defsym=_ZN5telux3tel3ril6Socket5writeEPKvj=so_stub_for_libtelux_tel
-Wl,--defsym=_ZN5telux3tel3ril6Socket7connectEv=so_stub_for_libtelux_tel
-Wl,--defsym=_ZN5telux3tel3ril6Socket8shutdownEv=so_stub_for_libtelux_tel
-Wl,--defsym=_ZN5telux3tel3ril6Socket9isExitingEv=so_stub_for_libtelux_tel
-Wl,--defsym=_ZN5telux3tel3ril6SocketC1EiSt10shared_ptrINS1_15ISocketListenerEE=so_stub_for_libtelux_tel
-Wl,--defsym=_ZN5telux3tel3ril6SocketC1ENSt7__cxx1112basic_stringIcSt11char_traitsIcESaIcEEESt10shared_ptrINS1_15ISocketListenerEE=so_stub_for_libtelux_tel
-Wl,--defsym=_ZN5telux3tel3ril6SocketC2EiSt10shared_ptrINS1_15ISocketListenerEE=so_stub_for_libtelux_tel
-Wl,--defsym=_ZN5telux3tel3ril6SocketC2ENSt7__cxx1112basic_stringIcSt11char_traitsIcESaIcEEESt10shared_ptrINS1_15ISocketListenerEE=so_stub_for_libtelux_tel
-Wl,--defsym=_ZN5telux3tel3ril6SocketD1Ev=so_stub_for_libtelux_tel
-Wl,--defsym=_ZN5telux3tel3ril6SocketD2Ev=so_stub_for_libtelux_tel
-Wl,--defsym=_ZN5telux3tel3ril7Request10getHandlerEv=so_stub_for_libtelux_tel
-Wl,--defsym=_ZN5telux3tel3ril7Request11getUserDataEv=so_stub_for_libtelux_tel
-Wl,--defsym=_ZN5telux3tel3ril7Request12getCommandIdEv=so_stub_for_libtelux_tel
-Wl,--defsym=_ZN5telux3tel3ril7Request13isRequestSentEv=so_stub_for_libtelux_tel
-Wl,--defsym=_ZN5telux3tel3ril7Request14getRequestNameB5cxx11Ev=so_stub_for_libtelux_tel
-Wl,--defsym=_ZN5telux3tel3ril7Request16updateStatusSentEv=so_stub_for_libtelux_tel
-Wl,--defsym=_ZN5telux3tel3ril7Request18getCommandCallbackEv=so_stub_for_libtelux_tel
-Wl,--defsym=_ZN5telux3tel3ril7Request8g_SerialE=so_stub_for_libtelux_tel
-Wl,--defsym=_ZN5telux3tel3ril7Request9getParcelEv=so_stub_for_libtelux_tel
-Wl,--defsym=_ZN5telux3tel3ril7Request9getSlotIdEv=so_stub_for_libtelux_tel
-Wl,--defsym=_ZN5telux3tel3ril7RequestC1EiSt10shared_ptrINS_6common15ResponseHandlerEEiS3_INS4_16ICommandCallbackEEPvi=so_stub_for_libtelux_tel
-Wl,--defsym=_ZN5telux3tel3ril7RequestC2EiSt10shared_ptrINS_6common15ResponseHandlerEEiS3_INS4_16ICommandCallbackEEPvi=so_stub_for_libtelux_tel
-Wl,--defsym=_ZN5telux3tel3ril8ResponseC1EiSt10shared_ptrI6ParcelE=so_stub_for_libtelux_tel
-Wl,--defsym=_ZN5telux3tel3ril8ResponseC2EiSt10shared_ptrI6ParcelE=so_stub_for_libtelux_tel
-Wl,--defsym=_ZN5telux3tel3ril9solRoutesE=so_stub_for_libtelux_tel
-Wl,--defsym=_ZN5telux3tel4Call10getPhoneIdEv=so_stub_for_libtelux_tel
-Wl,--defsym=_ZN5telux3tel4Call11getCallInfoEv=so_stub_for_libtelux_tel
-Wl,--defsym=_ZN5telux3tel4Call11isInfoStaleERKNS0_8CallInfoE=so_stub_for_libtelux_tel
-Wl,--defsym=_ZN5telux3tel4Call12getCallIndexEv=so_stub_for_libtelux_tel
-Wl,--defsym=_ZN5telux3tel4Call12getCallStateEv=so_stub_for_libtelux_tel
-Wl,--defsym=_ZN5telux3tel4Call12playDtmfToneEcSt10shared_ptrINS_6common24ICommandResponseCallbackEE=so_stub_for_libtelux_tel
-Wl,--defsym=_ZN5telux3tel4Call12setCallStateENS0_9CallStateE=so_stub_for_libtelux_tel
-Wl,--defsym=_ZN5telux3tel4Call12stopDtmfToneESt10shared_ptrINS_6common24ICommandResponseCallbackEE=so_stub_for_libtelux_tel
-Wl,--defsym=_ZN5telux3tel4Call13startDtmfToneEcSt10shared_ptrINS_6common24ICommandResponseCallbackEE=so_stub_for_libtelux_tel
-Wl,--defsym=_ZN5telux3tel4Call14logCallDetailsEv=so_stub_for_libtelux_tel
-Wl,--defsym=_ZN5telux3tel4Call14updateCallInfoERNS0_8CallInfoE=so_stub_for_libtelux_tel
-Wl,--defsym=_ZN5telux3tel4Call15getCallEndCauseEv=so_stub_for_libtelux_tel
-Wl,--defsym=_ZN5telux3tel4Call15setCallEndCauseENS0_12CallEndCauseE=so_stub_for_libtelux_tel
-Wl,--defsym=_ZN5telux3tel4Call16getCallDirectionEv=so_stub_for_libtelux_tel
-Wl,--defsym=_ZN5telux3tel4Call16isMultiPartyCallEv=so_stub_for_libtelux_tel
-Wl,--defsym=_ZN5telux3tel4Call17initiateDialEcallERKSt6vectorIhSaIhEEbiiib=so_stub_for_libtelux_tel
-Wl,--defsym=_ZN5telux3tel4Call18handleDialResponseEiSt10shared_ptrINS_6common16ICommandCallbackEE=so_stub_for_libtelux_tel
-Wl,--defsym=_ZN5telux3tel4Call18handleHoldResponseEiSt10shared_ptrINS_6common16ICommandCallbackEE=so_stub_for_libtelux_tel
-Wl,--defsym=_ZN5telux3tel4Call19onDialECallResponseEP28voice_dial_call_resp_msg_v02Pv=so_stub_for_libtelux_tel
-Wl,--defsym=_ZN5telux3tel4Call20getRemotePartyNumberB5cxx11Ev=so_stub_for_libtelux_tel
-Wl,--defsym=_ZN5telux3tel4Call20handleAnswerResponseEiSt10shared_ptrINS_6common16ICommandCallbackEE=so_stub_for_libtelux_tel
-Wl,--defsym=_ZN5telux3tel4Call20handleHangupResponseEiSt10shared_ptrINS_6common16ICommandCallbackEE=so_stub_for_libtelux_tel
-Wl,--defsym=_ZN5telux3tel4Call20handleRejectResponseEiSt10shared_ptrINS_6common16ICommandCallbackEE=so_stub_for_libtelux_tel
-Wl,--defsym=_ZN5telux3tel4Call23handleSolicitedResponseESt10shared_ptrINS_6common6ResultEE=so_stub_for_libtelux_tel
-Wl,--defsym=_ZN5telux3tel4Call24handleHangupWtBgResponseEiSt10shared_ptrINS_6common16ICommandCallbackEE=so_stub_for_libtelux_tel
-Wl,--defsym=_ZN5telux3tel4Call25handleUnsolicitedResponseESt10shared_ptrINS_6common6ResultEE=so_stub_for_libtelux_tel
-Wl,--defsym=_ZN5telux3tel4Call26handlePlayDtmfToneResponseEiSt10shared_ptrINS_6common16ICommandCallbackEE=so_stub_for_libtelux_tel
-Wl,--defsym=_ZN5telux3tel4Call26handleStopDtmfToneResponseEiSt10shared_ptrINS_6common16ICommandCallbackEE=so_stub_for_libtelux_tel
-Wl,--defsym=_ZN5telux3tel4Call27handleStartDtmfToneResponseEiSt10shared_ptrINS_6common16ICommandCallbackEE=so_stub_for_libtelux_tel
-Wl,--defsym=_ZN5telux3tel4Call4dialESt10shared_ptrINS0_17IMakeCallCallbackEE=so_stub_for_libtelux_tel
-Wl,--defsym=_ZN5telux3tel4Call4holdESt10shared_ptrINS_6common24ICommandResponseCallbackEE=so_stub_for_libtelux_tel
-Wl,--defsym=_ZN5telux3tel4Call5matchERNS0_8CallInfoEi=so_stub_for_libtelux_tel
-Wl,--defsym=_ZN5telux3tel4Call6answerESt10shared_ptrINS_6common24ICommandResponseCallbackEE=so_stub_for_libtelux_tel
-Wl,--defsym=_ZN5telux3tel4Call6hangupESt10shared_ptrINS_6common24ICommandResponseCallbackEE=so_stub_for_libtelux_tel
-Wl,--defsym=_ZN5telux3tel4Call6rejectERKNSt7__cxx1112basic_stringIcSt11char_traitsIcESaIcEEESt10shared_ptrINS_6common24ICommandResponseCallbackEE=so_stub_for_libtelux_tel
-Wl,--defsym=_ZN5telux3tel4Call6rejectESt10shared_ptrINS_6common24ICommandResponseCallbackEE=so_stub_for_libtelux_tel
-Wl,--defsym=_ZN5telux3tel4Call6resumeESt10shared_ptrINS_6common24ICommandResponseCallbackEE=so_stub_for_libtelux_tel
-Wl,--defsym=_ZN5telux3tel4Call9dialECallERKNS0_12ECallMsdDataEiiSt10shared_ptrINS0_17IMakeCallCallbackEE=so_stub_for_libtelux_tel
-Wl,--defsym=_ZN5telux3tel4Call9dialECallERKSt6vectorIhSaIhEEbiiSt8functionIFvNS_6common9ErrorCodeESt10shared_ptrINS0_5ICallEEEE=so_stub_for_libtelux_tel
-Wl,--defsym=_ZN5telux3tel4CallC1EiNS0_8CallInfoE=so_stub_for_libtelux_tel
-Wl,--defsym=_ZN5telux3tel4CallC2EiNS0_8CallInfoE=so_stub_for_libtelux_tel
-Wl,--defsym=_ZN5telux3tel4CallD0Ev=so_stub_for_libtelux_tel
-Wl,--defsym=_ZN5telux3tel4CallD1Ev=so_stub_for_libtelux_tel
-Wl,--defsym=_ZN5telux3tel4CallD2Ev=so_stub_for_libtelux_tel
-Wl,--defsym=_ZN5telux3tel5Phone10getPhoneIdERi=so_stub_for_libtelux_tel
-Wl,--defsym=_ZN5telux3tel5Phone11updateReadyEv=so_stub_for_libtelux_tel
-Wl,--defsym=_ZN5telux3tel5Phone13getRadioStateEv=so_stub_for_libtelux_tel
-Wl,--defsym=_ZN5telux3tel5Phone13setRadioPowerEbSt10shared_ptrINS_6common24ICommandResponseCallbackEE=so_stub_for_libtelux_tel
-Wl,--defsym=_ZN5telux3tel5Phone13setRadioStateENS0_10RadioStateE=so_stub_for_libtelux_tel
-Wl,--defsym=_ZN5telux3tel5Phone14removeListenerESt8weak_ptrINS0_14IPhoneListenerEE=so_stub_for_libtelux_tel
-Wl,--defsym=_ZN5telux3tel5Phone15getServiceStateEv=so_stub_for_libtelux_tel
-Wl,--defsym=_ZN5telux3tel5Phone15onECallOprtModeEP33voice_ecall_oprt_mode_ind_msg_v02i=so_stub_for_libtelux_tel
-Wl,--defsym=_ZN5telux3tel5Phone15requestCellInfoESt8functionIFvSt6vectorISt10shared_ptrINS0_8CellInfoEESaIS6_EENS_6common9ErrorCodeEEE=so_stub_for_libtelux_tel
-Wl,--defsym=_ZN5telux3tel5Phone15setServiceStateENS0_12ServiceStateE=so_stub_for_libtelux_tel
-Wl,--defsym=_ZN5telux3tel5Phone16registerListenerESt8weak_ptrINS0_14IPhoneListenerEE=so_stub_for_libtelux_tel
-Wl,--defsym=_ZN5telux3tel5Phone16updateRadioStateENS0_10RadioStateE=so_stub_for_libtelux_tel
-Wl,--defsym=_ZN5telux3tel5Phone18onRegisterResponseEi=so_stub_for_libtelux_tel
-Wl,--defsym=_ZN5telux3tel5Phone19setCellInfoListRateEjSt8functionIFvNS_6common9ErrorCodeEEE=so_stub_for_libtelux_tel
-Wl,--defsym=_ZN5telux3tel5Phone20handleSignalStrengthEiPvbSt10shared_ptrINS_6common16ICommandCallbackEE=so_stub_for_libtelux_tel
-Wl,--defsym=_ZN5telux3tel5Phone21onServiceStatusChangeENS_6common13ServiceStatusE=so_stub_for_libtelux_tel
-Wl,--defsym=_ZN5telux3tel5Phone21requestSignalStrengthESt10shared_ptrINS0_23ISignalStrengthCallbackEE=so_stub_for_libtelux_tel
-Wl,--defsym=_ZN5telux3tel5Phone21setECallOperatingModeENS0_9ECallModeESt8functionIFvNS_6common9ErrorCodeEEE=so_stub_for_libtelux_tel
-Wl,--defsym=_ZN5telux3tel5Phone21waitForInitializationEv=so_stub_for_libtelux_tel
-Wl,--defsym=_ZN5telux3tel5Phone23handleSolicitedResponseESt10shared_ptrINS_6common6ResultEE=so_stub_for_libtelux_tel
-Wl,--defsym=_ZN5telux3tel5Phone23notifyRadioStateChangedEiNS0_10RadioStateE=so_stub_for_libtelux_tel
-Wl,--defsym=_ZN5telux3tel5Phone24handleRadioPowerResponseEiSt10shared_ptrINS_6common16ICommandCallbackEE=so_stub_for_libtelux_tel
-Wl,--defsym=_ZN5telux3tel5Phone24handleServiceStateChangeENS_6common13ServiceStatusE=so_stub_for_libtelux_tel
-Wl,--defsym=_ZN5telux3tel5Phone24requestVoiceServiceStateESt8weak_ptrINS0_26IVoiceServiceStateCallbackEE=so_stub_for_libtelux_tel
-Wl,--defsym=_ZN5telux3tel5Phone25handleUnsolicitedResponseESt10shared_ptrINS_6common6ResultEE=so_stub_for_libtelux_tel
-Wl,--defsym=_ZN5telux3tel5Phone25notifyCellInfoListChangedEiSt6vectorISt10shared_ptrINS0_8CellInfoEESaIS5_EE=so_stub_for_libtelux_tel
-Wl,--defsym=_ZN5telux3tel5Phone25notifyServiceStateChangedEiNS0_12ServiceStateE=so_stub_for_libtelux_tel
-Wl,--defsym=_ZN5telux3tel5Phone25requestECallOperatingModeESt8functionIFvNS0_9ECallModeENS_6common9ErrorCodeEEE=so_stub_for_libtelux_tel
-Wl,--defsym=_ZN5telux3tel5Phone25voiceServiceStateResponseERKSt10shared_ptrINS0_16VoiceServiceInfoEENS_6common9ErrorCodeE=so_stub_for_libtelux_tel
-Wl,--defsym=_ZN5telux3tel5Phone26handleCellInfoListResponseEiPvbSt10shared_ptrINS_6common16ICommandCallbackEE=so_stub_for_libtelux_tel
-Wl,--defsym=_ZN5telux3tel5Phone26onVoiceServiceStatusChangeENS_6common13ServiceStatusEi=so_stub_for_libtelux_tel
-Wl,--defsym=_ZN5telux3tel5Phone27getVoiceServiceStateFromMapEi=so_stub_for_libtelux_tel
-Wl,--defsym=_ZN5telux3tel5Phone27notifySignalStrengthChangedEiSt10shared_ptrINS0_14SignalStrengthEE=so_stub_for_libtelux_tel
-Wl,--defsym=_ZN5telux3tel5Phone27requestVoiceRadioTechnologyESt8functionIFvNS0_15RadioTechnologyENS_6common9ErrorCodeEEE=so_stub_for_libtelux_tel
-Wl,--defsym=_ZN5telux3tel5Phone28handleSignalStrengthResponseEiPvbSt10shared_ptrINS_6common16ICommandCallbackEE=so_stub_for_libtelux_tel
-Wl,--defsym=_ZN5telux3tel5Phone28handleVoiceRadioTechResponseEiPvSt10shared_ptrINS_6common16ICommandCallbackEEb=so_stub_for_libtelux_tel
-Wl,--defsym=_ZN5telux3tel5Phone28notifyRadioTechnologyChangedEiNS0_15RadioTechnologyE=so_stub_for_libtelux_tel
-Wl,--defsym=_ZN5telux3tel5Phone30handleCellInfoListRateResponseEiSt10shared_ptrINS_6common16ICommandCallbackEE=so_stub_for_libtelux_tel
-Wl,--defsym=_ZN5telux3tel5Phone30notifyVoiceServiceStateChangedESt10shared_ptrINS0_16VoiceServiceInfoEE=so_stub_for_libtelux_tel
-Wl,--defsym=_ZN5telux3tel5Phone31handleVoiceServiceStateResponseEiPvSt10shared_ptrINS_6common16ICommandCallbackEE=so_stub_for_libtelux_tel
-Wl,--defsym=_ZN5telux3tel5Phone31onGetECallOperatingModeResponseEiiPv=so_stub_for_libtelux_tel
-Wl,--defsym=_ZN5telux3tel5Phone31onSetECallOperatingModeResponseEiPv=so_stub_for_libtelux_tel
-Wl,--defsym=_ZN5telux3tel5Phone33getVoiceServiceDenialCauseFromMapEi=so_stub_for_libtelux_tel
-Wl,--defsym=_ZN5telux3tel5Phone41handleDeprecatedVoiceServiceStateResponseERKSt10shared_ptrINS0_16VoiceServiceInfoEE=so_stub_for_libtelux_tel
-Wl,--defsym=_ZN5telux3tel5Phone4initEv=so_stub_for_libtelux_tel
-Wl,--defsym=_ZN5telux3tel5Phone7cleanupEv=so_stub_for_libtelux_tel
-Wl,--defsym=_ZN5telux3tel5Phone7isReadyEv=so_stub_for_libtelux_tel
-Wl,--defsym=_ZN5telux3tel5Phone7onReadyEv=so_stub_for_libtelux_tel
-Wl,--defsym=_ZN5telux3tel5Phone8initSyncEv=so_stub_for_libtelux_tel
-Wl,--defsym=_ZN5telux3tel5PhoneC1Ei=so_stub_for_libtelux_tel
-Wl,--defsym=_ZN5telux3tel5PhoneC2Ei=so_stub_for_libtelux_tel
-Wl,--defsym=_ZN5telux3tel5PhoneD0Ev=so_stub_for_libtelux_tel
-Wl,--defsym=_ZN5telux3tel5PhoneD1Ev=so_stub_for_libtelux_tel
-Wl,--defsym=_ZN5telux3tel5PhoneD2Ev=so_stub_for_libtelux_tel
-Wl,--defsym=_ZN5telux3tel5Utils10checkErrorEi=so_stub_for_libtelux_tel
-Wl,--defsym=_ZN5telux3tel5Utils12readHexOctetENSt7__cxx1112basic_stringIcSt11char_traitsIcESaIcEEERi=so_stub_for_libtelux_tel
-Wl,--defsym=_ZN5telux3tel5Utils14readConfigFileENSt7__cxx1112basic_stringIcSt11char_traitsIcESaIcEEERSt3mapIS7_S7_St4lessIS7_ESaISt4pairIKS7_S7_EEE=so_stub_for_libtelux_tel
-Wl,--defsym=_ZN5telux3tel5Utils16bytesToHexStringB5cxx11ESt6vectorIhSaIhEE=so_stub_for_libtelux_tel
-Wl,--defsym=_ZN5telux3tel5Utils16getToaFromStringENSt7__cxx1112basic_stringIcSt11char_traitsIcESaIcEEE=so_stub_for_libtelux_tel
-Wl,--defsym=_ZN5telux3tel5Utils16hexStringToBytesENSt7__cxx1112basic_stringIcSt11char_traitsIcESaIcEEEi=so_stub_for_libtelux_tel
-Wl,--defsym=_ZN5telux3tel5Utils19ParcelReadExceptionD0Ev=so_stub_for_libtelux_tel
-Wl,--defsym=_ZN5telux3tel5Utils19ParcelReadExceptionD1Ev=so_stub_for_libtelux_tel
-Wl,--defsym=_ZN5telux3tel5Utils19ParcelReadExceptionD2Ev=so_stub_for_libtelux_tel
-Wl,--defsym=_ZN5telux3tel5Utils20charBytesToHexStringB5cxx11ESt6vectorIcSaIcEE=so_stub_for_libtelux_tel
-Wl,--defsym=_ZN5telux3tel5Utils20hexStringToCharBytesENSt7__cxx1112basic_stringIcSt11char_traitsIcESaIcEEEi=so_stub_for_libtelux_tel
-Wl,--defsym=_ZN5telux3tel5Utils25getSwappedNibbleBcdStringERKNSt7__cxx1112basic_stringIcSt11char_traitsIcESaIcEEE=so_stub_for_libtelux_tel
-Wl,--defsym=_ZN5telux3tel5Utils26readWideStringAsByteStringB5cxx11ESt10shared_ptrI6ParcelE=so_stub_for_libtelux_tel
-Wl,--defsym=_ZN5telux3tel5Utils9charToIntEc=so_stub_for_libtelux_tel
-Wl,--defsym=_ZN5telux3tel7readDcsEtRhS1_=so_stub_for_libtelux_tel
-Wl,--defsym=_ZN5telux3tel7SmsInfoD1Ev=so_stub_for_libtelux_tel
-Wl,--defsym=_ZN5telux3tel7SmsInfoD2Ev=so_stub_for_libtelux_tel
-Wl,--defsym=_ZN5telux3tel8CallInfoaSERKS1_=so_stub_for_libtelux_tel
-Wl,--defsym=_ZN5telux3tel8CallInfoC1ERKS1_=so_stub_for_libtelux_tel
-Wl,--defsym=_ZN5telux3tel8CallInfoC1Ev=so_stub_for_libtelux_tel
-Wl,--defsym=_ZN5telux3tel8CallInfoC2ERKS1_=so_stub_for_libtelux_tel
-Wl,--defsym=_ZN5telux3tel8CallInfoC2Ev=so_stub_for_libtelux_tel
-Wl,--defsym=_ZN5telux3tel8CallInfoD1Ev=so_stub_for_libtelux_tel
-Wl,--defsym=_ZN5telux3tel8CallInfoD2Ev=so_stub_for_libtelux_tel
-Wl,--defsym=_ZN5telux3tel8CardImpl10requestEidESt8functionIFvRKNSt7__cxx1112basic_stringIcSt11char_traitsIcESaIcEEENS_6common9ErrorCodeEEE=so_stub_for_libtelux_tel
-Wl,--defsym=_ZN5telux3tel8CardImpl13exchangeSimIOEthhhhNSt7__cxx1112basic_stringIcSt11char_traitsIcESaIcEEESt6vectorIhSaIhEES7_S7_St10shared_ptrINS0_20ICardCommandCallbackEE=so_stub_for_libtelux_tel
-Wl,--defsym=_ZN5telux3tel8CardImpl13onEidResponseEP24uim_get_eid_resp_msg_v01Pvi=so_stub_for_libtelux_tel
-Wl,--defsym=_ZN5telux3tel8CardImpl13validateAppIdENSt7__cxx1112basic_stringIcSt11char_traitsIcESaIcEEE=so_stub_for_libtelux_tel
-Wl,--defsym=_ZN5telux3tel8CardImpl15getApplicationsEPNS_6common6StatusE=so_stub_for_libtelux_tel
-Wl,--defsym=_ZN5telux3tel8CardImpl16handleSimRefreshEPNS0_18IccRefreshResponseE=so_stub_for_libtelux_tel
-Wl,--defsym=_ZN5telux3tel8CardImpl17handleOpenChannelEPSt6vectorIiSaIiEEiSt10shared_ptrINS_6common16ICommandCallbackEE=so_stub_for_libtelux_tel
-Wl,--defsym=_ZN5telux3tel8CardImpl18handleCloseChannelEiSt10shared_ptrINS_6common16ICommandCallbackEE=so_stub_for_libtelux_tel
-Wl,--defsym=_ZN5telux3tel8CardImpl18openLogicalChannelENSt7__cxx1112basic_stringIcSt11char_traitsIcESaIcEEESt10shared_ptrINS0_20ICardChannelCallbackEE=so_stub_for_libtelux_tel
-Wl,--defsym=_ZN5telux3tel8CardImpl18updateGetSimStatusEPNS0_10CardStatusEi=so_stub_for_libtelux_tel
-Wl,--defsym=_ZN5telux3tel8CardImpl19closeLogicalChannelEiSt10shared_ptrINS_6common24ICommandResponseCallbackEE=so_stub_for_libtelux_tel
-Wl,--defsym=_ZN5telux3tel8CardImpl19handleExchangeSimIOEPNS0_9IccResultEiSt10shared_ptrINS_6common16ICommandCallbackEE=so_stub_for_libtelux_tel
-Wl,--defsym=_ZN5telux3tel8CardImpl23handleSolicitedResponseESt10shared_ptrINS_6common6ResultEE=so_stub_for_libtelux_tel
-Wl,--defsym=_ZN5telux3tel8CardImpl24onUimServiceStatusChangeENS_6common13ServiceStatusE=so_stub_for_libtelux_tel
-Wl,--defsym=_ZN5telux3tel8CardImpl24transmitApduBasicChannelEhhhhhSt6vectorIhSaIhEESt10shared_ptrINS0_20ICardCommandCallbackEE=so_stub_for_libtelux_tel
-Wl,--defsym=_ZN5telux3tel8CardImpl25handleUnsolicitedResponseESt10shared_ptrINS_6common6ResultEE=so_stub_for_libtelux_tel
-Wl,--defsym=_ZN5telux3tel8CardImpl26transmitApduLogicalChannelEihhhhhSt6vectorIhSaIhEESt10shared_ptrINS0_20ICardCommandCallbackEE=so_stub_for_libtelux_tel
-Wl,--defsym=_ZN5telux3tel8CardImpl30handleTransmitApduBasicChannelEPNS0_9IccResultEiSt10shared_ptrINS_6common16ICommandCallbackEE=so_stub_for_libtelux_tel
-Wl,--defsym=_ZN5telux3tel8CardImpl32handleTransmitApduLogicalChannelEPNS0_9IccResultEiSt10shared_ptrINS_6common16ICommandCallbackEE=so_stub_for_libtelux_tel
-Wl,--defsym=_ZN5telux3tel8CardImpl4initEv=so_stub_for_libtelux_tel
-Wl,--defsym=_ZN5telux3tel8CardImpl7cleanupEv=so_stub_for_libtelux_tel
-Wl,--defsym=_ZN5telux3tel8CardImpl8getStateERNS0_9CardStateE=so_stub_for_libtelux_tel
-Wl,--defsym=_ZN5telux3tel8CardImpl9getSlotIdEv=so_stub_for_libtelux_tel
-Wl,--defsym=_ZN5telux3tel8CardImplC1Ei=so_stub_for_libtelux_tel
-Wl,--defsym=_ZN5telux3tel8CardImplC2Ei=so_stub_for_libtelux_tel
-Wl,--defsym=_ZN5telux3tel8CardImplD0Ev=so_stub_for_libtelux_tel
-Wl,--defsym=_ZN5telux3tel8CardImplD1Ev=so_stub_for_libtelux_tel
-Wl,--defsym=_ZN5telux3tel8CardImplD2Ev=so_stub_for_libtelux_tel
-Wl,--defsym=_ZN5telux3tel8CellInfo12isRegisteredEv=so_stub_for_libtelux_tel
-Wl,--defsym=_ZN5telux3tel8CellInfo7getTypeEv=so_stub_for_libtelux_tel
-Wl,--defsym=_ZN5telux3tel8CmasInfo10getUrgencyEv=so_stub_for_libtelux_tel
-Wl,--defsym=_ZN5telux3tel8CmasInfo11getSeverityEv=so_stub_for_libtelux_tel
-Wl,--defsym=_ZN5telux3tel8CmasInfo12getCertaintyEv=so_stub_for_libtelux_tel
-Wl,--defsym=_ZN5telux3tel8CmasInfo15getMessageClassEv=so_stub_for_libtelux_tel
-Wl,--defsym=_ZN5telux3tel8CmasInfoC1ENS0_17GeographicalScopeEiiNSt7__cxx1112basic_stringIcSt11char_traitsIcESaIcEEES8_NS0_15MessagePriorityENS0_16CmasMessageClassENS0_12CmasSeverityENS0_11CmasUrgencyENS0_13CmasCertaintyE=so_stub_for_libtelux_tel
-Wl,--defsym=_ZN5telux3tel8CmasInfoC2ENS0_17GeographicalScopeEiiNSt7__cxx1112basic_stringIcSt11char_traitsIcESaIcEEES8_NS0_15MessagePriorityENS0_16CmasMessageClassENS0_12CmasSeverityENS0_11CmasUrgencyENS0_13CmasCertaintyE=so_stub_for_libtelux_tel
-Wl,--defsym=_ZN5telux3tel8ECallMsd11getInstanceEv=so_stub_for_libtelux_tel
-Wl,--defsym=_ZN5telux3tel8ECallMsd13getMsdVersionEv=so_stub_for_libtelux_tel
-Wl,--defsym=_ZN5telux3tel8ECallMsd16generateECallMsdERKNS0_12ECallMsdDataE=so_stub_for_libtelux_tel
-Wl,--defsym=_ZN5telux3tel8ECallMsd17writeOptionalDataERKNS0_12ECallMsdDataERNSt7__cxx1112basic_stringIcSt11char_traitsIcESaIcEEE=so_stub_for_libtelux_tel
-Wl,--defsym=_ZN5telux3tel8ECallMsd20writePrintableStringENSt7__cxx1112basic_stringIcSt11char_traitsIcESaIcEEERS7_=so_stub_for_libtelux_tel
-Wl,--defsym=_ZN5telux3tel8ECallMsd25calculateMsdMessageLengthERKNS0_12ECallMsdDataE=so_stub_for_libtelux_tel
-Wl,--defsym=_ZN5telux3tel8ECallMsd25writeVehicleLocationDeltaERKNS0_12ECallMsdDataERNSt7__cxx1112basic_stringIcSt11char_traitsIcESaIcEEEss=so_stub_for_libtelux_tel
-Wl,--defsym=_ZN5telux3tel8ECallMsd26writeVehicleIdentificationERKNS0_12ECallMsdDataERNSt7__cxx1112basic_stringIcSt11char_traitsIcESaIcEEE=so_stub_for_libtelux_tel
-Wl,--defsym=_ZN5telux3tel8ECallMsd29writeVehiclePropulsionStorageERKNS0_12ECallMsdDataERNSt7__cxx1112basic_stringIcSt11char_traitsIcESaIcEEE=so_stub_for_libtelux_tel
-Wl,--defsym=_ZN5telux3tel8ECallMsd6logMsdERKNS0_12ECallMsdDataE=so_stub_for_libtelux_tel
-Wl,--defsym=_ZN5telux3tel8ECallMsdC1Ev=so_stub_for_libtelux_tel
-Wl,--defsym=_ZN5telux3tel8ECallMsdC2Ev=so_stub_for_libtelux_tel
-Wl,--defsym=_ZN5telux3tel8ECallMsdD1Ev=so_stub_for_libtelux_tel
-Wl,--defsym=_ZN5telux3tel8ECallMsdD2Ev=so_stub_for_libtelux_tel
-Wl,--defsym=_ZN5telux3tel8EtwsInfo12isPopupAlertEv=so_stub_for_libtelux_tel
-Wl,--defsym=_ZN5telux3tel8EtwsInfo18getEtwsWarningTypeEv=so_stub_for_libtelux_tel
-Wl,--defsym=_ZN5telux3tel8EtwsInfo20isEmergencyUserAlertEv=so_stub_for_libtelux_tel
-Wl,--defsym=_ZN5telux3tel8EtwsInfo29getWarningSecurityInformationEv=so_stub_for_libtelux_tel
-Wl,--defsym=_ZN5telux3tel8EtwsInfo9isPrimaryEv=so_stub_for_libtelux_tel
-Wl,--defsym=_ZN5telux3tel8EtwsInfoC1ENS0_17GeographicalScopeEiiNSt7__cxx1112basic_stringIcSt11char_traitsIcESaIcEEES8_NS0_15MessagePriorityENS0_15EtwsWarningTypeEbbbSt6vectorIhSaIhEE=so_stub_for_libtelux_tel
-Wl,--defsym=_ZN5telux3tel8EtwsInfoC2ENS0_17GeographicalScopeEiiNSt7__cxx1112basic_stringIcSt11char_traitsIcESaIcEEES8_NS0_15MessagePriorityENS0_15EtwsWarningTypeEbbbSt6vectorIhSaIhEE=so_stub_for_libtelux_tel
-Wl,--defsym=_ZN5telux3tel9IccResultC1ERKS1_=so_stub_for_libtelux_tel
-Wl,--defsym=_ZN5telux3tel9IccResultC2ERKS1_=so_stub_for_libtelux_tel
-Wl,--defsym=_ZN5telux3tel9IccResultD1Ev=so_stub_for_libtelux_tel
-Wl,--defsym=_ZN5telux3tel9IccResultD2Ev=so_stub_for_libtelux_tel
-Wl,--defsym=_ZN5telux3tel9SmsHelper12getGsmSmsPduB5cxx11ERKSt10shared_ptrINS0_7SmsInfoEEPNS_6common6StatusE=so_stub_for_libtelux_tel
-Wl,--defsym=_ZN5telux3tel9SmsHelper12getHexStringB5cxx11Et=so_stub_for_libtelux_tel
-Wl,--defsym=_ZN5telux3tel9SmsHelper13byteToHexCharEh=so_stub_for_libtelux_tel
-Wl,--defsym=_ZN5telux3tel9SmsHelper13readTimeStampEPKNSt7__cxx1112basic_stringIcSt11char_traitsIcESaIcEEERNS0_12SmsTimeStampE=so_stub_for_libtelux_tel
-Wl,--defsym=_ZN5telux3tel9SmsHelper15logSmsTimestampERKNS0_12SmsTimeStampE=so_stub_for_libtelux_tel
-Wl,--defsym=_ZN5telux3tel9SmsHelper15readSmsResponseERKSt10shared_ptrI6ParcelE=so_stub_for_libtelux_tel
-Wl,--defsym=_ZN5telux3tel9SmsHelper16countGsm7SeptetsERKSt10shared_ptrINS0_7SmsInfoEEib=so_stub_for_libtelux_tel
-Wl,--defsym=_ZN5telux3tel9SmsHelper18readIncomingSmsPduERKSt10shared_ptrI6ParcelE=so_stub_for_libtelux_tel
-Wl,--defsym=_ZN5telux3tel9SmsHelper21logIncomingSmsDetailsEttNSt7__cxx1112basic_stringIcSt11char_traitsIcESaIcEEEttttiNS3_IDsS4_IDsESaIDsEEE=so_stub_for_libtelux_tel
-Wl,--defsym=_ZN5telux3tel9SmsHelper22readNewSmsStatusReportERKSt10shared_ptrI6ParcelE=so_stub_for_libtelux_tel
-Wl,--defsym=_ZN5telux3tel9SmsHelper23decodeCellBroadcastTextEiNSt7__cxx1112basic_stringIcSt11char_traitsIcESaIcEEEiRNS3_IDsS4_IDsESaIDsEEERi=so_stub_for_libtelux_tel
-Wl,--defsym=_ZN5telux3tel9SmsHelper24calculateMessageSegmentsERKSt10shared_ptrINS0_7SmsInfoEE=so_stub_for_libtelux_tel
-Wl,--defsym=_ZN5telux3tel9SmsHelper25decodeSmsMessageUsingGsm7ENSt7__cxx1112basic_stringIcSt11char_traitsIcESaIcEEEiRNS3_IDsS4_IDsESaIDsEEERiii=so_stub_for_libtelux_tel
-Wl,--defsym=_ZN5telux3tel9SmsHelper25decodeSmsMessageUsingGsm8ENSt7__cxx1112basic_stringIcSt11char_traitsIcESaIcEEEiRNS3_IDsS4_IDsESaIDsEEERi=so_stub_for_libtelux_tel
-Wl,--defsym=_ZN5telux3tel9SmsHelper25decodeSmsMessageUsingUcs2ENSt7__cxx1112basic_stringIcSt11char_traitsIcESaIcEEEiRNS3_IDsS4_IDsESaIDsEEERi=so_stub_for_libtelux_tel
-Wl,--defsym=_ZN5telux3tel9SmsHelper25encodeSmsMessageUsingGsm7ENSt7__cxx1112basic_stringIDsSt11char_traitsIDsESaIDsEEEiiRNS3_IcS4_IcESaIcEEERiib=so_stub_for_libtelux_tel
-Wl,--defsym=_ZN5telux3tel9SmsHelper25encodeSmsMessageUsingGsm8ENSt7__cxx1112basic_stringIDsSt11char_traitsIDsESaIDsEEEiiRNS3_IcS4_IcESaIcEEERi=so_stub_for_libtelux_tel
-Wl,--defsym=_ZN5telux3tel9SmsHelper25encodeSmsMessageUsingUcs2ENSt7__cxx1112basic_stringIDsSt11char_traitsIDsESaIDsEEEiiRNS3_IcS4_IcESaIcEEERi=so_stub_for_libtelux_tel
-Wl,--defsym=_ZN5telux3tel9SmsHelper25getSwappedNibbleBcdStringERKNSt7__cxx1112basic_stringIcSt11char_traitsIcESaIcEEE=so_stub_for_libtelux_tel
-Wl,--defsym=_ZN5telux3tel9SmsHelper27updateGsm7MultipartSegmentsERKSt10shared_ptrINS0_7SmsInfoEEib=so_stub_for_libtelux_tel
-Wl,--defsym=_ZN5telux3tel9SmsHelper28calculateGsm7MessageSegmentsERKSt10shared_ptrINS0_7SmsInfoEEb=so_stub_for_libtelux_tel
-Wl,--defsym=_ZN5telux3tel9SmsHelper28calculateGsm8MessageSegmentsERKSt10shared_ptrINS0_7SmsInfoEE=so_stub_for_libtelux_tel
-Wl,--defsym=_ZN5telux3tel9SmsHelper28calculateUcs2MessageSegmentsERKSt10shared_ptrINS0_7SmsInfoEE=so_stub_for_libtelux_tel
-Wl,--defsym=_ZN5telux6common14AsyncTaskQueueIvE14purgeCompletedEv=so_stub_for_libtelux_tel
-Wl,--defsym=_ZN5telux6common15ListenerManagerINS_3tel12ISmsListenerEE16registerListenerESt8weak_ptrIS3_E=so_stub_for_libtelux_tel
-Wl,--defsym=_ZN5telux6common15ListenerManagerINS_3tel12ISmsListenerEE18deRegisterListenerESt8weak_ptrIS3_E=so_stub_for_libtelux_tel
-Wl,--defsym=_ZN5telux6common15ListenerManagerINS_3tel12ISmsListenerEE21getAvailableListenersERSt6vectorISt8weak_ptrIS3_ESaIS7_EE=so_stub_for_libtelux_tel
-Wl,--defsym=_ZN5telux6common15ListenerManagerINS_3tel13ICallListenerEE16registerListenerESt8weak_ptrIS3_E=so_stub_for_libtelux_tel
-Wl,--defsym=_ZN5telux6common15ListenerManagerINS_3tel13ICallListenerEE18deRegisterListenerESt8weak_ptrIS3_E=so_stub_for_libtelux_tel
-Wl,--defsym=_ZN5telux6common15ListenerManagerINS_3tel13ICallListenerEE21getAvailableListenersERSt6vectorISt8weak_ptrIS3_ESaIS7_EE=so_stub_for_libtelux_tel
-Wl,--defsym=_ZN5telux6common15ListenerManagerINS_3tel13ICardListenerEE16registerListenerESt8weak_ptrIS3_E=so_stub_for_libtelux_tel
-Wl,--defsym=_ZN5telux6common15ListenerManagerINS_3tel13ICardListenerEE18deRegisterListenerESt8weak_ptrIS3_E=so_stub_for_libtelux_tel
-Wl,--defsym=_ZN5telux6common15ListenerManagerINS_3tel13ICardListenerEE21getAvailableListenersERSt6vectorISt8weak_ptrIS3_ESaIS7_EE=so_stub_for_libtelux_tel
-Wl,--defsym=_ZN5telux6common15ListenerManagerINS_3tel14IPhoneListenerEE16registerListenerESt8weak_ptrIS3_E=so_stub_for_libtelux_tel
-Wl,--defsym=_ZN5telux6common15ListenerManagerINS_3tel14IPhoneListenerEE18deRegisterListenerESt8weak_ptrIS3_E=so_stub_for_libtelux_tel
-Wl,--defsym=_ZN5telux6common15ListenerManagerINS_3tel14IPhoneListenerEE21getAvailableListenersERSt6vectorISt8weak_ptrIS3_ESaIS7_EE=so_stub_for_libtelux_tel
-Wl,--defsym=_ZN5telux6common15ListenerManagerINS_3tel16ISapCardListenerEE16registerListenerESt8weak_ptrIS3_E=so_stub_for_libtelux_tel
-Wl,--defsym=_ZN5telux6common15ListenerManagerINS_3tel16ISapCardListenerEE18deRegisterListenerESt8weak_ptrIS3_E=so_stub_for_libtelux_tel
-Wl,--defsym=_ZN5telux6common15ListenerManagerINS_3tel16ISapCardListenerEE21getAvailableListenersERSt6vectorISt8weak_ptrIS3_ESaIS7_EE=so_stub_for_libtelux_tel
-Wl,--defsym=_ZN5telux6common15ListenerManagerINS_3tel17IMultiSimListenerEE16registerListenerESt8weak_ptrIS3_E=so_stub_for_libtelux_tel
-Wl,--defsym=_ZN5telux6common15ListenerManagerINS_3tel17IMultiSimListenerEE18deRegisterListenerESt8weak_ptrIS3_E=so_stub_for_libtelux_tel
-Wl,--defsym=_ZN5telux6common15ListenerManagerINS_3tel17IMultiSimListenerEE21getAvailableListenersERSt6vectorISt8weak_ptrIS3_ESaIS7_EE=so_stub_for_libtelux_tel
-Wl,--defsym=_ZN5telux6common15ListenerManagerINS_3tel18IRemoteSimListenerEE16registerListenerESt8weak_ptrIS3_E=so_stub_for_libtelux_tel
-Wl,--defsym=_ZN5telux6common15ListenerManagerINS_3tel18IRemoteSimListenerEE18deRegisterListenerESt8weak_ptrIS3_E=so_stub_for_libtelux_tel
-Wl,--defsym=_ZN5telux6common15ListenerManagerINS_3tel18IRemoteSimListenerEE21getAvailableListenersERSt6vectorISt8weak_ptrIS3_ESaIS7_EE=so_stub_for_libtelux_tel
-Wl,--defsym=_ZN5telux6common15ListenerManagerINS_3tel19ISimProfileListenerEE16registerListenerESt8weak_ptrIS3_E=so_stub_for_libtelux_tel
-Wl,--defsym=_ZN5telux6common15ListenerManagerINS_3tel19ISimProfileListenerEE18deRegisterListenerESt8weak_ptrIS3_E=so_stub_for_libtelux_tel
-Wl,--defsym=_ZN5telux6common15ListenerManagerINS_3tel19ISimProfileListenerEE21getAvailableListenersERSt6vectorISt8weak_ptrIS3_ESaIS7_EE=so_stub_for_libtelux_tel
-Wl,--defsym=_ZN5telux6common15ListenerManagerINS_3tel21ISubscriptionListenerEE16registerListenerESt8weak_ptrIS3_E=so_stub_for_libtelux_tel
-Wl,--defsym=_ZN5telux6common15ListenerManagerINS_3tel21ISubscriptionListenerEE18deRegisterListenerESt8weak_ptrIS3_E=so_stub_for_libtelux_tel
-Wl,--defsym=_ZN5telux6common15ListenerManagerINS_3tel21ISubscriptionListenerEE21getAvailableListenersERSt6vectorISt8weak_ptrIS3_ESaIS7_EE=so_stub_for_libtelux_tel
-Wl,--defsym=_ZN5telux6common15ListenerManagerINS_3tel22ICellBroadcastListenerEE16registerListenerESt8weak_ptrIS3_E=so_stub_for_libtelux_tel
-Wl,--defsym=_ZN5telux6common15ListenerManagerINS_3tel22ICellBroadcastListenerEE18deRegisterListenerESt8weak_ptrIS3_E=so_stub_for_libtelux_tel
-Wl,--defsym=_ZN5telux6common15ListenerManagerINS_3tel22ICellBroadcastListenerEE21getAvailableListenersERSt6vectorISt8weak_ptrIS3_ESaIS7_EE=so_stub_for_libtelux_tel
-Wl,--defsym=_ZN5telux6common15ListenerManagerINS_3tel22IServingSystemListenerEE16registerListenerESt8weak_ptrIS3_E=so_stub_for_libtelux_tel
-Wl,--defsym=_ZN5telux6common15ListenerManagerINS_3tel22IServingSystemListenerEE18deRegisterListenerESt8weak_ptrIS3_E=so_stub_for_libtelux_tel
-Wl,--defsym=_ZN5telux6common15ListenerManagerINS_3tel22IServingSystemListenerEE21getAvailableListenersERSt6vectorISt8weak_ptrIS3_ESaIS7_EE=so_stub_for_libtelux_tel
-Wl,--defsym=_ZN5telux6common15ListenerManagerINS_3tel25INetworkSelectionListenerEE16registerListenerESt8weak_ptrIS3_E=so_stub_for_libtelux_tel
-Wl,--defsym=_ZN5telux6common15ListenerManagerINS_3tel25INetworkSelectionListenerEE18deRegisterListenerESt8weak_ptrIS3_E=so_stub_for_libtelux_tel
-Wl,--defsym=_ZN5telux6common15ListenerManagerINS_3tel25INetworkSelectionListenerEE21getAvailableListenersERSt6vectorISt8weak_ptrIS3_ESaIS7_EE=so_stub_for_libtelux_tel
-Wl,--defsym=_ZN5telux6common15ListenerManagerINS_3tel3ril12IRilListenerEE16registerListenerESt8weak_ptrIS4_E=so_stub_for_libtelux_tel
-Wl,--defsym=_ZN5telux6common15ListenerManagerINS_3tel3ril12IRilListenerEE18deRegisterListenerESt8weak_ptrIS4_E=so_stub_for_libtelux_tel
-Wl,--defsym=_ZN5telux6common15ListenerManagerINS_3tel3ril12IRilListenerEE21getAvailableListenersERSt6vectorISt8weak_ptrIS4_ESaIS8_EE=so_stub_for_libtelux_tel
-Wl,--defsym=_ZN5telux6common18FunctionalCallbackIJbbNS0_9ErrorCodeEEED0Ev=so_stub_for_libtelux_tel
-Wl,--defsym=_ZN5telux6common18FunctionalCallbackIJbbNS0_9ErrorCodeEEED1Ev=so_stub_for_libtelux_tel
-Wl,--defsym=_ZN5telux6common18FunctionalCallbackIJbbNS0_9ErrorCodeEEED2Ev=so_stub_for_libtelux_tel
-Wl,--defsym=_ZN5telux6common18FunctionalCallbackIJbNS0_9ErrorCodeEEED0Ev=so_stub_for_libtelux_tel
-Wl,--defsym=_ZN5telux6common18FunctionalCallbackIJbNS0_9ErrorCodeEEED1Ev=so_stub_for_libtelux_tel
-Wl,--defsym=_ZN5telux6common18FunctionalCallbackIJbNS0_9ErrorCodeEEED2Ev=so_stub_for_libtelux_tel
-Wl,--defsym=_ZN5telux6common18FunctionalCallbackIJiNS0_9ErrorCodeEEED0Ev=so_stub_for_libtelux_tel
-Wl,--defsym=_ZN5telux6common18FunctionalCallbackIJiNS0_9ErrorCodeEEED1Ev=so_stub_for_libtelux_tel
-Wl,--defsym=_ZN5telux6common18FunctionalCallbackIJiNS0_9ErrorCodeEEED2Ev=so_stub_for_libtelux_tel
-Wl,--defsym=_ZN5telux6common18FunctionalCallbackIJNS0_9ErrorCodeEEED0Ev=so_stub_for_libtelux_tel
-Wl,--defsym=_ZN5telux6common18FunctionalCallbackIJNS0_9ErrorCodeEEED1Ev=so_stub_for_libtelux_tel
-Wl,--defsym=_ZN5telux6common18FunctionalCallbackIJNS0_9ErrorCodeEEED2Ev=so_stub_for_libtelux_tel
-Wl,--defsym=_ZN5telux6common18FunctionalCallbackIJNS0_9ErrorCodeEiNS_3tel20ECallHlapTimerStatusEEED0Ev=so_stub_for_libtelux_tel
-Wl,--defsym=_ZN5telux6common18FunctionalCallbackIJNS0_9ErrorCodeEiNS_3tel20ECallHlapTimerStatusEEED1Ev=so_stub_for_libtelux_tel
-Wl,--defsym=_ZN5telux6common18FunctionalCallbackIJNS0_9ErrorCodeEiNS_3tel20ECallHlapTimerStatusEEED2Ev=so_stub_for_libtelux_tel
-Wl,--defsym=_ZN5telux6common18FunctionalCallbackIJNS0_9ErrorCodeESt10shared_ptrINS_3tel5ICallEEEED0Ev=so_stub_for_libtelux_tel
-Wl,--defsym=_ZN5telux6common18FunctionalCallbackIJNS0_9ErrorCodeESt10shared_ptrINS_3tel5ICallEEEED1Ev=so_stub_for_libtelux_tel
-Wl,--defsym=_ZN5telux6common18FunctionalCallbackIJNS0_9ErrorCodeESt10shared_ptrINS_3tel5ICallEEEED2Ev=so_stub_for_libtelux_tel
-Wl,--defsym=_ZN5telux6common18FunctionalCallbackIJNS_3tel15RadioTechnologyENS0_9ErrorCodeEEED0Ev=so_stub_for_libtelux_tel
-Wl,--defsym=_ZN5telux6common18FunctionalCallbackIJNS_3tel15RadioTechnologyENS0_9ErrorCodeEEED1Ev=so_stub_for_libtelux_tel
-Wl,--defsym=_ZN5telux6common18FunctionalCallbackIJNS_3tel15RadioTechnologyENS0_9ErrorCodeEEED2Ev=so_stub_for_libtelux_tel
-Wl,--defsym=_ZN5telux6common18FunctionalCallbackIJNS_3tel20NetworkSelectionModeENS0_9ErrorCodeEEED0Ev=so_stub_for_libtelux_tel
-Wl,--defsym=_ZN5telux6common18FunctionalCallbackIJNS_3tel20NetworkSelectionModeENS0_9ErrorCodeEEED1Ev=so_stub_for_libtelux_tel
-Wl,--defsym=_ZN5telux6common18FunctionalCallbackIJNS_3tel20NetworkSelectionModeENS0_9ErrorCodeEEED2Ev=so_stub_for_libtelux_tel
-Wl,--defsym=_ZN5telux6common18FunctionalCallbackIJNS_3tel23ServiceDomainPreferenceENS0_9ErrorCodeEEED0Ev=so_stub_for_libtelux_tel
-Wl,--defsym=_ZN5telux6common18FunctionalCallbackIJNS_3tel23ServiceDomainPreferenceENS0_9ErrorCodeEEED1Ev=so_stub_for_libtelux_tel
-Wl,--defsym=_ZN5telux6common18FunctionalCallbackIJNS_3tel23ServiceDomainPreferenceENS0_9ErrorCodeEEED2Ev=so_stub_for_libtelux_tel
-Wl,--defsym=_ZN5telux6common18FunctionalCallbackIJNS_3tel8SapStateENS0_9ErrorCodeEEED0Ev=so_stub_for_libtelux_tel
-Wl,--defsym=_ZN5telux6common18FunctionalCallbackIJNS_3tel8SapStateENS0_9ErrorCodeEEED1Ev=so_stub_for_libtelux_tel
-Wl,--defsym=_ZN5telux6common18FunctionalCallbackIJNS_3tel8SapStateENS0_9ErrorCodeEEED2Ev=so_stub_for_libtelux_tel
-Wl,--defsym=_ZN5telux6common18FunctionalCallbackIJNS_3tel9ECallModeENS0_9ErrorCodeEEED0Ev=so_stub_for_libtelux_tel
-Wl,--defsym=_ZN5telux6common18FunctionalCallbackIJNS_3tel9ECallModeENS0_9ErrorCodeEEED1Ev=so_stub_for_libtelux_tel
-Wl,--defsym=_ZN5telux6common18FunctionalCallbackIJNS_3tel9ECallModeENS0_9ErrorCodeEEED2Ev=so_stub_for_libtelux_tel
-Wl,--defsym=_ZN5telux6common18FunctionalCallbackIJNSt7__cxx1112basic_stringIcSt11char_traitsIcESaIcEEENS0_9ErrorCodeEEED0Ev=so_stub_for_libtelux_tel
-Wl,--defsym=_ZN5telux6common18FunctionalCallbackIJNSt7__cxx1112basic_stringIcSt11char_traitsIcESaIcEEENS0_9ErrorCodeEEED1Ev=so_stub_for_libtelux_tel
-Wl,--defsym=_ZN5telux6common18FunctionalCallbackIJNSt7__cxx1112basic_stringIcSt11char_traitsIcESaIcEEENS0_9ErrorCodeEEED2Ev=so_stub_for_libtelux_tel
-Wl,--defsym=_ZN5telux6common18FunctionalCallbackIJRKNSt7__cxx1112basic_stringIcSt11char_traitsIcESaIcEEENS0_9ErrorCodeEEED0Ev=so_stub_for_libtelux_tel
-Wl,--defsym=_ZN5telux6common18FunctionalCallbackIJRKNSt7__cxx1112basic_stringIcSt11char_traitsIcESaIcEEENS0_9ErrorCodeEEED1Ev=so_stub_for_libtelux_tel
-Wl,--defsym=_ZN5telux6common18FunctionalCallbackIJRKNSt7__cxx1112basic_stringIcSt11char_traitsIcESaIcEEENS0_9ErrorCodeEEED2Ev=so_stub_for_libtelux_tel
-Wl,--defsym=_ZN5telux6common18FunctionalCallbackIJRKSt6vectorISt10shared_ptrINS_3tel10SimProfileEESaIS6_EENS0_9ErrorCodeEEED0Ev=so_stub_for_libtelux_tel
-Wl,--defsym=_ZN5telux6common18FunctionalCallbackIJRKSt6vectorISt10shared_ptrINS_3tel10SimProfileEESaIS6_EENS0_9ErrorCodeEEED1Ev=so_stub_for_libtelux_tel
-Wl,--defsym=_ZN5telux6common18FunctionalCallbackIJRKSt6vectorISt10shared_ptrINS_3tel10SimProfileEESaIS6_EENS0_9ErrorCodeEEED2Ev=so_stub_for_libtelux_tel
-Wl,--defsym=_ZN5telux6common18FunctionalCallbackIJSt3mapI6SlotIdNS_3tel10SlotStatusESt4lessIS3_ESaISt4pairIKS3_S5_EEENS0_9ErrorCodeEEED0Ev=so_stub_for_libtelux_tel
-Wl,--defsym=_ZN5telux6common18FunctionalCallbackIJSt3mapI6SlotIdNS_3tel10SlotStatusESt4lessIS3_ESaISt4pairIKS3_S5_EEENS0_9ErrorCodeEEED1Ev=so_stub_for_libtelux_tel
-Wl,--defsym=_ZN5telux6common18FunctionalCallbackIJSt3mapI6SlotIdNS_3tel10SlotStatusESt4lessIS3_ESaISt4pairIKS3_S5_EEENS0_9ErrorCodeEEED2Ev=so_stub_for_libtelux_tel
-Wl,--defsym=_ZN5telux6common18FunctionalCallbackIJSt6bitsetILj16EENS0_9ErrorCodeEEED0Ev=so_stub_for_libtelux_tel
-Wl,--defsym=_ZN5telux6common18FunctionalCallbackIJSt6bitsetILj16EENS0_9ErrorCodeEEED1Ev=so_stub_for_libtelux_tel
-Wl,--defsym=_ZN5telux6common18FunctionalCallbackIJSt6bitsetILj16EENS0_9ErrorCodeEEED2Ev=so_stub_for_libtelux_tel
-Wl,--defsym=_ZN5telux6common18FunctionalCallbackIJSt6vectorINS_3tel12OperatorInfoESaIS4_EENS0_9ErrorCodeEEED0Ev=so_stub_for_libtelux_tel
-Wl,--defsym=_ZN5telux6common18FunctionalCallbackIJSt6vectorINS_3tel12OperatorInfoESaIS4_EENS0_9ErrorCodeEEED1Ev=so_stub_for_libtelux_tel
-Wl,--defsym=_ZN5telux6common18FunctionalCallbackIJSt6vectorINS_3tel12OperatorInfoESaIS4_EENS0_9ErrorCodeEEED2Ev=so_stub_for_libtelux_tel
-Wl,--defsym=_ZN5telux6common18FunctionalCallbackIJSt6vectorINS_3tel19CellBroadcastFilterESaIS4_EENS0_9ErrorCodeEEED0Ev=so_stub_for_libtelux_tel
-Wl,--defsym=_ZN5telux6common18FunctionalCallbackIJSt6vectorINS_3tel19CellBroadcastFilterESaIS4_EENS0_9ErrorCodeEEED1Ev=so_stub_for_libtelux_tel
-Wl,--defsym=_ZN5telux6common18FunctionalCallbackIJSt6vectorINS_3tel19CellBroadcastFilterESaIS4_EENS0_9ErrorCodeEEED2Ev=so_stub_for_libtelux_tel
-Wl,--defsym=_ZN5telux6common18FunctionalCallbackIJSt6vectorINS_3tel20PreferredNetworkInfoESaIS4_EES6_NS0_9ErrorCodeEEED0Ev=so_stub_for_libtelux_tel
-Wl,--defsym=_ZN5telux6common18FunctionalCallbackIJSt6vectorINS_3tel20PreferredNetworkInfoESaIS4_EES6_NS0_9ErrorCodeEEED1Ev=so_stub_for_libtelux_tel
-Wl,--defsym=_ZN5telux6common18FunctionalCallbackIJSt6vectorINS_3tel20PreferredNetworkInfoESaIS4_EES6_NS0_9ErrorCodeEEED2Ev=so_stub_for_libtelux_tel
-Wl,--defsym=_ZN5telux6common18FunctionalCallbackIJSt6vectorISt10shared_ptrINS_3tel8CellInfoEESaIS6_EENS0_9ErrorCodeEEED0Ev=so_stub_for_libtelux_tel
-Wl,--defsym=_ZN5telux6common18FunctionalCallbackIJSt6vectorISt10shared_ptrINS_3tel8CellInfoEESaIS6_EENS0_9ErrorCodeEEED1Ev=so_stub_for_libtelux_tel
-Wl,--defsym=_ZN5telux6common18FunctionalCallbackIJSt6vectorISt10shared_ptrINS_3tel8CellInfoEESaIS6_EENS0_9ErrorCodeEEED2Ev=so_stub_for_libtelux_tel
-Wl,--defsym=_ZN5telux6common22CommandCallbackManager11addCallbackIJbNS0_9ErrorCodeEEEEiSt8functionIFvDpT_EE=so_stub_for_libtelux_tel
-Wl,--defsym=_ZN5telux6common22CommandCallbackManager11addCallbackIJiNS0_9ErrorCodeEEEEiSt8functionIFvDpT_EE=so_stub_for_libtelux_tel
-Wl,--defsym=_ZN5telux6common22CommandCallbackManager11addCallbackIJNS0_9ErrorCodeEEEEiSt8functionIFvDpT_EE=so_stub_for_libtelux_tel
-Wl,--defsym=_ZN5telux6common22CommandCallbackManager11addCallbackIJNS0_9ErrorCodeEiNS_3tel20ECallHlapTimerStatusEEEEiSt8functionIFvDpT_EE=so_stub_for_libtelux_tel
-Wl,--defsym=_ZN5telux6common22CommandCallbackManager11addCallbackIJNS0_9ErrorCodeESt10shared_ptrINS_3tel5ICallEEEEEiSt8functionIFvDpT_EE=so_stub_for_libtelux_tel
-Wl,--defsym=_ZN5telux6common22CommandCallbackManager11addCallbackIJNS_3tel20NetworkSelectionModeENS0_9ErrorCodeEEEEiSt8functionIFvDpT_EE=so_stub_for_libtelux_tel
-Wl,--defsym=_ZN5telux6common22CommandCallbackManager11addCallbackIJNS_3tel23ServiceDomainPreferenceENS0_9ErrorCodeEEEEiSt8functionIFvDpT_EE=so_stub_for_libtelux_tel
-Wl,--defsym=_ZN5telux6common22CommandCallbackManager11addCallbackIJNS_3tel8SapStateENS0_9ErrorCodeEEEEiSt8functionIFvDpT_EE=so_stub_for_libtelux_tel
-Wl,--defsym=_ZN5telux6common22CommandCallbackManager11addCallbackIJNS_3tel9ECallModeENS0_9ErrorCodeEEEEiSt8functionIFvDpT_EE=so_stub_for_libtelux_tel
-Wl,--defsym=_ZN5telux6common22CommandCallbackManager11addCallbackIJNSt7__cxx1112basic_stringIcSt11char_traitsIcESaIcEEENS0_9ErrorCodeEEEEiSt8functionIFvDpT_EE=so_stub_for_libtelux_tel
-Wl,--defsym=_ZN5telux6common22CommandCallbackManager11addCallbackIJRKNSt7__cxx1112basic_stringIcSt11char_traitsIcESaIcEEENS0_9ErrorCodeEEEEiSt8functionIFvDpT_EE=so_stub_for_libtelux_tel
-Wl,--defsym=_ZN5telux6common22CommandCallbackManager11addCallbackIJRKSt6vectorISt10shared_ptrINS_3tel10SimProfileEESaIS7_EENS0_9ErrorCodeEEEEiSt8functionIFvDpT_EE=so_stub_for_libtelux_tel
-Wl,--defsym=_ZN5telux6common22CommandCallbackManager11addCallbackIJSt3mapI6SlotIdNS_3tel10SlotStatusESt4lessIS4_ESaISt4pairIKS4_S6_EEENS0_9ErrorCodeEEEEiSt8functionIFvDpT_EE=so_stub_for_libtelux_tel
-Wl,--defsym=_ZN5telux6common22CommandCallbackManager11addCallbackIJSt6bitsetILj16EENS0_9ErrorCodeEEEEiSt8functionIFvDpT_EE=so_stub_for_libtelux_tel
-Wl,--defsym=_ZN5telux6common22CommandCallbackManager11addCallbackIJSt6vectorINS_3tel12OperatorInfoESaIS5_EENS0_9ErrorCodeEEEEiSt8functionIFvDpT_EE=so_stub_for_libtelux_tel
-Wl,--defsym=_ZN5telux6common22CommandCallbackManager11addCallbackIJSt6vectorINS_3tel19CellBroadcastFilterESaIS5_EENS0_9ErrorCodeEEEEiSt8functionIFvDpT_EE=so_stub_for_libtelux_tel
-Wl,--defsym=_ZN5telux6common22CommandCallbackManager11addCallbackIJSt6vectorINS_3tel20PreferredNetworkInfoESaIS5_EES7_NS0_9ErrorCodeEEEEiSt8functionIFvDpT_EE=so_stub_for_libtelux_tel
-Wl,--defsym=_ZN5telux6common22CommandCallbackManager15executeCallbackIJRbRiEEEvSt10shared_ptrINS0_16ICommandCallbackEEDpOT_=so_stub_for_libtelux_tel
-Wl,--defsym=_ZN5telux6common22CommandCallbackManager15executeCallbackIJRbRNS0_9ErrorCodeEEEEvSt10shared_ptrINS0_16ICommandCallbackEEDpOT_=so_stub_for_libtelux_tel
-Wl,--defsym=_ZN5telux6common22CommandCallbackManager15executeCallbackIJRbS3_RiEEEvSt10shared_ptrINS0_16ICommandCallbackEEDpOT_=so_stub_for_libtelux_tel
-Wl,--defsym=_ZN5telux6common22CommandCallbackManager15executeCallbackIJRiRNS0_9ErrorCodeEEEEvSt10shared_ptrINS0_16ICommandCallbackEEDpOT_=so_stub_for_libtelux_tel
-Wl,--defsym=_ZN5telux6common22CommandCallbackManager15executeCallbackIJRiS3_EEEvSt10shared_ptrINS0_16ICommandCallbackEEDpOT_=so_stub_for_libtelux_tel
-Wl,--defsym=_ZN5telux6common22CommandCallbackManager15executeCallbackIJRNS0_9ErrorCodeEEEEvSt10shared_ptrINS0_16ICommandCallbackEEDpOT_=so_stub_for_libtelux_tel
-Wl,--defsym=_ZN5telux6common22CommandCallbackManager15executeCallbackIJRNS0_9ErrorCodeERiRNS_3tel20ECallHlapTimerStatusEEEEvSt10shared_ptrINS0_16ICommandCallbackEEDpOT_=so_stub_for_libtelux_tel
-Wl,--defsym=_ZN5telux6common22CommandCallbackManager15executeCallbackIJRNS0_9ErrorCodeESt10shared_ptrINS_3tel4CallEEEEEvS5_INS0_16ICommandCallbackEEDpOT_=so_stub_for_libtelux_tel
-Wl,--defsym=_ZN5telux6common22CommandCallbackManager15executeCallbackIJRNS_3tel15RadioTechnologyERNS0_9ErrorCodeEEEEvSt10shared_ptrINS0_16ICommandCallbackEEDpOT_=so_stub_for_libtelux_tel
-Wl,--defsym=_ZN5telux6common22CommandCallbackManager15executeCallbackIJRNS_3tel20NetworkSelectionModeERNS0_9ErrorCodeEEEEvSt10shared_ptrINS0_16ICommandCallbackEEDpOT_=so_stub_for_libtelux_tel
-Wl,--defsym=_ZN5telux6common22CommandCallbackManager15executeCallbackIJRNS_3tel23ServiceDomainPreferenceERNS0_9ErrorCodeEEEEvSt10shared_ptrINS0_16ICommandCallbackEEDpOT_=so_stub_for_libtelux_tel
-Wl,--defsym=_ZN5telux6common22CommandCallbackManager15executeCallbackIJRNS_3tel8SapStateERNS0_9ErrorCodeEEEEvSt10shared_ptrINS0_16ICommandCallbackEEDpOT_=so_stub_for_libtelux_tel
-Wl,--defsym=_ZN5telux6common22CommandCallbackManager15executeCallbackIJRNSt7__cxx1112basic_stringIcSt11char_traitsIcESaIcEEERNS0_9ErrorCodeEEEEvSt10shared_ptrINS0_16ICommandCallbackEEDpOT_=so_stub_for_libtelux_tel
-Wl,--defsym=_ZN5telux6common22CommandCallbackManager15executeCallbackIJRSt3mapI6SlotIdNS_3tel10SlotStatusESt4lessIS4_ESaISt4pairIKS4_S6_EEERNS0_9ErrorCodeEEEEvSt10shared_ptrINS0_16ICommandCallbackEEDpOT_=so_stub_for_libtelux_tel
-Wl,--defsym=_ZN5telux6common22CommandCallbackManager15executeCallbackIJRSt6bitsetILj16EERNS0_9ErrorCodeEEEEvSt10shared_ptrINS0_16ICommandCallbackEEDpOT_=so_stub_for_libtelux_tel
-Wl,--defsym=_ZN5telux6common22CommandCallbackManager15executeCallbackIJRSt6vectorINS_3tel12OperatorInfoESaIS5_EERNS0_9ErrorCodeEEEEvSt10shared_ptrINS0_16ICommandCallbackEEDpOT_=so_stub_for_libtelux_tel
-Wl,--defsym=_ZN5telux6common22CommandCallbackManager15executeCallbackIJRSt6vectorINS_3tel19CellBroadcastFilterESaIS5_EERNS0_9ErrorCodeEEEEvSt10shared_ptrINS0_16ICommandCallbackEEDpOT_=so_stub_for_libtelux_tel
-Wl,--defsym=_ZN5telux6common22CommandCallbackManager15executeCallbackIJRSt6vectorINS_3tel20PreferredNetworkInfoESaIS5_EES8_RNS0_9ErrorCodeEEEEvSt10shared_ptrINS0_16ICommandCallbackEEDpOT_=so_stub_for_libtelux_tel
-Wl,--defsym=_ZN5telux6common22CommandCallbackManager15executeCallbackIJRSt6vectorISt10shared_ptrINS_3tel10SimProfileEESaIS7_EERNS0_9ErrorCodeEEEEvS4_INS0_16ICommandCallbackEEDpOT_=so_stub_for_libtelux_tel
-Wl,--defsym=_ZN5telux6common22CommandCallbackManager15executeCallbackIJRSt6vectorISt10shared_ptrINS_3tel8CellInfoEESaIS7_EENS0_9ErrorCodeEEEEvS4_INS0_16ICommandCallbackEEDpOT_=so_stub_for_libtelux_tel
-Wl,--defsym=_ZN5telux6common22IServiceStatusListener21onServiceStatusChangeENS0_13ServiceStatusE=so_stub_for_libtelux_tel
-Wl,--defsym=_ZN5telux6common3Log10logMessageIJNSt7__cxx1112basic_stringIcSt11char_traitsIcESaIcEEEEEEvNS0_8LogLevelERKS8_SB_RKiDpT_=so_stub_for_libtelux_tel
-Wl,--defsym=_ZN5telux6common3Log10logMessageIJPKc33nas_srv_domain_pref_enum_type_v01EEEvNS0_8LogLevelERKNSt7__cxx1112basic_stringIcSt11char_traitsIcESaIcEEESE_RKiDpT_=so_stub_for_libtelux_tel
-Wl,--defsym=_ZN5telux6common3Log10logMessageIJPKcbEEEvNS0_8LogLevelERKNSt7__cxx1112basic_stringIcSt11char_traitsIcESaIcEEESD_RKiDpT_=so_stub_for_libtelux_tel
-Wl,--defsym=_ZN5telux6common3Log10logMessageIJPKccEEEvNS0_8LogLevelERKNSt7__cxx1112basic_stringIcSt11char_traitsIcESaIcEEESD_RKiDpT_=so_stub_for_libtelux_tel
-Wl,--defsym=_ZN5telux6common3Log10logMessageIJPKcEEEvNS0_8LogLevelERKNSt7__cxx1112basic_stringIcSt11char_traitsIcESaIcEEESD_RKiDpT_=so_stub_for_libtelux_tel
-Wl,--defsym=_ZN5telux6common3Log10logMessageIJPKchEEEvNS0_8LogLevelERKNSt7__cxx1112basic_stringIcSt11char_traitsIcESaIcEEESD_RKiDpT_=so_stub_for_libtelux_tel
-Wl,--defsym=_ZN5telux6common3Log10logMessageIJPKciEEEvNS0_8LogLevelERKNSt7__cxx1112basic_stringIcSt11char_traitsIcESaIcEEESD_RKiDpT_=so_stub_for_libtelux_tel
-Wl,--defsym=_ZN5telux6common3Log10logMessageIJPKciS4_EEEvNS0_8LogLevelERKNSt7__cxx1112basic_stringIcSt11char_traitsIcESaIcEEESD_RKiDpT_=so_stub_for_libtelux_tel
-Wl,--defsym=_ZN5telux6common3Log10logMessageIJPKciS4_iEEEvNS0_8LogLevelERKNSt7__cxx1112basic_stringIcSt11char_traitsIcESaIcEEESD_RKiDpT_=so_stub_for_libtelux_tel
-Wl,--defsym=_ZN5telux6common3Log10logMessageIJPKciS4_iS4_iEEEvNS0_8LogLevelERKNSt7__cxx1112basic_stringIcSt11char_traitsIcESaIcEEESD_RKiDpT_=so_stub_for_libtelux_tel
-Wl,--defsym=_ZN5telux6common3Log10logMessageIJPKciS4_iS4_iS4_iS4_iEEEvNS0_8LogLevelERKNSt7__cxx1112basic_stringIcSt11char_traitsIcESaIcEEESD_RKiDpT_=so_stub_for_libtelux_tel
-Wl,--defsym=_ZN5telux6common3Log10logMessageIJPKciS4_iS4_iS4_iS4_iS4_iEEEvNS0_8LogLevelERKNSt7__cxx1112basic_stringIcSt11char_traitsIcESaIcEEESD_RKiDpT_=so_stub_for_libtelux_tel
-Wl,--defsym=_ZN5telux6common3Log10logMessageIJPKciS4_iS4_iS4_NSt7__cxx1112basic_stringIcSt11char_traitsIcESaIcEEEEEEvNS0_8LogLevelERKSA_SD_RKiDpT_=so_stub_for_libtelux_tel
-Wl,--defsym=_ZN5telux6common3Log10logMessageIJPKciS4_iS4_iS4_NSt7__cxx1112basic_stringIcSt11char_traitsIcESaIcEEES4_iS4_iS4_iEEEvNS0_8LogLevelERKSA_SD_RKiDpT_=so_stub_for_libtelux_tel
-Wl,--defsym=_ZN5telux6common3Log10logMessageIJPKciS4_iS4_NSt7__cxx1112basic_stringIcSt11char_traitsIcESaIcEEEEEEvNS0_8LogLevelERKSA_SD_RKiDpT_=so_stub_for_libtelux_tel
-Wl,--defsym=_ZN5telux6common3Log10logMessageIJPKciS4_iS4_NSt7__cxx1112basic_stringIcSt11char_traitsIcESaIcEEES4_iS4_iS4_iS4_iS4_SA_EEEvNS0_8LogLevelERKSA_SD_RKiDpT_=so_stub_for_libtelux_tel
-Wl,--defsym=_ZN5telux6common3Log10logMessageIJPKciS4_NSt7__cxx1112basic_stringIcSt11char_traitsIcESaIcEEEEEEvNS0_8LogLevelERKSA_SD_RKiDpT_=so_stub_for_libtelux_tel
-Wl,--defsym=_ZN5telux6common3Log10logMessageIJPKciS4_NSt7__cxx1112basic_stringIcSt11char_traitsIcESaIcEEES4_iS4_iS4_iEEEvNS0_8LogLevelERKSA_SD_RKiDpT_=so_stub_for_libtelux_tel
-Wl,--defsym=_ZN5telux6common3Log10logMessageIJPKciS4_St6bitsetILj16EEEEEvNS0_8LogLevelERKNSt7__cxx1112basic_stringIcSt11char_traitsIcESaIcEEESF_RKiDpT_=so_stub_for_libtelux_tel
-Wl,--defsym=_ZN5telux6common3Log10logMessageIJPKcjEEEvNS0_8LogLevelERKNSt7__cxx1112basic_stringIcSt11char_traitsIcESaIcEEESD_RKiDpT_=so_stub_for_libtelux_tel
-Wl,--defsym=_ZN5telux6common3Log10logMessageIJPKcjS4_iEEEvNS0_8LogLevelERKNSt7__cxx1112basic_stringIcSt11char_traitsIcESaIcEEESD_RKiDpT_=so_stub_for_libtelux_tel
-Wl,--defsym=_ZN5telux6common3Log10logMessageIJPKcjS4_iS4_iS4_PcS4_iEEEvNS0_8LogLevelERKNSt7__cxx1112basic_stringIcSt11char_traitsIcESaIcEEESE_RKiDpT_=so_stub_for_libtelux_tel
-Wl,--defsym=_ZN5telux6common3Log10logMessageIJPKcjS4_jS4_jS4_jEEEvNS0_8LogLevelERKNSt7__cxx1112basic_stringIcSt11char_traitsIcESaIcEEESD_RKiDpT_=so_stub_for_libtelux_tel
-Wl,--defsym=_ZN5telux6common3Log10logMessageIJPKcNS_3tel7AppTypeEEEEvNS0_8LogLevelERKNSt7__cxx1112basic_stringIcSt11char_traitsIcESaIcEEESF_RKiDpT_=so_stub_for_libtelux_tel
-Wl,--defsym=_ZN5telux6common3Log10logMessageIJPKcNS_3tel8AppStateEEEEvNS0_8LogLevelERKNSt7__cxx1112basic_stringIcSt11char_traitsIcESaIcEEESF_RKiDpT_=so_stub_for_libtelux_tel
-Wl,--defsym=_ZN5telux6common3Log10logMessageIJPKcNS_3tel8AppStateES4_S6_EEEvNS0_8LogLevelERKNSt7__cxx1112basic_stringIcSt11char_traitsIcESaIcEEESF_RKiDpT_=so_stub_for_libtelux_tel
-Wl,--defsym=_ZN5telux6common3Log10logMessageIJPKcNSt7__cxx1112basic_stringIcSt11char_traitsIcESaIcEEEEEEvNS0_8LogLevelERKSA_SD_RKiDpT_=so_stub_for_libtelux_tel
-Wl,--defsym=_ZN5telux6common3Log10logMessageIJPKcNSt7__cxx1112basic_stringIcSt11char_traitsIcESaIcEEES4_iEEEvNS0_8LogLevelERKSA_SD_RKiDpT_=so_stub_for_libtelux_tel
-Wl,--defsym=_ZN5telux6common3Log10logMessageIJPKcNSt7__cxx1112basic_stringIcSt11char_traitsIcESaIcEEES4_iS4_iEEEvNS0_8LogLevelERKSA_SD_RKiDpT_=so_stub_for_libtelux_tel
-Wl,--defsym=_ZN5telux6common3Log10logMessageIJPKcNSt7__cxx1112basic_stringIcSt11char_traitsIcESaIcEEES4_iS4_iS4_iEEEvNS0_8LogLevelERKSA_SD_RKiDpT_=so_stub_for_libtelux_tel
-Wl,--defsym=_ZN5telux6common3Log10logMessageIJPKcNSt7__cxx1112basic_stringIcSt11char_traitsIcESaIcEEES4_jEEEvNS0_8LogLevelERKSA_SD_RKiDpT_=so_stub_for_libtelux_tel
-Wl,--defsym=_ZN5telux6common3Log10logMessageIJPKcNSt7__cxx1112basic_stringIcSt11char_traitsIcESaIcEEES4_jS4_iEEEvNS0_8LogLevelERKSA_SD_RKiDpT_=so_stub_for_libtelux_tel
-Wl,--defsym=_ZN5telux6common3Log10logMessageIJPKcNSt7__cxx1112basic_stringIcSt11char_traitsIcESaIcEEES4_SA_S4_iEEEvNS0_8LogLevelERKSA_SD_RKiDpT_=so_stub_for_libtelux_tel
-Wl,--defsym=_ZN5telux6common3Log10logMessageIJPKcPFRSt8ios_baseS6_ES4_iEEEvNS0_8LogLevelERKNSt7__cxx1112basic_stringIcSt11char_traitsIcESaIcEEESH_RKiDpT_=so_stub_for_libtelux_tel
-Wl,--defsym=_ZN5telux6common3Log10logMessageIJPKcS4_18qmi_error_type_v01EEEvNS0_8LogLevelERKNSt7__cxx1112basic_stringIcSt11char_traitsIcESaIcEEESE_RKiDpT_=so_stub_for_libtelux_tel
-Wl,--defsym=_ZN5telux6common3Log10logMessageIJPKcS4_27wms_message_format_enum_v01EEEvNS0_8LogLevelERKNSt7__cxx1112basic_stringIcSt11char_traitsIcESaIcEEESE_RKiDpT_=so_stub_for_libtelux_tel
-Wl,--defsym=_ZN5telux6common3Log10logMessageIJPKcS4_41uim_profile_download_status_enum_type_v01EEEvNS0_8LogLevelERKNSt7__cxx1112basic_stringIcSt11char_traitsIcESaIcEEESE_RKiDpT_=so_stub_for_libtelux_tel
-Wl,--defsym=_ZN5telux6common3Log10logMessageIJPKcS4_6SlotIdEEEvNS0_8LogLevelERKNSt7__cxx1112basic_stringIcSt11char_traitsIcESaIcEEESE_RKiDpT_=so_stub_for_libtelux_tel
-Wl,--defsym=_ZN5telux6common3Log10logMessageIJPKcS4_bbbbEEEvNS0_8LogLevelERKNSt7__cxx1112basic_stringIcSt11char_traitsIcESaIcEEESD_RKiDpT_=so_stub_for_libtelux_tel
-Wl,--defsym=_ZN5telux6common3Log10logMessageIJPKcS4_bEEEvNS0_8LogLevelERKNSt7__cxx1112basic_stringIcSt11char_traitsIcESaIcEEESD_RKiDpT_=so_stub_for_libtelux_tel
-Wl,--defsym=_ZN5telux6common3Log10logMessageIJPKcS4_bS4_iEEEvNS0_8LogLevelERKNSt7__cxx1112basic_stringIcSt11char_traitsIcESaIcEEESD_RKiDpT_=so_stub_for_libtelux_tel
-Wl,--defsym=_ZN5telux6common3Log10logMessageIJPKcS4_EEEvNS0_8LogLevelERKNSt7__cxx1112basic_stringIcSt11char_traitsIcESaIcEEESD_RKiDpT_=so_stub_for_libtelux_tel
-Wl,--defsym=_ZN5telux6common3Log10logMessageIJPKcS4_hEEEvNS0_8LogLevelERKNSt7__cxx1112basic_stringIcSt11char_traitsIcESaIcEEESD_RKiDpT_=so_stub_for_libtelux_tel
-Wl,--defsym=_ZN5telux6common3Log10logMessageIJPKcS4_iEEEvNS0_8LogLevelERKNSt7__cxx1112basic_stringIcSt11char_traitsIcESaIcEEESD_RKiDpT_=so_stub_for_libtelux_tel
-Wl,--defsym=_ZN5telux6common3Log10logMessageIJPKcS4_iS4_bEEEvNS0_8LogLevelERKNSt7__cxx1112basic_stringIcSt11char_traitsIcESaIcEEESD_RKiDpT_=so_stub_for_libtelux_tel
-Wl,--defsym=_ZN5telux6common3Log10logMessageIJPKcS4_iS4_EEEvNS0_8LogLevelERKNSt7__cxx1112basic_stringIcSt11char_traitsIcESaIcEEESD_RKiDpT_=so_stub_for_libtelux_tel
-Wl,--defsym=_ZN5telux6common3Log10logMessageIJPKcS4_iS4_iEEEvNS0_8LogLevelERKNSt7__cxx1112basic_stringIcSt11char_traitsIcESaIcEEESD_RKiDpT_=so_stub_for_libtelux_tel
-Wl,--defsym=_ZN5telux6common3Log10logMessageIJPKcS4_iS4_iS4_bEEEvNS0_8LogLevelERKNSt7__cxx1112basic_stringIcSt11char_traitsIcESaIcEEESD_RKiDpT_=so_stub_for_libtelux_tel
-Wl,--defsym=_ZN5telux6common3Log10logMessageIJPKcS4_iS4_iS4_iS4_bS4_bS4_iEEEvNS0_8LogLevelERKNSt7__cxx1112basic_stringIcSt11char_traitsIcESaIcEEESD_RKiDpT_=so_stub_for_libtelux_tel
-Wl,--defsym=_ZN5telux6common3Log10logMessageIJPKcS4_iS4_iS4_iS4_iEEEvNS0_8LogLevelERKNSt7__cxx1112basic_stringIcSt11char_traitsIcESaIcEEESD_RKiDpT_=so_stub_for_libtelux_tel
-Wl,--defsym=_ZN5telux6common3Log10logMessageIJPKcS4_iS4_iS4_iS4_iS4_iEEEvNS0_8LogLevelERKNSt7__cxx1112basic_stringIcSt11char_traitsIcESaIcEEESD_RKiDpT_=so_stub_for_libtelux_tel
-Wl,--defsym=_ZN5telux6common3Log10logMessageIJPKcS4_iS4_iS4_iS4_iS4_iS4_iEEEvNS0_8LogLevelERKNSt7__cxx1112basic_stringIcSt11char_traitsIcESaIcEEESD_RKiDpT_=so_stub_for_libtelux_tel
-Wl,--defsym=_ZN5telux6common3Log10logMessageIJPKcS4_iS4_iS4_iS4_iS4_iS4_iS4_St10shared_ptrINS_3tel20ICardCommandCallbackEEEEEvNS0_8LogLevelERKNSt7__cxx1112basic_stringIcSt11char_traitsIcESaIcEEESH_RKiDpT_=so_stub_for_libtelux_tel
-Wl,--defsym=_ZN5telux6common3Log10logMessageIJPKcS4_iS4_iS4_iS4_iS4_iS4_NSt7__cxx1112basic_stringIcSt11char_traitsIcESaIcEEES4_SA_EEEvNS0_8LogLevelERKSA_SD_RKiDpT_=so_stub_for_libtelux_tel
-Wl,--defsym=_ZN5telux6common3Log10logMessageIJPKcS4_iS4_iS4_NSt7__cxx1112basic_stringIcSt11char_traitsIcESaIcEEEEEEvNS0_8LogLevelERKSA_SD_RKiDpT_=so_stub_for_libtelux_tel
-Wl,--defsym=_ZN5telux6common3Log10logMessageIJPKcS4_iS4_jS4_NSt7__cxx1112basic_stringIcSt11char_traitsIcESaIcEEES4_bS4_iEEEvNS0_8LogLevelERKSA_SD_RKiDpT_=so_stub_for_libtelux_tel
-Wl,--defsym=_ZN5telux6common3Log10logMessageIJPKcS4_iS4_NSt7__cxx1112basic_stringIcSt11char_traitsIcESaIcEEEEEEvNS0_8LogLevelERKSA_SD_RKiDpT_=so_stub_for_libtelux_tel
-Wl,--defsym=_ZN5telux6common3Log10logMessageIJPKcS4_iS4_NSt7__cxx1112basic_stringIcSt11char_traitsIcESaIcEEES4_bEEEvNS0_8LogLevelERKSA_SD_RKiDpT_=so_stub_for_libtelux_tel
-Wl,--defsym=_ZN5telux6common3Log10logMessageIJPKcS4_iS4_NSt7__cxx1112basic_stringIcSt11char_traitsIcESaIcEEES4_iEEEvNS0_8LogLevelERKSA_SD_RKiDpT_=so_stub_for_libtelux_tel
-Wl,--defsym=_ZN5telux6common3Log10logMessageIJPKcS4_iS4_PNSt7__cxx1112basic_stringIcSt11char_traitsIcESaIcEEEEEEvNS0_8LogLevelERKSA_SE_RKiDpT_=so_stub_for_libtelux_tel
-Wl,--defsym=_ZN5telux6common3Log10logMessageIJPKcS4_iS4_S4_iS4_iS4_hEEEvNS0_8LogLevelERKNSt7__cxx1112basic_stringIcSt11char_traitsIcESaIcEEESD_RKiDpT_=so_stub_for_libtelux_tel
-Wl,--defsym=_ZN5telux6common3Log10logMessageIJPKcS4_iS4_S4_iS4_iS4_iS4_iS4_iEEEvNS0_8LogLevelERKNSt7__cxx1112basic_stringIcSt11char_traitsIcESaIcEEESD_RKiDpT_=so_stub_for_libtelux_tel
-Wl,--defsym=_ZN5telux6common3Log10logMessageIJPKcS4_jEEEvNS0_8LogLevelERKNSt7__cxx1112basic_stringIcSt11char_traitsIcESaIcEEESD_RKiDpT_=so_stub_for_libtelux_tel
-Wl,--defsym=_ZN5telux6common3Log10logMessageIJPKcS4_jS4_iEEEvNS0_8LogLevelERKNSt7__cxx1112basic_stringIcSt11char_traitsIcESaIcEEESD_RKiDpT_=so_stub_for_libtelux_tel
-Wl,--defsym=_ZN5telux6common3Log10logMessageIJPKcS4_jS4_iS4_EEEvNS0_8LogLevelERKNSt7__cxx1112basic_stringIcSt11char_traitsIcESaIcEEESD_RKiDpT_=so_stub_for_libtelux_tel
-Wl,--defsym=_ZN5telux6common3Log10logMessageIJPKcS4_jS4_jEEEvNS0_8LogLevelERKNSt7__cxx1112basic_stringIcSt11char_traitsIcESaIcEEESD_RKiDpT_=so_stub_for_libtelux_tel
-Wl,--defsym=_ZN5telux6common3Log10logMessageIJPKcS4_jS4_jS4_jS4_jS4_jEEEvNS0_8LogLevelERKNSt7__cxx1112basic_stringIcSt11char_traitsIcESaIcEEESD_RKiDpT_=so_stub_for_libtelux_tel
-Wl,--defsym=_ZN5telux6common3Log10logMessageIJPKcS4_jS4_NSt7__cxx1112basic_stringIcSt11char_traitsIcESaIcEEEEEEvNS0_8LogLevelERKSA_SD_RKiDpT_=so_stub_for_libtelux_tel
-Wl,--defsym=_ZN5telux6common3Log10logMessageIJPKcS4_NS_3tel18IccRefreshResponse13RefreshResultEEEEvNS0_8LogLevelERKNSt7__cxx1112basic_stringIcSt11char_traitsIcESaIcEEESG_RKiDpT_=so_stub_for_libtelux_tel
-Wl,--defsym=_ZN5telux6common3Log10logMessageIJPKcS4_NSt7__cxx1112basic_stringIcSt11char_traitsIcESaIcEEEEEEvNS0_8LogLevelERKSA_SD_RKiDpT_=so_stub_for_libtelux_tel
-Wl,--defsym=_ZN5telux6common3Log10logMessageIJPKcS4_NSt7__cxx1112basic_stringIcSt11char_traitsIcESaIcEEES4_EEEvNS0_8LogLevelERKSA_SD_RKiDpT_=so_stub_for_libtelux_tel
-Wl,--defsym=_ZN5telux6common3Log10logMessageIJPKcS4_NSt7__cxx1112basic_stringIcSt11char_traitsIcESaIcEEES4_iEEEvNS0_8LogLevelERKSA_SD_RKiDpT_=so_stub_for_libtelux_tel
-Wl,--defsym=_ZN5telux6common3Log10logMessageIJPKcS4_NSt7__cxx1112basic_stringIcSt11char_traitsIcESaIcEEES4_iS4_EEEvNS0_8LogLevelERKSA_SD_RKiDpT_=so_stub_for_libtelux_tel
-Wl,--defsym=_ZN5telux6common3Log10logMessageIJPKcS4_PFRSt8ios_baseS6_ES4_iEEEvNS0_8LogLevelERKNSt7__cxx1112basic_stringIcSt11char_traitsIcESaIcEEESH_RKiDpT_=so_stub_for_libtelux_tel
-Wl,--defsym=_ZN5telux6common3Log10logMessageIJPKcS4_S4_bS4_25RIL_RadioTechnologyFamilyEEEvNS0_8LogLevelERKNSt7__cxx1112basic_stringIcSt11char_traitsIcESaIcEEESE_RKiDpT_=so_stub_for_libtelux_tel
-Wl,--defsym=_ZN5telux6common3Log10logMessageIJPKcS4_S4_EEEvNS0_8LogLevelERKNSt7__cxx1112basic_stringIcSt11char_traitsIcESaIcEEESD_RKiDpT_=so_stub_for_libtelux_tel
-Wl,--defsym=_ZN5telux6common3Log10logMessageIJPKcS4_S4_iS4_iS4_NSt7__cxx1112basic_stringIcSt11char_traitsIcESaIcEEES4_iS4_iEEEvNS0_8LogLevelERKSA_SD_RKiDpT_=so_stub_for_libtelux_tel
-Wl,--defsym=_ZN5telux6common3Log10logMessageIJPKcS4_St6bitsetILj16EEEEEvNS0_8LogLevelERKNSt7__cxx1112basic_stringIcSt11char_traitsIcESaIcEEESF_RKiDpT_=so_stub_for_libtelux_tel
-Wl,--defsym=_ZN5telux6common3Log10logMessageIJPKcS4_tEEEvNS0_8LogLevelERKNSt7__cxx1112basic_stringIcSt11char_traitsIcESaIcEEESD_RKiDpT_=so_stub_for_libtelux_tel
-Wl,--defsym=_ZN5telux6common3Log10logMessageIJPKcS4_tS4_tS4_NSt7__cxx1112basic_stringIcSt11char_traitsIcESaIcEEEEEEvNS0_8LogLevelERKSA_SD_RKiDpT_=so_stub_for_libtelux_tel
-Wl,--defsym=_ZN5telux6common3Log10logMessageIJPKcsEEEvNS0_8LogLevelERKNSt7__cxx1112basic_stringIcSt11char_traitsIcESaIcEEESD_RKiDpT_=so_stub_for_libtelux_tel
-Wl,--defsym=_ZN5telux6common3Log10logMessageIJPKcsS4_sEEEvNS0_8LogLevelERKNSt7__cxx1112basic_stringIcSt11char_traitsIcESaIcEEESD_RKiDpT_=so_stub_for_libtelux_tel
-Wl,--defsym=_ZN5telux6common3Log10logMessageIJPKcSt10shared_ptrINS0_16ICommandCallbackEEEEEvNS0_8LogLevelERKNSt7__cxx1112basic_stringIcSt11char_traitsIcESaIcEEESG_RKiDpT_=so_stub_for_libtelux_tel
-Wl,--defsym=_ZN5telux6common3Log10logMessageIJPKcSt10shared_ptrINS_3tel11CardAppImplEEEEEvNS0_8LogLevelERKNSt7__cxx1112basic_stringIcSt11char_traitsIcESaIcEEESH_RKiDpT_=so_stub_for_libtelux_tel
-Wl,--defsym=_ZN5telux6common3Log10logMessageIJPKcSt10shared_ptrINS_3tel13ICallListenerEEEEEvNS0_8LogLevelERKNSt7__cxx1112basic_stringIcSt11char_traitsIcESaIcEEESH_RKiDpT_=so_stub_for_libtelux_tel
-Wl,--defsym=_ZN5telux6common3Log10logMessageIJPKcSt10shared_ptrINS_3tel4CallEEEEEvNS0_8LogLevelERKNSt7__cxx1112basic_stringIcSt11char_traitsIcESaIcEEESH_RKiDpT_=so_stub_for_libtelux_tel
-Wl,--defsym=_ZN5telux6common3Log10logMessageIJPKcSt10shared_ptrINS_3tel4CallEES4_EEEvNS0_8LogLevelERKNSt7__cxx1112basic_stringIcSt11char_traitsIcESaIcEEESH_RKiDpT_=so_stub_for_libtelux_tel
-Wl,--defsym=_ZN5telux6common3Log10logMessageIJPKcSt6bitsetILj16EEEEEvNS0_8LogLevelERKNSt7__cxx1112basic_stringIcSt11char_traitsIcESaIcEEESF_RKiDpT_=so_stub_for_libtelux_tel
-Wl,--defsym=_ZN5telux6common3Log10logMessageIJPKcyEEEvNS0_8LogLevelERKNSt7__cxx1112basic_stringIcSt11char_traitsIcESaIcEEESD_RKiDpT_=so_stub_for_libtelux_tel
-Wl,--defsym=_ZN5telux6common3Log16constructMessageINSt7__cxx1119basic_ostringstreamIcSt11char_traitsIcESaIcEEEbJPKciEEEvRT_T0_DpT1_=so_stub_for_libtelux_tel
-Wl,--defsym=_ZN5telux6common3Log16constructMessageINSt7__cxx1119basic_ostringstreamIcSt11char_traitsIcESaIcEEEiJPKciEEEvRT_T0_DpT1_=so_stub_for_libtelux_tel
-Wl,--defsym=_ZN5telux6common3Log16constructMessageINSt7__cxx1119basic_ostringstreamIcSt11char_traitsIcESaIcEEEiJPKciSA_bSA_bSA_iEEEvRT_T0_DpT1_=so_stub_for_libtelux_tel
-Wl,--defsym=_ZN5telux6common3Log16constructMessageINSt7__cxx1119basic_ostringstreamIcSt11char_traitsIcESaIcEEEiJPKciSA_hEEEvRT_T0_DpT1_=so_stub_for_libtelux_tel
-Wl,--defsym=_ZN5telux6common3Log16constructMessageINSt7__cxx1119basic_ostringstreamIcSt11char_traitsIcESaIcEEEiJPKciSA_iEEEvRT_T0_DpT1_=so_stub_for_libtelux_tel
-Wl,--defsym=_ZN5telux6common3Log16constructMessageINSt7__cxx1119basic_ostringstreamIcSt11char_traitsIcESaIcEEEiJPKciSA_iSA_iEEEvRT_T0_DpT1_=so_stub_for_libtelux_tel
-Wl,--defsym=_ZN5telux6common3Log16constructMessageINSt7__cxx1119basic_ostringstreamIcSt11char_traitsIcESaIcEEEiJPKciSA_iSA_iSA_iEEEvRT_T0_DpT1_=so_stub_for_libtelux_tel
-Wl,--defsym=_ZN5telux6common3Log16constructMessageINSt7__cxx1119basic_ostringstreamIcSt11char_traitsIcESaIcEEEiJPKciSA_iSA_iSA_iSA_iEEEvRT_T0_DpT1_=so_stub_for_libtelux_tel
-Wl,--defsym=_ZN5telux6common3Log16constructMessageINSt7__cxx1119basic_ostringstreamIcSt11char_traitsIcESaIcEEEiJPKciSA_iSA_iSA_iSA_iSA_St10shared_ptrINS_3tel20ICardCommandCallbackEEEEEvRT_T0_DpT1_=so_stub_for_libtelux_tel
-Wl,--defsym=_ZN5telux6common3Log16constructMessageINSt7__cxx1119basic_ostringstreamIcSt11char_traitsIcESaIcEEEiJPKciSA_iSA_iSA_iSA_NS3_12basic_stringIcS6_S7_EESA_SC_EEEvRT_T0_DpT1_=so_stub_for_libtelux_tel
-Wl,--defsym=_ZN5telux6common3Log16constructMessageINSt7__cxx1119basic_ostringstreamIcSt11char_traitsIcESaIcEEEiJPKciSA_iSA_iSA_iSA_St10shared_ptrINS_3tel20ICardCommandCallbackEEEEEvRT_T0_DpT1_=so_stub_for_libtelux_tel
-Wl,--defsym=_ZN5telux6common3Log16constructMessageINSt7__cxx1119basic_ostringstreamIcSt11char_traitsIcESaIcEEEiJPKciSA_iSA_iSA_NS3_12basic_stringIcS6_S7_EEEEEvRT_T0_DpT1_=so_stub_for_libtelux_tel
-Wl,--defsym=_ZN5telux6common3Log16constructMessageINSt7__cxx1119basic_ostringstreamIcSt11char_traitsIcESaIcEEEiJPKciSA_iSA_iSA_NS3_12basic_stringIcS6_S7_EESA_SC_EEEvRT_T0_DpT1_=so_stub_for_libtelux_tel
-Wl,--defsym=_ZN5telux6common3Log16constructMessageINSt7__cxx1119basic_ostringstreamIcSt11char_traitsIcESaIcEEEiJPKciSA_iSA_iSA_St10shared_ptrINS_3tel20ICardCommandCallbackEEEEEvRT_T0_DpT1_=so_stub_for_libtelux_tel
-Wl,--defsym=_ZN5telux6common3Log16constructMessageINSt7__cxx1119basic_ostringstreamIcSt11char_traitsIcESaIcEEEiJPKciSA_iSA_NS3_12basic_stringIcS6_S7_EEEEEvRT_T0_DpT1_=so_stub_for_libtelux_tel
-Wl,--defsym=_ZN5telux6common3Log16constructMessageINSt7__cxx1119basic_ostringstreamIcSt11char_traitsIcESaIcEEEiJPKciSA_iSA_NS3_12basic_stringIcS6_S7_EESA_SC_EEEvRT_T0_DpT1_=so_stub_for_libtelux_tel
-Wl,--defsym=_ZN5telux6common3Log16constructMessageINSt7__cxx1119basic_ostringstreamIcSt11char_traitsIcESaIcEEEiJPKciSA_iSA_St10shared_ptrINS_3tel20ICardCommandCallbackEEEEEvRT_T0_DpT1_=so_stub_for_libtelux_tel
-Wl,--defsym=_ZN5telux6common3Log16constructMessageINSt7__cxx1119basic_ostringstreamIcSt11char_traitsIcESaIcEEEiJPKciSA_NS3_12basic_stringIcS6_S7_EEEEEvRT_T0_DpT1_=so_stub_for_libtelux_tel
-Wl,--defsym=_ZN5telux6common3Log16constructMessageINSt7__cxx1119basic_ostringstreamIcSt11char_traitsIcESaIcEEEiJPKciSA_NS3_12basic_stringIcS6_S7_EESA_iSA_iEEEvRT_T0_DpT1_=so_stub_for_libtelux_tel
-Wl,--defsym=_ZN5telux6common3Log16constructMessageINSt7__cxx1119basic_ostringstreamIcSt11char_traitsIcESaIcEEEiJPKciSA_NS3_12basic_stringIcS6_S7_EESA_iSA_iSA_iSA_iSA_SC_EEEvRT_T0_DpT1_=so_stub_for_libtelux_tel
-Wl,--defsym=_ZN5telux6common3Log16constructMessageINSt7__cxx1119basic_ostringstreamIcSt11char_traitsIcESaIcEEEiJPKciSA_NS3_12basic_stringIcS6_S7_EESA_SC_EEEvRT_T0_DpT1_=so_stub_for_libtelux_tel
-Wl,--defsym=_ZN5telux6common3Log16constructMessageINSt7__cxx1119basic_ostringstreamIcSt11char_traitsIcESaIcEEEiJPKciSA_St10shared_ptrINS_3tel20ICardCommandCallbackEEEEEvRT_T0_DpT1_=so_stub_for_libtelux_tel
-Wl,--defsym=_ZN5telux6common3Log16constructMessageINSt7__cxx1119basic_ostringstreamIcSt11char_traitsIcESaIcEEEiJPKcjSA_NS3_12basic_stringIcS6_S7_EESA_bSA_iEEEvRT_T0_DpT1_=so_stub_for_libtelux_tel
-Wl,--defsym=_ZN5telux6common3Log16constructMessageINSt7__cxx1119basic_ostringstreamIcSt11char_traitsIcESaIcEEEiJPKcNS3_12basic_stringIcS6_S7_EEEEEvRT_T0_DpT1_=so_stub_for_libtelux_tel
-Wl,--defsym=_ZN5telux6common3Log16constructMessageINSt7__cxx1119basic_ostringstreamIcSt11char_traitsIcESaIcEEEiJPKcNS3_12basic_stringIcS6_S7_EESA_bEEEvRT_T0_DpT1_=so_stub_for_libtelux_tel
-Wl,--defsym=_ZN5telux6common3Log16constructMessageINSt7__cxx1119basic_ostringstreamIcSt11char_traitsIcESaIcEEEiJPKcNS3_12basic_stringIcS6_S7_EESA_iEEEvRT_T0_DpT1_=so_stub_for_libtelux_tel
-Wl,--defsym=_ZN5telux6common3Log16constructMessageINSt7__cxx1119basic_ostringstreamIcSt11char_traitsIcESaIcEEEiJPKcNS3_12basic_stringIcS6_S7_EESA_iSA_iEEEvRT_T0_DpT1_=so_stub_for_libtelux_tel
-Wl,--defsym=_ZN5telux6common3Log16constructMessageINSt7__cxx1119basic_ostringstreamIcSt11char_traitsIcESaIcEEEiJPKcNS3_12basic_stringIcS6_S7_EESA_iSA_iSA_iEEEvRT_T0_DpT1_=so_stub_for_libtelux_tel
-Wl,--defsym=_ZN5telux6common3Log16constructMessageINSt7__cxx1119basic_ostringstreamIcSt11char_traitsIcESaIcEEEiJPKcNS3_12basic_stringIcS6_S7_EESA_iSA_iSA_iSA_iSA_SC_EEEvRT_T0_DpT1_=so_stub_for_libtelux_tel
-Wl,--defsym=_ZN5telux6common3Log16constructMessageINSt7__cxx1119basic_ostringstreamIcSt11char_traitsIcESaIcEEEiJPKcNS3_12basic_stringIcS6_S7_EESA_SC_EEEvRT_T0_DpT1_=so_stub_for_libtelux_tel
-Wl,--defsym=_ZN5telux6common3Log16constructMessageINSt7__cxx1119basic_ostringstreamIcSt11char_traitsIcESaIcEEEiJPKcPcSA_iEEEvRT_T0_DpT1_=so_stub_for_libtelux_tel
-Wl,--defsym=_ZN5telux6common3Log16constructMessageINSt7__cxx1119basic_ostringstreamIcSt11char_traitsIcESaIcEEEiJPKcSA_iSA_SA_iSA_SA_iSA_SA_iEEEvRT_T0_DpT1_=so_stub_for_libtelux_tel
-Wl,--defsym=_ZN5telux6common3Log16constructMessageINSt7__cxx1119basic_ostringstreamIcSt11char_traitsIcESaIcEEEiJPKcSt10shared_ptrINS_3tel20ICardCommandCallbackEEEEEvRT_T0_DpT1_=so_stub_for_libtelux_tel
-Wl,--defsym=_ZN5telux6common3Log16constructMessageINSt7__cxx1119basic_ostringstreamIcSt11char_traitsIcESaIcEEEjJPKciSA_iSA_PcSA_iEEEvRT_T0_DpT1_=so_stub_for_libtelux_tel
-Wl,--defsym=_ZN5telux6common3Log16constructMessageINSt7__cxx1119basic_ostringstreamIcSt11char_traitsIcESaIcEEEjJPKcjSA_jSA_jEEEvRT_T0_DpT1_=so_stub_for_libtelux_tel
-Wl,--defsym=_ZN5telux6common3Log16constructMessageINSt7__cxx1119basic_ostringstreamIcSt11char_traitsIcESaIcEEEjJPKcNS3_12basic_stringIcS6_S7_EEEEEvRT_T0_DpT1_=so_stub_for_libtelux_tel
-Wl,--defsym=_ZN5telux6common3Log16constructMessageINSt7__cxx1119basic_ostringstreamIcSt11char_traitsIcESaIcEEEjJPKcNS3_12basic_stringIcS6_S7_EESA_bSA_iEEEvRT_T0_DpT1_=so_stub_for_libtelux_tel
-Wl,--defsym=_ZN5telux6common3Log16constructMessageINSt7__cxx1119basic_ostringstreamIcSt11char_traitsIcESaIcEEENS3_12basic_stringIcS6_S7_EEJPKciSC_iSC_iEEEvRT_T0_DpT1_=so_stub_for_libtelux_tel
-Wl,--defsym=_ZN5telux6common3Log16constructMessageINSt7__cxx1119basic_ostringstreamIcSt11char_traitsIcESaIcEEENS3_12basic_stringIcS6_S7_EEJPKcSA_EEEvRT_T0_DpT1_=so_stub_for_libtelux_tel
-Wl,--defsym=_ZN5telux6common3Log16constructMessageINSt7__cxx1119basic_ostringstreamIcSt11char_traitsIcESaIcEEENS3_12basic_stringIcS6_S7_EEJPKcSA_SC_iEEEvRT_T0_DpT1_=so_stub_for_libtelux_tel
-Wl,--defsym=_ZN5telux6common3Log16constructMessageINSt7__cxx1119basic_ostringstreamIcSt11char_traitsIcESaIcEEEPKcJbbbbEEEvRT_T0_DpT1_=so_stub_for_libtelux_tel
-Wl,--defsym=_ZN5telux6common3Log16constructMessageINSt7__cxx1119basic_ostringstreamIcSt11char_traitsIcESaIcEEEPKcJiSA_iSA_iSA_iSA_iSA_iSA_St10shared_ptrINS_3tel20ICardCommandCallbackEEEEEvRT_T0_DpT1_=so_stub_for_libtelux_tel
-Wl,--defsym=_ZN5telux6common3Log16constructMessageINSt7__cxx1119basic_ostringstreamIcSt11char_traitsIcESaIcEEEPKcJiSA_iSA_iSA_iSA_iSA_NS3_12basic_stringIcS6_S7_EESA_SC_EEEvRT_T0_DpT1_=so_stub_for_libtelux_tel
-Wl,--defsym=_ZN5telux6common3Log16constructMessageINSt7__cxx1119basic_ostringstreamIcSt11char_traitsIcESaIcEEEPKcJiSA_iSA_iSA_iSA_iSA_St10shared_ptrINS_3tel20ICardCommandCallbackEEEEEvRT_T0_DpT1_=so_stub_for_libtelux_tel
-Wl,--defsym=_ZN5telux6common3Log16constructMessageINSt7__cxx1119basic_ostringstreamIcSt11char_traitsIcESaIcEEEPKcJiSA_iSA_iSA_iSA_NS3_12basic_stringIcS6_S7_EEEEEvRT_T0_DpT1_=so_stub_for_libtelux_tel
-Wl,--defsym=_ZN5telux6common3Log16constructMessageINSt7__cxx1119basic_ostringstreamIcSt11char_traitsIcESaIcEEEPKcJiSA_iSA_iSA_iSA_NS3_12basic_stringIcS6_S7_EESA_SC_EEEvRT_T0_DpT1_=so_stub_for_libtelux_tel
-Wl,--defsym=_ZN5telux6common3Log16constructMessageINSt7__cxx1119basic_ostringstreamIcSt11char_traitsIcESaIcEEEPKcJiSA_iSA_iSA_iSA_St10shared_ptrINS_3tel20ICardCommandCallbackEEEEEvRT_T0_DpT1_=so_stub_for_libtelux_tel
-Wl,--defsym=_ZN5telux6common3Log16constructMessageINSt7__cxx1119basic_ostringstreamIcSt11char_traitsIcESaIcEEEPKcJiSA_iSA_iSA_NS3_12basic_stringIcS6_S7_EEEEEvRT_T0_DpT1_=so_stub_for_libtelux_tel
-Wl,--defsym=_ZN5telux6common3Log16constructMessageINSt7__cxx1119basic_ostringstreamIcSt11char_traitsIcESaIcEEEPKcJiSA_iSA_iSA_NS3_12basic_stringIcS6_S7_EESA_iSA_iSA_iEEEvRT_T0_DpT1_=so_stub_for_libtelux_tel
-Wl,--defsym=_ZN5telux6common3Log16constructMessageINSt7__cxx1119basic_ostringstreamIcSt11char_traitsIcESaIcEEEPKcJiSA_iSA_iSA_NS3_12basic_stringIcS6_S7_EESA_SC_EEEvRT_T0_DpT1_=so_stub_for_libtelux_tel
-Wl,--defsym=_ZN5telux6common3Log16constructMessageINSt7__cxx1119basic_ostringstreamIcSt11char_traitsIcESaIcEEEPKcJiSA_iSA_iSA_St10shared_ptrINS_3tel20ICardCommandCallbackEEEEEvRT_T0_DpT1_=so_stub_for_libtelux_tel
-Wl,--defsym=_ZN5telux6common3Log16constructMessageINSt7__cxx1119basic_ostringstreamIcSt11char_traitsIcESaIcEEEPKcJiSA_iSA_NS3_12basic_stringIcS6_S7_EEEEEvRT_T0_DpT1_=so_stub_for_libtelux_tel
-Wl,--defsym=_ZN5telux6common3Log16constructMessageINSt7__cxx1119basic_ostringstreamIcSt11char_traitsIcESaIcEEEPKcJiSA_iSA_NS3_12basic_stringIcS6_S7_EESA_iSA_iEEEvRT_T0_DpT1_=so_stub_for_libtelux_tel
-Wl,--defsym=_ZN5telux6common3Log16constructMessageINSt7__cxx1119basic_ostringstreamIcSt11char_traitsIcESaIcEEEPKcJiSA_iSA_NS3_12basic_stringIcS6_S7_EESA_iSA_iSA_iEEEvRT_T0_DpT1_=so_stub_for_libtelux_tel
-Wl,--defsym=_ZN5telux6common3Log16constructMessageINSt7__cxx1119basic_ostringstreamIcSt11char_traitsIcESaIcEEEPKcJiSA_iSA_NS3_12basic_stringIcS6_S7_EESA_iSA_iSA_iSA_iSA_SC_EEEvRT_T0_DpT1_=so_stub_for_libtelux_tel
-Wl,--defsym=_ZN5telux6common3Log16constructMessageINSt7__cxx1119basic_ostringstreamIcSt11char_traitsIcESaIcEEEPKcJiSA_iSA_NS3_12basic_stringIcS6_S7_EESA_SC_EEEvRT_T0_DpT1_=so_stub_for_libtelux_tel
-Wl,--defsym=_ZN5telux6common3Log16constructMessageINSt7__cxx1119basic_ostringstreamIcSt11char_traitsIcESaIcEEEPKcJiSA_iSA_St10shared_ptrINS_3tel20ICardCommandCallbackEEEEEvRT_T0_DpT1_=so_stub_for_libtelux_tel
-Wl,--defsym=_ZN5telux6common3Log16constructMessageINSt7__cxx1119basic_ostringstreamIcSt11char_traitsIcESaIcEEEPKcJiSA_jSA_NS3_12basic_stringIcS6_S7_EESA_bSA_iEEEvRT_T0_DpT1_=so_stub_for_libtelux_tel
-Wl,--defsym=_ZN5telux6common3Log16constructMessageINSt7__cxx1119basic_ostringstreamIcSt11char_traitsIcESaIcEEEPKcJiSA_NS3_12basic_stringIcS6_S7_EEEEEvRT_T0_DpT1_=so_stub_for_libtelux_tel
-Wl,--defsym=_ZN5telux6common3Log16constructMessageINSt7__cxx1119basic_ostringstreamIcSt11char_traitsIcESaIcEEEPKcJiSA_NS3_12basic_stringIcS6_S7_EESA_bEEEvRT_T0_DpT1_=so_stub_for_libtelux_tel
-Wl,--defsym=_ZN5telux6common3Log16constructMessageINSt7__cxx1119basic_ostringstreamIcSt11char_traitsIcESaIcEEEPKcJiSA_NS3_12basic_stringIcS6_S7_EESA_iEEEvRT_T0_DpT1_=so_stub_for_libtelux_tel
-Wl,--defsym=_ZN5telux6common3Log16constructMessageINSt7__cxx1119basic_ostringstreamIcSt11char_traitsIcESaIcEEEPKcJiSA_NS3_12basic_stringIcS6_S7_EESA_iSA_iEEEvRT_T0_DpT1_=so_stub_for_libtelux_tel
-Wl,--defsym=_ZN5telux6common3Log16constructMessageINSt7__cxx1119basic_ostringstreamIcSt11char_traitsIcESaIcEEEPKcJiSA_NS3_12basic_stringIcS6_S7_EESA_iSA_iSA_iEEEvRT_T0_DpT1_=so_stub_for_libtelux_tel
-Wl,--defsym=_ZN5telux6common3Log16constructMessageINSt7__cxx1119basic_ostringstreamIcSt11char_traitsIcESaIcEEEPKcJiSA_NS3_12basic_stringIcS6_S7_EESA_iSA_iSA_iSA_iSA_SC_EEEvRT_T0_DpT1_=so_stub_for_libtelux_tel
-Wl,--defsym=_ZN5telux6common3Log16constructMessageINSt7__cxx1119basic_ostringstreamIcSt11char_traitsIcESaIcEEEPKcJiSA_NS3_12basic_stringIcS6_S7_EESA_SC_EEEvRT_T0_DpT1_=so_stub_for_libtelux_tel
-Wl,--defsym=_ZN5telux6common3Log16constructMessageINSt7__cxx1119basic_ostringstreamIcSt11char_traitsIcESaIcEEEPKcJiSA_SA_iEEEvRT_T0_DpT1_=so_stub_for_libtelux_tel
-Wl,--defsym=_ZN5telux6common3Log16constructMessageINSt7__cxx1119basic_ostringstreamIcSt11char_traitsIcESaIcEEEPKcJiSA_SA_iSA_iSA_hEEEvRT_T0_DpT1_=so_stub_for_libtelux_tel
-Wl,--defsym=_ZN5telux6common3Log16constructMessageINSt7__cxx1119basic_ostringstreamIcSt11char_traitsIcESaIcEEEPKcJiSA_SA_iSA_iSA_iSA_iSA_iEEEvRT_T0_DpT1_=so_stub_for_libtelux_tel
-Wl,--defsym=_ZN5telux6common3Log16constructMessageINSt7__cxx1119basic_ostringstreamIcSt11char_traitsIcESaIcEEEPKcJiSA_SA_iSA_SA_iSA_SA_iSA_SA_iSA_SA_iEEEvRT_T0_DpT1_=so_stub_for_libtelux_tel
-Wl,--defsym=_ZN5telux6common3Log16constructMessageINSt7__cxx1119basic_ostringstreamIcSt11char_traitsIcESaIcEEEPKcJiSA_SA_iSA_SA_iSA_SA_iSA_SA_iSA_SA_iSA_SA_iSA_SA_iEEEvRT_T0_DpT1_=so_stub_for_libtelux_tel
-Wl,--defsym=_ZN5telux6common3Log16constructMessageINSt7__cxx1119basic_ostringstreamIcSt11char_traitsIcESaIcEEEPKcJiSA_SA_iSA_SA_iSA_SA_iSA_SA_iSA_SA_iSA_SA_iSA_SA_iSA_SA_iSA_SA_iEEEvRT_T0_DpT1_=so_stub_for_libtelux_tel
-Wl,--defsym=_ZN5telux6common3Log16constructMessageINSt7__cxx1119basic_ostringstreamIcSt11char_traitsIcESaIcEEEPKcJiSA_St10shared_ptrINS_3tel20ICardCommandCallbackEEEEEvRT_T0_DpT1_=so_stub_for_libtelux_tel
-Wl,--defsym=_ZN5telux6common3Log16constructMessageINSt7__cxx1119basic_ostringstreamIcSt11char_traitsIcESaIcEEEPKcJjSA_iSA_EEEvRT_T0_DpT1_=so_stub_for_libtelux_tel
-Wl,--defsym=_ZN5telux6common3Log16constructMessageINSt7__cxx1119basic_ostringstreamIcSt11char_traitsIcESaIcEEEPKcJjSA_NS3_12basic_stringIcS6_S7_EEEEEvRT_T0_DpT1_=so_stub_for_libtelux_tel
-Wl,--defsym=_ZN5telux6common3Log16constructMessageINSt7__cxx1119basic_ostringstreamIcSt11char_traitsIcESaIcEEEPKcJjSA_NS3_12basic_stringIcS6_S7_EESA_bSA_iEEEvRT_T0_DpT1_=so_stub_for_libtelux_tel
-Wl,--defsym=_ZN5telux6common3Log16constructMessageINSt7__cxx1119basic_ostringstreamIcSt11char_traitsIcESaIcEEEPKcJNS3_12basic_stringIcS6_S7_EEEEEvRT_T0_DpT1_=so_stub_for_libtelux_tel
-Wl,--defsym=_ZN5telux6common3Log16constructMessageINSt7__cxx1119basic_ostringstreamIcSt11char_traitsIcESaIcEEEPKcJNS3_12basic_stringIcS6_S7_EESA_bEEEvRT_T0_DpT1_=so_stub_for_libtelux_tel
-Wl,--defsym=_ZN5telux6common3Log16constructMessageINSt7__cxx1119basic_ostringstreamIcSt11char_traitsIcESaIcEEEPKcJNS3_12basic_stringIcS6_S7_EESA_bSA_iEEEvRT_T0_DpT1_=so_stub_for_libtelux_tel
-Wl,--defsym=_ZN5telux6common3Log16constructMessageINSt7__cxx1119basic_ostringstreamIcSt11char_traitsIcESaIcEEEPKcJNS3_12basic_stringIcS6_S7_EESA_EEEvRT_T0_DpT1_=so_stub_for_libtelux_tel
-Wl,--defsym=_ZN5telux6common3Log16constructMessageINSt7__cxx1119basic_ostringstreamIcSt11char_traitsIcESaIcEEEPKcJNS3_12basic_stringIcS6_S7_EESA_iEEEvRT_T0_DpT1_=so_stub_for_libtelux_tel
-Wl,--defsym=_ZN5telux6common3Log16constructMessageINSt7__cxx1119basic_ostringstreamIcSt11char_traitsIcESaIcEEEPKcJNS3_12basic_stringIcS6_S7_EESA_iSA_EEEvRT_T0_DpT1_=so_stub_for_libtelux_tel
-Wl,--defsym=_ZN5telux6common3Log16constructMessageINSt7__cxx1119basic_ostringstreamIcSt11char_traitsIcESaIcEEEPKcJNS3_12basic_stringIcS6_S7_EESA_iSA_iEEEvRT_T0_DpT1_=so_stub_for_libtelux_tel
-Wl,--defsym=_ZN5telux6common3Log16constructMessageINSt7__cxx1119basic_ostringstreamIcSt11char_traitsIcESaIcEEEPKcJNS3_12basic_stringIcS6_S7_EESA_iSA_iSA_iEEEvRT_T0_DpT1_=so_stub_for_libtelux_tel
-Wl,--defsym=_ZN5telux6common3Log16constructMessageINSt7__cxx1119basic_ostringstreamIcSt11char_traitsIcESaIcEEEPKcJNS3_12basic_stringIcS6_S7_EESA_iSA_iSA_iSA_iSA_SC_EEEvRT_T0_DpT1_=so_stub_for_libtelux_tel
-Wl,--defsym=_ZN5telux6common3Log16constructMessageINSt7__cxx1119basic_ostringstreamIcSt11char_traitsIcESaIcEEEPKcJNS3_12basic_stringIcS6_S7_EESA_jEEEvRT_T0_DpT1_=so_stub_for_libtelux_tel
-Wl,--defsym=_ZN5telux6common3Log16constructMessageINSt7__cxx1119basic_ostringstreamIcSt11char_traitsIcESaIcEEEPKcJNS3_12basic_stringIcS6_S7_EESA_jSA_iEEEvRT_T0_DpT1_=so_stub_for_libtelux_tel
-Wl,--defsym=_ZN5telux6common3Log16constructMessageINSt7__cxx1119basic_ostringstreamIcSt11char_traitsIcESaIcEEEPKcJNS3_12basic_stringIcS6_S7_EESA_SC_EEEvRT_T0_DpT1_=so_stub_for_libtelux_tel
-Wl,--defsym=_ZN5telux6common3Log16constructMessageINSt7__cxx1119basic_ostringstreamIcSt11char_traitsIcESaIcEEEPKcJNS3_12basic_stringIcS6_S7_EESA_SC_SA_iEEEvRT_T0_DpT1_=so_stub_for_libtelux_tel
-Wl,--defsym=_ZN5telux6common3Log16constructMessageINSt7__cxx1119basic_ostringstreamIcSt11char_traitsIcESaIcEEEPKcJSA_bSA_25RIL_RadioTechnologyFamilyEEEvRT_T0_DpT1_=so_stub_for_libtelux_tel
-Wl,--defsym=_ZN5telux6common3Log16constructMessageINSt7__cxx1119basic_ostringstreamIcSt11char_traitsIcESaIcEEEPKcJSA_iSA_bEEEvRT_T0_DpT1_=so_stub_for_libtelux_tel
-Wl,--defsym=_ZN5telux6common3Log16constructMessageINSt7__cxx1119basic_ostringstreamIcSt11char_traitsIcESaIcEEEPKcJSA_iSA_iEEEvRT_T0_DpT1_=so_stub_for_libtelux_tel
-Wl,--defsym=_ZN5telux6common3Log16constructMessageINSt7__cxx1119basic_ostringstreamIcSt11char_traitsIcESaIcEEEPKcJSA_iSA_iSA_bEEEvRT_T0_DpT1_=so_stub_for_libtelux_tel
-Wl,--defsym=_ZN5telux6common3Log16constructMessageINSt7__cxx1119basic_ostringstreamIcSt11char_traitsIcESaIcEEEPKcJSA_iSA_iSA_iSA_bSA_bSA_iEEEvRT_T0_DpT1_=so_stub_for_libtelux_tel
-Wl,--defsym=_ZN5telux6common3Log16constructMessageINSt7__cxx1119basic_ostringstreamIcSt11char_traitsIcESaIcEEEPKcJSA_iSA_iSA_iSA_iEEEvRT_T0_DpT1_=so_stub_for_libtelux_tel
-Wl,--defsym=_ZN5telux6common3Log16constructMessageINSt7__cxx1119basic_ostringstreamIcSt11char_traitsIcESaIcEEEPKcJSA_iSA_iSA_iSA_iSA_iEEEvRT_T0_DpT1_=so_stub_for_libtelux_tel
-Wl,--defsym=_ZN5telux6common3Log16constructMessageINSt7__cxx1119basic_ostringstreamIcSt11char_traitsIcESaIcEEEPKcJSA_iSA_iSA_iSA_iSA_iSA_iEEEvRT_T0_DpT1_=so_stub_for_libtelux_tel
-Wl,--defsym=_ZN5telux6common3Log16constructMessageINSt7__cxx1119basic_ostringstreamIcSt11char_traitsIcESaIcEEEPKcJSA_iSA_iSA_iSA_iSA_iSA_iSA_St10shared_ptrINS_3tel20ICardCommandCallbackEEEEEvRT_T0_DpT1_=so_stub_for_libtelux_tel
-Wl,--defsym=_ZN5telux6common3Log16constructMessageINSt7__cxx1119basic_ostringstreamIcSt11char_traitsIcESaIcEEEPKcJSA_iSA_iSA_iSA_iSA_iSA_NS3_12basic_stringIcS6_S7_EESA_SC_EEEvRT_T0_DpT1_=so_stub_for_libtelux_tel
-Wl,--defsym=_ZN5telux6common3Log16constructMessageINSt7__cxx1119basic_ostringstreamIcSt11char_traitsIcESaIcEEEPKcJSA_iSA_iSA_NS3_12basic_stringIcS6_S7_EEEEEvRT_T0_DpT1_=so_stub_for_libtelux_tel
-Wl,--defsym=_ZN5telux6common3Log16constructMessageINSt7__cxx1119basic_ostringstreamIcSt11char_traitsIcESaIcEEEPKcJSA_iSA_iSA_NS3_12basic_stringIcS6_S7_EESA_iSA_iEEEvRT_T0_DpT1_=so_stub_for_libtelux_tel
-Wl,--defsym=_ZN5telux6common3Log16constructMessageINSt7__cxx1119basic_ostringstreamIcSt11char_traitsIcESaIcEEEPKcJSA_iSA_jSA_NS3_12basic_stringIcS6_S7_EESA_bSA_iEEEvRT_T0_DpT1_=so_stub_for_libtelux_tel
-Wl,--defsym=_ZN5telux6common3Log16constructMessageINSt7__cxx1119basic_ostringstreamIcSt11char_traitsIcESaIcEEEPKcJSA_iSA_NS3_12basic_stringIcS6_S7_EEEEEvRT_T0_DpT1_=so_stub_for_libtelux_tel
-Wl,--defsym=_ZN5telux6common3Log16constructMessageINSt7__cxx1119basic_ostringstreamIcSt11char_traitsIcESaIcEEEPKcJSA_iSA_NS3_12basic_stringIcS6_S7_EESA_bEEEvRT_T0_DpT1_=so_stub_for_libtelux_tel
-Wl,--defsym=_ZN5telux6common3Log16constructMessageINSt7__cxx1119basic_ostringstreamIcSt11char_traitsIcESaIcEEEPKcJSA_iSA_NS3_12basic_stringIcS6_S7_EESA_iEEEvRT_T0_DpT1_=so_stub_for_libtelux_tel
-Wl,--defsym=_ZN5telux6common3Log16constructMessageINSt7__cxx1119basic_ostringstreamIcSt11char_traitsIcESaIcEEEPKcJSA_iSA_PNS3_12basic_stringIcS6_S7_EEEEEvRT_T0_DpT1_=so_stub_for_libtelux_tel
-Wl,--defsym=_ZN5telux6common3Log16constructMessageINSt7__cxx1119basic_ostringstreamIcSt11char_traitsIcESaIcEEEPKcJSA_iSA_SA_iSA_SA_iEEEvRT_T0_DpT1_=so_stub_for_libtelux_tel
-Wl,--defsym=_ZN5telux6common3Log16constructMessageINSt7__cxx1119basic_ostringstreamIcSt11char_traitsIcESaIcEEEPKcJSA_iSA_SA_iSA_SA_iSA_SA_iSA_SA_iSA_SA_iSA_SA_iSA_SA_iSA_SA_iEEEvRT_T0_DpT1_=so_stub_for_libtelux_tel
-Wl,--defsym=_ZN5telux6common3Log16constructMessageINSt7__cxx1119basic_ostringstreamIcSt11char_traitsIcESaIcEEEPKcJSA_jSA_iEEEvRT_T0_DpT1_=so_stub_for_libtelux_tel
-Wl,--defsym=_ZN5telux6common3Log16constructMessageINSt7__cxx1119basic_ostringstreamIcSt11char_traitsIcESaIcEEEPKcJSA_jSA_jEEEvRT_T0_DpT1_=so_stub_for_libtelux_tel
-Wl,--defsym=_ZN5telux6common3Log16constructMessageINSt7__cxx1119basic_ostringstreamIcSt11char_traitsIcESaIcEEEPKcJSA_jSA_jSA_jSA_jSA_jEEEvRT_T0_DpT1_=so_stub_for_libtelux_tel
-Wl,--defsym=_ZN5telux6common3Log16constructMessageINSt7__cxx1119basic_ostringstreamIcSt11char_traitsIcESaIcEEEPKcJSA_jSA_NS3_12basic_stringIcS6_S7_EEEEEvRT_T0_DpT1_=so_stub_for_libtelux_tel
-Wl,--defsym=_ZN5telux6common3Log16constructMessageINSt7__cxx1119basic_ostringstreamIcSt11char_traitsIcESaIcEEEPKcJSA_NS3_12basic_stringIcS6_S7_EEEEEvRT_T0_DpT1_=so_stub_for_libtelux_tel
-Wl,--defsym=_ZN5telux6common3Log16constructMessageINSt7__cxx1119basic_ostringstreamIcSt11char_traitsIcESaIcEEEPKcJSA_NS3_12basic_stringIcS6_S7_EESA_EEEvRT_T0_DpT1_=so_stub_for_libtelux_tel
-Wl,--defsym=_ZN5telux6common3Log16constructMessageINSt7__cxx1119basic_ostringstreamIcSt11char_traitsIcESaIcEEEPKcJSA_NS3_12basic_stringIcS6_S7_EESA_iEEEvRT_T0_DpT1_=so_stub_for_libtelux_tel
-Wl,--defsym=_ZN5telux6common3Log16constructMessageINSt7__cxx1119basic_ostringstreamIcSt11char_traitsIcESaIcEEEPKcJSA_NS3_12basic_stringIcS6_S7_EESA_iSA_EEEvRT_T0_DpT1_=so_stub_for_libtelux_tel
-Wl,--defsym=_ZN5telux6common3Log16constructMessageINSt7__cxx1119basic_ostringstreamIcSt11char_traitsIcESaIcEEEPKcJSA_SA_iSA_iSA_NS3_12basic_stringIcS6_S7_EESA_iSA_iEEEvRT_T0_DpT1_=so_stub_for_libtelux_tel
-Wl,--defsym=_ZN5telux6common3Log16constructMessageINSt7__cxx1119basic_ostringstreamIcSt11char_traitsIcESaIcEEEPKcJSA_tSA_tSA_NS3_12basic_stringIcS6_S7_EEEEEvRT_T0_DpT1_=so_stub_for_libtelux_tel
-Wl,--defsym=_ZN5telux6common3Log16constructMessageINSt7__cxx1119basic_ostringstreamIcSt11char_traitsIcESaIcEEEPKcJSt10shared_ptrINS0_16ICommandCallbackEEEEEvRT_T0_DpT1_=so_stub_for_libtelux_tel
-Wl,--defsym=_ZN5telux6common3Log16constructMessageINSt7__cxx1119basic_ostringstreamIcSt11char_traitsIcESaIcEEEPKcJSt10shared_ptrINS_3tel11CardAppImplEEEEEvRT_T0_DpT1_=so_stub_for_libtelux_tel
-Wl,--defsym=_ZN5telux6common3Log16constructMessageINSt7__cxx1119basic_ostringstreamIcSt11char_traitsIcESaIcEEEPKcJSt10shared_ptrINS_3tel13ICallListenerEEEEEvRT_T0_DpT1_=so_stub_for_libtelux_tel
-Wl,--defsym=_ZN5telux6common3Log16constructMessageINSt7__cxx1119basic_ostringstreamIcSt11char_traitsIcESaIcEEEPKcJSt10shared_ptrINS_3tel20ICardCommandCallbackEEEEEvRT_T0_DpT1_=so_stub_for_libtelux_tel
-Wl,--defsym=_ZN5telux6common3Log16constructMessageINSt7__cxx1119basic_ostringstreamIcSt11char_traitsIcESaIcEEEPKcJSt10shared_ptrINS_3tel4CallEEEEEvRT_T0_DpT1_=so_stub_for_libtelux_tel
-Wl,--defsym=_ZN5telux6common3Log16constructMessageINSt7__cxx1119basic_ostringstreamIcSt11char_traitsIcESaIcEEEPKcJSt10shared_ptrINS_3tel4CallEESA_EEEvRT_T0_DpT1_=so_stub_for_libtelux_tel
-Wl,--defsym=_ZN5telux6common3Log16constructMessageINSt7__cxx1119basic_ostringstreamIcSt11char_traitsIcESaIcEEEPKcJtSA_NS3_12basic_stringIcS6_S7_EEEEEvRT_T0_DpT1_=so_stub_for_libtelux_tel
-Wl,--defsym=_ZN5telux6common3Log16constructMessageINSt7__cxx1119basic_ostringstreamIcSt11char_traitsIcESaIcEEEPKcJtSA_tSA_NS3_12basic_stringIcS6_S7_EEEEEvRT_T0_DpT1_=so_stub_for_libtelux_tel
-Wl,--defsym=_ZN5telux6common3Log16constructMessageINSt7__cxx1119basic_ostringstreamIcSt11char_traitsIcESaIcEEEtJPKcNS3_12basic_stringIcS6_S7_EEEEEvRT_T0_DpT1_=so_stub_for_libtelux_tel
-Wl,--defsym=_ZN5telux6common3Log16constructMessageINSt7__cxx1119basic_ostringstreamIcSt11char_traitsIcESaIcEEEtJPKctSA_NS3_12basic_stringIcS6_S7_EEEEEvRT_T0_DpT1_=so_stub_for_libtelux_tel
-Wl,--defsym=_ZN5telux6common6Result6createEiPvjiSt10shared_ptrINS0_16ICommandCallbackEEi=so_stub_for_libtelux_tel
-Wl,--defsym=_ZN9__gnu_cxx12__to_xstringINSt7__cxx1112basic_stringIcSt11char_traitsIcESaIcEEEcEET_PFiPT0_jPKS8_St9__va_listEjSB_z=so_stub_for_libtelux_tel
-Wl,--defsym=_ZN9__gnu_cxx13new_allocatorIN5telux3tel10SimProfileEE9constructIS3_JRiRNS2_11ProfileTypeERNSt7__cxx1112basic_stringIcSt11char_traitsIcESaIcEEER26uim_profile_state_type_v01SF_SF_SF_NS2_8IconTypeERSt6vectorIhSaIhEENS2_12ProfileClassESt6bitsetILj16EEEEEvPT_DpOT0_=so_stub_for_libtelux_tel
-Wl,--defsym=_ZN9__gnu_cxx13new_allocatorIN5telux3tel10SmsMessageEE9constructIS3_JRNSt7__cxx1112basic_stringIcSt11char_traitsIcESaIcEEESC_SC_RNS2_11SmsEncodingESC_EEEvPT_DpOT0_=so_stub_for_libtelux_tel
-Wl,--defsym=_ZN9__gnu_cxx13new_allocatorIN5telux3tel14SignalStrengthEE9constructIS3_JDnDnDnDnDnDnEEEvPT_DpOT0_=so_stub_for_libtelux_tel
-Wl,--defsym=_ZN9__gnu_cxx13new_allocatorIN5telux3tel14SignalStrengthEE9constructIS3_JDnDnDnDnRSt10shared_ptrINS2_25TdscdmaSignalStrengthInfoEEDnEEEvPT_DpOT0_=so_stub_for_libtelux_tel
-Wl,--defsym=_ZN9__gnu_cxx13new_allocatorIN5telux3tel14SignalStrengthEE9constructIS3_JDnDnDnRSt10shared_ptrINS2_23WcdmaSignalStrengthInfoEEDnDnEEEvPT_DpOT0_=so_stub_for_libtelux_tel
-Wl,--defsym=_ZN9__gnu_cxx13new_allocatorIN5telux3tel14SignalStrengthEE9constructIS3_JDnDnRSt10shared_ptrINS2_22CdmaSignalStrengthInfoEEDnDnDnEEEvPT_DpOT0_=so_stub_for_libtelux_tel
-Wl,--defsym=_ZN9__gnu_cxx13new_allocatorIN5telux3tel14SignalStrengthEE9constructIS3_JDnRSt10shared_ptrINS2_21GsmSignalStrengthInfoEEDnDnDnDnEEEvPT_DpOT0_=so_stub_for_libtelux_tel
-Wl,--defsym=_ZN9__gnu_cxx13new_allocatorIN5telux3tel14SignalStrengthEE9constructIS3_JRSt10shared_ptrINS2_21LteSignalStrengthInfoEEDnDnDnDnDnEEEvPT_DpOT0_=so_stub_for_libtelux_tel
-Wl,--defsym=_ZN9__gnu_cxx13new_allocatorIN5telux3tel14SignalStrengthEE9constructIS3_JRSt10shared_ptrINS2_21LteSignalStrengthInfoEERS6_INS2_21GsmSignalStrengthInfoEERS6_INS2_22CdmaSignalStrengthInfoEERS6_INS2_23WcdmaSignalStrengthInfoEERS6_INS2_25TdscdmaSignalStrengthInfoEERS6_INS2_22Nr5gSignalStrengthInfoEEEEEvPT_DpOT0_=so_stub_for_libtelux_tel
-Wl,--defsym=_ZN9__gnu_cxx13new_allocatorIN5telux3tel16SubscriptionImplEE9constructIS3_JRiRNSt7__cxx1112basic_stringIcSt11char_traitsIcESaIcEEESD_SD_S6_S6_SD_SD_EEEvPT_DpOT0_=so_stub_for_libtelux_tel
-Wl,--defsym=_ZN9__gnu_cxx13new_allocatorIN5telux3tel20CellBroadcastMessageEE9constructIS3_JRNS2_11MessageTypeERSt10shared_ptrINS2_8EtwsInfoEERS8_INS2_8CmasInfoEEEEEvPT_DpOT0_=so_stub_for_libtelux_tel
-Wl,--defsym=_ZN9__gnu_cxx13new_allocatorIN5telux3tel3ril6SocketEE9constructIS4_JRA8_KcSt10shared_ptrINS3_3Ril14SocketListenerEEEEEvPT_DpOT0_=so_stub_for_libtelux_tel
-Wl,--defsym=_ZN9__gnu_cxx13new_allocatorIN5telux3tel3ril6SocketEE9constructIS4_JRA9_KcSt10shared_ptrINS3_3Ril14SocketListenerEEEEEvPT_DpOT0_=so_stub_for_libtelux_tel
-Wl,--defsym=_ZN9__gnu_cxx13new_allocatorIN5telux3tel3ril7RequestEE9constructIS4_JiRSt10shared_ptrINS1_6common15ResponseHandlerEEEEEvPT_DpOT0_=so_stub_for_libtelux_tel
-Wl,--defsym=_ZN9__gnu_cxx13new_allocatorIN5telux3tel3ril7RequestEE9constructIS4_JiRSt10shared_ptrINS1_6common15ResponseHandlerEEiDnDnRiEEEvPT_DpOT0_=so_stub_for_libtelux_tel
-Wl,--defsym=_ZN9__gnu_cxx13new_allocatorIN5telux3tel3ril7RequestEE9constructIS4_JiRSt10shared_ptrINS1_6common15ResponseHandlerEERiDnDnSC_EEEvPT_DpOT0_=so_stub_for_libtelux_tel
-Wl,--defsym=_ZN9__gnu_cxx13new_allocatorIN5telux3tel3ril7RequestEE9constructIS4_JiRSt10shared_ptrINS1_6common15ResponseHandlerEERiEEEvPT_DpOT0_=so_stub_for_libtelux_tel
-Wl,--defsym=_ZN9__gnu_cxx13new_allocatorIN5telux3tel3ril7RequestEE9constructIS4_JiRSt10shared_ptrINS1_6common15ResponseHandlerEERiRS7_INS8_16ICommandCallbackEEDnSC_EEEvPT_DpOT0_=so_stub_for_libtelux_tel
-Wl,--defsym=_ZN9__gnu_cxx13new_allocatorIN5telux3tel3ril7RequestEE9constructIS4_JiRSt10shared_ptrINS1_6common15ResponseHandlerEERiRS7_INS8_16ICommandCallbackEEEEEvPT_DpOT0_=so_stub_for_libtelux_tel
-Wl,--defsym=_ZN9__gnu_cxx13new_allocatorIN5telux3tel3ril7RequestEE9constructIS4_JiRSt10shared_ptrINS1_6common15ResponseHandlerEERiRS7_INS8_16ICommandCallbackEERPvSC_EEEvPT_DpOT0_=so_stub_for_libtelux_tel
-Wl,--defsym=_ZN9__gnu_cxx13new_allocatorIN5telux3tel8CmasInfoEE9constructIS3_JNS2_17GeographicalScopeEjjRNSt7__cxx1112basic_stringIcSt11char_traitsIcESaIcEEESD_RNS2_15MessagePriorityENS2_16CmasMessageClassENS2_12CmasSeverityENS2_11CmasUrgencyENS2_13CmasCertaintyEEEEvPT_DpOT0_=so_stub_for_libtelux_tel
-Wl,--defsym=_ZN9__gnu_cxx13new_allocatorIN5telux3tel8EtwsInfoEE9constructIS3_JNS2_17GeographicalScopeEjjRNSt7__cxx1112basic_stringIcSt11char_traitsIcESaIcEEESD_RNS2_15MessagePriorityENS2_15EtwsWarningTypeEbbbRSt6vectorIhSaIhEEEEEvPT_DpOT0_=so_stub_for_libtelux_tel
-Wl,--defsym=_ZN9__gnu_cxx13new_allocatorIN5telux3tel8EtwsInfoEE9constructIS3_JRNS2_17GeographicalScopeERiS8_RA1_KcNSt7__cxx1112basic_stringIcSt11char_traitsIcESaIcEEENS2_15MessagePriorityERNS2_15EtwsWarningTypeERbSL_bRSt6vectorIhSaIhEEEEEvPT_DpOT0_=so_stub_for_libtelux_tel
-Wl,--defsym=_ZN9__gnu_cxx5__ops10_Iter_predIZN5telux6common15ListenerManagerINS2_3tel12ISmsListenerEE16registerListenerESt8weak_ptrIS6_EEUlS9_E_EclINS_17__normal_iteratorIPS9_St6vectorIS9_SaIS9_EEEEEEbT_=so_stub_for_libtelux_tel
-Wl,--defsym=_ZN9__gnu_cxx5__ops10_Iter_predIZN5telux6common15ListenerManagerINS2_3tel13ICallListenerEE16registerListenerESt8weak_ptrIS6_EEUlS9_E_EclINS_17__normal_iteratorIPS9_St6vectorIS9_SaIS9_EEEEEEbT_=so_stub_for_libtelux_tel
-Wl,--defsym=_ZN9__gnu_cxx5__ops10_Iter_predIZN5telux6common15ListenerManagerINS2_3tel13ICardListenerEE16registerListenerESt8weak_ptrIS6_EEUlS9_E_EclINS_17__normal_iteratorIPS9_St6vectorIS9_SaIS9_EEEEEEbT_=so_stub_for_libtelux_tel
-Wl,--defsym=_ZN9__gnu_cxx5__ops10_Iter_predIZN5telux6common15ListenerManagerINS2_3tel14IPhoneListenerEE16registerListenerESt8weak_ptrIS6_EEUlS9_E_EclINS_17__normal_iteratorIPS9_St6vectorIS9_SaIS9_EEEEEEbT_=so_stub_for_libtelux_tel
-Wl,--defsym=_ZN9__gnu_cxx5__ops10_Iter_predIZN5telux6common15ListenerManagerINS2_3tel16ISapCardListenerEE16registerListenerESt8weak_ptrIS6_EEUlS9_E_EclINS_17__normal_iteratorIPS9_St6vectorIS9_SaIS9_EEEEEEbT_=so_stub_for_libtelux_tel
-Wl,--defsym=_ZN9__gnu_cxx5__ops10_Iter_predIZN5telux6common15ListenerManagerINS2_3tel17IMultiSimListenerEE16registerListenerESt8weak_ptrIS6_EEUlS9_E_EclINS_17__normal_iteratorIPS9_St6vectorIS9_SaIS9_EEEEEEbT_=so_stub_for_libtelux_tel
-Wl,--defsym=_ZN9__gnu_cxx5__ops10_Iter_predIZN5telux6common15ListenerManagerINS2_3tel18IRemoteSimListenerEE16registerListenerESt8weak_ptrIS6_EEUlS9_E_EclINS_17__normal_iteratorIPS9_St6vectorIS9_SaIS9_EEEEEEbT_=so_stub_for_libtelux_tel
-Wl,--defsym=_ZN9__gnu_cxx5__ops10_Iter_predIZN5telux6common15ListenerManagerINS2_3tel19ISimProfileListenerEE16registerListenerESt8weak_ptrIS6_EEUlS9_E_EclINS_17__normal_iteratorIPS9_St6vectorIS9_SaIS9_EEEEEEbT_=so_stub_for_libtelux_tel
-Wl,--defsym=_ZN9__gnu_cxx5__ops10_Iter_predIZN5telux6common15ListenerManagerINS2_3tel21ISubscriptionListenerEE16registerListenerESt8weak_ptrIS6_EEUlS9_E_EclINS_17__normal_iteratorIPS9_St6vectorIS9_SaIS9_EEEEEEbT_=so_stub_for_libtelux_tel
-Wl,--defsym=_ZN9__gnu_cxx5__ops10_Iter_predIZN5telux6common15ListenerManagerINS2_3tel22ICellBroadcastListenerEE16registerListenerESt8weak_ptrIS6_EEUlS9_E_EclINS_17__normal_iteratorIPS9_St6vectorIS9_SaIS9_EEEEEEbT_=so_stub_for_libtelux_tel
-Wl,--defsym=_ZN9__gnu_cxx5__ops10_Iter_predIZN5telux6common15ListenerManagerINS2_3tel22IServingSystemListenerEE16registerListenerESt8weak_ptrIS6_EEUlS9_E_EclINS_17__normal_iteratorIPS9_St6vectorIS9_SaIS9_EEEEEEbT_=so_stub_for_libtelux_tel
-Wl,--defsym=_ZN9__gnu_cxx5__ops10_Iter_predIZN5telux6common15ListenerManagerINS2_3tel25INetworkSelectionListenerEE16registerListenerESt8weak_ptrIS6_EEUlS9_E_EclINS_17__normal_iteratorIPS9_St6vectorIS9_SaIS9_EEEEEEbT_=so_stub_for_libtelux_tel
-Wl,--defsym=_ZN9__gnu_cxx5__ops10_Iter_predIZN5telux6common15ListenerManagerINS2_3tel3ril12IRilListenerEE16registerListenerESt8weak_ptrIS7_EEUlSA_E_EclINS_17__normal_iteratorIPSA_St6vectorISA_SaISA_EEEEEEbT_=so_stub_for_libtelux_tel
-Wl,--defsym=_ZN9__gnu_cxx6__stoaIlicJiEEET0_PFT_PKT1_PPS3_DpT2_EPKcS5_PjS9_=so_stub_for_libtelux_tel
-Wl,--defsym=_ZNK17CmasCellbroadcast4dumpB5cxx11Ev=so_stub_for_libtelux_tel
-Wl,--defsym=_ZNK20GsmCmasCellbroadcast12getPageCountEv=so_stub_for_libtelux_tel
-Wl,--defsym=_ZNK20GsmCmasCellbroadcast12getPageIndexEv=so_stub_for_libtelux_tel
-Wl,--defsym=_ZNK20GsmCmasCellbroadcast12getRawBufferEv=so_stub_for_libtelux_tel
-Wl,--defsym=_ZNK20GsmCmasCellbroadcast15getSerialNumberEv=so_stub_for_libtelux_tel
-Wl,--defsym=_ZNK20GsmCmasCellbroadcast20getGeographicalScopeEv=so_stub_for_libtelux_tel
-Wl,--defsym=_ZNK20GsmCmasCellbroadcast20getMessageIdentifierEv=so_stub_for_libtelux_tel
-Wl,--defsym=_ZNK20GsmCmasCellbroadcast4dumpB5cxx11Ev=so_stub_for_libtelux_tel
-Wl,--defsym=_ZNK20GsmCmasCellbroadcast6getDcsEv=so_stub_for_libtelux_tel
-Wl,--defsym=_ZNK20GsmCmasCellbroadcast9getCbdataEv=so_stub_for_libtelux_tel
-Wl,--defsym=_ZNK21UmtsCmasCellbroadcast12getPageCountEv=so_stub_for_libtelux_tel
-Wl,--defsym=_ZNK21UmtsCmasCellbroadcast12getPageIndexEv=so_stub_for_libtelux_tel
-Wl,--defsym=_ZNK21UmtsCmasCellbroadcast12getRawBufferEv=so_stub_for_libtelux_tel
-Wl,--defsym=_ZNK21UmtsCmasCellbroadcast15getSerialNumberEv=so_stub_for_libtelux_tel
-Wl,--defsym=_ZNK21UmtsCmasCellbroadcast20getGeographicalScopeEv=so_stub_for_libtelux_tel
-Wl,--defsym=_ZNK21UmtsCmasCellbroadcast20getMessageIdentifierEv=so_stub_for_libtelux_tel
-Wl,--defsym=_ZNK21UmtsCmasCellbroadcast4dumpB5cxx11Ev=so_stub_for_libtelux_tel
-Wl,--defsym=_ZNK21UmtsCmasCellbroadcast6getDcsEv=so_stub_for_libtelux_tel
-Wl,--defsym=_ZNK21UmtsCmasCellbroadcast9getCbdataEv=so_stub_for_libtelux_tel
-Wl,--defsym=_ZNK36MultipartGsmCmasCellbroadcastHandler20translateToGsmFormatERKSt8functionIFb9RadioTechRK17CmasCellbroadcastEE=so_stub_for_libtelux_tel
-Wl,--defsym=_ZNK36MultipartGsmCmasCellbroadcastHandler22translateToWcdmaFormatERKSt8functionIFb9RadioTechRK17CmasCellbroadcastEE=so_stub_for_libtelux_tel
-Wl,--defsym=_ZNK36MultipartGsmCmasCellbroadcastHandler4dumpEv=so_stub_for_libtelux_tel
-Wl,--defsym=_ZNK36MultipartGsmCmasCellbroadcastHandler7processERKSt8functionIFb9RadioTechRK17CmasCellbroadcastEE=so_stub_for_libtelux_tel
-Wl,--defsym=_ZNK5telux3tel10SmsMessage11getEncodingEv=so_stub_for_libtelux_tel
-Wl,--defsym=_ZNK5telux3tel10SmsMessage11getReceiverB5cxx11Ev=so_stub_for_libtelux_tel
-Wl,--defsym=_ZNK5telux3tel10SmsMessage6getPduB5cxx11Ev=so_stub_for_libtelux_tel
-Wl,--defsym=_ZNK5telux3tel10SmsMessage7getTextB5cxx11Ev=so_stub_for_libtelux_tel
-Wl,--defsym=_ZNK5telux3tel10SmsMessage8toStringB5cxx11Ev=so_stub_for_libtelux_tel
-Wl,--defsym=_ZNK5telux3tel10SmsMessage9getSenderB5cxx11Ev=so_stub_for_libtelux_tel
-Wl,--defsym=_ZNK5telux3tel20CellBroadcastMessage14getMessageTypeEv=so_stub_for_libtelux_tel
-Wl,--defsym=_ZNK5telux3tel20CellBroadcastMessage18getCmasWarningInfoEv=so_stub_for_libtelux_tel
-Wl,--defsym=_ZNK5telux3tel20CellBroadcastMessage18getEtwsWarningInfoEv=so_stub_for_libtelux_tel
-Wl,--defsym=_ZNK5telux3tel21GsmSignalStrengthInfo18getGsmBitErrorRateEv=so_stub_for_libtelux_tel
-Wl,--defsym=_ZNK5telux3tel21GsmSignalStrengthInfo20getGsmSignalStrengthEv=so_stub_for_libtelux_tel
-Wl,--defsym=_ZNK5telux3tel21GsmSignalStrengthInfo6getDbmEv=so_stub_for_libtelux_tel
-Wl,--defsym=_ZNK5telux3tel21GsmSignalStrengthInfo8getLevelEv=so_stub_for_libtelux_tel
-Wl,--defsym=_ZNK5telux3tel21LteSignalStrengthInfo16getTimingAdvanceEv=so_stub_for_libtelux_tel
-Wl,--defsym=_ZNK5telux3tel21LteSignalStrengthInfo20getLteSignalStrengthEv=so_stub_for_libtelux_tel
-Wl,--defsym=_ZNK5telux3tel21LteSignalStrengthInfo24getLteReferenceSignalSnrEv=so_stub_for_libtelux_tel
-Wl,--defsym=_ZNK5telux3tel21LteSignalStrengthInfo29getLteChannelQualityIndicatorEv=so_stub_for_libtelux_tel
-Wl,--defsym=_ZNK5telux3tel21LteSignalStrengthInfo35getLteReferenceSignalReceiveQualityEv=so_stub_for_libtelux_tel
-Wl,--defsym=_ZNK5telux3tel21LteSignalStrengthInfo6getDbmEv=so_stub_for_libtelux_tel
-Wl,--defsym=_ZNK5telux3tel21LteSignalStrengthInfo8getLevelEv=so_stub_for_libtelux_tel
-Wl,--defsym=_ZNK5telux3tel22CdmaSignalStrengthInfo10getCdmaDbmEv=so_stub_for_libtelux_tel
-Wl,--defsym=_ZNK5telux3tel22CdmaSignalStrengthInfo10getEvdoDbmEv=so_stub_for_libtelux_tel
-Wl,--defsym=_ZNK5telux3tel22CdmaSignalStrengthInfo11getCdmaEcioEv=so_stub_for_libtelux_tel
-Wl,--defsym=_ZNK5telux3tel22CdmaSignalStrengthInfo11getEvdoEcioEv=so_stub_for_libtelux_tel
-Wl,--defsym=_ZNK5telux3tel22CdmaSignalStrengthInfo12getCdmaLevelEv=so_stub_for_libtelux_tel
-Wl,--defsym=_ZNK5telux3tel22CdmaSignalStrengthInfo12getEvdoLevelEv=so_stub_for_libtelux_tel
-Wl,--defsym=_ZNK5telux3tel22CdmaSignalStrengthInfo23getEvdoSignalNoiseRatioEv=so_stub_for_libtelux_tel
-Wl,--defsym=_ZNK5telux3tel22CdmaSignalStrengthInfo6getDbmEv=so_stub_for_libtelux_tel
-Wl,--defsym=_ZNK5telux3tel22CdmaSignalStrengthInfo8getLevelEv=so_stub_for_libtelux_tel
-Wl,--defsym=_ZNK5telux3tel22Nr5gSignalStrengthInfo21getReferenceSignalSnrEv=so_stub_for_libtelux_tel
-Wl,--defsym=_ZNK5telux3tel22Nr5gSignalStrengthInfo32getReferenceSignalReceiveQualityEv=so_stub_for_libtelux_tel
-Wl,--defsym=_ZNK5telux3tel22Nr5gSignalStrengthInfo6getDbmEv=so_stub_for_libtelux_tel
-Wl,--defsym=_ZNK5telux3tel22Nr5gSignalStrengthInfo8getLevelEv=so_stub_for_libtelux_tel
-Wl,--defsym=_ZNK5telux3tel23WcdmaSignalStrengthInfo15getBitErrorRateEv=so_stub_for_libtelux_tel
-Wl,--defsym=_ZNK5telux3tel23WcdmaSignalStrengthInfo17getSignalStrengthEv=so_stub_for_libtelux_tel
-Wl,--defsym=_ZNK5telux3tel23WcdmaSignalStrengthInfo6getDbmEv=so_stub_for_libtelux_tel
-Wl,--defsym=_ZNK5telux3tel23WcdmaSignalStrengthInfo8getLevelEv=so_stub_for_libtelux_tel
-Wl,--defsym=_ZNK5telux3tel25TdscdmaSignalStrengthInfo7getRscpEv=so_stub_for_libtelux_tel
-Wl,--defsym=_ZNK5telux3tel3ril6Socket7getNameB5cxx11Ev=so_stub_for_libtelux_tel
-Wl,--defsym=_ZNK5telux3tel3ril7Request12getRequestIdEv=so_stub_for_libtelux_tel
-Wl,--defsym=_ZNK5telux3tel3ril7Request9getSerialEv=so_stub_for_libtelux_tel
-Wl,--defsym=_ZNK5telux3tel5Utils19ParcelReadException4whatEv=so_stub_for_libtelux_tel
-Wl,--defsym=_ZNK5telux3tel8CmasInfo11getPriorityEv=so_stub_for_libtelux_tel
-Wl,--defsym=_ZNK5telux3tel8CmasInfo12getMessageIdEv=so_stub_for_libtelux_tel
-Wl,--defsym=_ZNK5telux3tel8CmasInfo14getMessageBodyB5cxx11Ev=so_stub_for_libtelux_tel
-Wl,--defsym=_ZNK5telux3tel8CmasInfo14getMessageCodeEv=so_stub_for_libtelux_tel
-Wl,--defsym=_ZNK5telux3tel8CmasInfo15getLanguageCodeB5cxx11Ev=so_stub_for_libtelux_tel
-Wl,--defsym=_ZNK5telux3tel8CmasInfo15getSerialNumberEv=so_stub_for_libtelux_tel
-Wl,--defsym=_ZNK5telux3tel8CmasInfo15getUpdateNumberEv=so_stub_for_libtelux_tel
-Wl,--defsym=_ZNK5telux3tel8CmasInfo20getGeographicalScopeEv=so_stub_for_libtelux_tel
-Wl,--defsym=_ZNK5telux3tel8EtwsInfo11getPriorityEv=so_stub_for_libtelux_tel
-Wl,--defsym=_ZNK5telux3tel8EtwsInfo12getMessageIdEv=so_stub_for_libtelux_tel
-Wl,--defsym=_ZNK5telux3tel8EtwsInfo14getMessageBodyB5cxx11Ev=so_stub_for_libtelux_tel
-Wl,--defsym=_ZNK5telux3tel8EtwsInfo14getMessageCodeEv=so_stub_for_libtelux_tel
-Wl,--defsym=_ZNK5telux3tel8EtwsInfo15getLanguageCodeB5cxx11Ev=so_stub_for_libtelux_tel
-Wl,--defsym=_ZNK5telux3tel8EtwsInfo15getSerialNumberEv=so_stub_for_libtelux_tel
-Wl,--defsym=_ZNK5telux3tel8EtwsInfo15getUpdateNumberEv=so_stub_for_libtelux_tel
-Wl,--defsym=_ZNK5telux3tel8EtwsInfo20getGeographicalScopeEv=so_stub_for_libtelux_tel
-Wl,--defsym=_ZNK5telux3tel9IccResult8toStringB5cxx11Ev=so_stub_for_libtelux_tel
-Wl,--defsym=_ZNKSt13__future_base13_State_baseV221_M_is_deferred_futureEv=so_stub_for_libtelux_tel
-Wl,--defsym=_ZNKSt14__basic_futureIbE13_M_get_resultEv=so_stub_for_libtelux_tel
-Wl,--defsym=_ZNKSt23__codecvt_abstract_baseIDsc11__mbstate_tE2inERS0_PKcS4_RS4_PDsS6_RS6_=so_stub_for_libtelux_tel
-Wl,--defsym=_ZNKSt23__codecvt_abstract_baseIDsc11__mbstate_tE3outERS0_PKDsS4_RS4_PcS6_RS6_=so_stub_for_libtelux_tel
-Wl,--defsym=_ZNKSt5ctypeIcE8do_widenEc=so_stub_for_libtelux_tel
-Wl,--defsym=_ZNKSt5ctypeIcE9do_narrowEcc=so_stub_for_libtelux_tel
-Wl,--defsym=_ZNKSt6bitsetILj10EE9to_stringIcSt11char_traitsIcESaIcEEENSt7__cxx1112basic_stringIT_T0_T1_EEv=so_stub_for_libtelux_tel
-Wl,--defsym=_ZNKSt6bitsetILj1EE9to_stringIcSt11char_traitsIcESaIcEEENSt7__cxx1112basic_stringIT_T0_T1_EEv=so_stub_for_libtelux_tel
-Wl,--defsym=_ZNKSt6bitsetILj32EE9to_stringIcSt11char_traitsIcESaIcEEENSt7__cxx1112basic_stringIT_T0_T1_EEv=so_stub_for_libtelux_tel
-Wl,--defsym=_ZNKSt6bitsetILj5EE9to_stringIcSt11char_traitsIcESaIcEEENSt7__cxx1112basic_stringIT_T0_T1_EEv=so_stub_for_libtelux_tel
-Wl,--defsym=_ZNKSt6bitsetILj6EE9to_stringIcSt11char_traitsIcESaIcEEENSt7__cxx1112basic_stringIT_T0_T1_EEv=so_stub_for_libtelux_tel
-Wl,--defsym=_ZNKSt6bitsetILj7EE9to_stringIcSt11char_traitsIcESaIcEEENSt7__cxx1112basic_stringIT_T0_T1_EEv=so_stub_for_libtelux_tel
-Wl,--defsym=_ZNKSt6bitsetILj8EE9to_stringIcSt11char_traitsIcESaIcEEENSt7__cxx1112basic_stringIT_T0_T1_EEv=so_stub_for_libtelux_tel
-Wl,--defsym=_ZNKSt6vectorINSt7__cxx1112basic_stringIDsSt11char_traitsIDsESaIDsEEESaIS5_EE12_M_check_lenEjPKc=so_stub_for_libtelux_tel
-Wl,--defsym=_ZNKSt6vectorISt10shared_ptrIN5telux3tel4CallEESaIS4_EE12_M_check_lenEjPKc=so_stub_for_libtelux_tel
-Wl,--defsym=_ZNKSt6vectorISt10shared_ptrIN5telux3tel8CellInfoEESaIS4_EE12_M_check_lenEjPKc=so_stub_for_libtelux_tel
-Wl,--defsym=_ZNKSt6vectorISt8weak_ptrIN5telux3tel12ISmsListenerEESaIS4_EE12_M_check_lenEjPKc=so_stub_for_libtelux_tel
-Wl,--defsym=_ZNKSt6vectorISt8weak_ptrIN5telux3tel13ICallListenerEESaIS4_EE12_M_check_lenEjPKc=so_stub_for_libtelux_tel
-Wl,--defsym=_ZNKSt6vectorISt8weak_ptrIN5telux3tel13ICardListenerEESaIS4_EE12_M_check_lenEjPKc=so_stub_for_libtelux_tel
-Wl,--defsym=_ZNKSt6vectorISt8weak_ptrIN5telux3tel14IPhoneListenerEESaIS4_EE12_M_check_lenEjPKc=so_stub_for_libtelux_tel
-Wl,--defsym=_ZNKSt6vectorISt8weak_ptrIN5telux3tel16ISapCardListenerEESaIS4_EE12_M_check_lenEjPKc=so_stub_for_libtelux_tel
-Wl,--defsym=_ZNKSt6vectorISt8weak_ptrIN5telux3tel17IMultiSimListenerEESaIS4_EE12_M_check_lenEjPKc=so_stub_for_libtelux_tel
-Wl,--defsym=_ZNKSt6vectorISt8weak_ptrIN5telux3tel18IRemoteSimListenerEESaIS4_EE12_M_check_lenEjPKc=so_stub_for_libtelux_tel
-Wl,--defsym=_ZNKSt6vectorISt8weak_ptrIN5telux3tel19ISimProfileListenerEESaIS4_EE12_M_check_lenEjPKc=so_stub_for_libtelux_tel
-Wl,--defsym=_ZNKSt6vectorISt8weak_ptrIN5telux3tel21ISubscriptionListenerEESaIS4_EE12_M_check_lenEjPKc=so_stub_for_libtelux_tel
-Wl,--defsym=_ZNKSt6vectorISt8weak_ptrIN5telux3tel22ICellBroadcastListenerEESaIS4_EE12_M_check_lenEjPKc=so_stub_for_libtelux_tel
-Wl,--defsym=_ZNKSt6vectorISt8weak_ptrIN5telux3tel22IServingSystemListenerEESaIS4_EE12_M_check_lenEjPKc=so_stub_for_libtelux_tel
-Wl,--defsym=_ZNKSt6vectorISt8weak_ptrIN5telux3tel25INetworkSelectionListenerEESaIS4_EE12_M_check_lenEjPKc=so_stub_for_libtelux_tel
-Wl,--defsym=_ZNKSt6vectorISt8weak_ptrIN5telux3tel3ril12IRilListenerEESaIS5_EE12_M_check_lenEjPKc=so_stub_for_libtelux_tel
-Wl,--defsym=_ZNKSt7__cxx1112basic_stringIDsSt11char_traitsIDsESaIDsEE6substrEjj=so_stub_for_libtelux_tel
-Wl,--defsym=_ZNKSt7__cxx1112regex_traitsIcE16lookup_classnameIPKcEENS1_10_RegexMaskET_S6_b=so_stub_for_libtelux_tel
-Wl,--defsym=_ZNKSt7__cxx1112regex_traitsIcE17transform_primaryIPKcEENS_12basic_stringIcSt11char_traitsIcESaIcEEET_SA_=so_stub_for_libtelux_tel
-Wl,--defsym=_ZNKSt7__cxx1112regex_traitsIcE18lookup_collatenameIPKcEENS_12basic_stringIcSt11char_traitsIcESaIcEEET_SA_=so_stub_for_libtelux_tel
-Wl,--defsym=_ZNKSt7__cxx1112regex_traitsIcE5valueEci=so_stub_for_libtelux_tel
-Wl,--defsym=_ZNKSt7__cxx1112regex_traitsIcE9transformIN9__gnu_cxx17__normal_iteratorIPcNS_12basic_stringIcSt11char_traitsIcESaIcEEEEEEESA_T_SC_=so_stub_for_libtelux_tel
-Wl,--defsym=_ZNKSt7__cxx1112regex_traitsIcE9transformIPcEENS_12basic_stringIcSt11char_traitsIcESaIcEEET_S9_=so_stub_for_libtelux_tel
-Wl,--defsym=_ZNKSt7__cxx1113match_resultsIN9__gnu_cxx17__normal_iteratorIPKcNS_12basic_stringIcSt11char_traitsIcESaIcEEEEESaINS_9sub_matchISA_EEEE6formatISt20back_insert_iteratorIS9_EEET_SI_S4_S4_NSt15regex_constants15match_flag_typeE=so_stub_for_libtelux_tel
-Wl,--defsym=_ZNKSt7__cxx1114regex_iteratorIN9__gnu_cxx17__normal_iteratorIPKcNS_12basic_stringIcSt11char_traitsIcESaIcEEEEEcNS_12regex_traitsIcEEEeqERKSD_=so_stub_for_libtelux_tel
-Wl,--defsym=_ZNKSt7__cxx119sub_matchIN9__gnu_cxx17__normal_iteratorIPKcNS_12basic_stringIcSt11char_traitsIcESaIcEEEEEE7compareERKSB_=so_stub_for_libtelux_tel
-Wl,--defsym=_ZNKSt8__detail11_AnyMatcherINSt7__cxx1112regex_traitsIcEELb0ELb1ELb0EEclEc=so_stub_for_libtelux_tel
-Wl,--defsym=_ZNKSt8__detail11_AnyMatcherINSt7__cxx1112regex_traitsIcEELb0ELb1ELb1EEclEc=so_stub_for_libtelux_tel
-Wl,--defsym=_ZNKSt8__detail11_AnyMatcherINSt7__cxx1112regex_traitsIcEELb1ELb1ELb0EE8_M_applyEcSt17integral_constantIbLb1EE=so_stub_for_libtelux_tel
-Wl,--defsym=_ZNKSt8__detail11_AnyMatcherINSt7__cxx1112regex_traitsIcEELb1ELb1ELb1EE8_M_applyEcSt17integral_constantIbLb1EE=so_stub_for_libtelux_tel
-Wl,--defsym=_ZNKSt8__detail20_RegexTranslatorBaseINSt7__cxx1112regex_traitsIcEELb0ELb1EE12_M_transformEc=so_stub_for_libtelux_tel
-Wl,--defsym=_ZNKSt8__detail20_RegexTranslatorBaseINSt7__cxx1112regex_traitsIcEELb1ELb0EE17_M_in_range_icaseEccc=so_stub_for_libtelux_tel
-Wl,--defsym=_ZNKSt8__detail20_RegexTranslatorBaseINSt7__cxx1112regex_traitsIcEELb1ELb1EE12_M_transformEc=so_stub_for_libtelux_tel
-Wl,--defsym=_ZNKSt8__detail20_RegexTranslatorBaseINSt7__cxx1112regex_traitsIcEELb1ELb1EE17_M_in_range_icaseEccc=so_stub_for_libtelux_tel
-Wl,--defsym=_ZNKSt8__detail9_ExecutorIN9__gnu_cxx17__normal_iteratorIPKcNSt7__cxx1112basic_stringIcSt11char_traitsIcESaIcEEEEESaINS5_9sub_matchISB_EEENS5_12regex_traitsIcEELb0EE16_M_word_boundaryEv=so_stub_for_libtelux_tel
-Wl,--defsym=_ZNKSt8__detail9_ExecutorIN9__gnu_cxx17__normal_iteratorIPKcNSt7__cxx1112basic_stringIcSt11char_traitsIcESaIcEEEEESaINS5_9sub_matchISB_EEENS5_12regex_traitsIcEELb1EE16_M_word_boundaryEv=so_stub_for_libtelux_tel
-Wl,--defsym=_ZNSt10_HashtableIiSt4pairIKiSt10shared_ptrIN5telux6common16ICommandCallbackEEESaIS7_ENSt8__detail10_Select1stESt8equal_toIiESt4hashIiENS9_18_Mod_range_hashingENS9_20_Default_ranged_hashENS9_20_Prime_rehash_policyENS9_17_Hashtable_traitsILb0ELb0ELb1EEEE13_M_rehash_auxEjSt17integral_constantIbLb1EE=so_stub_for_libtelux_tel
-Wl,--defsym=_ZNSt10_HashtableIiSt4pairIKiSt10shared_ptrIN5telux6common16ICommandCallbackEEESaIS7_ENSt8__detail10_Select1stESt8equal_toIiESt4hashIiENS9_18_Mod_range_hashingENS9_20_Default_ranged_hashENS9_20_Prime_rehash_policyENS9_17_Hashtable_traitsILb0ELb0ELb1EEEE21_M_insert_unique_nodeEjjPNS9_10_Hash_nodeIS7_Lb0EEEj=so_stub_for_libtelux_tel
-Wl,--defsym=_ZNSt10_HashtableIiSt4pairIKiSt10shared_ptrIN5telux6common16ICommandCallbackEEESaIS7_ENSt8__detail10_Select1stESt8equal_toIiESt4hashIiENS9_18_Mod_range_hashingENS9_20_Default_ranged_hashENS9_20_Prime_rehash_policyENS9_17_Hashtable_traitsILb0ELb0ELb1EEEE9_M_rehashEjRKj=so_stub_for_libtelux_tel
-Wl,--defsym=_ZNSt11__copy_moveILb1ELb0ESt26random_access_iterator_tagE8__copy_mIPSt10shared_ptrIN5telux3tel11CardAppImplEES8_EET0_T_SA_S9_=so_stub_for_libtelux_tel
-Wl,--defsym=_ZNSt11__copy_moveILb1ELb0ESt26random_access_iterator_tagE8__copy_mIPSt10shared_ptrIN5telux3tel4CallEES8_EET0_T_SA_S9_=so_stub_for_libtelux_tel
-Wl,--defsym=_ZNSt11__copy_moveILb1ELb0ESt26random_access_iterator_tagE8__copy_mIPSt13shared_futureIvES5_EET0_T_S7_S6_=so_stub_for_libtelux_tel
-Wl,--defsym=_ZNSt11__copy_moveILb1ELb0ESt26random_access_iterator_tagE8__copy_mIPSt8weak_ptrIN5telux3tel12ISmsListenerEES8_EET0_T_SA_S9_=so_stub_for_libtelux_tel
-Wl,--defsym=_ZNSt11__copy_moveILb1ELb0ESt26random_access_iterator_tagE8__copy_mIPSt8weak_ptrIN5telux3tel13ICallListenerEES8_EET0_T_SA_S9_=so_stub_for_libtelux_tel
-Wl,--defsym=_ZNSt11__copy_moveILb1ELb0ESt26random_access_iterator_tagE8__copy_mIPSt8weak_ptrIN5telux3tel13ICardListenerEES8_EET0_T_SA_S9_=so_stub_for_libtelux_tel
-Wl,--defsym=_ZNSt11__copy_moveILb1ELb0ESt26random_access_iterator_tagE8__copy_mIPSt8weak_ptrIN5telux3tel14IPhoneListenerEES8_EET0_T_SA_S9_=so_stub_for_libtelux_tel
-Wl,--defsym=_ZNSt11__copy_moveILb1ELb0ESt26random_access_iterator_tagE8__copy_mIPSt8weak_ptrIN5telux3tel16ISapCardListenerEES8_EET0_T_SA_S9_=so_stub_for_libtelux_tel
-Wl,--defsym=_ZNSt11__copy_moveILb1ELb0ESt26random_access_iterator_tagE8__copy_mIPSt8weak_ptrIN5telux3tel17IMultiSimListenerEES8_EET0_T_SA_S9_=so_stub_for_libtelux_tel
-Wl,--defsym=_ZNSt11__copy_moveILb1ELb0ESt26random_access_iterator_tagE8__copy_mIPSt8weak_ptrIN5telux3tel18IRemoteSimListenerEES8_EET0_T_SA_S9_=so_stub_for_libtelux_tel
-Wl,--defsym=_ZNSt11__copy_moveILb1ELb0ESt26random_access_iterator_tagE8__copy_mIPSt8weak_ptrIN5telux3tel19ISimProfileListenerEES8_EET0_T_SA_S9_=so_stub_for_libtelux_tel
-Wl,--defsym=_ZNSt11__copy_moveILb1ELb0ESt26random_access_iterator_tagE8__copy_mIPSt8weak_ptrIN5telux3tel21ISubscriptionListenerEES8_EET0_T_SA_S9_=so_stub_for_libtelux_tel
-Wl,--defsym=_ZNSt11__copy_moveILb1ELb0ESt26random_access_iterator_tagE8__copy_mIPSt8weak_ptrIN5telux3tel22ICellBroadcastListenerEES8_EET0_T_SA_S9_=so_stub_for_libtelux_tel
-Wl,--defsym=_ZNSt11__copy_moveILb1ELb0ESt26random_access_iterator_tagE8__copy_mIPSt8weak_ptrIN5telux3tel22IServingSystemListenerEES8_EET0_T_SA_S9_=so_stub_for_libtelux_tel
-Wl,--defsym=_ZNSt11__copy_moveILb1ELb0ESt26random_access_iterator_tagE8__copy_mIPSt8weak_ptrIN5telux3tel25INetworkSelectionListenerEES8_EET0_T_SA_S9_=so_stub_for_libtelux_tel
-Wl,--defsym=_ZNSt11__copy_moveILb1ELb0ESt26random_access_iterator_tagE8__copy_mIPSt8weak_ptrIN5telux3tel3ril12IRilListenerEES9_EET0_T_SB_SA_=so_stub_for_libtelux_tel
-Wl,--defsym=_ZNSt11_Deque_baseIlSaIlEE15_M_create_nodesEPPlS3_=so_stub_for_libtelux_tel
-Wl,--defsym=_ZNSt11_Deque_baseIlSaIlEE17_M_initialize_mapEj=so_stub_for_libtelux_tel
-Wl,--defsym=_ZNSt11_Deque_baseIlSaIlEED1Ev=so_stub_for_libtelux_tel
-Wl,--defsym=_ZNSt11_Deque_baseIlSaIlEED2Ev=so_stub_for_libtelux_tel
-Wl,--defsym=_ZNSt11_Deque_baseINSt8__detail9_StateSeqINSt7__cxx1112regex_traitsIcEEEESaIS5_EE15_M_create_nodesEPPS5_S9_=so_stub_for_libtelux_tel
-Wl,--defsym=_ZNSt11_Deque_baseINSt8__detail9_StateSeqINSt7__cxx1112regex_traitsIcEEEESaIS5_EE17_M_initialize_mapEj=so_stub_for_libtelux_tel
-Wl,--defsym=_ZNSt11_Deque_baseINSt8__detail9_StateSeqINSt7__cxx1112regex_traitsIcEEEESaIS5_EED1Ev=so_stub_for_libtelux_tel
-Wl,--defsym=_ZNSt11_Deque_baseINSt8__detail9_StateSeqINSt7__cxx1112regex_traitsIcEEEESaIS5_EED2Ev=so_stub_for_libtelux_tel
-Wl,--defsym=_ZNSt11_Deque_baseISt13shared_futureIvESaIS1_EE15_M_create_nodesEPPS1_S5_=so_stub_for_libtelux_tel
-Wl,--defsym=_ZNSt11_Deque_baseISt13shared_futureIvESaIS1_EE17_M_initialize_mapEj=so_stub_for_libtelux_tel
-Wl,--defsym=_ZNSt11_Deque_baseISt13shared_futureIvESaIS1_EED1Ev=so_stub_for_libtelux_tel
-Wl,--defsym=_ZNSt11_Deque_baseISt13shared_futureIvESaIS1_EED2Ev=so_stub_for_libtelux_tel
-Wl,--defsym=_ZNSt12future_errorC1ESt10error_code=so_stub_for_libtelux_tel
-Wl,--defsym=_ZNSt12future_errorC2ESt10error_code=so_stub_for_libtelux_tel
-Wl,--defsym=_ZNSt12__shared_ptrI6ParcelLN9__gnu_cxx12_Lock_policyE2EEC1ISaIS0_EJEEESt19_Sp_make_shared_tagRKT_DpOT0_=so_stub_for_libtelux_tel
-Wl,--defsym=_ZNSt12__shared_ptrI6ParcelLN9__gnu_cxx12_Lock_policyE2EEC2ISaIS0_EJEEESt19_Sp_make_shared_tagRKT_DpOT0_=so_stub_for_libtelux_tel
-Wl,--defsym=_ZNSt12__shared_ptrIN5telux3tel10SmsManagerELN9__gnu_cxx12_Lock_policyE2EEC1ISaIS2_EJRiEEESt19_Sp_make_shared_tagRKT_DpOT0_=so_stub_for_libtelux_tel
-Wl,--defsym=_ZNSt12__shared_ptrIN5telux3tel10SmsManagerELN9__gnu_cxx12_Lock_policyE2EEC2ISaIS2_EJRiEEESt19_Sp_make_shared_tagRKT_DpOT0_=so_stub_for_libtelux_tel
-Wl,--defsym=_ZNSt12__shared_ptrIN5telux3tel10SmsMessageELN9__gnu_cxx12_Lock_policyE2EEC1ISaIS2_EJRNSt7__cxx1112basic_stringIcSt11char_traitsIcESaIcEEESE_SE_RNS1_11SmsEncodingESE_EEESt19_Sp_make_shared_tagRKT_DpOT0_=so_stub_for_libtelux_tel
-Wl,--defsym=_ZNSt12__shared_ptrIN5telux3tel10SmsMessageELN9__gnu_cxx12_Lock_policyE2EEC2ISaIS2_EJRNSt7__cxx1112basic_stringIcSt11char_traitsIcESaIcEEESE_SE_RNS1_11SmsEncodingESE_EEESt19_Sp_make_shared_tagRKT_DpOT0_=so_stub_for_libtelux_tel
-Wl,--defsym=_ZNSt12__shared_ptrIN5telux3tel11CallManagerELN9__gnu_cxx12_Lock_policyE2EEC1ISaIS2_EJEEESt19_Sp_make_shared_tagRKT_DpOT0_=so_stub_for_libtelux_tel
-Wl,--defsym=_ZNSt12__shared_ptrIN5telux3tel11CallManagerELN9__gnu_cxx12_Lock_policyE2EEC2ISaIS2_EJEEESt19_Sp_make_shared_tagRKT_DpOT0_=so_stub_for_libtelux_tel
-Wl,--defsym=_ZNSt12__shared_ptrIN5telux3tel11CardAppImplELN9__gnu_cxx12_Lock_policyE2EEC1ISaIS2_EJRiRNS1_13CardAppStatusEEEESt19_Sp_make_shared_tagRKT_DpOT0_=so_stub_for_libtelux_tel
-Wl,--defsym=_ZNSt12__shared_ptrIN5telux3tel11CardAppImplELN9__gnu_cxx12_Lock_policyE2EEC2ISaIS2_EJRiRNS1_13CardAppStatusEEEESt19_Sp_make_shared_tagRKT_DpOT0_=so_stub_for_libtelux_tel
-Wl,--defsym=_ZNSt12__shared_ptrIN5telux3tel11GsmCellInfoELN9__gnu_cxx12_Lock_policyE2EEC1ISaIS2_EJRiRNS1_15GsmCellIdentityERNS1_21GsmSignalStrengthInfoEEEESt19_Sp_make_shared_tagRKT_DpOT0_=so_stub_for_libtelux_tel
-Wl,--defsym=_ZNSt12__shared_ptrIN5telux3tel11GsmCellInfoELN9__gnu_cxx12_Lock_policyE2EEC2ISaIS2_EJRiRNS1_15GsmCellIdentityERNS1_21GsmSignalStrengthInfoEEEESt19_Sp_make_shared_tagRKT_DpOT0_=so_stub_for_libtelux_tel
-Wl,--defsym=_ZNSt12__shared_ptrIN5telux3tel11LteCellInfoELN9__gnu_cxx12_Lock_policyE2EEC1ISaIS2_EJRiRNS1_15LteCellIdentityERNS1_21LteSignalStrengthInfoEEEESt19_Sp_make_shared_tagRKT_DpOT0_=so_stub_for_libtelux_tel
-Wl,--defsym=_ZNSt12__shared_ptrIN5telux3tel11LteCellInfoELN9__gnu_cxx12_Lock_policyE2EEC2ISaIS2_EJRiRNS1_15LteCellIdentityERNS1_21LteSignalStrengthInfoEEEESt19_Sp_make_shared_tagRKT_DpOT0_=so_stub_for_libtelux_tel
-Wl,--defsym=_ZNSt12__shared_ptrIN5telux3tel12CdmaCellInfoELN9__gnu_cxx12_Lock_policyE2EEC1ISaIS2_EJRiRNS1_16CdmaCellIdentityERNS1_22CdmaSignalStrengthInfoEEEESt19_Sp_make_shared_tagRKT_DpOT0_=so_stub_for_libtelux_tel
-Wl,--defsym=_ZNSt12__shared_ptrIN5telux3tel12CdmaCellInfoELN9__gnu_cxx12_Lock_policyE2EEC2ISaIS2_EJRiRNS1_16CdmaCellIdentityERNS1_22CdmaSignalStrengthInfoEEEESt19_Sp_make_shared_tagRKT_DpOT0_=so_stub_for_libtelux_tel
-Wl,--defsym=_ZNSt12__shared_ptrIN5telux3tel12ISmsListenerELN9__gnu_cxx12_Lock_policyE2EEC1ERKSt10__weak_ptrIS2_LS4_2EESt9nothrow_t=so_stub_for_libtelux_tel
-Wl,--defsym=_ZNSt12__shared_ptrIN5telux3tel12ISmsListenerELN9__gnu_cxx12_Lock_policyE2EEC2ERKSt10__weak_ptrIS2_LS4_2EESt9nothrow_t=so_stub_for_libtelux_tel
-Wl,--defsym=_ZNSt12__shared_ptrIN5telux3tel12PhoneManagerELN9__gnu_cxx12_Lock_policyE2EEC1ISaIS2_EJEEESt19_Sp_make_shared_tagRKT_DpOT0_=so_stub_for_libtelux_tel
-Wl,--defsym=_ZNSt12__shared_ptrIN5telux3tel12PhoneManagerELN9__gnu_cxx12_Lock_policyE2EEC2ISaIS2_EJEEESt19_Sp_make_shared_tagRKT_DpOT0_=so_stub_for_libtelux_tel
-Wl,--defsym=_ZNSt12__shared_ptrIN5telux3tel13ICallListenerELN9__gnu_cxx12_Lock_policyE2EEC1ERKSt10__weak_ptrIS2_LS4_2EESt9nothrow_t=so_stub_for_libtelux_tel
-Wl,--defsym=_ZNSt12__shared_ptrIN5telux3tel13ICallListenerELN9__gnu_cxx12_Lock_policyE2EEC2ERKSt10__weak_ptrIS2_LS4_2EESt9nothrow_t=so_stub_for_libtelux_tel
-Wl,--defsym=_ZNSt12__shared_ptrIN5telux3tel13ICardListenerELN9__gnu_cxx12_Lock_policyE2EEC1ERKSt10__weak_ptrIS2_LS4_2EESt9nothrow_t=so_stub_for_libtelux_tel
-Wl,--defsym=_ZNSt12__shared_ptrIN5telux3tel13ICardListenerELN9__gnu_cxx12_Lock_policyE2EEC2ERKSt10__weak_ptrIS2_LS4_2EESt9nothrow_t=so_stub_for_libtelux_tel
-Wl,--defsym=_ZNSt12__shared_ptrIN5telux3tel14IPhoneListenerELN9__gnu_cxx12_Lock_policyE2EEC1ERKSt10__weak_ptrIS2_LS4_2EESt9nothrow_t=so_stub_for_libtelux_tel
-Wl,--defsym=_ZNSt12__shared_ptrIN5telux3tel14IPhoneListenerELN9__gnu_cxx12_Lock_policyE2EEC2ERKSt10__weak_ptrIS2_LS4_2EESt9nothrow_t=so_stub_for_libtelux_tel
-Wl,--defsym=_ZNSt12__shared_ptrIN5telux3tel14SignalStrengthELN9__gnu_cxx12_Lock_policyE2EEC1ISaIS2_EJDnDnDnDnDnDnEEESt19_Sp_make_shared_tagRKT_DpOT0_=so_stub_for_libtelux_tel
-Wl,--defsym=_ZNSt12__shared_ptrIN5telux3tel14SignalStrengthELN9__gnu_cxx12_Lock_policyE2EEC1ISaIS2_EJDnDnDnDnRSt10shared_ptrINS1_25TdscdmaSignalStrengthInfoEEDnEEESt19_Sp_make_shared_tagRKT_DpOT0_=so_stub_for_libtelux_tel
-Wl,--defsym=_ZNSt12__shared_ptrIN5telux3tel14SignalStrengthELN9__gnu_cxx12_Lock_policyE2EEC1ISaIS2_EJDnDnDnRSt10shared_ptrINS1_23WcdmaSignalStrengthInfoEEDnDnEEESt19_Sp_make_shared_tagRKT_DpOT0_=so_stub_for_libtelux_tel
-Wl,--defsym=_ZNSt12__shared_ptrIN5telux3tel14SignalStrengthELN9__gnu_cxx12_Lock_policyE2EEC1ISaIS2_EJDnDnRSt10shared_ptrINS1_22CdmaSignalStrengthInfoEEDnDnDnEEESt19_Sp_make_shared_tagRKT_DpOT0_=so_stub_for_libtelux_tel
-Wl,--defsym=_ZNSt12__shared_ptrIN5telux3tel14SignalStrengthELN9__gnu_cxx12_Lock_policyE2EEC1ISaIS2_EJDnRSt10shared_ptrINS1_21GsmSignalStrengthInfoEEDnDnDnDnEEESt19_Sp_make_shared_tagRKT_DpOT0_=so_stub_for_libtelux_tel
-Wl,--defsym=_ZNSt12__shared_ptrIN5telux3tel14SignalStrengthELN9__gnu_cxx12_Lock_policyE2EEC1ISaIS2_EJRSt10shared_ptrINS1_21LteSignalStrengthInfoEEDnDnDnDnDnEEESt19_Sp_make_shared_tagRKT_DpOT0_=so_stub_for_libtelux_tel
-Wl,--defsym=_ZNSt12__shared_ptrIN5telux3tel14SignalStrengthELN9__gnu_cxx12_Lock_policyE2EEC1ISaIS2_EJRSt10shared_ptrINS1_21LteSignalStrengthInfoEERS8_INS1_21GsmSignalStrengthInfoEERS8_INS1_22CdmaSignalStrengthInfoEERS8_INS1_23WcdmaSignalStrengthInfoEERS8_INS1_25TdscdmaSignalStrengthInfoEERS8_INS1_22Nr5gSignalStrengthInfoEEEEESt19_Sp_make_shared_tagRKT_DpOT0_=so_stub_for_libtelux_tel
-Wl,--defsym=_ZNSt12__shared_ptrIN5telux3tel14SignalStrengthELN9__gnu_cxx12_Lock_policyE2EEC2ISaIS2_EJDnDnDnDnDnDnEEESt19_Sp_make_shared_tagRKT_DpOT0_=so_stub_for_libtelux_tel
-Wl,--defsym=_ZNSt12__shared_ptrIN5telux3tel14SignalStrengthELN9__gnu_cxx12_Lock_policyE2EEC2ISaIS2_EJDnDnDnDnRSt10shared_ptrINS1_25TdscdmaSignalStrengthInfoEEDnEEESt19_Sp_make_shared_tagRKT_DpOT0_=so_stub_for_libtelux_tel
-Wl,--defsym=_ZNSt12__shared_ptrIN5telux3tel14SignalStrengthELN9__gnu_cxx12_Lock_policyE2EEC2ISaIS2_EJDnDnDnRSt10shared_ptrINS1_23WcdmaSignalStrengthInfoEEDnDnEEESt19_Sp_make_shared_tagRKT_DpOT0_=so_stub_for_libtelux_tel
-Wl,--defsym=_ZNSt12__shared_ptrIN5telux3tel14SignalStrengthELN9__gnu_cxx12_Lock_policyE2EEC2ISaIS2_EJDnDnRSt10shared_ptrINS1_22CdmaSignalStrengthInfoEEDnDnDnEEESt19_Sp_make_shared_tagRKT_DpOT0_=so_stub_for_libtelux_tel
-Wl,--defsym=_ZNSt12__shared_ptrIN5telux3tel14SignalStrengthELN9__gnu_cxx12_Lock_policyE2EEC2ISaIS2_EJDnRSt10shared_ptrINS1_21GsmSignalStrengthInfoEEDnDnDnDnEEESt19_Sp_make_shared_tagRKT_DpOT0_=so_stub_for_libtelux_tel
-Wl,--defsym=_ZNSt12__shared_ptrIN5telux3tel14SignalStrengthELN9__gnu_cxx12_Lock_policyE2EEC2ISaIS2_EJRSt10shared_ptrINS1_21LteSignalStrengthInfoEEDnDnDnDnDnEEESt19_Sp_make_shared_tagRKT_DpOT0_=so_stub_for_libtelux_tel
-Wl,--defsym=_ZNSt12__shared_ptrIN5telux3tel14SignalStrengthELN9__gnu_cxx12_Lock_policyE2EEC2ISaIS2_EJRSt10shared_ptrINS1_21LteSignalStrengthInfoEERS8_INS1_21GsmSignalStrengthInfoEERS8_INS1_22CdmaSignalStrengthInfoEERS8_INS1_23WcdmaSignalStrengthInfoEERS8_INS1_25TdscdmaSignalStrengthInfoEERS8_INS1_22Nr5gSignalStrengthInfoEEEEESt19_Sp_make_shared_tagRKT_DpOT0_=so_stub_for_libtelux_tel
-Wl,--defsym=_ZNSt12__shared_ptrIN5telux3tel15CardManagerImplELN9__gnu_cxx12_Lock_policyE2EEC1ISaIS2_EJEEESt19_Sp_make_shared_tagRKT_DpOT0_=so_stub_for_libtelux_tel
-Wl,--defsym=_ZNSt12__shared_ptrIN5telux3tel15CardManagerImplELN9__gnu_cxx12_Lock_policyE2EEC2ISaIS2_EJEEESt19_Sp_make_shared_tagRKT_DpOT0_=so_stub_for_libtelux_tel
-Wl,--defsym=_ZNSt12__shared_ptrIN5telux3tel15MultiSimManagerELN9__gnu_cxx12_Lock_policyE2EEC1ISaIS2_EJEEESt19_Sp_make_shared_tagRKT_DpOT0_=so_stub_for_libtelux_tel
-Wl,--defsym=_ZNSt12__shared_ptrIN5telux3tel15MultiSimManagerELN9__gnu_cxx12_Lock_policyE2EEC2ISaIS2_EJEEESt19_Sp_make_shared_tagRKT_DpOT0_=so_stub_for_libtelux_tel
-Wl,--defsym=_ZNSt12__shared_ptrIN5telux3tel16ISapCardListenerELN9__gnu_cxx12_Lock_policyE2EEC1ERKSt10__weak_ptrIS2_LS4_2EESt9nothrow_t=so_stub_for_libtelux_tel
-Wl,--defsym=_ZNSt12__shared_ptrIN5telux3tel16ISapCardListenerELN9__gnu_cxx12_Lock_policyE2EEC2ERKSt10__weak_ptrIS2_LS4_2EESt9nothrow_t=so_stub_for_libtelux_tel
-Wl,--defsym=_ZNSt12__shared_ptrIN5telux3tel16RemoteSimManagerELN9__gnu_cxx12_Lock_policyE2EEC1ISaIS2_EJRiEEESt19_Sp_make_shared_tagRKT_DpOT0_=so_stub_for_libtelux_tel
-Wl,--defsym=_ZNSt12__shared_ptrIN5telux3tel16RemoteSimManagerELN9__gnu_cxx12_Lock_policyE2EEC2ISaIS2_EJRiEEESt19_Sp_make_shared_tagRKT_DpOT0_=so_stub_for_libtelux_tel
-Wl,--defsym=_ZNSt12__shared_ptrIN5telux3tel16SubscriptionImplELN9__gnu_cxx12_Lock_policyE2EEC1ISaIS2_EJRiEEESt19_Sp_make_shared_tagRKT_DpOT0_=so_stub_for_libtelux_tel
-Wl,--defsym=_ZNSt12__shared_ptrIN5telux3tel16SubscriptionImplELN9__gnu_cxx12_Lock_policyE2EEC1ISaIS2_EJRiRNSt7__cxx1112basic_stringIcSt11char_traitsIcESaIcEEESF_SF_S8_S8_SF_SF_EEESt19_Sp_make_shared_tagRKT_DpOT0_=so_stub_for_libtelux_tel
-Wl,--defsym=_ZNSt12__shared_ptrIN5telux3tel16SubscriptionImplELN9__gnu_cxx12_Lock_policyE2EEC2ISaIS2_EJRiEEESt19_Sp_make_shared_tagRKT_DpOT0_=so_stub_for_libtelux_tel
-Wl,--defsym=_ZNSt12__shared_ptrIN5telux3tel16SubscriptionImplELN9__gnu_cxx12_Lock_policyE2EEC2ISaIS2_EJRiRNSt7__cxx1112basic_stringIcSt11char_traitsIcESaIcEEESF_SF_S8_S8_SF_SF_EEESt19_Sp_make_shared_tagRKT_DpOT0_=so_stub_for_libtelux_tel
-Wl,--defsym=_ZNSt12__shared_ptrIN5telux3tel16VoiceServiceInfoELN9__gnu_cxx12_Lock_policyE2EEC1ISaIS2_EJRNS1_17VoiceServiceStateERNS1_23VoiceServiceDenialCauseEEEESt19_Sp_make_shared_tagRKT_DpOT0_=so_stub_for_libtelux_tel
-Wl,--defsym=_ZNSt12__shared_ptrIN5telux3tel16VoiceServiceInfoELN9__gnu_cxx12_Lock_policyE2EEC2ISaIS2_EJRNS1_17VoiceServiceStateERNS1_23VoiceServiceDenialCauseEEEESt19_Sp_make_shared_tagRKT_DpOT0_=so_stub_for_libtelux_tel
-Wl,--defsym=_ZNSt12__shared_ptrIN5telux3tel17IMultiSimListenerELN9__gnu_cxx12_Lock_policyE2EEC1ERKSt10__weak_ptrIS2_LS4_2EESt9nothrow_t=so_stub_for_libtelux_tel
-Wl,--defsym=_ZNSt12__shared_ptrIN5telux3tel17IMultiSimListenerELN9__gnu_cxx12_Lock_policyE2EEC2ERKSt10__weak_ptrIS2_LS4_2EESt9nothrow_t=so_stub_for_libtelux_tel
-Wl,--defsym=_ZNSt12__shared_ptrIN5telux3tel18IRemoteSimListenerELN9__gnu_cxx12_Lock_policyE2EEC1ERKSt10__weak_ptrIS2_LS4_2EESt9nothrow_t=so_stub_for_libtelux_tel
-Wl,--defsym=_ZNSt12__shared_ptrIN5telux3tel18IRemoteSimListenerELN9__gnu_cxx12_Lock_policyE2EEC2ERKSt10__weak_ptrIS2_LS4_2EESt9nothrow_t=so_stub_for_libtelux_tel
-Wl,--defsym=_ZNSt12__shared_ptrIN5telux3tel18SapCardManagerImplELN9__gnu_cxx12_Lock_policyE2EEC1ISaIS2_EJRiEEESt19_Sp_make_shared_tagRKT_DpOT0_=so_stub_for_libtelux_tel
-Wl,--defsym=_ZNSt12__shared_ptrIN5telux3tel18SapCardManagerImplELN9__gnu_cxx12_Lock_policyE2EEC2ISaIS2_EJRiEEESt19_Sp_make_shared_tagRKT_DpOT0_=so_stub_for_libtelux_tel
-Wl,--defsym=_ZNSt12__shared_ptrIN5telux3tel19ISimProfileListenerELN9__gnu_cxx12_Lock_policyE2EEC1ERKSt10__weak_ptrIS2_LS4_2EESt9nothrow_t=so_stub_for_libtelux_tel
-Wl,--defsym=_ZNSt12__shared_ptrIN5telux3tel19ISimProfileListenerELN9__gnu_cxx12_Lock_policyE2EEC2ERKSt10__weak_ptrIS2_LS4_2EESt9nothrow_t=so_stub_for_libtelux_tel
-Wl,--defsym=_ZNSt12__shared_ptrIN5telux3tel19SubscriptionManagerELN9__gnu_cxx12_Lock_policyE2EEC1ISaIS2_EJEEESt19_Sp_make_shared_tagRKT_DpOT0_=so_stub_for_libtelux_tel
-Wl,--defsym=_ZNSt12__shared_ptrIN5telux3tel19SubscriptionManagerELN9__gnu_cxx12_Lock_policyE2EEC2ISaIS2_EJEEESt19_Sp_make_shared_tagRKT_DpOT0_=so_stub_for_libtelux_tel
-Wl,--defsym=_ZNSt12__shared_ptrIN5telux3tel20CellBroadcastMessageELN9__gnu_cxx12_Lock_policyE2EEC1ISaIS2_EJRNS1_11MessageTypeERSt10shared_ptrINS1_8EtwsInfoEERSA_INS1_8CmasInfoEEEEESt19_Sp_make_shared_tagRKT_DpOT0_=so_stub_for_libtelux_tel
-Wl,--defsym=_ZNSt12__shared_ptrIN5telux3tel20CellBroadcastMessageELN9__gnu_cxx12_Lock_policyE2EEC2ISaIS2_EJRNS1_11MessageTypeERSt10shared_ptrINS1_8EtwsInfoEERSA_INS1_8CmasInfoEEEEESt19_Sp_make_shared_tagRKT_DpOT0_=so_stub_for_libtelux_tel
-Wl,--defsym=_ZNSt12__shared_ptrIN5telux3tel20ServingSystemManagerELN9__gnu_cxx12_Lock_policyE2EEC1ISaIS2_EJRiEEESt19_Sp_make_shared_tagRKT_DpOT0_=so_stub_for_libtelux_tel
-Wl,--defsym=_ZNSt12__shared_ptrIN5telux3tel20ServingSystemManagerELN9__gnu_cxx12_Lock_policyE2EEC2ISaIS2_EJRiEEESt19_Sp_make_shared_tagRKT_DpOT0_=so_stub_for_libtelux_tel
-Wl,--defsym=_ZNSt12__shared_ptrIN5telux3tel21GsmSignalStrengthInfoELN9__gnu_cxx12_Lock_policyE2EEC1ISaIS2_EJRiS8_iEEESt19_Sp_make_shared_tagRKT_DpOT0_=so_stub_for_libtelux_tel
-Wl,--defsym=_ZNSt12__shared_ptrIN5telux3tel21GsmSignalStrengthInfoELN9__gnu_cxx12_Lock_policyE2EEC1ISaIS2_EJS2_EEESt19_Sp_make_shared_tagRKT_DpOT0_=so_stub_for_libtelux_tel
-Wl,--defsym=_ZNSt12__shared_ptrIN5telux3tel21GsmSignalStrengthInfoELN9__gnu_cxx12_Lock_policyE2EEC2ISaIS2_EJRiS8_iEEESt19_Sp_make_shared_tagRKT_DpOT0_=so_stub_for_libtelux_tel
-Wl,--defsym=_ZNSt12__shared_ptrIN5telux3tel21GsmSignalStrengthInfoELN9__gnu_cxx12_Lock_policyE2EEC2ISaIS2_EJS2_EEESt19_Sp_make_shared_tagRKT_DpOT0_=so_stub_for_libtelux_tel
-Wl,--defsym=_ZNSt12__shared_ptrIN5telux3tel21ISubscriptionListenerELN9__gnu_cxx12_Lock_policyE2EEC1ERKSt10__weak_ptrIS2_LS4_2EESt9nothrow_t=so_stub_for_libtelux_tel
-Wl,--defsym=_ZNSt12__shared_ptrIN5telux3tel21ISubscriptionListenerELN9__gnu_cxx12_Lock_policyE2EEC2ERKSt10__weak_ptrIS2_LS4_2EESt9nothrow_t=so_stub_for_libtelux_tel
-Wl,--defsym=_ZNSt12__shared_ptrIN5telux3tel21LteSignalStrengthInfoELN9__gnu_cxx12_Lock_policyE2EEC1ISaIS2_EJRiiiS8_S8_S8_EEESt19_Sp_make_shared_tagRKT_DpOT0_=so_stub_for_libtelux_tel
-Wl,--defsym=_ZNSt12__shared_ptrIN5telux3tel21LteSignalStrengthInfoELN9__gnu_cxx12_Lock_policyE2EEC1ISaIS2_EJS2_EEESt19_Sp_make_shared_tagRKT_DpOT0_=so_stub_for_libtelux_tel
-Wl,--defsym=_ZNSt12__shared_ptrIN5telux3tel21LteSignalStrengthInfoELN9__gnu_cxx12_Lock_policyE2EEC2ISaIS2_EJRiiiS8_S8_S8_EEESt19_Sp_make_shared_tagRKT_DpOT0_=so_stub_for_libtelux_tel
-Wl,--defsym=_ZNSt12__shared_ptrIN5telux3tel21LteSignalStrengthInfoELN9__gnu_cxx12_Lock_policyE2EEC2ISaIS2_EJS2_EEESt19_Sp_make_shared_tagRKT_DpOT0_=so_stub_for_libtelux_tel
-Wl,--defsym=_ZNSt12__shared_ptrIN5telux3tel21SimProfileManagerImplELN9__gnu_cxx12_Lock_policyE2EEC1ISaIS2_EJEEESt19_Sp_make_shared_tagRKT_DpOT0_=so_stub_for_libtelux_tel
-Wl,--defsym=_ZNSt12__shared_ptrIN5telux3tel21SimProfileManagerImplELN9__gnu_cxx12_Lock_policyE2EEC2ISaIS2_EJEEESt19_Sp_make_shared_tagRKT_DpOT0_=so_stub_for_libtelux_tel
-Wl,--defsym=_ZNSt12__shared_ptrIN5telux3tel22CdmaSignalStrengthInfoELN9__gnu_cxx12_Lock_policyE2EEC1ISaIS2_EJiiiRiS8_EEESt19_Sp_make_shared_tagRKT_DpOT0_=so_stub_for_libtelux_tel
-Wl,--defsym=_ZNSt12__shared_ptrIN5telux3tel22CdmaSignalStrengthInfoELN9__gnu_cxx12_Lock_policyE2EEC1ISaIS2_EJS2_EEESt19_Sp_make_shared_tagRKT_DpOT0_=so_stub_for_libtelux_tel
-Wl,--defsym=_ZNSt12__shared_ptrIN5telux3tel22CdmaSignalStrengthInfoELN9__gnu_cxx12_Lock_policyE2EEC2ISaIS2_EJiiiRiS8_EEESt19_Sp_make_shared_tagRKT_DpOT0_=so_stub_for_libtelux_tel
-Wl,--defsym=_ZNSt12__shared_ptrIN5telux3tel22CdmaSignalStrengthInfoELN9__gnu_cxx12_Lock_policyE2EEC2ISaIS2_EJS2_EEESt19_Sp_make_shared_tagRKT_DpOT0_=so_stub_for_libtelux_tel
-Wl,--defsym=_ZNSt12__shared_ptrIN5telux3tel22ICellBroadcastListenerELN9__gnu_cxx12_Lock_policyE2EEC1ERKSt10__weak_ptrIS2_LS4_2EESt9nothrow_t=so_stub_for_libtelux_tel
-Wl,--defsym=_ZNSt12__shared_ptrIN5telux3tel22ICellBroadcastListenerELN9__gnu_cxx12_Lock_policyE2EEC2ERKSt10__weak_ptrIS2_LS4_2EESt9nothrow_t=so_stub_for_libtelux_tel
-Wl,--defsym=_ZNSt12__shared_ptrIN5telux3tel22IServingSystemListenerELN9__gnu_cxx12_Lock_policyE2EEC1ERKSt10__weak_ptrIS2_LS4_2EESt9nothrow_t=so_stub_for_libtelux_tel
-Wl,--defsym=_ZNSt12__shared_ptrIN5telux3tel22IServingSystemListenerELN9__gnu_cxx12_Lock_policyE2EEC2ERKSt10__weak_ptrIS2_LS4_2EESt9nothrow_t=so_stub_for_libtelux_tel
-Wl,--defsym=_ZNSt12__shared_ptrIN5telux3tel22Nr5gSignalStrengthInfoELN9__gnu_cxx12_Lock_policyE2EEC1ISaIS2_EJiiRiEEESt19_Sp_make_shared_tagRKT_DpOT0_=so_stub_for_libtelux_tel
-Wl,--defsym=_ZNSt12__shared_ptrIN5telux3tel22Nr5gSignalStrengthInfoELN9__gnu_cxx12_Lock_policyE2EEC2ISaIS2_EJiiRiEEESt19_Sp_make_shared_tagRKT_DpOT0_=so_stub_for_libtelux_tel
-Wl,--defsym=_ZNSt12__shared_ptrIN5telux3tel23NetworkSelectionManagerELN9__gnu_cxx12_Lock_policyE2EEC1ISaIS2_EJRiEEESt19_Sp_make_shared_tagRKT_DpOT0_=so_stub_for_libtelux_tel
-Wl,--defsym=_ZNSt12__shared_ptrIN5telux3tel23NetworkSelectionManagerELN9__gnu_cxx12_Lock_policyE2EEC2ISaIS2_EJRiEEESt19_Sp_make_shared_tagRKT_DpOT0_=so_stub_for_libtelux_tel
-Wl,--defsym=_ZNSt12__shared_ptrIN5telux3tel23WcdmaSignalStrengthInfoELN9__gnu_cxx12_Lock_policyE2EEC1ISaIS2_EJRiS8_EEESt19_Sp_make_shared_tagRKT_DpOT0_=so_stub_for_libtelux_tel
-Wl,--defsym=_ZNSt12__shared_ptrIN5telux3tel23WcdmaSignalStrengthInfoELN9__gnu_cxx12_Lock_policyE2EEC2ISaIS2_EJRiS8_EEESt19_Sp_make_shared_tagRKT_DpOT0_=so_stub_for_libtelux_tel
-Wl,--defsym=_ZNSt12__shared_ptrIN5telux3tel24CellBroadcastManagerImplELN9__gnu_cxx12_Lock_policyE2EEC1ISaIS2_EJR6SlotIdEEESt19_Sp_make_shared_tagRKT_DpOT0_=so_stub_for_libtelux_tel
-Wl,--defsym=_ZNSt12__shared_ptrIN5telux3tel24CellBroadcastManagerImplELN9__gnu_cxx12_Lock_policyE2EEC2ISaIS2_EJR6SlotIdEEESt19_Sp_make_shared_tagRKT_DpOT0_=so_stub_for_libtelux_tel
-Wl,--defsym=_ZNSt12__shared_ptrIN5telux3tel25INetworkSelectionListenerELN9__gnu_cxx12_Lock_policyE2EEC1ERKSt10__weak_ptrIS2_LS4_2EESt9nothrow_t=so_stub_for_libtelux_tel
-Wl,--defsym=_ZNSt12__shared_ptrIN5telux3tel25INetworkSelectionListenerELN9__gnu_cxx12_Lock_policyE2EEC2ERKSt10__weak_ptrIS2_LS4_2EESt9nothrow_t=so_stub_for_libtelux_tel
-Wl,--defsym=_ZNSt12__shared_ptrIN5telux3tel25TdscdmaSignalStrengthInfoELN9__gnu_cxx12_Lock_policyE2EEC1ISaIS2_EJiEEESt19_Sp_make_shared_tagRKT_DpOT0_=so_stub_for_libtelux_tel
-Wl,--defsym=_ZNSt12__shared_ptrIN5telux3tel25TdscdmaSignalStrengthInfoELN9__gnu_cxx12_Lock_policyE2EEC2ISaIS2_EJiEEESt19_Sp_make_shared_tagRKT_DpOT0_=so_stub_for_libtelux_tel
-Wl,--defsym=_ZNSt12__shared_ptrIN5telux3tel3ril12IRilListenerELN9__gnu_cxx12_Lock_policyE2EEC1ERKSt10__weak_ptrIS3_LS5_2EESt9nothrow_t=so_stub_for_libtelux_tel
-Wl,--defsym=_ZNSt12__shared_ptrIN5telux3tel3ril12IRilListenerELN9__gnu_cxx12_Lock_policyE2EEC2ERKSt10__weak_ptrIS3_LS5_2EESt9nothrow_t=so_stub_for_libtelux_tel
-Wl,--defsym=_ZNSt12__shared_ptrIN5telux3tel3ril3Ril14SocketListenerELN9__gnu_cxx12_Lock_policyE2EEC1ISaIS4_EJPS3_6SlotIdEEESt19_Sp_make_shared_tagRKT_DpOT0_=so_stub_for_libtelux_tel
-Wl,--defsym=_ZNSt12__shared_ptrIN5telux3tel3ril3Ril14SocketListenerELN9__gnu_cxx12_Lock_policyE2EEC1ISaIS4_EJPS3_EEESt19_Sp_make_shared_tagRKT_DpOT0_=so_stub_for_libtelux_tel
-Wl,--defsym=_ZNSt12__shared_ptrIN5telux3tel3ril3Ril14SocketListenerELN9__gnu_cxx12_Lock_policyE2EEC2ISaIS4_EJPS3_6SlotIdEEESt19_Sp_make_shared_tagRKT_DpOT0_=so_stub_for_libtelux_tel
-Wl,--defsym=_ZNSt12__shared_ptrIN5telux3tel3ril3Ril14SocketListenerELN9__gnu_cxx12_Lock_policyE2EEC2ISaIS4_EJPS3_EEESt19_Sp_make_shared_tagRKT_DpOT0_=so_stub_for_libtelux_tel
-Wl,--defsym=_ZNSt12__shared_ptrIN5telux3tel3ril6SocketELN9__gnu_cxx12_Lock_policyE2EEC1ISaIS3_EJRA8_KcSt10shared_ptrINS2_3Ril14SocketListenerEEEEESt19_Sp_make_shared_tagRKT_DpOT0_=so_stub_for_libtelux_tel
-Wl,--defsym=_ZNSt12__shared_ptrIN5telux3tel3ril6SocketELN9__gnu_cxx12_Lock_policyE2EEC1ISaIS3_EJRA9_KcSt10shared_ptrINS2_3Ril14SocketListenerEEEEESt19_Sp_make_shared_tagRKT_DpOT0_=so_stub_for_libtelux_tel
-Wl,--defsym=_ZNSt12__shared_ptrIN5telux3tel3ril6SocketELN9__gnu_cxx12_Lock_policyE2EEC2ISaIS3_EJRA8_KcSt10shared_ptrINS2_3Ril14SocketListenerEEEEESt19_Sp_make_shared_tagRKT_DpOT0_=so_stub_for_libtelux_tel
-Wl,--defsym=_ZNSt12__shared_ptrIN5telux3tel3ril6SocketELN9__gnu_cxx12_Lock_policyE2EEC2ISaIS3_EJRA9_KcSt10shared_ptrINS2_3Ril14SocketListenerEEEEESt19_Sp_make_shared_tagRKT_DpOT0_=so_stub_for_libtelux_tel
-Wl,--defsym=_ZNSt12__shared_ptrIN5telux3tel3ril7RequestELN9__gnu_cxx12_Lock_policyE2EEC1ISaIS3_EJiRSt10shared_ptrINS0_6common15ResponseHandlerEEEEESt19_Sp_make_shared_tagRKT_DpOT0_=so_stub_for_libtelux_tel
-Wl,--defsym=_ZNSt12__shared_ptrIN5telux3tel3ril7RequestELN9__gnu_cxx12_Lock_policyE2EEC1ISaIS3_EJiRSt10shared_ptrINS0_6common15ResponseHandlerEEiDnDnRiEEESt19_Sp_make_shared_tagRKT_DpOT0_=so_stub_for_libtelux_tel
-Wl,--defsym=_ZNSt12__shared_ptrIN5telux3tel3ril7RequestELN9__gnu_cxx12_Lock_policyE2EEC1ISaIS3_EJiRSt10shared_ptrINS0_6common15ResponseHandlerEERiDnDnSE_EEESt19_Sp_make_shared_tagRKT_DpOT0_=so_stub_for_libtelux_tel
-Wl,--defsym=_ZNSt12__shared_ptrIN5telux3tel3ril7RequestELN9__gnu_cxx12_Lock_policyE2EEC1ISaIS3_EJiRSt10shared_ptrINS0_6common15ResponseHandlerEERiEEESt19_Sp_make_shared_tagRKT_DpOT0_=so_stub_for_libtelux_tel
-Wl,--defsym=_ZNSt12__shared_ptrIN5telux3tel3ril7RequestELN9__gnu_cxx12_Lock_policyE2EEC1ISaIS3_EJiRSt10shared_ptrINS0_6common15ResponseHandlerEERiRS9_INSA_16ICommandCallbackEEDnSE_EEESt19_Sp_make_shared_tagRKT_DpOT0_=so_stub_for_libtelux_tel
-Wl,--defsym=_ZNSt12__shared_ptrIN5telux3tel3ril7RequestELN9__gnu_cxx12_Lock_policyE2EEC1ISaIS3_EJiRSt10shared_ptrINS0_6common15ResponseHandlerEERiRS9_INSA_16ICommandCallbackEEEEESt19_Sp_make_shared_tagRKT_DpOT0_=so_stub_for_libtelux_tel
-Wl,--defsym=_ZNSt12__shared_ptrIN5telux3tel3ril7RequestELN9__gnu_cxx12_Lock_policyE2EEC1ISaIS3_EJiRSt10shared_ptrINS0_6common15ResponseHandlerEERiRS9_INSA_16ICommandCallbackEERPvSE_EEESt19_Sp_make_shared_tagRKT_DpOT0_=so_stub_for_libtelux_tel
-Wl,--defsym=_ZNSt12__shared_ptrIN5telux3tel3ril7RequestELN9__gnu_cxx12_Lock_policyE2EEC2ISaIS3_EJiRSt10shared_ptrINS0_6common15ResponseHandlerEEEEESt19_Sp_make_shared_tagRKT_DpOT0_=so_stub_for_libtelux_tel
-Wl,--defsym=_ZNSt12__shared_ptrIN5telux3tel3ril7RequestELN9__gnu_cxx12_Lock_policyE2EEC2ISaIS3_EJiRSt10shared_ptrINS0_6common15ResponseHandlerEEiDnDnRiEEESt19_Sp_make_shared_tagRKT_DpOT0_=so_stub_for_libtelux_tel
-Wl,--defsym=_ZNSt12__shared_ptrIN5telux3tel3ril7RequestELN9__gnu_cxx12_Lock_policyE2EEC2ISaIS3_EJiRSt10shared_ptrINS0_6common15ResponseHandlerEERiDnDnSE_EEESt19_Sp_make_shared_tagRKT_DpOT0_=so_stub_for_libtelux_tel
-Wl,--defsym=_ZNSt12__shared_ptrIN5telux3tel3ril7RequestELN9__gnu_cxx12_Lock_policyE2EEC2ISaIS3_EJiRSt10shared_ptrINS0_6common15ResponseHandlerEERiEEESt19_Sp_make_shared_tagRKT_DpOT0_=so_stub_for_libtelux_tel
-Wl,--defsym=_ZNSt12__shared_ptrIN5telux3tel3ril7RequestELN9__gnu_cxx12_Lock_policyE2EEC2ISaIS3_EJiRSt10shared_ptrINS0_6common15ResponseHandlerEERiRS9_INSA_16ICommandCallbackEEDnSE_EEESt19_Sp_make_shared_tagRKT_DpOT0_=so_stub_for_libtelux_tel
-Wl,--defsym=_ZNSt12__shared_ptrIN5telux3tel3ril7RequestELN9__gnu_cxx12_Lock_policyE2EEC2ISaIS3_EJiRSt10shared_ptrINS0_6common15ResponseHandlerEERiRS9_INSA_16ICommandCallbackEEEEESt19_Sp_make_shared_tagRKT_DpOT0_=so_stub_for_libtelux_tel
-Wl,--defsym=_ZNSt12__shared_ptrIN5telux3tel3ril7RequestELN9__gnu_cxx12_Lock_policyE2EEC2ISaIS3_EJiRSt10shared_ptrINS0_6common15ResponseHandlerEERiRS9_INSA_16ICommandCallbackEERPvSE_EEESt19_Sp_make_shared_tagRKT_DpOT0_=so_stub_for_libtelux_tel
-Wl,--defsym=_ZNSt12__shared_ptrIN5telux3tel4CallELN9__gnu_cxx12_Lock_policyE2EEC1ISaIS2_EJRiRNS1_8CallInfoEEEESt19_Sp_make_shared_tagRKT_DpOT0_=so_stub_for_libtelux_tel
-Wl,--defsym=_ZNSt12__shared_ptrIN5telux3tel4CallELN9__gnu_cxx12_Lock_policyE2EEC2ISaIS2_EJRiRNS1_8CallInfoEEEESt19_Sp_make_shared_tagRKT_DpOT0_=so_stub_for_libtelux_tel
-Wl,--defsym=_ZNSt12__shared_ptrIN5telux3tel5PhoneELN9__gnu_cxx12_Lock_policyE2EEC1ISaIS2_EJRiEEESt19_Sp_make_shared_tagRKT_DpOT0_=so_stub_for_libtelux_tel
-Wl,--defsym=_ZNSt12__shared_ptrIN5telux3tel5PhoneELN9__gnu_cxx12_Lock_policyE2EEC2ISaIS2_EJRiEEESt19_Sp_make_shared_tagRKT_DpOT0_=so_stub_for_libtelux_tel
-Wl,--defsym=_ZNSt12__shared_ptrIN5telux3tel7SmsInfoELN9__gnu_cxx12_Lock_policyE2EEC1ISaIS2_EJEEESt19_Sp_make_shared_tagRKT_DpOT0_=so_stub_for_libtelux_tel
-Wl,--defsym=_ZNSt12__shared_ptrIN5telux3tel7SmsInfoELN9__gnu_cxx12_Lock_policyE2EEC2ISaIS2_EJEEESt19_Sp_make_shared_tagRKT_DpOT0_=so_stub_for_libtelux_tel
-Wl,--defsym=_ZNSt12__shared_ptrIN5telux3tel8CardImplELN9__gnu_cxx12_Lock_policyE2EEC1ISaIS2_EJRiEEESt19_Sp_make_shared_tagRKT_DpOT0_=so_stub_for_libtelux_tel
-Wl,--defsym=_ZNSt12__shared_ptrIN5telux3tel8CardImplELN9__gnu_cxx12_Lock_policyE2EEC2ISaIS2_EJRiEEESt19_Sp_make_shared_tagRKT_DpOT0_=so_stub_for_libtelux_tel
-Wl,--defsym=_ZNSt12__shared_ptrIN5telux6common15ListenerManagerINS0_3tel12ISmsListenerEEELN9__gnu_cxx12_Lock_policyE2EEC1ISaIS5_EJEEESt19_Sp_make_shared_tagRKT_DpOT0_=so_stub_for_libtelux_tel
-Wl,--defsym=_ZNSt12__shared_ptrIN5telux6common15ListenerManagerINS0_3tel12ISmsListenerEEELN9__gnu_cxx12_Lock_policyE2EEC2ISaIS5_EJEEESt19_Sp_make_shared_tagRKT_DpOT0_=so_stub_for_libtelux_tel
-Wl,--defsym=_ZNSt12__shared_ptrIN5telux6common15ListenerManagerINS0_3tel13ICallListenerEEELN9__gnu_cxx12_Lock_policyE2EEC1ISaIS5_EJEEESt19_Sp_make_shared_tagRKT_DpOT0_=so_stub_for_libtelux_tel
-Wl,--defsym=_ZNSt12__shared_ptrIN5telux6common15ListenerManagerINS0_3tel13ICallListenerEEELN9__gnu_cxx12_Lock_policyE2EEC2ISaIS5_EJEEESt19_Sp_make_shared_tagRKT_DpOT0_=so_stub_for_libtelux_tel
-Wl,--defsym=_ZNSt12__shared_ptrIN5telux6common15ListenerManagerINS0_3tel13ICardListenerEEELN9__gnu_cxx12_Lock_policyE2EEC1ISaIS5_EJEEESt19_Sp_make_shared_tagRKT_DpOT0_=so_stub_for_libtelux_tel
-Wl,--defsym=_ZNSt12__shared_ptrIN5telux6common15ListenerManagerINS0_3tel13ICardListenerEEELN9__gnu_cxx12_Lock_policyE2EEC2ISaIS5_EJEEESt19_Sp_make_shared_tagRKT_DpOT0_=so_stub_for_libtelux_tel
-Wl,--defsym=_ZNSt12__shared_ptrIN5telux6common15ListenerManagerINS0_3tel14IPhoneListenerEEELN9__gnu_cxx12_Lock_policyE2EEC1ISaIS5_EJEEESt19_Sp_make_shared_tagRKT_DpOT0_=so_stub_for_libtelux_tel
-Wl,--defsym=_ZNSt12__shared_ptrIN5telux6common15ListenerManagerINS0_3tel14IPhoneListenerEEELN9__gnu_cxx12_Lock_policyE2EEC2ISaIS5_EJEEESt19_Sp_make_shared_tagRKT_DpOT0_=so_stub_for_libtelux_tel
-Wl,--defsym=_ZNSt12__shared_ptrIN5telux6common15ListenerManagerINS0_3tel16ISapCardListenerEEELN9__gnu_cxx12_Lock_policyE2EEC1ISaIS5_EJEEESt19_Sp_make_shared_tagRKT_DpOT0_=so_stub_for_libtelux_tel
-Wl,--defsym=_ZNSt12__shared_ptrIN5telux6common15ListenerManagerINS0_3tel16ISapCardListenerEEELN9__gnu_cxx12_Lock_policyE2EEC2ISaIS5_EJEEESt19_Sp_make_shared_tagRKT_DpOT0_=so_stub_for_libtelux_tel
-Wl,--defsym=_ZNSt12__shared_ptrIN5telux6common15ListenerManagerINS0_3tel17IMultiSimListenerEEELN9__gnu_cxx12_Lock_policyE2EEC1ISaIS5_EJEEESt19_Sp_make_shared_tagRKT_DpOT0_=so_stub_for_libtelux_tel
-Wl,--defsym=_ZNSt12__shared_ptrIN5telux6common15ListenerManagerINS0_3tel17IMultiSimListenerEEELN9__gnu_cxx12_Lock_policyE2EEC2ISaIS5_EJEEESt19_Sp_make_shared_tagRKT_DpOT0_=so_stub_for_libtelux_tel
-Wl,--defsym=_ZNSt12__shared_ptrIN5telux6common15ListenerManagerINS0_3tel18IRemoteSimListenerEEELN9__gnu_cxx12_Lock_policyE2EEC1ISaIS5_EJEEESt19_Sp_make_shared_tagRKT_DpOT0_=so_stub_for_libtelux_tel
-Wl,--defsym=_ZNSt12__shared_ptrIN5telux6common15ListenerManagerINS0_3tel18IRemoteSimListenerEEELN9__gnu_cxx12_Lock_policyE2EEC2ISaIS5_EJEEESt19_Sp_make_shared_tagRKT_DpOT0_=so_stub_for_libtelux_tel
-Wl,--defsym=_ZNSt12__shared_ptrIN5telux6common15ListenerManagerINS0_3tel19ISimProfileListenerEEELN9__gnu_cxx12_Lock_policyE2EEC1ISaIS5_EJEEESt19_Sp_make_shared_tagRKT_DpOT0_=so_stub_for_libtelux_tel
-Wl,--defsym=_ZNSt12__shared_ptrIN5telux6common15ListenerManagerINS0_3tel19ISimProfileListenerEEELN9__gnu_cxx12_Lock_policyE2EEC2ISaIS5_EJEEESt19_Sp_make_shared_tagRKT_DpOT0_=so_stub_for_libtelux_tel
-Wl,--defsym=_ZNSt12__shared_ptrIN5telux6common15ListenerManagerINS0_3tel21ISubscriptionListenerEEELN9__gnu_cxx12_Lock_policyE2EEC1ISaIS5_EJEEESt19_Sp_make_shared_tagRKT_DpOT0_=so_stub_for_libtelux_tel
-Wl,--defsym=_ZNSt12__shared_ptrIN5telux6common15ListenerManagerINS0_3tel21ISubscriptionListenerEEELN9__gnu_cxx12_Lock_policyE2EEC2ISaIS5_EJEEESt19_Sp_make_shared_tagRKT_DpOT0_=so_stub_for_libtelux_tel
-Wl,--defsym=_ZNSt12__shared_ptrIN5telux6common15ListenerManagerINS0_3tel22ICellBroadcastListenerEEELN9__gnu_cxx12_Lock_policyE2EEC1ISaIS5_EJEEESt19_Sp_make_shared_tagRKT_DpOT0_=so_stub_for_libtelux_tel
-Wl,--defsym=_ZNSt12__shared_ptrIN5telux6common15ListenerManagerINS0_3tel22ICellBroadcastListenerEEELN9__gnu_cxx12_Lock_policyE2EEC2ISaIS5_EJEEESt19_Sp_make_shared_tagRKT_DpOT0_=so_stub_for_libtelux_tel
-Wl,--defsym=_ZNSt12__shared_ptrIN5telux6common15ListenerManagerINS0_3tel22IServingSystemListenerEEELN9__gnu_cxx12_Lock_policyE2EEC1ISaIS5_EJEEESt19_Sp_make_shared_tagRKT_DpOT0_=so_stub_for_libtelux_tel
-Wl,--defsym=_ZNSt12__shared_ptrIN5telux6common15ListenerManagerINS0_3tel22IServingSystemListenerEEELN9__gnu_cxx12_Lock_policyE2EEC2ISaIS5_EJEEESt19_Sp_make_shared_tagRKT_DpOT0_=so_stub_for_libtelux_tel
-Wl,--defsym=_ZNSt12__shared_ptrIN5telux6common15ListenerManagerINS0_3tel25INetworkSelectionListenerEEELN9__gnu_cxx12_Lock_policyE2EEC1ISaIS5_EJEEESt19_Sp_make_shared_tagRKT_DpOT0_=so_stub_for_libtelux_tel
-Wl,--defsym=_ZNSt12__shared_ptrIN5telux6common15ListenerManagerINS0_3tel25INetworkSelectionListenerEEELN9__gnu_cxx12_Lock_policyE2EEC2ISaIS5_EJEEESt19_Sp_make_shared_tagRKT_DpOT0_=so_stub_for_libtelux_tel
-Wl,--defsym=_ZNSt12__shared_ptrIN5telux6common15ListenerManagerINS0_3tel3ril12IRilListenerEEELN9__gnu_cxx12_Lock_policyE2EEC1ISaIS6_EJEEESt19_Sp_make_shared_tagRKT_DpOT0_=so_stub_for_libtelux_tel
-Wl,--defsym=_ZNSt12__shared_ptrIN5telux6common15ListenerManagerINS0_3tel3ril12IRilListenerEEELN9__gnu_cxx12_Lock_policyE2EEC2ISaIS6_EJEEESt19_Sp_make_shared_tagRKT_DpOT0_=so_stub_for_libtelux_tel
-Wl,--defsym=_ZNSt12__shared_ptrIN5telux6common16ICommandCallbackELN9__gnu_cxx12_Lock_policyE2EEC1ERKS5_=so_stub_for_libtelux_tel
-Wl,--defsym=_ZNSt12__shared_ptrIN5telux6common16ICommandCallbackELN9__gnu_cxx12_Lock_policyE2EEC2ERKS5_=so_stub_for_libtelux_tel
-Wl,--defsym=_ZNSt12__shared_ptrIN5telux6common18FunctionalCallbackIJiNS1_9ErrorCodeEEEELN9__gnu_cxx12_Lock_policyE2EEC1ISaIS4_EJRSt8functionIFviS3_EEEEESt19_Sp_make_shared_tagRKT_DpOT0_=so_stub_for_libtelux_tel
-Wl,--defsym=_ZNSt12__shared_ptrIN5telux6common18FunctionalCallbackIJiNS1_9ErrorCodeEEEELN9__gnu_cxx12_Lock_policyE2EEC2ISaIS4_EJRSt8functionIFviS3_EEEEESt19_Sp_make_shared_tagRKT_DpOT0_=so_stub_for_libtelux_tel
-Wl,--defsym=_ZNSt12__shared_ptrIN5telux6common18FunctionalCallbackIJNS1_9ErrorCodeEEEELN9__gnu_cxx12_Lock_policyE2EEC1ISaIS4_EJRSt8functionIFvS3_EEEEESt19_Sp_make_shared_tagRKT_DpOT0_=so_stub_for_libtelux_tel
-Wl,--defsym=_ZNSt12__shared_ptrIN5telux6common18FunctionalCallbackIJNS1_9ErrorCodeEEEELN9__gnu_cxx12_Lock_policyE2EEC2ISaIS4_EJRSt8functionIFvS3_EEEEESt19_Sp_make_shared_tagRKT_DpOT0_=so_stub_for_libtelux_tel
-Wl,--defsym=_ZNSt12__shared_ptrIN5telux6common24ICommandResponseCallbackELN9__gnu_cxx12_Lock_policyE2EEC1ERKSt10__weak_ptrIS2_LS4_2EESt9nothrow_t=so_stub_for_libtelux_tel
-Wl,--defsym=_ZNSt12__shared_ptrIN5telux6common24ICommandResponseCallbackELN9__gnu_cxx12_Lock_policyE2EEC2ERKSt10__weak_ptrIS2_LS4_2EESt9nothrow_t=so_stub_for_libtelux_tel
-Wl,--defsym=_ZNSt12__shared_ptrIN5telux6common6ResultELN9__gnu_cxx12_Lock_policyE2EEC1ISaIS2_EJEEESt19_Sp_make_shared_tagRKT_DpOT0_=so_stub_for_libtelux_tel
-Wl,--defsym=_ZNSt12__shared_ptrIN5telux6common6ResultELN9__gnu_cxx12_Lock_policyE2EEC2ISaIS2_EJEEESt19_Sp_make_shared_tagRKT_DpOT0_=so_stub_for_libtelux_tel
-Wl,--defsym=_ZNSt12__shared_ptrINSt8__detail4_NFAINSt7__cxx1112regex_traitsIcEEEELN9__gnu_cxx12_Lock_policyE2EEC1ISaIS5_EJRKSt6localeRNSt15regex_constants18syntax_option_typeEEEESt19_Sp_make_shared_tagRKT_DpOT0_=so_stub_for_libtelux_tel
-Wl,--defsym=_ZNSt12__shared_ptrINSt8__detail4_NFAINSt7__cxx1112regex_traitsIcEEEELN9__gnu_cxx12_Lock_policyE2EEC2ISaIS5_EJRKSt6localeRNSt15regex_constants18syntax_option_typeEEEESt19_Sp_make_shared_tagRKT_DpOT0_=so_stub_for_libtelux_tel
-Wl,--defsym=_ZNSt12__shared_ptrISt6vectorIS0_IhSaIhEESaIS2_EELN9__gnu_cxx12_Lock_policyE2EEC1ISaIS4_EJEEESt19_Sp_make_shared_tagRKT_DpOT0_=so_stub_for_libtelux_tel
-Wl,--defsym=_ZNSt12__shared_ptrISt6vectorIS0_IhSaIhEESaIS2_EELN9__gnu_cxx12_Lock_policyE2EEC2ISaIS4_EJEEESt19_Sp_make_shared_tagRKT_DpOT0_=so_stub_for_libtelux_tel
-Wl,--defsym=_ZNSt13__future_base13_State_baseV210wait_untilINSt6chrono3_V212system_clockENS2_8durationIxSt5ratioILx1ELx1000000000EEEEEESt13future_statusRKNS2_10time_pointIT_T0_EE=so_stub_for_libtelux_tel
-Wl,--defsym=_ZNSt13__future_base13_State_baseV213_M_set_resultESt8functionIFSt10unique_ptrINS_12_Result_baseENS3_8_DeleterEEvEEb=so_stub_for_libtelux_tel
-Wl,--defsym=_ZNSt13__future_base13_State_baseV216_M_break_promiseESt10unique_ptrINS_12_Result_baseENS2_8_DeleterEE=so_stub_for_libtelux_tel
-Wl,--defsym=_ZNSt13__future_base13_State_baseV217_M_complete_asyncEv=so_stub_for_libtelux_tel
-Wl,--defsym=_ZNSt13__future_base13_State_baseV24waitEv=so_stub_for_libtelux_tel
-Wl,--defsym=_ZNSt13__future_base13_State_baseV29_M_do_setEPSt8functionIFSt10unique_ptrINS_12_Result_baseENS3_8_DeleterEEvEEPb=so_stub_for_libtelux_tel
-Wl,--defsym=_ZNSt13__future_base13_State_baseV2D0Ev=so_stub_for_libtelux_tel
-Wl,--defsym=_ZNSt13__future_base13_State_baseV2D1Ev=so_stub_for_libtelux_tel
-Wl,--defsym=_ZNSt13__future_base13_State_baseV2D2Ev=so_stub_for_libtelux_tel
-Wl,--defsym=_ZNSt13__future_base21_Async_state_commonV217_M_complete_asyncEv=so_stub_for_libtelux_tel
-Wl,--defsym=_ZNSt13__future_base21_Async_state_commonV2D0Ev=so_stub_for_libtelux_tel
-Wl,--defsym=_ZNSt13__future_base21_Async_state_commonV2D1Ev=so_stub_for_libtelux_tel
-Wl,--defsym=_ZNSt13__future_base21_Async_state_commonV2D2Ev=so_stub_for_libtelux_tel
-Wl,--defsym=_ZNSt13__future_base7_ResultIbE10_M_destroyEv=so_stub_for_libtelux_tel
-Wl,--defsym=_ZNSt13__future_base7_ResultIbED0Ev=so_stub_for_libtelux_tel
-Wl,--defsym=_ZNSt13__future_base7_ResultIbED1Ev=so_stub_for_libtelux_tel
-Wl,--defsym=_ZNSt13__future_base7_ResultIbED2Ev=so_stub_for_libtelux_tel
-Wl,--defsym=_ZNSt13__future_base7_ResultIvE10_M_destroyEv=so_stub_for_libtelux_tel
-Wl,--defsym=_ZNSt13__future_base7_ResultIvED0Ev=so_stub_for_libtelux_tel
-Wl,--defsym=_ZNSt13__future_base7_ResultIvED1Ev=so_stub_for_libtelux_tel
-Wl,--defsym=_ZNSt13__future_base7_ResultIvED2Ev=so_stub_for_libtelux_tel
-Wl,--defsym=_ZNSt14__basic_futureIbEC1ERKSt10shared_ptrINSt13__future_base13_State_baseV2EE=so_stub_for_libtelux_tel
-Wl,--defsym=_ZNSt14__basic_futureIbEC2ERKSt10shared_ptrINSt13__future_base13_State_baseV2EE=so_stub_for_libtelux_tel
-Wl,--defsym=_ZNSt14__basic_futureIvEC1ERKSt10shared_ptrINSt13__future_base13_State_baseV2EE=so_stub_for_libtelux_tel
-Wl,--defsym=_ZNSt14__basic_futureIvEC2ERKSt10shared_ptrINSt13__future_base13_State_baseV2EE=so_stub_for_libtelux_tel
-Wl,--defsym=_ZNSt14_Function_base13_Base_managerINSt8__detail11_AnyMatcherINSt7__cxx1112regex_traitsIcEELb0ELb0ELb0EEEE10_M_managerERSt9_Any_dataRKS8_St18_Manager_operation=so_stub_for_libtelux_tel
-Wl,--defsym=_ZNSt14_Function_base13_Base_managerINSt8__detail11_AnyMatcherINSt7__cxx1112regex_traitsIcEELb0ELb0ELb1EEEE10_M_managerERSt9_Any_dataRKS8_St18_Manager_operation=so_stub_for_libtelux_tel
-Wl,--defsym=_ZNSt14_Function_base13_Base_managerINSt8__detail11_AnyMatcherINSt7__cxx1112regex_traitsIcEELb0ELb1ELb0EEEE10_M_managerERSt9_Any_dataRKS8_St18_Manager_operation=so_stub_for_libtelux_tel
-Wl,--defsym=_ZNSt14_Function_base13_Base_managerINSt8__detail11_AnyMatcherINSt7__cxx1112regex_traitsIcEELb0ELb1ELb1EEEE10_M_managerERSt9_Any_dataRKS8_St18_Manager_operation=so_stub_for_libtelux_tel
-Wl,--defsym=_ZNSt14_Function_base13_Base_managerINSt8__detail11_AnyMatcherINSt7__cxx1112regex_traitsIcEELb1ELb0ELb0EEEE10_M_managerERSt9_Any_dataRKS8_St18_Manager_operation=so_stub_for_libtelux_tel
-Wl,--defsym=_ZNSt14_Function_base13_Base_managerINSt8__detail11_AnyMatcherINSt7__cxx1112regex_traitsIcEELb1ELb0ELb1EEEE10_M_managerERSt9_Any_dataRKS8_St18_Manager_operation=so_stub_for_libtelux_tel
-Wl,--defsym=_ZNSt14_Function_base13_Base_managerINSt8__detail11_AnyMatcherINSt7__cxx1112regex_traitsIcEELb1ELb1ELb0EEEE10_M_managerERSt9_Any_dataRKS8_St18_Manager_operation=so_stub_for_libtelux_tel
-Wl,--defsym=_ZNSt14_Function_base13_Base_managerINSt8__detail11_AnyMatcherINSt7__cxx1112regex_traitsIcEELb1ELb1ELb1EEEE10_M_managerERSt9_Any_dataRKS8_St18_Manager_operation=so_stub_for_libtelux_tel
-Wl,--defsym=_ZNSt14_Function_base13_Base_managerINSt8__detail12_CharMatcherINSt7__cxx1112regex_traitsIcEELb0ELb0EEEE10_M_managerERSt9_Any_dataRKS8_St18_Manager_operation=so_stub_for_libtelux_tel
-Wl,--defsym=_ZNSt14_Function_base13_Base_managerINSt8__detail12_CharMatcherINSt7__cxx1112regex_traitsIcEELb0ELb1EEEE10_M_managerERSt9_Any_dataRKS8_St18_Manager_operation=so_stub_for_libtelux_tel
-Wl,--defsym=_ZNSt14_Function_base13_Base_managerINSt8__detail12_CharMatcherINSt7__cxx1112regex_traitsIcEELb1ELb0EEEE10_M_managerERSt9_Any_dataRKS8_St18_Manager_operation=so_stub_for_libtelux_tel
-Wl,--defsym=_ZNSt14_Function_base13_Base_managerINSt8__detail12_CharMatcherINSt7__cxx1112regex_traitsIcEELb1ELb1EEEE10_M_managerERSt9_Any_dataRKS8_St18_Manager_operation=so_stub_for_libtelux_tel
-Wl,--defsym=_ZNSt14_Function_base13_Base_managerINSt8__detail15_BracketMatcherINSt7__cxx1112regex_traitsIcEELb0ELb0EEEE10_M_managerERSt9_Any_dataRKS8_St18_Manager_operation=so_stub_for_libtelux_tel
-Wl,--defsym=_ZNSt14_Function_base13_Base_managerINSt8__detail15_BracketMatcherINSt7__cxx1112regex_traitsIcEELb0ELb1EEEE10_M_managerERSt9_Any_dataRKS8_St18_Manager_operation=so_stub_for_libtelux_tel
-Wl,--defsym=_ZNSt14_Function_base13_Base_managerINSt8__detail15_BracketMatcherINSt7__cxx1112regex_traitsIcEELb1ELb0EEEE10_M_managerERSt9_Any_dataRKS8_St18_Manager_operation=so_stub_for_libtelux_tel
-Wl,--defsym=_ZNSt14_Function_base13_Base_managerINSt8__detail15_BracketMatcherINSt7__cxx1112regex_traitsIcEELb1ELb1EEEE10_M_managerERSt9_Any_dataRKS8_St18_Manager_operation=so_stub_for_libtelux_tel
-Wl,--defsym=_ZNSt14__shared_countILN9__gnu_cxx12_Lock_policyE2EEC1ERKSt12__weak_countILS1_2EESt9nothrow_t=so_stub_for_libtelux_tel
-Wl,--defsym=_ZNSt14__shared_countILN9__gnu_cxx12_Lock_policyE2EEC1I6ParcelSaIS4_EJEEESt19_Sp_make_shared_tagPT_RKT0_DpOT1_=so_stub_for_libtelux_tel
-Wl,--defsym=_ZNSt14__shared_countILN9__gnu_cxx12_Lock_policyE2EEC1IN5telux3tel11CallManagerESaIS6_EJEEESt19_Sp_make_shared_tagPT_RKT0_DpOT1_=so_stub_for_libtelux_tel
-Wl,--defsym=_ZNSt14__shared_countILN9__gnu_cxx12_Lock_policyE2EEC1IN5telux3tel11CardAppImplESaIS6_EJRiRNS5_13CardAppStatusEEEESt19_Sp_make_shared_tagPT_RKT0_DpOT1_=so_stub_for_libtelux_tel
-Wl,--defsym=_ZNSt14__shared_countILN9__gnu_cxx12_Lock_policyE2EEC1IN5telux3tel12PhoneManagerESaIS6_EJEEESt19_Sp_make_shared_tagPT_RKT0_DpOT1_=so_stub_for_libtelux_tel
-Wl,--defsym=_ZNSt14__shared_countILN9__gnu_cxx12_Lock_policyE2EEC1IN5telux3tel13WcdmaCellInfoESaIS6_EJRiRNS5_17WcdmaCellIdentityERNS5_23WcdmaSignalStrengthInfoEEEESt19_Sp_make_shared_tagPT_RKT0_DpOT1_=so_stub_for_libtelux_tel
-Wl,--defsym=_ZNSt14__shared_countILN9__gnu_cxx12_Lock_policyE2EEC1IN5telux3tel15CardManagerImplESaIS6_EJEEESt19_Sp_make_shared_tagPT_RKT0_DpOT1_=so_stub_for_libtelux_tel
-Wl,--defsym=_ZNSt14__shared_countILN9__gnu_cxx12_Lock_policyE2EEC1IN5telux3tel15MultiSimManagerESaIS6_EJEEESt19_Sp_make_shared_tagPT_RKT0_DpOT1_=so_stub_for_libtelux_tel
-Wl,--defsym=_ZNSt14__shared_countILN9__gnu_cxx12_Lock_policyE2EEC1IN5telux3tel15TdscdmaCellInfoESaIS6_EJRiRNS5_19TdscdmaCellIdentityERNS5_25TdscdmaSignalStrengthInfoEEEESt19_Sp_make_shared_tagPT_RKT0_DpOT1_=so_stub_for_libtelux_tel
-Wl,--defsym=_ZNSt14__shared_countILN9__gnu_cxx12_Lock_policyE2EEC1IN5telux3tel19SubscriptionManagerESaIS6_EJEEESt19_Sp_make_shared_tagPT_RKT0_DpOT1_=so_stub_for_libtelux_tel
-Wl,--defsym=_ZNSt14__shared_countILN9__gnu_cxx12_Lock_policyE2EEC1IN5telux3tel21SimProfileManagerImplESaIS6_EJEEESt19_Sp_make_shared_tagPT_RKT0_DpOT1_=so_stub_for_libtelux_tel
-Wl,--defsym=_ZNSt14__shared_countILN9__gnu_cxx12_Lock_policyE2EEC1IN5telux3tel3ril8ResponseESaIS7_EJRiRSt10shared_ptrI6ParcelEEEESt19_Sp_make_shared_tagPT_RKT0_DpOT1_=so_stub_for_libtelux_tel
-Wl,--defsym=_ZNSt14__shared_countILN9__gnu_cxx12_Lock_policyE2EEC1IN5telux3tel4CallESaIS6_EJRiRNS5_8CallInfoEEEESt19_Sp_make_shared_tagPT_RKT0_DpOT1_=so_stub_for_libtelux_tel
-Wl,--defsym=_ZNSt14__shared_countILN9__gnu_cxx12_Lock_policyE2EEC1IN5telux6common18FunctionalCallbackIJbbNS5_9ErrorCodeEEEESaIS8_EJRSt8functionIFvbbS7_EEEEESt19_Sp_make_shared_tagPT_RKT0_DpOT1_=so_stub_for_libtelux_tel
-Wl,--defsym=_ZNSt14__shared_countILN9__gnu_cxx12_Lock_policyE2EEC1IN5telux6common18FunctionalCallbackIJbNS5_9ErrorCodeEEEESaIS8_EJRSt8functionIFvbS7_EEEEESt19_Sp_make_shared_tagPT_RKT0_DpOT1_=so_stub_for_libtelux_tel
-Wl,--defsym=_ZNSt14__shared_countILN9__gnu_cxx12_Lock_policyE2EEC1IN5telux6common18FunctionalCallbackIJiNS5_9ErrorCodeEEEESaIS8_EJRSt8functionIFviS7_EEEEESt19_Sp_make_shared_tagPT_RKT0_DpOT1_=so_stub_for_libtelux_tel
-Wl,--defsym=_ZNSt14__shared_countILN9__gnu_cxx12_Lock_policyE2EEC1IN5telux6common18FunctionalCallbackIJNS4_3tel15RadioTechnologyENS5_9ErrorCodeEEEESaISA_EJRSt8functionIFvS8_S9_EEEEESt19_Sp_make_shared_tagPT_RKT0_DpOT1_=so_stub_for_libtelux_tel
-Wl,--defsym=_ZNSt14__shared_countILN9__gnu_cxx12_Lock_policyE2EEC1IN5telux6common18FunctionalCallbackIJNS4_3tel20NetworkSelectionModeENS5_9ErrorCodeEEEESaISA_EJRSt8functionIFvS8_S9_EEEEESt19_Sp_make_shared_tagPT_RKT0_DpOT1_=so_stub_for_libtelux_tel
-Wl,--defsym=_ZNSt14__shared_countILN9__gnu_cxx12_Lock_policyE2EEC1IN5telux6common18FunctionalCallbackIJNS4_3tel23ServiceDomainPreferenceENS5_9ErrorCodeEEEESaISA_EJRSt8functionIFvS8_S9_EEEEESt19_Sp_make_shared_tagPT_RKT0_DpOT1_=so_stub_for_libtelux_tel
-Wl,--defsym=_ZNSt14__shared_countILN9__gnu_cxx12_Lock_policyE2EEC1IN5telux6common18FunctionalCallbackIJNS4_3tel8SapStateENS5_9ErrorCodeEEEESaISA_EJRSt8functionIFvS8_S9_EEEEESt19_Sp_make_shared_tagPT_RKT0_DpOT1_=so_stub_for_libtelux_tel
-Wl,--defsym=_ZNSt14__shared_countILN9__gnu_cxx12_Lock_policyE2EEC1IN5telux6common18FunctionalCallbackIJNS4_3tel9ECallModeENS5_9ErrorCodeEEEESaISA_EJRSt8functionIFvS8_S9_EEEEESt19_Sp_make_shared_tagPT_RKT0_DpOT1_=so_stub_for_libtelux_tel
-Wl,--defsym=_ZNSt14__shared_countILN9__gnu_cxx12_Lock_policyE2EEC1IN5telux6common18FunctionalCallbackIJNS5_9ErrorCodeEEEESaIS8_EJRSt8functionIFvS7_EEEEESt19_Sp_make_shared_tagPT_RKT0_DpOT1_=so_stub_for_libtelux_tel
-Wl,--defsym=_ZNSt14__shared_countILN9__gnu_cxx12_Lock_policyE2EEC1IN5telux6common18FunctionalCallbackIJNS5_9ErrorCodeEiNS4_3tel20ECallHlapTimerStatusEEEESaISA_EJRSt8functionIFvS7_iS9_EEEEESt19_Sp_make_shared_tagPT_RKT0_DpOT1_=so_stub_for_libtelux_tel
-Wl,--defsym=_ZNSt14__shared_countILN9__gnu_cxx12_Lock_policyE2EEC1IN5telux6common18FunctionalCallbackIJNS5_9ErrorCodeESt10shared_ptrINS4_3tel5ICallEEEEESaISC_EJRSt8functionIFvS7_SB_EEEEESt19_Sp_make_shared_tagPT_RKT0_DpOT1_=so_stub_for_libtelux_tel
-Wl,--defsym=_ZNSt14__shared_countILN9__gnu_cxx12_Lock_policyE2EEC1IN5telux6common18FunctionalCallbackIJNSt7__cxx1112basic_stringIcSt11char_traitsIcESaIcEEENS5_9ErrorCodeEEEESaISE_EJRSt8functionIFvSC_SD_EEEEESt19_Sp_make_shared_tagPT_RKT0_DpOT1_=so_stub_for_libtelux_tel
-Wl,--defsym=_ZNSt14__shared_countILN9__gnu_cxx12_Lock_policyE2EEC1IN5telux6common18FunctionalCallbackIJRKNSt7__cxx1112basic_stringIcSt11char_traitsIcESaIcEEENS5_9ErrorCodeEEEESaISG_EJRSt8functionIFvSE_SF_EEEEESt19_Sp_make_shared_tagPT_RKT0_DpOT1_=so_stub_for_libtelux_tel
-Wl,--defsym=_ZNSt14__shared_countILN9__gnu_cxx12_Lock_policyE2EEC1IN5telux6common18FunctionalCallbackIJRKSt6vectorISt10shared_ptrINS4_3tel10SimProfileEESaISB_EENS5_9ErrorCodeEEEESaISH_EJRSt8functionIFvSF_SG_EEEEESt19_Sp_make_shared_tagPT_RKT0_DpOT1_=so_stub_for_libtelux_tel
-Wl,--defsym=_ZNSt14__shared_countILN9__gnu_cxx12_Lock_policyE2EEC1IN5telux6common18FunctionalCallbackIJSt3mapI6SlotIdNS4_3tel10SlotStatusESt4lessIS8_ESaISt4pairIKS8_SA_EEENS5_9ErrorCodeEEEESaISJ_EJRSt8functionIFvSH_SI_EEEEESt19_Sp_make_shared_tagPT_RKT0_DpOT1_=so_stub_for_libtelux_tel
-Wl,--defsym=_ZNSt14__shared_countILN9__gnu_cxx12_Lock_policyE2EEC1IN5telux6common18FunctionalCallbackIJSt6bitsetILj16EENS5_9ErrorCodeEEEESaISA_EJRSt8functionIFvS8_S9_EEEEESt19_Sp_make_shared_tagPT_RKT0_DpOT1_=so_stub_for_libtelux_tel
-Wl,--defsym=_ZNSt14__shared_countILN9__gnu_cxx12_Lock_policyE2EEC1IN5telux6common18FunctionalCallbackIJSt6vectorINS4_3tel12OperatorInfoESaIS9_EENS5_9ErrorCodeEEEESaISD_EJRSt8functionIFvSB_SC_EEEEESt19_Sp_make_shared_tagPT_RKT0_DpOT1_=so_stub_for_libtelux_tel
-Wl,--defsym=_ZNSt14__shared_countILN9__gnu_cxx12_Lock_policyE2EEC1IN5telux6common18FunctionalCallbackIJSt6vectorINS4_3tel19CellBroadcastFilterESaIS9_EENS5_9ErrorCodeEEEESaISD_EJRSt8functionIFvSB_SC_EEEEESt19_Sp_make_shared_tagPT_RKT0_DpOT1_=so_stub_for_libtelux_tel
-Wl,--defsym=_ZNSt14__shared_countILN9__gnu_cxx12_Lock_policyE2EEC1IN5telux6common18FunctionalCallbackIJSt6vectorINS4_3tel20PreferredNetworkInfoESaIS9_EESB_NS5_9ErrorCodeEEEESaISD_EJRSt8functionIFvSB_SB_SC_EEEEESt19_Sp_make_shared_tagPT_RKT0_DpOT1_=so_stub_for_libtelux_tel
-Wl,--defsym=_ZNSt14__shared_countILN9__gnu_cxx12_Lock_policyE2EEC1IN5telux6common18FunctionalCallbackIJSt6vectorISt10shared_ptrINS4_3tel8CellInfoEESaISB_EENS5_9ErrorCodeEEEESaISF_EJRSt8functionIFvSD_SE_EEEEESt19_Sp_make_shared_tagPT_RKT0_DpOT1_=so_stub_for_libtelux_tel
-Wl,--defsym=_ZNSt14__shared_countILN9__gnu_cxx12_Lock_policyE2EEC2ERKSt12__weak_countILS1_2EESt9nothrow_t=so_stub_for_libtelux_tel
-Wl,--defsym=_ZNSt14__shared_countILN9__gnu_cxx12_Lock_policyE2EEC2I6ParcelSaIS4_EJEEESt19_Sp_make_shared_tagPT_RKT0_DpOT1_=so_stub_for_libtelux_tel
-Wl,--defsym=_ZNSt14__shared_countILN9__gnu_cxx12_Lock_policyE2EEC2IN5telux3tel11CallManagerESaIS6_EJEEESt19_Sp_make_shared_tagPT_RKT0_DpOT1_=so_stub_for_libtelux_tel
-Wl,--defsym=_ZNSt14__shared_countILN9__gnu_cxx12_Lock_policyE2EEC2IN5telux3tel11CardAppImplESaIS6_EJRiRNS5_13CardAppStatusEEEESt19_Sp_make_shared_tagPT_RKT0_DpOT1_=so_stub_for_libtelux_tel
-Wl,--defsym=_ZNSt14__shared_countILN9__gnu_cxx12_Lock_policyE2EEC2IN5telux3tel12PhoneManagerESaIS6_EJEEESt19_Sp_make_shared_tagPT_RKT0_DpOT1_=so_stub_for_libtelux_tel
-Wl,--defsym=_ZNSt14__shared_countILN9__gnu_cxx12_Lock_policyE2EEC2IN5telux3tel13WcdmaCellInfoESaIS6_EJRiRNS5_17WcdmaCellIdentityERNS5_23WcdmaSignalStrengthInfoEEEESt19_Sp_make_shared_tagPT_RKT0_DpOT1_=so_stub_for_libtelux_tel
-Wl,--defsym=_ZNSt14__shared_countILN9__gnu_cxx12_Lock_policyE2EEC2IN5telux3tel15CardManagerImplESaIS6_EJEEESt19_Sp_make_shared_tagPT_RKT0_DpOT1_=so_stub_for_libtelux_tel
-Wl,--defsym=_ZNSt14__shared_countILN9__gnu_cxx12_Lock_policyE2EEC2IN5telux3tel15MultiSimManagerESaIS6_EJEEESt19_Sp_make_shared_tagPT_RKT0_DpOT1_=so_stub_for_libtelux_tel
-Wl,--defsym=_ZNSt14__shared_countILN9__gnu_cxx12_Lock_policyE2EEC2IN5telux3tel15TdscdmaCellInfoESaIS6_EJRiRNS5_19TdscdmaCellIdentityERNS5_25TdscdmaSignalStrengthInfoEEEESt19_Sp_make_shared_tagPT_RKT0_DpOT1_=so_stub_for_libtelux_tel
-Wl,--defsym=_ZNSt14__shared_countILN9__gnu_cxx12_Lock_policyE2EEC2IN5telux3tel19SubscriptionManagerESaIS6_EJEEESt19_Sp_make_shared_tagPT_RKT0_DpOT1_=so_stub_for_libtelux_tel
-Wl,--defsym=_ZNSt14__shared_countILN9__gnu_cxx12_Lock_policyE2EEC2IN5telux3tel21SimProfileManagerImplESaIS6_EJEEESt19_Sp_make_shared_tagPT_RKT0_DpOT1_=so_stub_for_libtelux_tel
-Wl,--defsym=_ZNSt14__shared_countILN9__gnu_cxx12_Lock_policyE2EEC2IN5telux3tel3ril8ResponseESaIS7_EJRiRSt10shared_ptrI6ParcelEEEESt19_Sp_make_shared_tagPT_RKT0_DpOT1_=so_stub_for_libtelux_tel
-Wl,--defsym=_ZNSt14__shared_countILN9__gnu_cxx12_Lock_policyE2EEC2IN5telux3tel4CallESaIS6_EJRiRNS5_8CallInfoEEEESt19_Sp_make_shared_tagPT_RKT0_DpOT1_=so_stub_for_libtelux_tel
-Wl,--defsym=_ZNSt14__shared_countILN9__gnu_cxx12_Lock_policyE2EEC2IN5telux6common18FunctionalCallbackIJbbNS5_9ErrorCodeEEEESaIS8_EJRSt8functionIFvbbS7_EEEEESt19_Sp_make_shared_tagPT_RKT0_DpOT1_=so_stub_for_libtelux_tel
-Wl,--defsym=_ZNSt14__shared_countILN9__gnu_cxx12_Lock_policyE2EEC2IN5telux6common18FunctionalCallbackIJbNS5_9ErrorCodeEEEESaIS8_EJRSt8functionIFvbS7_EEEEESt19_Sp_make_shared_tagPT_RKT0_DpOT1_=so_stub_for_libtelux_tel
-Wl,--defsym=_ZNSt14__shared_countILN9__gnu_cxx12_Lock_policyE2EEC2IN5telux6common18FunctionalCallbackIJiNS5_9ErrorCodeEEEESaIS8_EJRSt8functionIFviS7_EEEEESt19_Sp_make_shared_tagPT_RKT0_DpOT1_=so_stub_for_libtelux_tel
-Wl,--defsym=_ZNSt14__shared_countILN9__gnu_cxx12_Lock_policyE2EEC2IN5telux6common18FunctionalCallbackIJNS4_3tel15RadioTechnologyENS5_9ErrorCodeEEEESaISA_EJRSt8functionIFvS8_S9_EEEEESt19_Sp_make_shared_tagPT_RKT0_DpOT1_=so_stub_for_libtelux_tel
-Wl,--defsym=_ZNSt14__shared_countILN9__gnu_cxx12_Lock_policyE2EEC2IN5telux6common18FunctionalCallbackIJNS4_3tel20NetworkSelectionModeENS5_9ErrorCodeEEEESaISA_EJRSt8functionIFvS8_S9_EEEEESt19_Sp_make_shared_tagPT_RKT0_DpOT1_=so_stub_for_libtelux_tel
-Wl,--defsym=_ZNSt14__shared_countILN9__gnu_cxx12_Lock_policyE2EEC2IN5telux6common18FunctionalCallbackIJNS4_3tel23ServiceDomainPreferenceENS5_9ErrorCodeEEEESaISA_EJRSt8functionIFvS8_S9_EEEEESt19_Sp_make_shared_tagPT_RKT0_DpOT1_=so_stub_for_libtelux_tel
-Wl,--defsym=_ZNSt14__shared_countILN9__gnu_cxx12_Lock_policyE2EEC2IN5telux6common18FunctionalCallbackIJNS4_3tel8SapStateENS5_9ErrorCodeEEEESaISA_EJRSt8functionIFvS8_S9_EEEEESt19_Sp_make_shared_tagPT_RKT0_DpOT1_=so_stub_for_libtelux_tel
-Wl,--defsym=_ZNSt14__shared_countILN9__gnu_cxx12_Lock_policyE2EEC2IN5telux6common18FunctionalCallbackIJNS4_3tel9ECallModeENS5_9ErrorCodeEEEESaISA_EJRSt8functionIFvS8_S9_EEEEESt19_Sp_make_shared_tagPT_RKT0_DpOT1_=so_stub_for_libtelux_tel
-Wl,--defsym=_ZNSt14__shared_countILN9__gnu_cxx12_Lock_policyE2EEC2IN5telux6common18FunctionalCallbackIJNS5_9ErrorCodeEEEESaIS8_EJRSt8functionIFvS7_EEEEESt19_Sp_make_shared_tagPT_RKT0_DpOT1_=so_stub_for_libtelux_tel
-Wl,--defsym=_ZNSt14__shared_countILN9__gnu_cxx12_Lock_policyE2EEC2IN5telux6common18FunctionalCallbackIJNS5_9ErrorCodeEiNS4_3tel20ECallHlapTimerStatusEEEESaISA_EJRSt8functionIFvS7_iS9_EEEEESt19_Sp_make_shared_tagPT_RKT0_DpOT1_=so_stub_for_libtelux_tel
-Wl,--defsym=_ZNSt14__shared_countILN9__gnu_cxx12_Lock_policyE2EEC2IN5telux6common18FunctionalCallbackIJNS5_9ErrorCodeESt10shared_ptrINS4_3tel5ICallEEEEESaISC_EJRSt8functionIFvS7_SB_EEEEESt19_Sp_make_shared_tagPT_RKT0_DpOT1_=so_stub_for_libtelux_tel
-Wl,--defsym=_ZNSt14__shared_countILN9__gnu_cxx12_Lock_policyE2EEC2IN5telux6common18FunctionalCallbackIJNSt7__cxx1112basic_stringIcSt11char_traitsIcESaIcEEENS5_9ErrorCodeEEEESaISE_EJRSt8functionIFvSC_SD_EEEEESt19_Sp_make_shared_tagPT_RKT0_DpOT1_=so_stub_for_libtelux_tel
-Wl,--defsym=_ZNSt14__shared_countILN9__gnu_cxx12_Lock_policyE2EEC2IN5telux6common18FunctionalCallbackIJRKNSt7__cxx1112basic_stringIcSt11char_traitsIcESaIcEEENS5_9ErrorCodeEEEESaISG_EJRSt8functionIFvSE_SF_EEEEESt19_Sp_make_shared_tagPT_RKT0_DpOT1_=so_stub_for_libtelux_tel
-Wl,--defsym=_ZNSt14__shared_countILN9__gnu_cxx12_Lock_policyE2EEC2IN5telux6common18FunctionalCallbackIJRKSt6vectorISt10shared_ptrINS4_3tel10SimProfileEESaISB_EENS5_9ErrorCodeEEEESaISH_EJRSt8functionIFvSF_SG_EEEEESt19_Sp_make_shared_tagPT_RKT0_DpOT1_=so_stub_for_libtelux_tel
-Wl,--defsym=_ZNSt14__shared_countILN9__gnu_cxx12_Lock_policyE2EEC2IN5telux6common18FunctionalCallbackIJSt3mapI6SlotIdNS4_3tel10SlotStatusESt4lessIS8_ESaISt4pairIKS8_SA_EEENS5_9ErrorCodeEEEESaISJ_EJRSt8functionIFvSH_SI_EEEEESt19_Sp_make_shared_tagPT_RKT0_DpOT1_=so_stub_for_libtelux_tel
-Wl,--defsym=_ZNSt14__shared_countILN9__gnu_cxx12_Lock_policyE2EEC2IN5telux6common18FunctionalCallbackIJSt6bitsetILj16EENS5_9ErrorCodeEEEESaISA_EJRSt8functionIFvS8_S9_EEEEESt19_Sp_make_shared_tagPT_RKT0_DpOT1_=so_stub_for_libtelux_tel
-Wl,--defsym=_ZNSt14__shared_countILN9__gnu_cxx12_Lock_policyE2EEC2IN5telux6common18FunctionalCallbackIJSt6vectorINS4_3tel12OperatorInfoESaIS9_EENS5_9ErrorCodeEEEESaISD_EJRSt8functionIFvSB_SC_EEEEESt19_Sp_make_shared_tagPT_RKT0_DpOT1_=so_stub_for_libtelux_tel
-Wl,--defsym=_ZNSt14__shared_countILN9__gnu_cxx12_Lock_policyE2EEC2IN5telux6common18FunctionalCallbackIJSt6vectorINS4_3tel19CellBroadcastFilterESaIS9_EENS5_9ErrorCodeEEEESaISD_EJRSt8functionIFvSB_SC_EEEEESt19_Sp_make_shared_tagPT_RKT0_DpOT1_=so_stub_for_libtelux_tel
-Wl,--defsym=_ZNSt14__shared_countILN9__gnu_cxx12_Lock_policyE2EEC2IN5telux6common18FunctionalCallbackIJSt6vectorINS4_3tel20PreferredNetworkInfoESaIS9_EESB_NS5_9ErrorCodeEEEESaISD_EJRSt8functionIFvSB_SB_SC_EEEEESt19_Sp_make_shared_tagPT_RKT0_DpOT1_=so_stub_for_libtelux_tel
-Wl,--defsym=_ZNSt14__shared_countILN9__gnu_cxx12_Lock_policyE2EEC2IN5telux6common18FunctionalCallbackIJSt6vectorISt10shared_ptrINS4_3tel8CellInfoEESaISB_EENS5_9ErrorCodeEEEESaISF_EJRSt8functionIFvSD_SE_EEEEESt19_Sp_make_shared_tagPT_RKT0_DpOT1_=so_stub_for_libtelux_tel
-Wl,--defsym=_ZNSt15_Deque_iteratorISt13shared_futureIvERS1_PS1_EpLEi=so_stub_for_libtelux_tel
-Wl,--defsym=_ZNSt15__exception_ptr12__dest_thunkISt12future_errorEEvPv=so_stub_for_libtelux_tel
-Wl,--defsym=_ZNSt15_Sp_counted_ptrIDnLN9__gnu_cxx12_Lock_policyE2EE10_M_disposeEv=so_stub_for_libtelux_tel
-Wl,--defsym=_ZNSt16_Sp_counted_baseILN9__gnu_cxx12_Lock_policyE2EE10_M_destroyEv=so_stub_for_libtelux_tel
-Wl,--defsym=_ZNSt16_Sp_counted_baseILN9__gnu_cxx12_Lock_policyE2EE10_M_releaseEv=so_stub_for_libtelux_tel
-Wl,--defsym=_ZNSt16_Sp_counted_baseILN9__gnu_cxx12_Lock_policyE2EE15_M_add_ref_lockEv=so_stub_for_libtelux_tel
-Wl,--defsym=_ZNSt16_Sp_counted_baseILN9__gnu_cxx12_Lock_policyE2EE15_M_weak_releaseEv=so_stub_for_libtelux_tel
-Wl,--defsym=_ZNSt17_Function_handlerIFbcENSt8__detail11_AnyMatcherINSt7__cxx1112regex_traitsIcEELb0ELb0ELb0EEEE9_M_invokeERKSt9_Any_dataOc=so_stub_for_libtelux_tel
-Wl,--defsym=_ZNSt17_Function_handlerIFbcENSt8__detail11_AnyMatcherINSt7__cxx1112regex_traitsIcEELb0ELb0ELb1EEEE9_M_invokeERKSt9_Any_dataOc=so_stub_for_libtelux_tel
-Wl,--defsym=_ZNSt17_Function_handlerIFbcENSt8__detail11_AnyMatcherINSt7__cxx1112regex_traitsIcEELb0ELb1ELb0EEEE9_M_invokeERKSt9_Any_dataOc=so_stub_for_libtelux_tel
-Wl,--defsym=_ZNSt17_Function_handlerIFbcENSt8__detail11_AnyMatcherINSt7__cxx1112regex_traitsIcEELb0ELb1ELb1EEEE9_M_invokeERKSt9_Any_dataOc=so_stub_for_libtelux_tel
-Wl,--defsym=_ZNSt17_Function_handlerIFbcENSt8__detail11_AnyMatcherINSt7__cxx1112regex_traitsIcEELb1ELb0ELb0EEEE9_M_invokeERKSt9_Any_dataOc=so_stub_for_libtelux_tel
-Wl,--defsym=_ZNSt17_Function_handlerIFbcENSt8__detail11_AnyMatcherINSt7__cxx1112regex_traitsIcEELb1ELb0ELb1EEEE9_M_invokeERKSt9_Any_dataOc=so_stub_for_libtelux_tel
-Wl,--defsym=_ZNSt17_Function_handlerIFbcENSt8__detail11_AnyMatcherINSt7__cxx1112regex_traitsIcEELb1ELb1ELb0EEEE9_M_invokeERKSt9_Any_dataOc=so_stub_for_libtelux_tel
-Wl,--defsym=_ZNSt17_Function_handlerIFbcENSt8__detail11_AnyMatcherINSt7__cxx1112regex_traitsIcEELb1ELb1ELb1EEEE9_M_invokeERKSt9_Any_dataOc=so_stub_for_libtelux_tel
-Wl,--defsym=_ZNSt17_Function_handlerIFbcENSt8__detail12_CharMatcherINSt7__cxx1112regex_traitsIcEELb0ELb0EEEE9_M_invokeERKSt9_Any_dataOc=so_stub_for_libtelux_tel
-Wl,--defsym=_ZNSt17_Function_handlerIFbcENSt8__detail12_CharMatcherINSt7__cxx1112regex_traitsIcEELb0ELb1EEEE9_M_invokeERKSt9_Any_dataOc=so_stub_for_libtelux_tel
-Wl,--defsym=_ZNSt17_Function_handlerIFbcENSt8__detail12_CharMatcherINSt7__cxx1112regex_traitsIcEELb1ELb0EEEE9_M_invokeERKSt9_Any_dataOc=so_stub_for_libtelux_tel
-Wl,--defsym=_ZNSt17_Function_handlerIFbcENSt8__detail12_CharMatcherINSt7__cxx1112regex_traitsIcEELb1ELb1EEEE9_M_invokeERKSt9_Any_dataOc=so_stub_for_libtelux_tel
-Wl,--defsym=_ZNSt17_Function_handlerIFbcENSt8__detail15_BracketMatcherINSt7__cxx1112regex_traitsIcEELb0ELb0EEEE9_M_invokeERKSt9_Any_dataOc=so_stub_for_libtelux_tel
-Wl,--defsym=_ZNSt17_Function_handlerIFbcENSt8__detail15_BracketMatcherINSt7__cxx1112regex_traitsIcEELb0ELb1EEEE9_M_invokeERKSt9_Any_dataOc=so_stub_for_libtelux_tel
-Wl,--defsym=_ZNSt17_Function_handlerIFbcENSt8__detail15_BracketMatcherINSt7__cxx1112regex_traitsIcEELb1ELb0EEEE9_M_invokeERKSt9_Any_dataOc=so_stub_for_libtelux_tel
-Wl,--defsym=_ZNSt17_Function_handlerIFbcENSt8__detail15_BracketMatcherINSt7__cxx1112regex_traitsIcEELb1ELb1EEEE9_M_invokeERKSt9_Any_dataOc=so_stub_for_libtelux_tel
-Wl,--defsym=_ZNSt18codecvt_utf8_utf16IDsLm1114111ELSt12codecvt_mode0EED0Ev=so_stub_for_libtelux_tel
-Wl,--defsym=_ZNSt18codecvt_utf8_utf16IDsLm1114111ELSt12codecvt_mode0EED1Ev=so_stub_for_libtelux_tel
-Wl,--defsym=_ZNSt18codecvt_utf8_utf16IDsLm1114111ELSt12codecvt_mode0EED2Ev=so_stub_for_libtelux_tel
-Wl,--defsym=_ZNSt20__copy_move_backwardILb1ELb0ESt26random_access_iterator_tagE13__copy_move_bIPSt13shared_futureIvES5_EET0_T_S7_S6_=so_stub_for_libtelux_tel
-Wl,--defsym=_ZNSt20__uninitialized_copyILb0EE13__uninit_copyIN9__gnu_cxx17__normal_iteratorIPKN5telux3tel13CardAppStatusESt6vectorIS6_SaIS6_EEEEPS6_EET0_T_SF_SE_=so_stub_for_libtelux_tel
-Wl,--defsym=_ZNSt20__uninitialized_copyILb0EE13__uninit_copyIN9__gnu_cxx17__normal_iteratorIPKN5telux3tel8CallInfoESt6vectorIS6_SaIS6_EEEEPS6_EET0_T_SF_SE_=so_stub_for_libtelux_tel
-Wl,--defsym=_ZNSt20__uninitialized_copyILb0EE13__uninit_copyIN9__gnu_cxx17__normal_iteratorIPKNSt7__cxx1112basic_stringIcSt11char_traitsIcESaIcEEESt6vectorIS9_SaIS9_EEEEPS9_EET0_T_SI_SH_=so_stub_for_libtelux_tel
-Wl,--defsym=_ZNSt20__uninitialized_copyILb0EE13__uninit_copyIN9__gnu_cxx17__normal_iteratorIPKSt4pairINSt7__cxx1112basic_stringIcSt11char_traitsIcESaIcEEESA_ESt6vectorISB_SaISB_EEEEPSB_EET0_T_SK_SJ_=so_stub_for_libtelux_tel
-Wl,--defsym=_ZNSt20__uninitialized_copyILb0EE13__uninit_copyIPK20GsmCmasCellbroadcastPS2_EET0_T_S7_S6_=so_stub_for_libtelux_tel
-Wl,--defsym=_ZNSt20__uninitialized_copyILb0EE13__uninit_copyIPKN5telux3tel8CallInfoEPS4_EET0_T_S9_S8_=so_stub_for_libtelux_tel
-Wl,--defsym=_ZNSt20__uninitialized_copyILb0EE13__uninit_copyIPKNSt8__detail6_StateIcEEPS4_EET0_T_S9_S8_=so_stub_for_libtelux_tel
-Wl,--defsym=_ZNSt20__uninitialized_copyILb0EE13__uninit_copyIPN5telux3tel8CallInfoES5_EET0_T_S7_S6_=so_stub_for_libtelux_tel
-Wl,--defsym=_ZNSt20__uninitialized_copyILb0EE13__uninit_copyISt13move_iteratorIPSt4pairINSt7__cxx1112basic_stringIcSt11char_traitsIcESaIcEEES9_EESB_EET0_T_SE_SD_=so_stub_for_libtelux_tel
-Wl,--defsym=_ZNSt23__atomic_futex_unsignedILj2147483648EE22_M_load_and_test_untilEjjbSt12memory_orderbNSt6chrono8durationIxSt5ratioILx1ELx1EEEENS3_IxS4_ILx1ELx1000000000EEEE=so_stub_for_libtelux_tel
-Wl,--defsym=_ZNSt23_Sp_counted_ptr_inplaceI6ParcelSaIS0_ELN9__gnu_cxx12_Lock_policyE2EE10_M_destroyEv=so_stub_for_libtelux_tel
-Wl,--defsym=_ZNSt23_Sp_counted_ptr_inplaceI6ParcelSaIS0_ELN9__gnu_cxx12_Lock_policyE2EE10_M_disposeEv=so_stub_for_libtelux_tel
-Wl,--defsym=_ZNSt23_Sp_counted_ptr_inplaceI6ParcelSaIS0_ELN9__gnu_cxx12_Lock_policyE2EE14_M_get_deleterERKSt9type_info=so_stub_for_libtelux_tel
-Wl,--defsym=_ZNSt23_Sp_counted_ptr_inplaceI6ParcelSaIS0_ELN9__gnu_cxx12_Lock_policyE2EED0Ev=so_stub_for_libtelux_tel
-Wl,--defsym=_ZNSt23_Sp_counted_ptr_inplaceI6ParcelSaIS0_ELN9__gnu_cxx12_Lock_policyE2EED1Ev=so_stub_for_libtelux_tel
-Wl,--defsym=_ZNSt23_Sp_counted_ptr_inplaceI6ParcelSaIS0_ELN9__gnu_cxx12_Lock_policyE2EED2Ev=so_stub_for_libtelux_tel
-Wl,--defsym=_ZNSt23_Sp_counted_ptr_inplaceIN5telux3tel10SimProfileESaIS2_ELN9__gnu_cxx12_Lock_policyE2EE10_M_destroyEv=so_stub_for_libtelux_tel
-Wl,--defsym=_ZNSt23_Sp_counted_ptr_inplaceIN5telux3tel10SimProfileESaIS2_ELN9__gnu_cxx12_Lock_policyE2EE10_M_disposeEv=so_stub_for_libtelux_tel
-Wl,--defsym=_ZNSt23_Sp_counted_ptr_inplaceIN5telux3tel10SimProfileESaIS2_ELN9__gnu_cxx12_Lock_policyE2EE14_M_get_deleterERKSt9type_info=so_stub_for_libtelux_tel
-Wl,--defsym=_ZNSt23_Sp_counted_ptr_inplaceIN5telux3tel10SimProfileESaIS2_ELN9__gnu_cxx12_Lock_policyE2EED0Ev=so_stub_for_libtelux_tel
-Wl,--defsym=_ZNSt23_Sp_counted_ptr_inplaceIN5telux3tel10SimProfileESaIS2_ELN9__gnu_cxx12_Lock_policyE2EED1Ev=so_stub_for_libtelux_tel
-Wl,--defsym=_ZNSt23_Sp_counted_ptr_inplaceIN5telux3tel10SimProfileESaIS2_ELN9__gnu_cxx12_Lock_policyE2EED2Ev=so_stub_for_libtelux_tel
-Wl,--defsym=_ZNSt23_Sp_counted_ptr_inplaceIN5telux3tel10SmsManagerESaIS2_ELN9__gnu_cxx12_Lock_policyE2EE10_M_destroyEv=so_stub_for_libtelux_tel
-Wl,--defsym=_ZNSt23_Sp_counted_ptr_inplaceIN5telux3tel10SmsManagerESaIS2_ELN9__gnu_cxx12_Lock_policyE2EE10_M_disposeEv=so_stub_for_libtelux_tel
-Wl,--defsym=_ZNSt23_Sp_counted_ptr_inplaceIN5telux3tel10SmsManagerESaIS2_ELN9__gnu_cxx12_Lock_policyE2EE14_M_get_deleterERKSt9type_info=so_stub_for_libtelux_tel
-Wl,--defsym=_ZNSt23_Sp_counted_ptr_inplaceIN5telux3tel10SmsManagerESaIS2_ELN9__gnu_cxx12_Lock_policyE2EED0Ev=so_stub_for_libtelux_tel
-Wl,--defsym=_ZNSt23_Sp_counted_ptr_inplaceIN5telux3tel10SmsManagerESaIS2_ELN9__gnu_cxx12_Lock_policyE2EED1Ev=so_stub_for_libtelux_tel
-Wl,--defsym=_ZNSt23_Sp_counted_ptr_inplaceIN5telux3tel10SmsManagerESaIS2_ELN9__gnu_cxx12_Lock_policyE2EED2Ev=so_stub_for_libtelux_tel
-Wl,--defsym=_ZNSt23_Sp_counted_ptr_inplaceIN5telux3tel10SmsMessageESaIS2_ELN9__gnu_cxx12_Lock_policyE2EE10_M_destroyEv=so_stub_for_libtelux_tel
-Wl,--defsym=_ZNSt23_Sp_counted_ptr_inplaceIN5telux3tel10SmsMessageESaIS2_ELN9__gnu_cxx12_Lock_policyE2EE10_M_disposeEv=so_stub_for_libtelux_tel
-Wl,--defsym=_ZNSt23_Sp_counted_ptr_inplaceIN5telux3tel10SmsMessageESaIS2_ELN9__gnu_cxx12_Lock_policyE2EE14_M_get_deleterERKSt9type_info=so_stub_for_libtelux_tel
-Wl,--defsym=_ZNSt23_Sp_counted_ptr_inplaceIN5telux3tel10SmsMessageESaIS2_ELN9__gnu_cxx12_Lock_policyE2EED0Ev=so_stub_for_libtelux_tel
-Wl,--defsym=_ZNSt23_Sp_counted_ptr_inplaceIN5telux3tel10SmsMessageESaIS2_ELN9__gnu_cxx12_Lock_policyE2EED1Ev=so_stub_for_libtelux_tel
-Wl,--defsym=_ZNSt23_Sp_counted_ptr_inplaceIN5telux3tel10SmsMessageESaIS2_ELN9__gnu_cxx12_Lock_policyE2EED2Ev=so_stub_for_libtelux_tel
-Wl,--defsym=_ZNSt23_Sp_counted_ptr_inplaceIN5telux3tel11CallManager15ResponseHandlerESaIS3_ELN9__gnu_cxx12_Lock_policyE2EE10_M_destroyEv=so_stub_for_libtelux_tel
-Wl,--defsym=_ZNSt23_Sp_counted_ptr_inplaceIN5telux3tel11CallManager15ResponseHandlerESaIS3_ELN9__gnu_cxx12_Lock_policyE2EE10_M_disposeEv=so_stub_for_libtelux_tel
-Wl,--defsym=_ZNSt23_Sp_counted_ptr_inplaceIN5telux3tel11CallManager15ResponseHandlerESaIS3_ELN9__gnu_cxx12_Lock_policyE2EE14_M_get_deleterERKSt9type_info=so_stub_for_libtelux_tel
-Wl,--defsym=_ZNSt23_Sp_counted_ptr_inplaceIN5telux3tel11CallManager15ResponseHandlerESaIS3_ELN9__gnu_cxx12_Lock_policyE2EED0Ev=so_stub_for_libtelux_tel
-Wl,--defsym=_ZNSt23_Sp_counted_ptr_inplaceIN5telux3tel11CallManager15ResponseHandlerESaIS3_ELN9__gnu_cxx12_Lock_policyE2EED1Ev=so_stub_for_libtelux_tel
-Wl,--defsym=_ZNSt23_Sp_counted_ptr_inplaceIN5telux3tel11CallManager15ResponseHandlerESaIS3_ELN9__gnu_cxx12_Lock_policyE2EED2Ev=so_stub_for_libtelux_tel
-Wl,--defsym=_ZNSt23_Sp_counted_ptr_inplaceIN5telux3tel11CallManagerESaIS2_ELN9__gnu_cxx12_Lock_policyE2EE10_M_destroyEv=so_stub_for_libtelux_tel
-Wl,--defsym=_ZNSt23_Sp_counted_ptr_inplaceIN5telux3tel11CallManagerESaIS2_ELN9__gnu_cxx12_Lock_policyE2EE10_M_disposeEv=so_stub_for_libtelux_tel
-Wl,--defsym=_ZNSt23_Sp_counted_ptr_inplaceIN5telux3tel11CallManagerESaIS2_ELN9__gnu_cxx12_Lock_policyE2EE14_M_get_deleterERKSt9type_info=so_stub_for_libtelux_tel
-Wl,--defsym=_ZNSt23_Sp_counted_ptr_inplaceIN5telux3tel11CallManagerESaIS2_ELN9__gnu_cxx12_Lock_policyE2EED0Ev=so_stub_for_libtelux_tel
-Wl,--defsym=_ZNSt23_Sp_counted_ptr_inplaceIN5telux3tel11CallManagerESaIS2_ELN9__gnu_cxx12_Lock_policyE2EED1Ev=so_stub_for_libtelux_tel
-Wl,--defsym=_ZNSt23_Sp_counted_ptr_inplaceIN5telux3tel11CallManagerESaIS2_ELN9__gnu_cxx12_Lock_policyE2EED2Ev=so_stub_for_libtelux_tel
-Wl,--defsym=_ZNSt23_Sp_counted_ptr_inplaceIN5telux3tel11CardAppImplESaIS2_ELN9__gnu_cxx12_Lock_policyE2EE10_M_destroyEv=so_stub_for_libtelux_tel
-Wl,--defsym=_ZNSt23_Sp_counted_ptr_inplaceIN5telux3tel11CardAppImplESaIS2_ELN9__gnu_cxx12_Lock_policyE2EE10_M_disposeEv=so_stub_for_libtelux_tel
-Wl,--defsym=_ZNSt23_Sp_counted_ptr_inplaceIN5telux3tel11CardAppImplESaIS2_ELN9__gnu_cxx12_Lock_policyE2EE14_M_get_deleterERKSt9type_info=so_stub_for_libtelux_tel
-Wl,--defsym=_ZNSt23_Sp_counted_ptr_inplaceIN5telux3tel11CardAppImplESaIS2_ELN9__gnu_cxx12_Lock_policyE2EED0Ev=so_stub_for_libtelux_tel
-Wl,--defsym=_ZNSt23_Sp_counted_ptr_inplaceIN5telux3tel11CardAppImplESaIS2_ELN9__gnu_cxx12_Lock_policyE2EED1Ev=so_stub_for_libtelux_tel
-Wl,--defsym=_ZNSt23_Sp_counted_ptr_inplaceIN5telux3tel11CardAppImplESaIS2_ELN9__gnu_cxx12_Lock_policyE2EED2Ev=so_stub_for_libtelux_tel
-Wl,--defsym=_ZNSt23_Sp_counted_ptr_inplaceIN5telux3tel11GsmCellInfoESaIS2_ELN9__gnu_cxx12_Lock_policyE2EE10_M_destroyEv=so_stub_for_libtelux_tel
-Wl,--defsym=_ZNSt23_Sp_counted_ptr_inplaceIN5telux3tel11GsmCellInfoESaIS2_ELN9__gnu_cxx12_Lock_policyE2EE10_M_disposeEv=so_stub_for_libtelux_tel
-Wl,--defsym=_ZNSt23_Sp_counted_ptr_inplaceIN5telux3tel11GsmCellInfoESaIS2_ELN9__gnu_cxx12_Lock_policyE2EE14_M_get_deleterERKSt9type_info=so_stub_for_libtelux_tel
-Wl,--defsym=_ZNSt23_Sp_counted_ptr_inplaceIN5telux3tel11GsmCellInfoESaIS2_ELN9__gnu_cxx12_Lock_policyE2EED0Ev=so_stub_for_libtelux_tel
-Wl,--defsym=_ZNSt23_Sp_counted_ptr_inplaceIN5telux3tel11GsmCellInfoESaIS2_ELN9__gnu_cxx12_Lock_policyE2EED1Ev=so_stub_for_libtelux_tel
-Wl,--defsym=_ZNSt23_Sp_counted_ptr_inplaceIN5telux3tel11GsmCellInfoESaIS2_ELN9__gnu_cxx12_Lock_policyE2EED2Ev=so_stub_for_libtelux_tel
-Wl,--defsym=_ZNSt23_Sp_counted_ptr_inplaceIN5telux3tel11LteCellInfoESaIS2_ELN9__gnu_cxx12_Lock_policyE2EE10_M_destroyEv=so_stub_for_libtelux_tel
-Wl,--defsym=_ZNSt23_Sp_counted_ptr_inplaceIN5telux3tel11LteCellInfoESaIS2_ELN9__gnu_cxx12_Lock_policyE2EE10_M_disposeEv=so_stub_for_libtelux_tel
-Wl,--defsym=_ZNSt23_Sp_counted_ptr_inplaceIN5telux3tel11LteCellInfoESaIS2_ELN9__gnu_cxx12_Lock_policyE2EE14_M_get_deleterERKSt9type_info=so_stub_for_libtelux_tel
-Wl,--defsym=_ZNSt23_Sp_counted_ptr_inplaceIN5telux3tel11LteCellInfoESaIS2_ELN9__gnu_cxx12_Lock_policyE2EED0Ev=so_stub_for_libtelux_tel
-Wl,--defsym=_ZNSt23_Sp_counted_ptr_inplaceIN5telux3tel11LteCellInfoESaIS2_ELN9__gnu_cxx12_Lock_policyE2EED1Ev=so_stub_for_libtelux_tel
-Wl,--defsym=_ZNSt23_Sp_counted_ptr_inplaceIN5telux3tel11LteCellInfoESaIS2_ELN9__gnu_cxx12_Lock_policyE2EED2Ev=so_stub_for_libtelux_tel
-Wl,--defsym=_ZNSt23_Sp_counted_ptr_inplaceIN5telux3tel12CdmaCellInfoESaIS2_ELN9__gnu_cxx12_Lock_policyE2EE10_M_destroyEv=so_stub_for_libtelux_tel
-Wl,--defsym=_ZNSt23_Sp_counted_ptr_inplaceIN5telux3tel12CdmaCellInfoESaIS2_ELN9__gnu_cxx12_Lock_policyE2EE10_M_disposeEv=so_stub_for_libtelux_tel
-Wl,--defsym=_ZNSt23_Sp_counted_ptr_inplaceIN5telux3tel12CdmaCellInfoESaIS2_ELN9__gnu_cxx12_Lock_policyE2EE14_M_get_deleterERKSt9type_info=so_stub_for_libtelux_tel
-Wl,--defsym=_ZNSt23_Sp_counted_ptr_inplaceIN5telux3tel12CdmaCellInfoESaIS2_ELN9__gnu_cxx12_Lock_policyE2EED0Ev=so_stub_for_libtelux_tel
-Wl,--defsym=_ZNSt23_Sp_counted_ptr_inplaceIN5telux3tel12CdmaCellInfoESaIS2_ELN9__gnu_cxx12_Lock_policyE2EED1Ev=so_stub_for_libtelux_tel
-Wl,--defsym=_ZNSt23_Sp_counted_ptr_inplaceIN5telux3tel12CdmaCellInfoESaIS2_ELN9__gnu_cxx12_Lock_policyE2EED2Ev=so_stub_for_libtelux_tel
-Wl,--defsym=_ZNSt23_Sp_counted_ptr_inplaceIN5telux3tel12PhoneManagerESaIS2_ELN9__gnu_cxx12_Lock_policyE2EE10_M_destroyEv=so_stub_for_libtelux_tel
-Wl,--defsym=_ZNSt23_Sp_counted_ptr_inplaceIN5telux3tel12PhoneManagerESaIS2_ELN9__gnu_cxx12_Lock_policyE2EE10_M_disposeEv=so_stub_for_libtelux_tel
-Wl,--defsym=_ZNSt23_Sp_counted_ptr_inplaceIN5telux3tel12PhoneManagerESaIS2_ELN9__gnu_cxx12_Lock_policyE2EE14_M_get_deleterERKSt9type_info=so_stub_for_libtelux_tel
-Wl,--defsym=_ZNSt23_Sp_counted_ptr_inplaceIN5telux3tel12PhoneManagerESaIS2_ELN9__gnu_cxx12_Lock_policyE2EED0Ev=so_stub_for_libtelux_tel
-Wl,--defsym=_ZNSt23_Sp_counted_ptr_inplaceIN5telux3tel12PhoneManagerESaIS2_ELN9__gnu_cxx12_Lock_policyE2EED1Ev=so_stub_for_libtelux_tel
-Wl,--defsym=_ZNSt23_Sp_counted_ptr_inplaceIN5telux3tel12PhoneManagerESaIS2_ELN9__gnu_cxx12_Lock_policyE2EED2Ev=so_stub_for_libtelux_tel
-Wl,--defsym=_ZNSt23_Sp_counted_ptr_inplaceIN5telux3tel13WcdmaCellInfoESaIS2_ELN9__gnu_cxx12_Lock_policyE2EE10_M_destroyEv=so_stub_for_libtelux_tel
-Wl,--defsym=_ZNSt23_Sp_counted_ptr_inplaceIN5telux3tel13WcdmaCellInfoESaIS2_ELN9__gnu_cxx12_Lock_policyE2EE10_M_disposeEv=so_stub_for_libtelux_tel
-Wl,--defsym=_ZNSt23_Sp_counted_ptr_inplaceIN5telux3tel13WcdmaCellInfoESaIS2_ELN9__gnu_cxx12_Lock_policyE2EE14_M_get_deleterERKSt9type_info=so_stub_for_libtelux_tel
-Wl,--defsym=_ZNSt23_Sp_counted_ptr_inplaceIN5telux3tel13WcdmaCellInfoESaIS2_ELN9__gnu_cxx12_Lock_policyE2EED0Ev=so_stub_for_libtelux_tel
-Wl,--defsym=_ZNSt23_Sp_counted_ptr_inplaceIN5telux3tel13WcdmaCellInfoESaIS2_ELN9__gnu_cxx12_Lock_policyE2EED1Ev=so_stub_for_libtelux_tel
-Wl,--defsym=_ZNSt23_Sp_counted_ptr_inplaceIN5telux3tel13WcdmaCellInfoESaIS2_ELN9__gnu_cxx12_Lock_policyE2EED2Ev=so_stub_for_libtelux_tel
-Wl,--defsym=_ZNSt23_Sp_counted_ptr_inplaceIN5telux3tel14SignalStrengthESaIS2_ELN9__gnu_cxx12_Lock_policyE2EE10_M_destroyEv=so_stub_for_libtelux_tel
-Wl,--defsym=_ZNSt23_Sp_counted_ptr_inplaceIN5telux3tel14SignalStrengthESaIS2_ELN9__gnu_cxx12_Lock_policyE2EE10_M_disposeEv=so_stub_for_libtelux_tel
-Wl,--defsym=_ZNSt23_Sp_counted_ptr_inplaceIN5telux3tel14SignalStrengthESaIS2_ELN9__gnu_cxx12_Lock_policyE2EE14_M_get_deleterERKSt9type_info=so_stub_for_libtelux_tel
-Wl,--defsym=_ZNSt23_Sp_counted_ptr_inplaceIN5telux3tel14SignalStrengthESaIS2_ELN9__gnu_cxx12_Lock_policyE2EED0Ev=so_stub_for_libtelux_tel
-Wl,--defsym=_ZNSt23_Sp_counted_ptr_inplaceIN5telux3tel14SignalStrengthESaIS2_ELN9__gnu_cxx12_Lock_policyE2EED1Ev=so_stub_for_libtelux_tel
-Wl,--defsym=_ZNSt23_Sp_counted_ptr_inplaceIN5telux3tel14SignalStrengthESaIS2_ELN9__gnu_cxx12_Lock_policyE2EED2Ev=so_stub_for_libtelux_tel
-Wl,--defsym=_ZNSt23_Sp_counted_ptr_inplaceIN5telux3tel15CardManagerImplESaIS2_ELN9__gnu_cxx12_Lock_policyE2EE10_M_destroyEv=so_stub_for_libtelux_tel
-Wl,--defsym=_ZNSt23_Sp_counted_ptr_inplaceIN5telux3tel15CardManagerImplESaIS2_ELN9__gnu_cxx12_Lock_policyE2EE10_M_disposeEv=so_stub_for_libtelux_tel
-Wl,--defsym=_ZNSt23_Sp_counted_ptr_inplaceIN5telux3tel15CardManagerImplESaIS2_ELN9__gnu_cxx12_Lock_policyE2EE14_M_get_deleterERKSt9type_info=so_stub_for_libtelux_tel
-Wl,--defsym=_ZNSt23_Sp_counted_ptr_inplaceIN5telux3tel15CardManagerImplESaIS2_ELN9__gnu_cxx12_Lock_policyE2EED0Ev=so_stub_for_libtelux_tel
-Wl,--defsym=_ZNSt23_Sp_counted_ptr_inplaceIN5telux3tel15CardManagerImplESaIS2_ELN9__gnu_cxx12_Lock_policyE2EED1Ev=so_stub_for_libtelux_tel
-Wl,--defsym=_ZNSt23_Sp_counted_ptr_inplaceIN5telux3tel15CardManagerImplESaIS2_ELN9__gnu_cxx12_Lock_policyE2EED2Ev=so_stub_for_libtelux_tel
-Wl,--defsym=_ZNSt23_Sp_counted_ptr_inplaceIN5telux3tel15MultiSimManagerESaIS2_ELN9__gnu_cxx12_Lock_policyE2EE10_M_destroyEv=so_stub_for_libtelux_tel
-Wl,--defsym=_ZNSt23_Sp_counted_ptr_inplaceIN5telux3tel15MultiSimManagerESaIS2_ELN9__gnu_cxx12_Lock_policyE2EE10_M_disposeEv=so_stub_for_libtelux_tel
-Wl,--defsym=_ZNSt23_Sp_counted_ptr_inplaceIN5telux3tel15MultiSimManagerESaIS2_ELN9__gnu_cxx12_Lock_policyE2EE14_M_get_deleterERKSt9type_info=so_stub_for_libtelux_tel
-Wl,--defsym=_ZNSt23_Sp_counted_ptr_inplaceIN5telux3tel15MultiSimManagerESaIS2_ELN9__gnu_cxx12_Lock_policyE2EED0Ev=so_stub_for_libtelux_tel
-Wl,--defsym=_ZNSt23_Sp_counted_ptr_inplaceIN5telux3tel15MultiSimManagerESaIS2_ELN9__gnu_cxx12_Lock_policyE2EED1Ev=so_stub_for_libtelux_tel
-Wl,--defsym=_ZNSt23_Sp_counted_ptr_inplaceIN5telux3tel15MultiSimManagerESaIS2_ELN9__gnu_cxx12_Lock_policyE2EED2Ev=so_stub_for_libtelux_tel
-Wl,--defsym=_ZNSt23_Sp_counted_ptr_inplaceIN5telux3tel15TdscdmaCellInfoESaIS2_ELN9__gnu_cxx12_Lock_policyE2EE10_M_destroyEv=so_stub_for_libtelux_tel
-Wl,--defsym=_ZNSt23_Sp_counted_ptr_inplaceIN5telux3tel15TdscdmaCellInfoESaIS2_ELN9__gnu_cxx12_Lock_policyE2EE10_M_disposeEv=so_stub_for_libtelux_tel
-Wl,--defsym=_ZNSt23_Sp_counted_ptr_inplaceIN5telux3tel15TdscdmaCellInfoESaIS2_ELN9__gnu_cxx12_Lock_policyE2EE14_M_get_deleterERKSt9type_info=so_stub_for_libtelux_tel
-Wl,--defsym=_ZNSt23_Sp_counted_ptr_inplaceIN5telux3tel15TdscdmaCellInfoESaIS2_ELN9__gnu_cxx12_Lock_policyE2EED0Ev=so_stub_for_libtelux_tel
-Wl,--defsym=_ZNSt23_Sp_counted_ptr_inplaceIN5telux3tel15TdscdmaCellInfoESaIS2_ELN9__gnu_cxx12_Lock_policyE2EED1Ev=so_stub_for_libtelux_tel
-Wl,--defsym=_ZNSt23_Sp_counted_ptr_inplaceIN5telux3tel15TdscdmaCellInfoESaIS2_ELN9__gnu_cxx12_Lock_policyE2EED2Ev=so_stub_for_libtelux_tel
-Wl,--defsym=_ZNSt23_Sp_counted_ptr_inplaceIN5telux3tel16RemoteSimManagerESaIS2_ELN9__gnu_cxx12_Lock_policyE2EE10_M_destroyEv=so_stub_for_libtelux_tel
-Wl,--defsym=_ZNSt23_Sp_counted_ptr_inplaceIN5telux3tel16RemoteSimManagerESaIS2_ELN9__gnu_cxx12_Lock_policyE2EE10_M_disposeEv=so_stub_for_libtelux_tel
-Wl,--defsym=_ZNSt23_Sp_counted_ptr_inplaceIN5telux3tel16RemoteSimManagerESaIS2_ELN9__gnu_cxx12_Lock_policyE2EE14_M_get_deleterERKSt9type_info=so_stub_for_libtelux_tel
-Wl,--defsym=_ZNSt23_Sp_counted_ptr_inplaceIN5telux3tel16RemoteSimManagerESaIS2_ELN9__gnu_cxx12_Lock_policyE2EED0Ev=so_stub_for_libtelux_tel
-Wl,--defsym=_ZNSt23_Sp_counted_ptr_inplaceIN5telux3tel16RemoteSimManagerESaIS2_ELN9__gnu_cxx12_Lock_policyE2EED1Ev=so_stub_for_libtelux_tel
-Wl,--defsym=_ZNSt23_Sp_counted_ptr_inplaceIN5telux3tel16RemoteSimManagerESaIS2_ELN9__gnu_cxx12_Lock_policyE2EED2Ev=so_stub_for_libtelux_tel
-Wl,--defsym=_ZNSt23_Sp_counted_ptr_inplaceIN5telux3tel16SubscriptionImplESaIS2_ELN9__gnu_cxx12_Lock_policyE2EE10_M_destroyEv=so_stub_for_libtelux_tel
-Wl,--defsym=_ZNSt23_Sp_counted_ptr_inplaceIN5telux3tel16SubscriptionImplESaIS2_ELN9__gnu_cxx12_Lock_policyE2EE10_M_disposeEv=so_stub_for_libtelux_tel
-Wl,--defsym=_ZNSt23_Sp_counted_ptr_inplaceIN5telux3tel16SubscriptionImplESaIS2_ELN9__gnu_cxx12_Lock_policyE2EE14_M_get_deleterERKSt9type_info=so_stub_for_libtelux_tel
-Wl,--defsym=_ZNSt23_Sp_counted_ptr_inplaceIN5telux3tel16SubscriptionImplESaIS2_ELN9__gnu_cxx12_Lock_policyE2EED0Ev=so_stub_for_libtelux_tel
-Wl,--defsym=_ZNSt23_Sp_counted_ptr_inplaceIN5telux3tel16SubscriptionImplESaIS2_ELN9__gnu_cxx12_Lock_policyE2EED1Ev=so_stub_for_libtelux_tel
-Wl,--defsym=_ZNSt23_Sp_counted_ptr_inplaceIN5telux3tel16SubscriptionImplESaIS2_ELN9__gnu_cxx12_Lock_policyE2EED2Ev=so_stub_for_libtelux_tel
-Wl,--defsym=_ZNSt23_Sp_counted_ptr_inplaceIN5telux3tel16VoiceServiceInfoESaIS2_ELN9__gnu_cxx12_Lock_policyE2EE10_M_destroyEv=so_stub_for_libtelux_tel
-Wl,--defsym=_ZNSt23_Sp_counted_ptr_inplaceIN5telux3tel16VoiceServiceInfoESaIS2_ELN9__gnu_cxx12_Lock_policyE2EE10_M_disposeEv=so_stub_for_libtelux_tel
-Wl,--defsym=_ZNSt23_Sp_counted_ptr_inplaceIN5telux3tel16VoiceServiceInfoESaIS2_ELN9__gnu_cxx12_Lock_policyE2EE14_M_get_deleterERKSt9type_info=so_stub_for_libtelux_tel
-Wl,--defsym=_ZNSt23_Sp_counted_ptr_inplaceIN5telux3tel16VoiceServiceInfoESaIS2_ELN9__gnu_cxx12_Lock_policyE2EED0Ev=so_stub_for_libtelux_tel
-Wl,--defsym=_ZNSt23_Sp_counted_ptr_inplaceIN5telux3tel16VoiceServiceInfoESaIS2_ELN9__gnu_cxx12_Lock_policyE2EED1Ev=so_stub_for_libtelux_tel
-Wl,--defsym=_ZNSt23_Sp_counted_ptr_inplaceIN5telux3tel16VoiceServiceInfoESaIS2_ELN9__gnu_cxx12_Lock_policyE2EED2Ev=so_stub_for_libtelux_tel
-Wl,--defsym=_ZNSt23_Sp_counted_ptr_inplaceIN5telux3tel18SapCardManagerImplESaIS2_ELN9__gnu_cxx12_Lock_policyE2EE10_M_destroyEv=so_stub_for_libtelux_tel
-Wl,--defsym=_ZNSt23_Sp_counted_ptr_inplaceIN5telux3tel18SapCardManagerImplESaIS2_ELN9__gnu_cxx12_Lock_policyE2EE10_M_disposeEv=so_stub_for_libtelux_tel
-Wl,--defsym=_ZNSt23_Sp_counted_ptr_inplaceIN5telux3tel18SapCardManagerImplESaIS2_ELN9__gnu_cxx12_Lock_policyE2EE14_M_get_deleterERKSt9type_info=so_stub_for_libtelux_tel
-Wl,--defsym=_ZNSt23_Sp_counted_ptr_inplaceIN5telux3tel18SapCardManagerImplESaIS2_ELN9__gnu_cxx12_Lock_policyE2EED0Ev=so_stub_for_libtelux_tel
-Wl,--defsym=_ZNSt23_Sp_counted_ptr_inplaceIN5telux3tel18SapCardManagerImplESaIS2_ELN9__gnu_cxx12_Lock_policyE2EED1Ev=so_stub_for_libtelux_tel
-Wl,--defsym=_ZNSt23_Sp_counted_ptr_inplaceIN5telux3tel18SapCardManagerImplESaIS2_ELN9__gnu_cxx12_Lock_policyE2EED2Ev=so_stub_for_libtelux_tel
-Wl,--defsym=_ZNSt23_Sp_counted_ptr_inplaceIN5telux3tel19SubscriptionManagerESaIS2_ELN9__gnu_cxx12_Lock_policyE2EE10_M_destroyEv=so_stub_for_libtelux_tel
-Wl,--defsym=_ZNSt23_Sp_counted_ptr_inplaceIN5telux3tel19SubscriptionManagerESaIS2_ELN9__gnu_cxx12_Lock_policyE2EE10_M_disposeEv=so_stub_for_libtelux_tel
-Wl,--defsym=_ZNSt23_Sp_counted_ptr_inplaceIN5telux3tel19SubscriptionManagerESaIS2_ELN9__gnu_cxx12_Lock_policyE2EE14_M_get_deleterERKSt9type_info=so_stub_for_libtelux_tel
-Wl,--defsym=_ZNSt23_Sp_counted_ptr_inplaceIN5telux3tel19SubscriptionManagerESaIS2_ELN9__gnu_cxx12_Lock_policyE2EED0Ev=so_stub_for_libtelux_tel
-Wl,--defsym=_ZNSt23_Sp_counted_ptr_inplaceIN5telux3tel19SubscriptionManagerESaIS2_ELN9__gnu_cxx12_Lock_policyE2EED1Ev=so_stub_for_libtelux_tel
-Wl,--defsym=_ZNSt23_Sp_counted_ptr_inplaceIN5telux3tel19SubscriptionManagerESaIS2_ELN9__gnu_cxx12_Lock_policyE2EED2Ev=so_stub_for_libtelux_tel
-Wl,--defsym=_ZNSt23_Sp_counted_ptr_inplaceIN5telux3tel20CellBroadcastMessageESaIS2_ELN9__gnu_cxx12_Lock_policyE2EE10_M_destroyEv=so_stub_for_libtelux_tel
-Wl,--defsym=_ZNSt23_Sp_counted_ptr_inplaceIN5telux3tel20CellBroadcastMessageESaIS2_ELN9__gnu_cxx12_Lock_policyE2EE10_M_disposeEv=so_stub_for_libtelux_tel
-Wl,--defsym=_ZNSt23_Sp_counted_ptr_inplaceIN5telux3tel20CellBroadcastMessageESaIS2_ELN9__gnu_cxx12_Lock_policyE2EE14_M_get_deleterERKSt9type_info=so_stub_for_libtelux_tel
-Wl,--defsym=_ZNSt23_Sp_counted_ptr_inplaceIN5telux3tel20CellBroadcastMessageESaIS2_ELN9__gnu_cxx12_Lock_policyE2EED0Ev=so_stub_for_libtelux_tel
-Wl,--defsym=_ZNSt23_Sp_counted_ptr_inplaceIN5telux3tel20CellBroadcastMessageESaIS2_ELN9__gnu_cxx12_Lock_policyE2EED1Ev=so_stub_for_libtelux_tel
-Wl,--defsym=_ZNSt23_Sp_counted_ptr_inplaceIN5telux3tel20CellBroadcastMessageESaIS2_ELN9__gnu_cxx12_Lock_policyE2EED2Ev=so_stub_for_libtelux_tel
-Wl,--defsym=_ZNSt23_Sp_counted_ptr_inplaceIN5telux3tel20ServingSystemManagerESaIS2_ELN9__gnu_cxx12_Lock_policyE2EE10_M_destroyEv=so_stub_for_libtelux_tel
-Wl,--defsym=_ZNSt23_Sp_counted_ptr_inplaceIN5telux3tel20ServingSystemManagerESaIS2_ELN9__gnu_cxx12_Lock_policyE2EE10_M_disposeEv=so_stub_for_libtelux_tel
-Wl,--defsym=_ZNSt23_Sp_counted_ptr_inplaceIN5telux3tel20ServingSystemManagerESaIS2_ELN9__gnu_cxx12_Lock_policyE2EE14_M_get_deleterERKSt9type_info=so_stub_for_libtelux_tel
-Wl,--defsym=_ZNSt23_Sp_counted_ptr_inplaceIN5telux3tel20ServingSystemManagerESaIS2_ELN9__gnu_cxx12_Lock_policyE2EED0Ev=so_stub_for_libtelux_tel
-Wl,--defsym=_ZNSt23_Sp_counted_ptr_inplaceIN5telux3tel20ServingSystemManagerESaIS2_ELN9__gnu_cxx12_Lock_policyE2EED1Ev=so_stub_for_libtelux_tel
-Wl,--defsym=_ZNSt23_Sp_counted_ptr_inplaceIN5telux3tel20ServingSystemManagerESaIS2_ELN9__gnu_cxx12_Lock_policyE2EED2Ev=so_stub_for_libtelux_tel
-Wl,--defsym=_ZNSt23_Sp_counted_ptr_inplaceIN5telux3tel21GsmSignalStrengthInfoESaIS2_ELN9__gnu_cxx12_Lock_policyE2EE10_M_destroyEv=so_stub_for_libtelux_tel
-Wl,--defsym=_ZNSt23_Sp_counted_ptr_inplaceIN5telux3tel21GsmSignalStrengthInfoESaIS2_ELN9__gnu_cxx12_Lock_policyE2EE10_M_disposeEv=so_stub_for_libtelux_tel
-Wl,--defsym=_ZNSt23_Sp_counted_ptr_inplaceIN5telux3tel21GsmSignalStrengthInfoESaIS2_ELN9__gnu_cxx12_Lock_policyE2EE14_M_get_deleterERKSt9type_info=so_stub_for_libtelux_tel
-Wl,--defsym=_ZNSt23_Sp_counted_ptr_inplaceIN5telux3tel21GsmSignalStrengthInfoESaIS2_ELN9__gnu_cxx12_Lock_policyE2EED0Ev=so_stub_for_libtelux_tel
-Wl,--defsym=_ZNSt23_Sp_counted_ptr_inplaceIN5telux3tel21GsmSignalStrengthInfoESaIS2_ELN9__gnu_cxx12_Lock_policyE2EED1Ev=so_stub_for_libtelux_tel
-Wl,--defsym=_ZNSt23_Sp_counted_ptr_inplaceIN5telux3tel21GsmSignalStrengthInfoESaIS2_ELN9__gnu_cxx12_Lock_policyE2EED2Ev=so_stub_for_libtelux_tel
-Wl,--defsym=_ZNSt23_Sp_counted_ptr_inplaceIN5telux3tel21LteSignalStrengthInfoESaIS2_ELN9__gnu_cxx12_Lock_policyE2EE10_M_destroyEv=so_stub_for_libtelux_tel
-Wl,--defsym=_ZNSt23_Sp_counted_ptr_inplaceIN5telux3tel21LteSignalStrengthInfoESaIS2_ELN9__gnu_cxx12_Lock_policyE2EE10_M_disposeEv=so_stub_for_libtelux_tel
-Wl,--defsym=_ZNSt23_Sp_counted_ptr_inplaceIN5telux3tel21LteSignalStrengthInfoESaIS2_ELN9__gnu_cxx12_Lock_policyE2EE14_M_get_deleterERKSt9type_info=so_stub_for_libtelux_tel
-Wl,--defsym=_ZNSt23_Sp_counted_ptr_inplaceIN5telux3tel21LteSignalStrengthInfoESaIS2_ELN9__gnu_cxx12_Lock_policyE2EED0Ev=so_stub_for_libtelux_tel
-Wl,--defsym=_ZNSt23_Sp_counted_ptr_inplaceIN5telux3tel21LteSignalStrengthInfoESaIS2_ELN9__gnu_cxx12_Lock_policyE2EED1Ev=so_stub_for_libtelux_tel
-Wl,--defsym=_ZNSt23_Sp_counted_ptr_inplaceIN5telux3tel21LteSignalStrengthInfoESaIS2_ELN9__gnu_cxx12_Lock_policyE2EED2Ev=so_stub_for_libtelux_tel
-Wl,--defsym=_ZNSt23_Sp_counted_ptr_inplaceIN5telux3tel21SimProfileManagerImplESaIS2_ELN9__gnu_cxx12_Lock_policyE2EE10_M_destroyEv=so_stub_for_libtelux_tel
-Wl,--defsym=_ZNSt23_Sp_counted_ptr_inplaceIN5telux3tel21SimProfileManagerImplESaIS2_ELN9__gnu_cxx12_Lock_policyE2EE10_M_disposeEv=so_stub_for_libtelux_tel
-Wl,--defsym=_ZNSt23_Sp_counted_ptr_inplaceIN5telux3tel21SimProfileManagerImplESaIS2_ELN9__gnu_cxx12_Lock_policyE2EE14_M_get_deleterERKSt9type_info=so_stub_for_libtelux_tel
-Wl,--defsym=_ZNSt23_Sp_counted_ptr_inplaceIN5telux3tel21SimProfileManagerImplESaIS2_ELN9__gnu_cxx12_Lock_policyE2EED0Ev=so_stub_for_libtelux_tel
-Wl,--defsym=_ZNSt23_Sp_counted_ptr_inplaceIN5telux3tel21SimProfileManagerImplESaIS2_ELN9__gnu_cxx12_Lock_policyE2EED1Ev=so_stub_for_libtelux_tel
-Wl,--defsym=_ZNSt23_Sp_counted_ptr_inplaceIN5telux3tel21SimProfileManagerImplESaIS2_ELN9__gnu_cxx12_Lock_policyE2EED2Ev=so_stub_for_libtelux_tel
-Wl,--defsym=_ZNSt23_Sp_counted_ptr_inplaceIN5telux3tel22CdmaSignalStrengthInfoESaIS2_ELN9__gnu_cxx12_Lock_policyE2EE10_M_destroyEv=so_stub_for_libtelux_tel
-Wl,--defsym=_ZNSt23_Sp_counted_ptr_inplaceIN5telux3tel22CdmaSignalStrengthInfoESaIS2_ELN9__gnu_cxx12_Lock_policyE2EE10_M_disposeEv=so_stub_for_libtelux_tel
-Wl,--defsym=_ZNSt23_Sp_counted_ptr_inplaceIN5telux3tel22CdmaSignalStrengthInfoESaIS2_ELN9__gnu_cxx12_Lock_policyE2EE14_M_get_deleterERKSt9type_info=so_stub_for_libtelux_tel
-Wl,--defsym=_ZNSt23_Sp_counted_ptr_inplaceIN5telux3tel22CdmaSignalStrengthInfoESaIS2_ELN9__gnu_cxx12_Lock_policyE2EED0Ev=so_stub_for_libtelux_tel
-Wl,--defsym=_ZNSt23_Sp_counted_ptr_inplaceIN5telux3tel22CdmaSignalStrengthInfoESaIS2_ELN9__gnu_cxx12_Lock_policyE2EED1Ev=so_stub_for_libtelux_tel
-Wl,--defsym=_ZNSt23_Sp_counted_ptr_inplaceIN5telux3tel22CdmaSignalStrengthInfoESaIS2_ELN9__gnu_cxx12_Lock_policyE2EED2Ev=so_stub_for_libtelux_tel
-Wl,--defsym=_ZNSt23_Sp_counted_ptr_inplaceIN5telux3tel22Nr5gSignalStrengthInfoESaIS2_ELN9__gnu_cxx12_Lock_policyE2EE10_M_destroyEv=so_stub_for_libtelux_tel
-Wl,--defsym=_ZNSt23_Sp_counted_ptr_inplaceIN5telux3tel22Nr5gSignalStrengthInfoESaIS2_ELN9__gnu_cxx12_Lock_policyE2EE10_M_disposeEv=so_stub_for_libtelux_tel
-Wl,--defsym=_ZNSt23_Sp_counted_ptr_inplaceIN5telux3tel22Nr5gSignalStrengthInfoESaIS2_ELN9__gnu_cxx12_Lock_policyE2EE14_M_get_deleterERKSt9type_info=so_stub_for_libtelux_tel
-Wl,--defsym=_ZNSt23_Sp_counted_ptr_inplaceIN5telux3tel22Nr5gSignalStrengthInfoESaIS2_ELN9__gnu_cxx12_Lock_policyE2EED0Ev=so_stub_for_libtelux_tel
-Wl,--defsym=_ZNSt23_Sp_counted_ptr_inplaceIN5telux3tel22Nr5gSignalStrengthInfoESaIS2_ELN9__gnu_cxx12_Lock_policyE2EED1Ev=so_stub_for_libtelux_tel
-Wl,--defsym=_ZNSt23_Sp_counted_ptr_inplaceIN5telux3tel22Nr5gSignalStrengthInfoESaIS2_ELN9__gnu_cxx12_Lock_policyE2EED2Ev=so_stub_for_libtelux_tel
-Wl,--defsym=_ZNSt23_Sp_counted_ptr_inplaceIN5telux3tel23NetworkSelectionManagerESaIS2_ELN9__gnu_cxx12_Lock_policyE2EE10_M_destroyEv=so_stub_for_libtelux_tel
-Wl,--defsym=_ZNSt23_Sp_counted_ptr_inplaceIN5telux3tel23NetworkSelectionManagerESaIS2_ELN9__gnu_cxx12_Lock_policyE2EE10_M_disposeEv=so_stub_for_libtelux_tel
-Wl,--defsym=_ZNSt23_Sp_counted_ptr_inplaceIN5telux3tel23NetworkSelectionManagerESaIS2_ELN9__gnu_cxx12_Lock_policyE2EE14_M_get_deleterERKSt9type_info=so_stub_for_libtelux_tel
-Wl,--defsym=_ZNSt23_Sp_counted_ptr_inplaceIN5telux3tel23NetworkSelectionManagerESaIS2_ELN9__gnu_cxx12_Lock_policyE2EED0Ev=so_stub_for_libtelux_tel
-Wl,--defsym=_ZNSt23_Sp_counted_ptr_inplaceIN5telux3tel23NetworkSelectionManagerESaIS2_ELN9__gnu_cxx12_Lock_policyE2EED1Ev=so_stub_for_libtelux_tel
-Wl,--defsym=_ZNSt23_Sp_counted_ptr_inplaceIN5telux3tel23NetworkSelectionManagerESaIS2_ELN9__gnu_cxx12_Lock_policyE2EED2Ev=so_stub_for_libtelux_tel
-Wl,--defsym=_ZNSt23_Sp_counted_ptr_inplaceIN5telux3tel23WcdmaSignalStrengthInfoESaIS2_ELN9__gnu_cxx12_Lock_policyE2EE10_M_destroyEv=so_stub_for_libtelux_tel
-Wl,--defsym=_ZNSt23_Sp_counted_ptr_inplaceIN5telux3tel23WcdmaSignalStrengthInfoESaIS2_ELN9__gnu_cxx12_Lock_policyE2EE10_M_disposeEv=so_stub_for_libtelux_tel
-Wl,--defsym=_ZNSt23_Sp_counted_ptr_inplaceIN5telux3tel23WcdmaSignalStrengthInfoESaIS2_ELN9__gnu_cxx12_Lock_policyE2EE14_M_get_deleterERKSt9type_info=so_stub_for_libtelux_tel
-Wl,--defsym=_ZNSt23_Sp_counted_ptr_inplaceIN5telux3tel23WcdmaSignalStrengthInfoESaIS2_ELN9__gnu_cxx12_Lock_policyE2EED0Ev=so_stub_for_libtelux_tel
-Wl,--defsym=_ZNSt23_Sp_counted_ptr_inplaceIN5telux3tel23WcdmaSignalStrengthInfoESaIS2_ELN9__gnu_cxx12_Lock_policyE2EED1Ev=so_stub_for_libtelux_tel
-Wl,--defsym=_ZNSt23_Sp_counted_ptr_inplaceIN5telux3tel23WcdmaSignalStrengthInfoESaIS2_ELN9__gnu_cxx12_Lock_policyE2EED2Ev=so_stub_for_libtelux_tel
-Wl,--defsym=_ZNSt23_Sp_counted_ptr_inplaceIN5telux3tel24CellBroadcastManagerImplESaIS2_ELN9__gnu_cxx12_Lock_policyE2EE10_M_destroyEv=so_stub_for_libtelux_tel
-Wl,--defsym=_ZNSt23_Sp_counted_ptr_inplaceIN5telux3tel24CellBroadcastManagerImplESaIS2_ELN9__gnu_cxx12_Lock_policyE2EE10_M_disposeEv=so_stub_for_libtelux_tel
-Wl,--defsym=_ZNSt23_Sp_counted_ptr_inplaceIN5telux3tel24CellBroadcastManagerImplESaIS2_ELN9__gnu_cxx12_Lock_policyE2EE14_M_get_deleterERKSt9type_info=so_stub_for_libtelux_tel
-Wl,--defsym=_ZNSt23_Sp_counted_ptr_inplaceIN5telux3tel24CellBroadcastManagerImplESaIS2_ELN9__gnu_cxx12_Lock_policyE2EED0Ev=so_stub_for_libtelux_tel
-Wl,--defsym=_ZNSt23_Sp_counted_ptr_inplaceIN5telux3tel24CellBroadcastManagerImplESaIS2_ELN9__gnu_cxx12_Lock_policyE2EED1Ev=so_stub_for_libtelux_tel
-Wl,--defsym=_ZNSt23_Sp_counted_ptr_inplaceIN5telux3tel24CellBroadcastManagerImplESaIS2_ELN9__gnu_cxx12_Lock_policyE2EED2Ev=so_stub_for_libtelux_tel
-Wl,--defsym=_ZNSt23_Sp_counted_ptr_inplaceIN5telux3tel25TdscdmaSignalStrengthInfoESaIS2_ELN9__gnu_cxx12_Lock_policyE2EE10_M_destroyEv=so_stub_for_libtelux_tel
-Wl,--defsym=_ZNSt23_Sp_counted_ptr_inplaceIN5telux3tel25TdscdmaSignalStrengthInfoESaIS2_ELN9__gnu_cxx12_Lock_policyE2EE10_M_disposeEv=so_stub_for_libtelux_tel
-Wl,--defsym=_ZNSt23_Sp_counted_ptr_inplaceIN5telux3tel25TdscdmaSignalStrengthInfoESaIS2_ELN9__gnu_cxx12_Lock_policyE2EE14_M_get_deleterERKSt9type_info=so_stub_for_libtelux_tel
-Wl,--defsym=_ZNSt23_Sp_counted_ptr_inplaceIN5telux3tel25TdscdmaSignalStrengthInfoESaIS2_ELN9__gnu_cxx12_Lock_policyE2EED0Ev=so_stub_for_libtelux_tel
-Wl,--defsym=_ZNSt23_Sp_counted_ptr_inplaceIN5telux3tel25TdscdmaSignalStrengthInfoESaIS2_ELN9__gnu_cxx12_Lock_policyE2EED1Ev=so_stub_for_libtelux_tel
-Wl,--defsym=_ZNSt23_Sp_counted_ptr_inplaceIN5telux3tel25TdscdmaSignalStrengthInfoESaIS2_ELN9__gnu_cxx12_Lock_policyE2EED2Ev=so_stub_for_libtelux_tel
-Wl,--defsym=_ZNSt23_Sp_counted_ptr_inplaceIN5telux3tel3ril3Ril14SocketListenerESaIS4_ELN9__gnu_cxx12_Lock_policyE2EE10_M_destroyEv=so_stub_for_libtelux_tel
-Wl,--defsym=_ZNSt23_Sp_counted_ptr_inplaceIN5telux3tel3ril3Ril14SocketListenerESaIS4_ELN9__gnu_cxx12_Lock_policyE2EE10_M_disposeEv=so_stub_for_libtelux_tel
-Wl,--defsym=_ZNSt23_Sp_counted_ptr_inplaceIN5telux3tel3ril3Ril14SocketListenerESaIS4_ELN9__gnu_cxx12_Lock_policyE2EE14_M_get_deleterERKSt9type_info=so_stub_for_libtelux_tel
-Wl,--defsym=_ZNSt23_Sp_counted_ptr_inplaceIN5telux3tel3ril3Ril14SocketListenerESaIS4_ELN9__gnu_cxx12_Lock_policyE2EED0Ev=so_stub_for_libtelux_tel
-Wl,--defsym=_ZNSt23_Sp_counted_ptr_inplaceIN5telux3tel3ril3Ril14SocketListenerESaIS4_ELN9__gnu_cxx12_Lock_policyE2EED1Ev=so_stub_for_libtelux_tel
-Wl,--defsym=_ZNSt23_Sp_counted_ptr_inplaceIN5telux3tel3ril3Ril14SocketListenerESaIS4_ELN9__gnu_cxx12_Lock_policyE2EED2Ev=so_stub_for_libtelux_tel
-Wl,--defsym=_ZNSt23_Sp_counted_ptr_inplaceIN5telux3tel3ril6SocketESaIS3_ELN9__gnu_cxx12_Lock_policyE2EE10_M_destroyEv=so_stub_for_libtelux_tel
-Wl,--defsym=_ZNSt23_Sp_counted_ptr_inplaceIN5telux3tel3ril6SocketESaIS3_ELN9__gnu_cxx12_Lock_policyE2EE10_M_disposeEv=so_stub_for_libtelux_tel
-Wl,--defsym=_ZNSt23_Sp_counted_ptr_inplaceIN5telux3tel3ril6SocketESaIS3_ELN9__gnu_cxx12_Lock_policyE2EE14_M_get_deleterERKSt9type_info=so_stub_for_libtelux_tel
-Wl,--defsym=_ZNSt23_Sp_counted_ptr_inplaceIN5telux3tel3ril6SocketESaIS3_ELN9__gnu_cxx12_Lock_policyE2EED0Ev=so_stub_for_libtelux_tel
-Wl,--defsym=_ZNSt23_Sp_counted_ptr_inplaceIN5telux3tel3ril6SocketESaIS3_ELN9__gnu_cxx12_Lock_policyE2EED1Ev=so_stub_for_libtelux_tel
-Wl,--defsym=_ZNSt23_Sp_counted_ptr_inplaceIN5telux3tel3ril6SocketESaIS3_ELN9__gnu_cxx12_Lock_policyE2EED2Ev=so_stub_for_libtelux_tel
-Wl,--defsym=_ZNSt23_Sp_counted_ptr_inplaceIN5telux3tel3ril7RequestESaIS3_ELN9__gnu_cxx12_Lock_policyE2EE10_M_destroyEv=so_stub_for_libtelux_tel
-Wl,--defsym=_ZNSt23_Sp_counted_ptr_inplaceIN5telux3tel3ril7RequestESaIS3_ELN9__gnu_cxx12_Lock_policyE2EE10_M_disposeEv=so_stub_for_libtelux_tel
-Wl,--defsym=_ZNSt23_Sp_counted_ptr_inplaceIN5telux3tel3ril7RequestESaIS3_ELN9__gnu_cxx12_Lock_policyE2EE14_M_get_deleterERKSt9type_info=so_stub_for_libtelux_tel
-Wl,--defsym=_ZNSt23_Sp_counted_ptr_inplaceIN5telux3tel3ril7RequestESaIS3_ELN9__gnu_cxx12_Lock_policyE2EED0Ev=so_stub_for_libtelux_tel
-Wl,--defsym=_ZNSt23_Sp_counted_ptr_inplaceIN5telux3tel3ril7RequestESaIS3_ELN9__gnu_cxx12_Lock_policyE2EED1Ev=so_stub_for_libtelux_tel
-Wl,--defsym=_ZNSt23_Sp_counted_ptr_inplaceIN5telux3tel3ril7RequestESaIS3_ELN9__gnu_cxx12_Lock_policyE2EED2Ev=so_stub_for_libtelux_tel
-Wl,--defsym=_ZNSt23_Sp_counted_ptr_inplaceIN5telux3tel3ril8ResponseESaIS3_ELN9__gnu_cxx12_Lock_policyE2EE10_M_destroyEv=so_stub_for_libtelux_tel
-Wl,--defsym=_ZNSt23_Sp_counted_ptr_inplaceIN5telux3tel3ril8ResponseESaIS3_ELN9__gnu_cxx12_Lock_policyE2EE10_M_disposeEv=so_stub_for_libtelux_tel
-Wl,--defsym=_ZNSt23_Sp_counted_ptr_inplaceIN5telux3tel3ril8ResponseESaIS3_ELN9__gnu_cxx12_Lock_policyE2EE14_M_get_deleterERKSt9type_info=so_stub_for_libtelux_tel
-Wl,--defsym=_ZNSt23_Sp_counted_ptr_inplaceIN5telux3tel3ril8ResponseESaIS3_ELN9__gnu_cxx12_Lock_policyE2EED0Ev=so_stub_for_libtelux_tel
-Wl,--defsym=_ZNSt23_Sp_counted_ptr_inplaceIN5telux3tel3ril8ResponseESaIS3_ELN9__gnu_cxx12_Lock_policyE2EED1Ev=so_stub_for_libtelux_tel
-Wl,--defsym=_ZNSt23_Sp_counted_ptr_inplaceIN5telux3tel3ril8ResponseESaIS3_ELN9__gnu_cxx12_Lock_policyE2EED2Ev=so_stub_for_libtelux_tel
-Wl,--defsym=_ZNSt23_Sp_counted_ptr_inplaceIN5telux3tel4CallESaIS2_ELN9__gnu_cxx12_Lock_policyE2EE10_M_destroyEv=so_stub_for_libtelux_tel
-Wl,--defsym=_ZNSt23_Sp_counted_ptr_inplaceIN5telux3tel4CallESaIS2_ELN9__gnu_cxx12_Lock_policyE2EE10_M_disposeEv=so_stub_for_libtelux_tel
-Wl,--defsym=_ZNSt23_Sp_counted_ptr_inplaceIN5telux3tel4CallESaIS2_ELN9__gnu_cxx12_Lock_policyE2EE14_M_get_deleterERKSt9type_info=so_stub_for_libtelux_tel
-Wl,--defsym=_ZNSt23_Sp_counted_ptr_inplaceIN5telux3tel4CallESaIS2_ELN9__gnu_cxx12_Lock_policyE2EED0Ev=so_stub_for_libtelux_tel
-Wl,--defsym=_ZNSt23_Sp_counted_ptr_inplaceIN5telux3tel4CallESaIS2_ELN9__gnu_cxx12_Lock_policyE2EED1Ev=so_stub_for_libtelux_tel
-Wl,--defsym=_ZNSt23_Sp_counted_ptr_inplaceIN5telux3tel4CallESaIS2_ELN9__gnu_cxx12_Lock_policyE2EED2Ev=so_stub_for_libtelux_tel
-Wl,--defsym=_ZNSt23_Sp_counted_ptr_inplaceIN5telux3tel5PhoneESaIS2_ELN9__gnu_cxx12_Lock_policyE2EE10_M_destroyEv=so_stub_for_libtelux_tel
-Wl,--defsym=_ZNSt23_Sp_counted_ptr_inplaceIN5telux3tel5PhoneESaIS2_ELN9__gnu_cxx12_Lock_policyE2EE10_M_disposeEv=so_stub_for_libtelux_tel
-Wl,--defsym=_ZNSt23_Sp_counted_ptr_inplaceIN5telux3tel5PhoneESaIS2_ELN9__gnu_cxx12_Lock_policyE2EE14_M_get_deleterERKSt9type_info=so_stub_for_libtelux_tel
-Wl,--defsym=_ZNSt23_Sp_counted_ptr_inplaceIN5telux3tel5PhoneESaIS2_ELN9__gnu_cxx12_Lock_policyE2EED0Ev=so_stub_for_libtelux_tel
-Wl,--defsym=_ZNSt23_Sp_counted_ptr_inplaceIN5telux3tel5PhoneESaIS2_ELN9__gnu_cxx12_Lock_policyE2EED1Ev=so_stub_for_libtelux_tel
-Wl,--defsym=_ZNSt23_Sp_counted_ptr_inplaceIN5telux3tel5PhoneESaIS2_ELN9__gnu_cxx12_Lock_policyE2EED2Ev=so_stub_for_libtelux_tel
-Wl,--defsym=_ZNSt23_Sp_counted_ptr_inplaceIN5telux3tel7SmsInfoESaIS2_ELN9__gnu_cxx12_Lock_policyE2EE10_M_destroyEv=so_stub_for_libtelux_tel
-Wl,--defsym=_ZNSt23_Sp_counted_ptr_inplaceIN5telux3tel7SmsInfoESaIS2_ELN9__gnu_cxx12_Lock_policyE2EE10_M_disposeEv=so_stub_for_libtelux_tel
-Wl,--defsym=_ZNSt23_Sp_counted_ptr_inplaceIN5telux3tel7SmsInfoESaIS2_ELN9__gnu_cxx12_Lock_policyE2EE14_M_get_deleterERKSt9type_info=so_stub_for_libtelux_tel
-Wl,--defsym=_ZNSt23_Sp_counted_ptr_inplaceIN5telux3tel7SmsInfoESaIS2_ELN9__gnu_cxx12_Lock_policyE2EED0Ev=so_stub_for_libtelux_tel
-Wl,--defsym=_ZNSt23_Sp_counted_ptr_inplaceIN5telux3tel7SmsInfoESaIS2_ELN9__gnu_cxx12_Lock_policyE2EED1Ev=so_stub_for_libtelux_tel
-Wl,--defsym=_ZNSt23_Sp_counted_ptr_inplaceIN5telux3tel7SmsInfoESaIS2_ELN9__gnu_cxx12_Lock_policyE2EED2Ev=so_stub_for_libtelux_tel
-Wl,--defsym=_ZNSt23_Sp_counted_ptr_inplaceIN5telux3tel8CardImplESaIS2_ELN9__gnu_cxx12_Lock_policyE2EE10_M_destroyEv=so_stub_for_libtelux_tel
-Wl,--defsym=_ZNSt23_Sp_counted_ptr_inplaceIN5telux3tel8CardImplESaIS2_ELN9__gnu_cxx12_Lock_policyE2EE10_M_disposeEv=so_stub_for_libtelux_tel
-Wl,--defsym=_ZNSt23_Sp_counted_ptr_inplaceIN5telux3tel8CardImplESaIS2_ELN9__gnu_cxx12_Lock_policyE2EE14_M_get_deleterERKSt9type_info=so_stub_for_libtelux_tel
-Wl,--defsym=_ZNSt23_Sp_counted_ptr_inplaceIN5telux3tel8CardImplESaIS2_ELN9__gnu_cxx12_Lock_policyE2EED0Ev=so_stub_for_libtelux_tel
-Wl,--defsym=_ZNSt23_Sp_counted_ptr_inplaceIN5telux3tel8CardImplESaIS2_ELN9__gnu_cxx12_Lock_policyE2EED1Ev=so_stub_for_libtelux_tel
-Wl,--defsym=_ZNSt23_Sp_counted_ptr_inplaceIN5telux3tel8CardImplESaIS2_ELN9__gnu_cxx12_Lock_policyE2EED2Ev=so_stub_for_libtelux_tel
-Wl,--defsym=_ZNSt23_Sp_counted_ptr_inplaceIN5telux3tel8CmasInfoESaIS2_ELN9__gnu_cxx12_Lock_policyE2EE10_M_destroyEv=so_stub_for_libtelux_tel
-Wl,--defsym=_ZNSt23_Sp_counted_ptr_inplaceIN5telux3tel8CmasInfoESaIS2_ELN9__gnu_cxx12_Lock_policyE2EE10_M_disposeEv=so_stub_for_libtelux_tel
-Wl,--defsym=_ZNSt23_Sp_counted_ptr_inplaceIN5telux3tel8CmasInfoESaIS2_ELN9__gnu_cxx12_Lock_policyE2EE14_M_get_deleterERKSt9type_info=so_stub_for_libtelux_tel
-Wl,--defsym=_ZNSt23_Sp_counted_ptr_inplaceIN5telux3tel8CmasInfoESaIS2_ELN9__gnu_cxx12_Lock_policyE2EED0Ev=so_stub_for_libtelux_tel
-Wl,--defsym=_ZNSt23_Sp_counted_ptr_inplaceIN5telux3tel8CmasInfoESaIS2_ELN9__gnu_cxx12_Lock_policyE2EED1Ev=so_stub_for_libtelux_tel
-Wl,--defsym=_ZNSt23_Sp_counted_ptr_inplaceIN5telux3tel8CmasInfoESaIS2_ELN9__gnu_cxx12_Lock_policyE2EED2Ev=so_stub_for_libtelux_tel
-Wl,--defsym=_ZNSt23_Sp_counted_ptr_inplaceIN5telux3tel8EtwsInfoESaIS2_ELN9__gnu_cxx12_Lock_policyE2EE10_M_destroyEv=so_stub_for_libtelux_tel
-Wl,--defsym=_ZNSt23_Sp_counted_ptr_inplaceIN5telux3tel8EtwsInfoESaIS2_ELN9__gnu_cxx12_Lock_policyE2EE10_M_disposeEv=so_stub_for_libtelux_tel
-Wl,--defsym=_ZNSt23_Sp_counted_ptr_inplaceIN5telux3tel8EtwsInfoESaIS2_ELN9__gnu_cxx12_Lock_policyE2EE14_M_get_deleterERKSt9type_info=so_stub_for_libtelux_tel
-Wl,--defsym=_ZNSt23_Sp_counted_ptr_inplaceIN5telux3tel8EtwsInfoESaIS2_ELN9__gnu_cxx12_Lock_policyE2EED0Ev=so_stub_for_libtelux_tel
-Wl,--defsym=_ZNSt23_Sp_counted_ptr_inplaceIN5telux3tel8EtwsInfoESaIS2_ELN9__gnu_cxx12_Lock_policyE2EED1Ev=so_stub_for_libtelux_tel
-Wl,--defsym=_ZNSt23_Sp_counted_ptr_inplaceIN5telux3tel8EtwsInfoESaIS2_ELN9__gnu_cxx12_Lock_policyE2EED2Ev=so_stub_for_libtelux_tel
-Wl,--defsym=_ZNSt23_Sp_counted_ptr_inplaceIN5telux6common15ListenerManagerINS0_3tel12ISmsListenerEEESaIS5_ELN9__gnu_cxx12_Lock_policyE2EE10_M_destroyEv=so_stub_for_libtelux_tel
-Wl,--defsym=_ZNSt23_Sp_counted_ptr_inplaceIN5telux6common15ListenerManagerINS0_3tel12ISmsListenerEEESaIS5_ELN9__gnu_cxx12_Lock_policyE2EE10_M_disposeEv=so_stub_for_libtelux_tel
-Wl,--defsym=_ZNSt23_Sp_counted_ptr_inplaceIN5telux6common15ListenerManagerINS0_3tel12ISmsListenerEEESaIS5_ELN9__gnu_cxx12_Lock_policyE2EE14_M_get_deleterERKSt9type_info=so_stub_for_libtelux_tel
-Wl,--defsym=_ZNSt23_Sp_counted_ptr_inplaceIN5telux6common15ListenerManagerINS0_3tel12ISmsListenerEEESaIS5_ELN9__gnu_cxx12_Lock_policyE2EED0Ev=so_stub_for_libtelux_tel
-Wl,--defsym=_ZNSt23_Sp_counted_ptr_inplaceIN5telux6common15ListenerManagerINS0_3tel12ISmsListenerEEESaIS5_ELN9__gnu_cxx12_Lock_policyE2EED1Ev=so_stub_for_libtelux_tel
-Wl,--defsym=_ZNSt23_Sp_counted_ptr_inplaceIN5telux6common15ListenerManagerINS0_3tel12ISmsListenerEEESaIS5_ELN9__gnu_cxx12_Lock_policyE2EED2Ev=so_stub_for_libtelux_tel
-Wl,--defsym=_ZNSt23_Sp_counted_ptr_inplaceIN5telux6common15ListenerManagerINS0_3tel13ICallListenerEEESaIS5_ELN9__gnu_cxx12_Lock_policyE2EE10_M_destroyEv=so_stub_for_libtelux_tel
-Wl,--defsym=_ZNSt23_Sp_counted_ptr_inplaceIN5telux6common15ListenerManagerINS0_3tel13ICallListenerEEESaIS5_ELN9__gnu_cxx12_Lock_policyE2EE10_M_disposeEv=so_stub_for_libtelux_tel
-Wl,--defsym=_ZNSt23_Sp_counted_ptr_inplaceIN5telux6common15ListenerManagerINS0_3tel13ICallListenerEEESaIS5_ELN9__gnu_cxx12_Lock_policyE2EE14_M_get_deleterERKSt9type_info=so_stub_for_libtelux_tel
-Wl,--defsym=_ZNSt23_Sp_counted_ptr_inplaceIN5telux6common15ListenerManagerINS0_3tel13ICallListenerEEESaIS5_ELN9__gnu_cxx12_Lock_policyE2EED0Ev=so_stub_for_libtelux_tel
-Wl,--defsym=_ZNSt23_Sp_counted_ptr_inplaceIN5telux6common15ListenerManagerINS0_3tel13ICallListenerEEESaIS5_ELN9__gnu_cxx12_Lock_policyE2EED1Ev=so_stub_for_libtelux_tel
-Wl,--defsym=_ZNSt23_Sp_counted_ptr_inplaceIN5telux6common15ListenerManagerINS0_3tel13ICallListenerEEESaIS5_ELN9__gnu_cxx12_Lock_policyE2EED2Ev=so_stub_for_libtelux_tel
-Wl,--defsym=_ZNSt23_Sp_counted_ptr_inplaceIN5telux6common15ListenerManagerINS0_3tel13ICardListenerEEESaIS5_ELN9__gnu_cxx12_Lock_policyE2EE10_M_destroyEv=so_stub_for_libtelux_tel
-Wl,--defsym=_ZNSt23_Sp_counted_ptr_inplaceIN5telux6common15ListenerManagerINS0_3tel13ICardListenerEEESaIS5_ELN9__gnu_cxx12_Lock_policyE2EE10_M_disposeEv=so_stub_for_libtelux_tel
-Wl,--defsym=_ZNSt23_Sp_counted_ptr_inplaceIN5telux6common15ListenerManagerINS0_3tel13ICardListenerEEESaIS5_ELN9__gnu_cxx12_Lock_policyE2EE14_M_get_deleterERKSt9type_info=so_stub_for_libtelux_tel
-Wl,--defsym=_ZNSt23_Sp_counted_ptr_inplaceIN5telux6common15ListenerManagerINS0_3tel13ICardListenerEEESaIS5_ELN9__gnu_cxx12_Lock_policyE2EED0Ev=so_stub_for_libtelux_tel
-Wl,--defsym=_ZNSt23_Sp_counted_ptr_inplaceIN5telux6common15ListenerManagerINS0_3tel13ICardListenerEEESaIS5_ELN9__gnu_cxx12_Lock_policyE2EED1Ev=so_stub_for_libtelux_tel
-Wl,--defsym=_ZNSt23_Sp_counted_ptr_inplaceIN5telux6common15ListenerManagerINS0_3tel13ICardListenerEEESaIS5_ELN9__gnu_cxx12_Lock_policyE2EED2Ev=so_stub_for_libtelux_tel
-Wl,--defsym=_ZNSt23_Sp_counted_ptr_inplaceIN5telux6common15ListenerManagerINS0_3tel14IPhoneListenerEEESaIS5_ELN9__gnu_cxx12_Lock_policyE2EE10_M_destroyEv=so_stub_for_libtelux_tel
-Wl,--defsym=_ZNSt23_Sp_counted_ptr_inplaceIN5telux6common15ListenerManagerINS0_3tel14IPhoneListenerEEESaIS5_ELN9__gnu_cxx12_Lock_policyE2EE10_M_disposeEv=so_stub_for_libtelux_tel
-Wl,--defsym=_ZNSt23_Sp_counted_ptr_inplaceIN5telux6common15ListenerManagerINS0_3tel14IPhoneListenerEEESaIS5_ELN9__gnu_cxx12_Lock_policyE2EE14_M_get_deleterERKSt9type_info=so_stub_for_libtelux_tel
-Wl,--defsym=_ZNSt23_Sp_counted_ptr_inplaceIN5telux6common15ListenerManagerINS0_3tel14IPhoneListenerEEESaIS5_ELN9__gnu_cxx12_Lock_policyE2EED0Ev=so_stub_for_libtelux_tel
-Wl,--defsym=_ZNSt23_Sp_counted_ptr_inplaceIN5telux6common15ListenerManagerINS0_3tel14IPhoneListenerEEESaIS5_ELN9__gnu_cxx12_Lock_policyE2EED1Ev=so_stub_for_libtelux_tel
-Wl,--defsym=_ZNSt23_Sp_counted_ptr_inplaceIN5telux6common15ListenerManagerINS0_3tel14IPhoneListenerEEESaIS5_ELN9__gnu_cxx12_Lock_policyE2EED2Ev=so_stub_for_libtelux_tel
-Wl,--defsym=_ZNSt23_Sp_counted_ptr_inplaceIN5telux6common15ListenerManagerINS0_3tel16ISapCardListenerEEESaIS5_ELN9__gnu_cxx12_Lock_policyE2EE10_M_destroyEv=so_stub_for_libtelux_tel
-Wl,--defsym=_ZNSt23_Sp_counted_ptr_inplaceIN5telux6common15ListenerManagerINS0_3tel16ISapCardListenerEEESaIS5_ELN9__gnu_cxx12_Lock_policyE2EE10_M_disposeEv=so_stub_for_libtelux_tel
-Wl,--defsym=_ZNSt23_Sp_counted_ptr_inplaceIN5telux6common15ListenerManagerINS0_3tel16ISapCardListenerEEESaIS5_ELN9__gnu_cxx12_Lock_policyE2EE14_M_get_deleterERKSt9type_info=so_stub_for_libtelux_tel
-Wl,--defsym=_ZNSt23_Sp_counted_ptr_inplaceIN5telux6common15ListenerManagerINS0_3tel16ISapCardListenerEEESaIS5_ELN9__gnu_cxx12_Lock_policyE2EED0Ev=so_stub_for_libtelux_tel
-Wl,--defsym=_ZNSt23_Sp_counted_ptr_inplaceIN5telux6common15ListenerManagerINS0_3tel16ISapCardListenerEEESaIS5_ELN9__gnu_cxx12_Lock_policyE2EED1Ev=so_stub_for_libtelux_tel
-Wl,--defsym=_ZNSt23_Sp_counted_ptr_inplaceIN5telux6common15ListenerManagerINS0_3tel16ISapCardListenerEEESaIS5_ELN9__gnu_cxx12_Lock_policyE2EED2Ev=so_stub_for_libtelux_tel
-Wl,--defsym=_ZNSt23_Sp_counted_ptr_inplaceIN5telux6common15ListenerManagerINS0_3tel17IMultiSimListenerEEESaIS5_ELN9__gnu_cxx12_Lock_policyE2EE10_M_destroyEv=so_stub_for_libtelux_tel
-Wl,--defsym=_ZNSt23_Sp_counted_ptr_inplaceIN5telux6common15ListenerManagerINS0_3tel17IMultiSimListenerEEESaIS5_ELN9__gnu_cxx12_Lock_policyE2EE10_M_disposeEv=so_stub_for_libtelux_tel
-Wl,--defsym=_ZNSt23_Sp_counted_ptr_inplaceIN5telux6common15ListenerManagerINS0_3tel17IMultiSimListenerEEESaIS5_ELN9__gnu_cxx12_Lock_policyE2EE14_M_get_deleterERKSt9type_info=so_stub_for_libtelux_tel
-Wl,--defsym=_ZNSt23_Sp_counted_ptr_inplaceIN5telux6common15ListenerManagerINS0_3tel17IMultiSimListenerEEESaIS5_ELN9__gnu_cxx12_Lock_policyE2EED0Ev=so_stub_for_libtelux_tel
-Wl,--defsym=_ZNSt23_Sp_counted_ptr_inplaceIN5telux6common15ListenerManagerINS0_3tel17IMultiSimListenerEEESaIS5_ELN9__gnu_cxx12_Lock_policyE2EED1Ev=so_stub_for_libtelux_tel
-Wl,--defsym=_ZNSt23_Sp_counted_ptr_inplaceIN5telux6common15ListenerManagerINS0_3tel17IMultiSimListenerEEESaIS5_ELN9__gnu_cxx12_Lock_policyE2EED2Ev=so_stub_for_libtelux_tel
-Wl,--defsym=_ZNSt23_Sp_counted_ptr_inplaceIN5telux6common15ListenerManagerINS0_3tel18IRemoteSimListenerEEESaIS5_ELN9__gnu_cxx12_Lock_policyE2EE10_M_destroyEv=so_stub_for_libtelux_tel
-Wl,--defsym=_ZNSt23_Sp_counted_ptr_inplaceIN5telux6common15ListenerManagerINS0_3tel18IRemoteSimListenerEEESaIS5_ELN9__gnu_cxx12_Lock_policyE2EE10_M_disposeEv=so_stub_for_libtelux_tel
-Wl,--defsym=_ZNSt23_Sp_counted_ptr_inplaceIN5telux6common15ListenerManagerINS0_3tel18IRemoteSimListenerEEESaIS5_ELN9__gnu_cxx12_Lock_policyE2EE14_M_get_deleterERKSt9type_info=so_stub_for_libtelux_tel
-Wl,--defsym=_ZNSt23_Sp_counted_ptr_inplaceIN5telux6common15ListenerManagerINS0_3tel18IRemoteSimListenerEEESaIS5_ELN9__gnu_cxx12_Lock_policyE2EED0Ev=so_stub_for_libtelux_tel
-Wl,--defsym=_ZNSt23_Sp_counted_ptr_inplaceIN5telux6common15ListenerManagerINS0_3tel18IRemoteSimListenerEEESaIS5_ELN9__gnu_cxx12_Lock_policyE2EED1Ev=so_stub_for_libtelux_tel
-Wl,--defsym=_ZNSt23_Sp_counted_ptr_inplaceIN5telux6common15ListenerManagerINS0_3tel18IRemoteSimListenerEEESaIS5_ELN9__gnu_cxx12_Lock_policyE2EED2Ev=so_stub_for_libtelux_tel
-Wl,--defsym=_ZNSt23_Sp_counted_ptr_inplaceIN5telux6common15ListenerManagerINS0_3tel19ISimProfileListenerEEESaIS5_ELN9__gnu_cxx12_Lock_policyE2EE10_M_destroyEv=so_stub_for_libtelux_tel
-Wl,--defsym=_ZNSt23_Sp_counted_ptr_inplaceIN5telux6common15ListenerManagerINS0_3tel19ISimProfileListenerEEESaIS5_ELN9__gnu_cxx12_Lock_policyE2EE10_M_disposeEv=so_stub_for_libtelux_tel
-Wl,--defsym=_ZNSt23_Sp_counted_ptr_inplaceIN5telux6common15ListenerManagerINS0_3tel19ISimProfileListenerEEESaIS5_ELN9__gnu_cxx12_Lock_policyE2EE14_M_get_deleterERKSt9type_info=so_stub_for_libtelux_tel
-Wl,--defsym=_ZNSt23_Sp_counted_ptr_inplaceIN5telux6common15ListenerManagerINS0_3tel19ISimProfileListenerEEESaIS5_ELN9__gnu_cxx12_Lock_policyE2EED0Ev=so_stub_for_libtelux_tel
-Wl,--defsym=_ZNSt23_Sp_counted_ptr_inplaceIN5telux6common15ListenerManagerINS0_3tel19ISimProfileListenerEEESaIS5_ELN9__gnu_cxx12_Lock_policyE2EED1Ev=so_stub_for_libtelux_tel
-Wl,--defsym=_ZNSt23_Sp_counted_ptr_inplaceIN5telux6common15ListenerManagerINS0_3tel19ISimProfileListenerEEESaIS5_ELN9__gnu_cxx12_Lock_policyE2EED2Ev=so_stub_for_libtelux_tel
-Wl,--defsym=_ZNSt23_Sp_counted_ptr_inplaceIN5telux6common15ListenerManagerINS0_3tel21ISubscriptionListenerEEESaIS5_ELN9__gnu_cxx12_Lock_policyE2EE10_M_destroyEv=so_stub_for_libtelux_tel
-Wl,--defsym=_ZNSt23_Sp_counted_ptr_inplaceIN5telux6common15ListenerManagerINS0_3tel21ISubscriptionListenerEEESaIS5_ELN9__gnu_cxx12_Lock_policyE2EE10_M_disposeEv=so_stub_for_libtelux_tel
-Wl,--defsym=_ZNSt23_Sp_counted_ptr_inplaceIN5telux6common15ListenerManagerINS0_3tel21ISubscriptionListenerEEESaIS5_ELN9__gnu_cxx12_Lock_policyE2EE14_M_get_deleterERKSt9type_info=so_stub_for_libtelux_tel
-Wl,--defsym=_ZNSt23_Sp_counted_ptr_inplaceIN5telux6common15ListenerManagerINS0_3tel21ISubscriptionListenerEEESaIS5_ELN9__gnu_cxx12_Lock_policyE2EED0Ev=so_stub_for_libtelux_tel
-Wl,--defsym=_ZNSt23_Sp_counted_ptr_inplaceIN5telux6common15ListenerManagerINS0_3tel21ISubscriptionListenerEEESaIS5_ELN9__gnu_cxx12_Lock_policyE2EED1Ev=so_stub_for_libtelux_tel
-Wl,--defsym=_ZNSt23_Sp_counted_ptr_inplaceIN5telux6common15ListenerManagerINS0_3tel21ISubscriptionListenerEEESaIS5_ELN9__gnu_cxx12_Lock_policyE2EED2Ev=so_stub_for_libtelux_tel
-Wl,--defsym=_ZNSt23_Sp_counted_ptr_inplaceIN5telux6common15ListenerManagerINS0_3tel22ICellBroadcastListenerEEESaIS5_ELN9__gnu_cxx12_Lock_policyE2EE10_M_destroyEv=so_stub_for_libtelux_tel
-Wl,--defsym=_ZNSt23_Sp_counted_ptr_inplaceIN5telux6common15ListenerManagerINS0_3tel22ICellBroadcastListenerEEESaIS5_ELN9__gnu_cxx12_Lock_policyE2EE10_M_disposeEv=so_stub_for_libtelux_tel
-Wl,--defsym=_ZNSt23_Sp_counted_ptr_inplaceIN5telux6common15ListenerManagerINS0_3tel22ICellBroadcastListenerEEESaIS5_ELN9__gnu_cxx12_Lock_policyE2EE14_M_get_deleterERKSt9type_info=so_stub_for_libtelux_tel
-Wl,--defsym=_ZNSt23_Sp_counted_ptr_inplaceIN5telux6common15ListenerManagerINS0_3tel22ICellBroadcastListenerEEESaIS5_ELN9__gnu_cxx12_Lock_policyE2EED0Ev=so_stub_for_libtelux_tel
-Wl,--defsym=_ZNSt23_Sp_counted_ptr_inplaceIN5telux6common15ListenerManagerINS0_3tel22ICellBroadcastListenerEEESaIS5_ELN9__gnu_cxx12_Lock_policyE2EED1Ev=so_stub_for_libtelux_tel
-Wl,--defsym=_ZNSt23_Sp_counted_ptr_inplaceIN5telux6common15ListenerManagerINS0_3tel22ICellBroadcastListenerEEESaIS5_ELN9__gnu_cxx12_Lock_policyE2EED2Ev=so_stub_for_libtelux_tel
-Wl,--defsym=_ZNSt23_Sp_counted_ptr_inplaceIN5telux6common15ListenerManagerINS0_3tel22IServingSystemListenerEEESaIS5_ELN9__gnu_cxx12_Lock_policyE2EE10_M_destroyEv=so_stub_for_libtelux_tel
-Wl,--defsym=_ZNSt23_Sp_counted_ptr_inplaceIN5telux6common15ListenerManagerINS0_3tel22IServingSystemListenerEEESaIS5_ELN9__gnu_cxx12_Lock_policyE2EE10_M_disposeEv=so_stub_for_libtelux_tel
-Wl,--defsym=_ZNSt23_Sp_counted_ptr_inplaceIN5telux6common15ListenerManagerINS0_3tel22IServingSystemListenerEEESaIS5_ELN9__gnu_cxx12_Lock_policyE2EE14_M_get_deleterERKSt9type_info=so_stub_for_libtelux_tel
-Wl,--defsym=_ZNSt23_Sp_counted_ptr_inplaceIN5telux6common15ListenerManagerINS0_3tel22IServingSystemListenerEEESaIS5_ELN9__gnu_cxx12_Lock_policyE2EED0Ev=so_stub_for_libtelux_tel
-Wl,--defsym=_ZNSt23_Sp_counted_ptr_inplaceIN5telux6common15ListenerManagerINS0_3tel22IServingSystemListenerEEESaIS5_ELN9__gnu_cxx12_Lock_policyE2EED1Ev=so_stub_for_libtelux_tel
-Wl,--defsym=_ZNSt23_Sp_counted_ptr_inplaceIN5telux6common15ListenerManagerINS0_3tel22IServingSystemListenerEEESaIS5_ELN9__gnu_cxx12_Lock_policyE2EED2Ev=so_stub_for_libtelux_tel
-Wl,--defsym=_ZNSt23_Sp_counted_ptr_inplaceIN5telux6common15ListenerManagerINS0_3tel25INetworkSelectionListenerEEESaIS5_ELN9__gnu_cxx12_Lock_policyE2EE10_M_destroyEv=so_stub_for_libtelux_tel
-Wl,--defsym=_ZNSt23_Sp_counted_ptr_inplaceIN5telux6common15ListenerManagerINS0_3tel25INetworkSelectionListenerEEESaIS5_ELN9__gnu_cxx12_Lock_policyE2EE10_M_disposeEv=so_stub_for_libtelux_tel
-Wl,--defsym=_ZNSt23_Sp_counted_ptr_inplaceIN5telux6common15ListenerManagerINS0_3tel25INetworkSelectionListenerEEESaIS5_ELN9__gnu_cxx12_Lock_policyE2EE14_M_get_deleterERKSt9type_info=so_stub_for_libtelux_tel
-Wl,--defsym=_ZNSt23_Sp_counted_ptr_inplaceIN5telux6common15ListenerManagerINS0_3tel25INetworkSelectionListenerEEESaIS5_ELN9__gnu_cxx12_Lock_policyE2EED0Ev=so_stub_for_libtelux_tel
-Wl,--defsym=_ZNSt23_Sp_counted_ptr_inplaceIN5telux6common15ListenerManagerINS0_3tel25INetworkSelectionListenerEEESaIS5_ELN9__gnu_cxx12_Lock_policyE2EED1Ev=so_stub_for_libtelux_tel
-Wl,--defsym=_ZNSt23_Sp_counted_ptr_inplaceIN5telux6common15ListenerManagerINS0_3tel25INetworkSelectionListenerEEESaIS5_ELN9__gnu_cxx12_Lock_policyE2EED2Ev=so_stub_for_libtelux_tel
-Wl,--defsym=_ZNSt23_Sp_counted_ptr_inplaceIN5telux6common15ListenerManagerINS0_3tel3ril12IRilListenerEEESaIS6_ELN9__gnu_cxx12_Lock_policyE2EE10_M_destroyEv=so_stub_for_libtelux_tel
-Wl,--defsym=_ZNSt23_Sp_counted_ptr_inplaceIN5telux6common15ListenerManagerINS0_3tel3ril12IRilListenerEEESaIS6_ELN9__gnu_cxx12_Lock_policyE2EE10_M_disposeEv=so_stub_for_libtelux_tel
-Wl,--defsym=_ZNSt23_Sp_counted_ptr_inplaceIN5telux6common15ListenerManagerINS0_3tel3ril12IRilListenerEEESaIS6_ELN9__gnu_cxx12_Lock_policyE2EE14_M_get_deleterERKSt9type_info=so_stub_for_libtelux_tel
-Wl,--defsym=_ZNSt23_Sp_counted_ptr_inplaceIN5telux6common15ListenerManagerINS0_3tel3ril12IRilListenerEEESaIS6_ELN9__gnu_cxx12_Lock_policyE2EED0Ev=so_stub_for_libtelux_tel
-Wl,--defsym=_ZNSt23_Sp_counted_ptr_inplaceIN5telux6common15ListenerManagerINS0_3tel3ril12IRilListenerEEESaIS6_ELN9__gnu_cxx12_Lock_policyE2EED1Ev=so_stub_for_libtelux_tel
-Wl,--defsym=_ZNSt23_Sp_counted_ptr_inplaceIN5telux6common15ListenerManagerINS0_3tel3ril12IRilListenerEEESaIS6_ELN9__gnu_cxx12_Lock_policyE2EED2Ev=so_stub_for_libtelux_tel
-Wl,--defsym=_ZNSt23_Sp_counted_ptr_inplaceIN5telux6common18FunctionalCallbackIJbbNS1_9ErrorCodeEEEESaIS4_ELN9__gnu_cxx12_Lock_policyE2EE10_M_destroyEv=so_stub_for_libtelux_tel
-Wl,--defsym=_ZNSt23_Sp_counted_ptr_inplaceIN5telux6common18FunctionalCallbackIJbbNS1_9ErrorCodeEEEESaIS4_ELN9__gnu_cxx12_Lock_policyE2EE10_M_disposeEv=so_stub_for_libtelux_tel
-Wl,--defsym=_ZNSt23_Sp_counted_ptr_inplaceIN5telux6common18FunctionalCallbackIJbbNS1_9ErrorCodeEEEESaIS4_ELN9__gnu_cxx12_Lock_policyE2EE14_M_get_deleterERKSt9type_info=so_stub_for_libtelux_tel
-Wl,--defsym=_ZNSt23_Sp_counted_ptr_inplaceIN5telux6common18FunctionalCallbackIJbbNS1_9ErrorCodeEEEESaIS4_ELN9__gnu_cxx12_Lock_policyE2EED0Ev=so_stub_for_libtelux_tel
-Wl,--defsym=_ZNSt23_Sp_counted_ptr_inplaceIN5telux6common18FunctionalCallbackIJbbNS1_9ErrorCodeEEEESaIS4_ELN9__gnu_cxx12_Lock_policyE2EED1Ev=so_stub_for_libtelux_tel
-Wl,--defsym=_ZNSt23_Sp_counted_ptr_inplaceIN5telux6common18FunctionalCallbackIJbbNS1_9ErrorCodeEEEESaIS4_ELN9__gnu_cxx12_Lock_policyE2EED2Ev=so_stub_for_libtelux_tel
-Wl,--defsym=_ZNSt23_Sp_counted_ptr_inplaceIN5telux6common18FunctionalCallbackIJbNS1_9ErrorCodeEEEESaIS4_ELN9__gnu_cxx12_Lock_policyE2EE10_M_destroyEv=so_stub_for_libtelux_tel
-Wl,--defsym=_ZNSt23_Sp_counted_ptr_inplaceIN5telux6common18FunctionalCallbackIJbNS1_9ErrorCodeEEEESaIS4_ELN9__gnu_cxx12_Lock_policyE2EE10_M_disposeEv=so_stub_for_libtelux_tel
-Wl,--defsym=_ZNSt23_Sp_counted_ptr_inplaceIN5telux6common18FunctionalCallbackIJbNS1_9ErrorCodeEEEESaIS4_ELN9__gnu_cxx12_Lock_policyE2EE14_M_get_deleterERKSt9type_info=so_stub_for_libtelux_tel
-Wl,--defsym=_ZNSt23_Sp_counted_ptr_inplaceIN5telux6common18FunctionalCallbackIJbNS1_9ErrorCodeEEEESaIS4_ELN9__gnu_cxx12_Lock_policyE2EED0Ev=so_stub_for_libtelux_tel
-Wl,--defsym=_ZNSt23_Sp_counted_ptr_inplaceIN5telux6common18FunctionalCallbackIJbNS1_9ErrorCodeEEEESaIS4_ELN9__gnu_cxx12_Lock_policyE2EED1Ev=so_stub_for_libtelux_tel
-Wl,--defsym=_ZNSt23_Sp_counted_ptr_inplaceIN5telux6common18FunctionalCallbackIJbNS1_9ErrorCodeEEEESaIS4_ELN9__gnu_cxx12_Lock_policyE2EED2Ev=so_stub_for_libtelux_tel
-Wl,--defsym=_ZNSt23_Sp_counted_ptr_inplaceIN5telux6common18FunctionalCallbackIJiNS1_9ErrorCodeEEEESaIS4_ELN9__gnu_cxx12_Lock_policyE2EE10_M_destroyEv=so_stub_for_libtelux_tel
-Wl,--defsym=_ZNSt23_Sp_counted_ptr_inplaceIN5telux6common18FunctionalCallbackIJiNS1_9ErrorCodeEEEESaIS4_ELN9__gnu_cxx12_Lock_policyE2EE10_M_disposeEv=so_stub_for_libtelux_tel
-Wl,--defsym=_ZNSt23_Sp_counted_ptr_inplaceIN5telux6common18FunctionalCallbackIJiNS1_9ErrorCodeEEEESaIS4_ELN9__gnu_cxx12_Lock_policyE2EE14_M_get_deleterERKSt9type_info=so_stub_for_libtelux_tel
-Wl,--defsym=_ZNSt23_Sp_counted_ptr_inplaceIN5telux6common18FunctionalCallbackIJiNS1_9ErrorCodeEEEESaIS4_ELN9__gnu_cxx12_Lock_policyE2EED0Ev=so_stub_for_libtelux_tel
-Wl,--defsym=_ZNSt23_Sp_counted_ptr_inplaceIN5telux6common18FunctionalCallbackIJiNS1_9ErrorCodeEEEESaIS4_ELN9__gnu_cxx12_Lock_policyE2EED1Ev=so_stub_for_libtelux_tel
-Wl,--defsym=_ZNSt23_Sp_counted_ptr_inplaceIN5telux6common18FunctionalCallbackIJiNS1_9ErrorCodeEEEESaIS4_ELN9__gnu_cxx12_Lock_policyE2EED2Ev=so_stub_for_libtelux_tel
-Wl,--defsym=_ZNSt23_Sp_counted_ptr_inplaceIN5telux6common18FunctionalCallbackIJNS0_3tel15RadioTechnologyENS1_9ErrorCodeEEEESaIS6_ELN9__gnu_cxx12_Lock_policyE2EE10_M_destroyEv=so_stub_for_libtelux_tel
-Wl,--defsym=_ZNSt23_Sp_counted_ptr_inplaceIN5telux6common18FunctionalCallbackIJNS0_3tel15RadioTechnologyENS1_9ErrorCodeEEEESaIS6_ELN9__gnu_cxx12_Lock_policyE2EE10_M_disposeEv=so_stub_for_libtelux_tel
-Wl,--defsym=_ZNSt23_Sp_counted_ptr_inplaceIN5telux6common18FunctionalCallbackIJNS0_3tel15RadioTechnologyENS1_9ErrorCodeEEEESaIS6_ELN9__gnu_cxx12_Lock_policyE2EE14_M_get_deleterERKSt9type_info=so_stub_for_libtelux_tel
-Wl,--defsym=_ZNSt23_Sp_counted_ptr_inplaceIN5telux6common18FunctionalCallbackIJNS0_3tel15RadioTechnologyENS1_9ErrorCodeEEEESaIS6_ELN9__gnu_cxx12_Lock_policyE2EED0Ev=so_stub_for_libtelux_tel
-Wl,--defsym=_ZNSt23_Sp_counted_ptr_inplaceIN5telux6common18FunctionalCallbackIJNS0_3tel15RadioTechnologyENS1_9ErrorCodeEEEESaIS6_ELN9__gnu_cxx12_Lock_policyE2EED1Ev=so_stub_for_libtelux_tel
-Wl,--defsym=_ZNSt23_Sp_counted_ptr_inplaceIN5telux6common18FunctionalCallbackIJNS0_3tel15RadioTechnologyENS1_9ErrorCodeEEEESaIS6_ELN9__gnu_cxx12_Lock_policyE2EED2Ev=so_stub_for_libtelux_tel
-Wl,--defsym=_ZNSt23_Sp_counted_ptr_inplaceIN5telux6common18FunctionalCallbackIJNS0_3tel20NetworkSelectionModeENS1_9ErrorCodeEEEESaIS6_ELN9__gnu_cxx12_Lock_policyE2EE10_M_destroyEv=so_stub_for_libtelux_tel
-Wl,--defsym=_ZNSt23_Sp_counted_ptr_inplaceIN5telux6common18FunctionalCallbackIJNS0_3tel20NetworkSelectionModeENS1_9ErrorCodeEEEESaIS6_ELN9__gnu_cxx12_Lock_policyE2EE10_M_disposeEv=so_stub_for_libtelux_tel
-Wl,--defsym=_ZNSt23_Sp_counted_ptr_inplaceIN5telux6common18FunctionalCallbackIJNS0_3tel20NetworkSelectionModeENS1_9ErrorCodeEEEESaIS6_ELN9__gnu_cxx12_Lock_policyE2EE14_M_get_deleterERKSt9type_info=so_stub_for_libtelux_tel
-Wl,--defsym=_ZNSt23_Sp_counted_ptr_inplaceIN5telux6common18FunctionalCallbackIJNS0_3tel20NetworkSelectionModeENS1_9ErrorCodeEEEESaIS6_ELN9__gnu_cxx12_Lock_policyE2EED0Ev=so_stub_for_libtelux_tel
-Wl,--defsym=_ZNSt23_Sp_counted_ptr_inplaceIN5telux6common18FunctionalCallbackIJNS0_3tel20NetworkSelectionModeENS1_9ErrorCodeEEEESaIS6_ELN9__gnu_cxx12_Lock_policyE2EED1Ev=so_stub_for_libtelux_tel
-Wl,--defsym=_ZNSt23_Sp_counted_ptr_inplaceIN5telux6common18FunctionalCallbackIJNS0_3tel20NetworkSelectionModeENS1_9ErrorCodeEEEESaIS6_ELN9__gnu_cxx12_Lock_policyE2EED2Ev=so_stub_for_libtelux_tel
-Wl,--defsym=_ZNSt23_Sp_counted_ptr_inplaceIN5telux6common18FunctionalCallbackIJNS0_3tel23ServiceDomainPreferenceENS1_9ErrorCodeEEEESaIS6_ELN9__gnu_cxx12_Lock_policyE2EE10_M_destroyEv=so_stub_for_libtelux_tel
-Wl,--defsym=_ZNSt23_Sp_counted_ptr_inplaceIN5telux6common18FunctionalCallbackIJNS0_3tel23ServiceDomainPreferenceENS1_9ErrorCodeEEEESaIS6_ELN9__gnu_cxx12_Lock_policyE2EE10_M_disposeEv=so_stub_for_libtelux_tel
-Wl,--defsym=_ZNSt23_Sp_counted_ptr_inplaceIN5telux6common18FunctionalCallbackIJNS0_3tel23ServiceDomainPreferenceENS1_9ErrorCodeEEEESaIS6_ELN9__gnu_cxx12_Lock_policyE2EE14_M_get_deleterERKSt9type_info=so_stub_for_libtelux_tel
-Wl,--defsym=_ZNSt23_Sp_counted_ptr_inplaceIN5telux6common18FunctionalCallbackIJNS0_3tel23ServiceDomainPreferenceENS1_9ErrorCodeEEEESaIS6_ELN9__gnu_cxx12_Lock_policyE2EED0Ev=so_stub_for_libtelux_tel
-Wl,--defsym=_ZNSt23_Sp_counted_ptr_inplaceIN5telux6common18FunctionalCallbackIJNS0_3tel23ServiceDomainPreferenceENS1_9ErrorCodeEEEESaIS6_ELN9__gnu_cxx12_Lock_policyE2EED1Ev=so_stub_for_libtelux_tel
-Wl,--defsym=_ZNSt23_Sp_counted_ptr_inplaceIN5telux6common18FunctionalCallbackIJNS0_3tel23ServiceDomainPreferenceENS1_9ErrorCodeEEEESaIS6_ELN9__gnu_cxx12_Lock_policyE2EED2Ev=so_stub_for_libtelux_tel
-Wl,--defsym=_ZNSt23_Sp_counted_ptr_inplaceIN5telux6common18FunctionalCallbackIJNS0_3tel8SapStateENS1_9ErrorCodeEEEESaIS6_ELN9__gnu_cxx12_Lock_policyE2EE10_M_destroyEv=so_stub_for_libtelux_tel
-Wl,--defsym=_ZNSt23_Sp_counted_ptr_inplaceIN5telux6common18FunctionalCallbackIJNS0_3tel8SapStateENS1_9ErrorCodeEEEESaIS6_ELN9__gnu_cxx12_Lock_policyE2EE10_M_disposeEv=so_stub_for_libtelux_tel
-Wl,--defsym=_ZNSt23_Sp_counted_ptr_inplaceIN5telux6common18FunctionalCallbackIJNS0_3tel8SapStateENS1_9ErrorCodeEEEESaIS6_ELN9__gnu_cxx12_Lock_policyE2EE14_M_get_deleterERKSt9type_info=so_stub_for_libtelux_tel
-Wl,--defsym=_ZNSt23_Sp_counted_ptr_inplaceIN5telux6common18FunctionalCallbackIJNS0_3tel8SapStateENS1_9ErrorCodeEEEESaIS6_ELN9__gnu_cxx12_Lock_policyE2EED0Ev=so_stub_for_libtelux_tel
-Wl,--defsym=_ZNSt23_Sp_counted_ptr_inplaceIN5telux6common18FunctionalCallbackIJNS0_3tel8SapStateENS1_9ErrorCodeEEEESaIS6_ELN9__gnu_cxx12_Lock_policyE2EED1Ev=so_stub_for_libtelux_tel
-Wl,--defsym=_ZNSt23_Sp_counted_ptr_inplaceIN5telux6common18FunctionalCallbackIJNS0_3tel8SapStateENS1_9ErrorCodeEEEESaIS6_ELN9__gnu_cxx12_Lock_policyE2EED2Ev=so_stub_for_libtelux_tel
-Wl,--defsym=_ZNSt23_Sp_counted_ptr_inplaceIN5telux6common18FunctionalCallbackIJNS0_3tel9ECallModeENS1_9ErrorCodeEEEESaIS6_ELN9__gnu_cxx12_Lock_policyE2EE10_M_destroyEv=so_stub_for_libtelux_tel
-Wl,--defsym=_ZNSt23_Sp_counted_ptr_inplaceIN5telux6common18FunctionalCallbackIJNS0_3tel9ECallModeENS1_9ErrorCodeEEEESaIS6_ELN9__gnu_cxx12_Lock_policyE2EE10_M_disposeEv=so_stub_for_libtelux_tel
-Wl,--defsym=_ZNSt23_Sp_counted_ptr_inplaceIN5telux6common18FunctionalCallbackIJNS0_3tel9ECallModeENS1_9ErrorCodeEEEESaIS6_ELN9__gnu_cxx12_Lock_policyE2EE14_M_get_deleterERKSt9type_info=so_stub_for_libtelux_tel
-Wl,--defsym=_ZNSt23_Sp_counted_ptr_inplaceIN5telux6common18FunctionalCallbackIJNS0_3tel9ECallModeENS1_9ErrorCodeEEEESaIS6_ELN9__gnu_cxx12_Lock_policyE2EED0Ev=so_stub_for_libtelux_tel
-Wl,--defsym=_ZNSt23_Sp_counted_ptr_inplaceIN5telux6common18FunctionalCallbackIJNS0_3tel9ECallModeENS1_9ErrorCodeEEEESaIS6_ELN9__gnu_cxx12_Lock_policyE2EED1Ev=so_stub_for_libtelux_tel
-Wl,--defsym=_ZNSt23_Sp_counted_ptr_inplaceIN5telux6common18FunctionalCallbackIJNS0_3tel9ECallModeENS1_9ErrorCodeEEEESaIS6_ELN9__gnu_cxx12_Lock_policyE2EED2Ev=so_stub_for_libtelux_tel
-Wl,--defsym=_ZNSt23_Sp_counted_ptr_inplaceIN5telux6common18FunctionalCallbackIJNS1_9ErrorCodeEEEESaIS4_ELN9__gnu_cxx12_Lock_policyE2EE10_M_destroyEv=so_stub_for_libtelux_tel
-Wl,--defsym=_ZNSt23_Sp_counted_ptr_inplaceIN5telux6common18FunctionalCallbackIJNS1_9ErrorCodeEEEESaIS4_ELN9__gnu_cxx12_Lock_policyE2EE10_M_disposeEv=so_stub_for_libtelux_tel
-Wl,--defsym=_ZNSt23_Sp_counted_ptr_inplaceIN5telux6common18FunctionalCallbackIJNS1_9ErrorCodeEEEESaIS4_ELN9__gnu_cxx12_Lock_policyE2EE14_M_get_deleterERKSt9type_info=so_stub_for_libtelux_tel
-Wl,--defsym=_ZNSt23_Sp_counted_ptr_inplaceIN5telux6common18FunctionalCallbackIJNS1_9ErrorCodeEEEESaIS4_ELN9__gnu_cxx12_Lock_policyE2EED0Ev=so_stub_for_libtelux_tel
-Wl,--defsym=_ZNSt23_Sp_counted_ptr_inplaceIN5telux6common18FunctionalCallbackIJNS1_9ErrorCodeEEEESaIS4_ELN9__gnu_cxx12_Lock_policyE2EED1Ev=so_stub_for_libtelux_tel
-Wl,--defsym=_ZNSt23_Sp_counted_ptr_inplaceIN5telux6common18FunctionalCallbackIJNS1_9ErrorCodeEEEESaIS4_ELN9__gnu_cxx12_Lock_policyE2EED2Ev=so_stub_for_libtelux_tel
-Wl,--defsym=_ZNSt23_Sp_counted_ptr_inplaceIN5telux6common18FunctionalCallbackIJNS1_9ErrorCodeEiNS0_3tel20ECallHlapTimerStatusEEEESaIS6_ELN9__gnu_cxx12_Lock_policyE2EE10_M_destroyEv=so_stub_for_libtelux_tel
-Wl,--defsym=_ZNSt23_Sp_counted_ptr_inplaceIN5telux6common18FunctionalCallbackIJNS1_9ErrorCodeEiNS0_3tel20ECallHlapTimerStatusEEEESaIS6_ELN9__gnu_cxx12_Lock_policyE2EE10_M_disposeEv=so_stub_for_libtelux_tel
-Wl,--defsym=_ZNSt23_Sp_counted_ptr_inplaceIN5telux6common18FunctionalCallbackIJNS1_9ErrorCodeEiNS0_3tel20ECallHlapTimerStatusEEEESaIS6_ELN9__gnu_cxx12_Lock_policyE2EE14_M_get_deleterERKSt9type_info=so_stub_for_libtelux_tel
-Wl,--defsym=_ZNSt23_Sp_counted_ptr_inplaceIN5telux6common18FunctionalCallbackIJNS1_9ErrorCodeEiNS0_3tel20ECallHlapTimerStatusEEEESaIS6_ELN9__gnu_cxx12_Lock_policyE2EED0Ev=so_stub_for_libtelux_tel
-Wl,--defsym=_ZNSt23_Sp_counted_ptr_inplaceIN5telux6common18FunctionalCallbackIJNS1_9ErrorCodeEiNS0_3tel20ECallHlapTimerStatusEEEESaIS6_ELN9__gnu_cxx12_Lock_policyE2EED1Ev=so_stub_for_libtelux_tel
-Wl,--defsym=_ZNSt23_Sp_counted_ptr_inplaceIN5telux6common18FunctionalCallbackIJNS1_9ErrorCodeEiNS0_3tel20ECallHlapTimerStatusEEEESaIS6_ELN9__gnu_cxx12_Lock_policyE2EED2Ev=so_stub_for_libtelux_tel
-Wl,--defsym=_ZNSt23_Sp_counted_ptr_inplaceIN5telux6common18FunctionalCallbackIJNS1_9ErrorCodeESt10shared_ptrINS0_3tel5ICallEEEEESaIS8_ELN9__gnu_cxx12_Lock_policyE2EE10_M_destroyEv=so_stub_for_libtelux_tel
-Wl,--defsym=_ZNSt23_Sp_counted_ptr_inplaceIN5telux6common18FunctionalCallbackIJNS1_9ErrorCodeESt10shared_ptrINS0_3tel5ICallEEEEESaIS8_ELN9__gnu_cxx12_Lock_policyE2EE10_M_disposeEv=so_stub_for_libtelux_tel
-Wl,--defsym=_ZNSt23_Sp_counted_ptr_inplaceIN5telux6common18FunctionalCallbackIJNS1_9ErrorCodeESt10shared_ptrINS0_3tel5ICallEEEEESaIS8_ELN9__gnu_cxx12_Lock_policyE2EE14_M_get_deleterERKSt9type_info=so_stub_for_libtelux_tel
-Wl,--defsym=_ZNSt23_Sp_counted_ptr_inplaceIN5telux6common18FunctionalCallbackIJNS1_9ErrorCodeESt10shared_ptrINS0_3tel5ICallEEEEESaIS8_ELN9__gnu_cxx12_Lock_policyE2EED0Ev=so_stub_for_libtelux_tel
-Wl,--defsym=_ZNSt23_Sp_counted_ptr_inplaceIN5telux6common18FunctionalCallbackIJNS1_9ErrorCodeESt10shared_ptrINS0_3tel5ICallEEEEESaIS8_ELN9__gnu_cxx12_Lock_policyE2EED1Ev=so_stub_for_libtelux_tel
-Wl,--defsym=_ZNSt23_Sp_counted_ptr_inplaceIN5telux6common18FunctionalCallbackIJNS1_9ErrorCodeESt10shared_ptrINS0_3tel5ICallEEEEESaIS8_ELN9__gnu_cxx12_Lock_policyE2EED2Ev=so_stub_for_libtelux_tel
-Wl,--defsym=_ZNSt23_Sp_counted_ptr_inplaceIN5telux6common18FunctionalCallbackIJNSt7__cxx1112basic_stringIcSt11char_traitsIcESaIcEEENS1_9ErrorCodeEEEESaISA_ELN9__gnu_cxx12_Lock_policyE2EE10_M_destroyEv=so_stub_for_libtelux_tel
-Wl,--defsym=_ZNSt23_Sp_counted_ptr_inplaceIN5telux6common18FunctionalCallbackIJNSt7__cxx1112basic_stringIcSt11char_traitsIcESaIcEEENS1_9ErrorCodeEEEESaISA_ELN9__gnu_cxx12_Lock_policyE2EE10_M_disposeEv=so_stub_for_libtelux_tel
-Wl,--defsym=_ZNSt23_Sp_counted_ptr_inplaceIN5telux6common18FunctionalCallbackIJNSt7__cxx1112basic_stringIcSt11char_traitsIcESaIcEEENS1_9ErrorCodeEEEESaISA_ELN9__gnu_cxx12_Lock_policyE2EE14_M_get_deleterERKSt9type_info=so_stub_for_libtelux_tel
-Wl,--defsym=_ZNSt23_Sp_counted_ptr_inplaceIN5telux6common18FunctionalCallbackIJNSt7__cxx1112basic_stringIcSt11char_traitsIcESaIcEEENS1_9ErrorCodeEEEESaISA_ELN9__gnu_cxx12_Lock_policyE2EED0Ev=so_stub_for_libtelux_tel
-Wl,--defsym=_ZNSt23_Sp_counted_ptr_inplaceIN5telux6common18FunctionalCallbackIJNSt7__cxx1112basic_stringIcSt11char_traitsIcESaIcEEENS1_9ErrorCodeEEEESaISA_ELN9__gnu_cxx12_Lock_policyE2EED1Ev=so_stub_for_libtelux_tel
-Wl,--defsym=_ZNSt23_Sp_counted_ptr_inplaceIN5telux6common18FunctionalCallbackIJNSt7__cxx1112basic_stringIcSt11char_traitsIcESaIcEEENS1_9ErrorCodeEEEESaISA_ELN9__gnu_cxx12_Lock_policyE2EED2Ev=so_stub_for_libtelux_tel
-Wl,--defsym=_ZNSt23_Sp_counted_ptr_inplaceIN5telux6common18FunctionalCallbackIJRKNSt7__cxx1112basic_stringIcSt11char_traitsIcESaIcEEENS1_9ErrorCodeEEEESaISC_ELN9__gnu_cxx12_Lock_policyE2EE10_M_destroyEv=so_stub_for_libtelux_tel
-Wl,--defsym=_ZNSt23_Sp_counted_ptr_inplaceIN5telux6common18FunctionalCallbackIJRKNSt7__cxx1112basic_stringIcSt11char_traitsIcESaIcEEENS1_9ErrorCodeEEEESaISC_ELN9__gnu_cxx12_Lock_policyE2EE10_M_disposeEv=so_stub_for_libtelux_tel
-Wl,--defsym=_ZNSt23_Sp_counted_ptr_inplaceIN5telux6common18FunctionalCallbackIJRKNSt7__cxx1112basic_stringIcSt11char_traitsIcESaIcEEENS1_9ErrorCodeEEEESaISC_ELN9__gnu_cxx12_Lock_policyE2EE14_M_get_deleterERKSt9type_info=so_stub_for_libtelux_tel
-Wl,--defsym=_ZNSt23_Sp_counted_ptr_inplaceIN5telux6common18FunctionalCallbackIJRKNSt7__cxx1112basic_stringIcSt11char_traitsIcESaIcEEENS1_9ErrorCodeEEEESaISC_ELN9__gnu_cxx12_Lock_policyE2EED0Ev=so_stub_for_libtelux_tel
-Wl,--defsym=_ZNSt23_Sp_counted_ptr_inplaceIN5telux6common18FunctionalCallbackIJRKNSt7__cxx1112basic_stringIcSt11char_traitsIcESaIcEEENS1_9ErrorCodeEEEESaISC_ELN9__gnu_cxx12_Lock_policyE2EED1Ev=so_stub_for_libtelux_tel
-Wl,--defsym=_ZNSt23_Sp_counted_ptr_inplaceIN5telux6common18FunctionalCallbackIJRKNSt7__cxx1112basic_stringIcSt11char_traitsIcESaIcEEENS1_9ErrorCodeEEEESaISC_ELN9__gnu_cxx12_Lock_policyE2EED2Ev=so_stub_for_libtelux_tel
-Wl,--defsym=_ZNSt23_Sp_counted_ptr_inplaceIN5telux6common18FunctionalCallbackIJRKSt6vectorISt10shared_ptrINS0_3tel10SimProfileEESaIS7_EENS1_9ErrorCodeEEEESaISD_ELN9__gnu_cxx12_Lock_policyE2EE10_M_destroyEv=so_stub_for_libtelux_tel
-Wl,--defsym=_ZNSt23_Sp_counted_ptr_inplaceIN5telux6common18FunctionalCallbackIJRKSt6vectorISt10shared_ptrINS0_3tel10SimProfileEESaIS7_EENS1_9ErrorCodeEEEESaISD_ELN9__gnu_cxx12_Lock_policyE2EE10_M_disposeEv=so_stub_for_libtelux_tel
-Wl,--defsym=_ZNSt23_Sp_counted_ptr_inplaceIN5telux6common18FunctionalCallbackIJRKSt6vectorISt10shared_ptrINS0_3tel10SimProfileEESaIS7_EENS1_9ErrorCodeEEEESaISD_ELN9__gnu_cxx12_Lock_policyE2EE14_M_get_deleterERKSt9type_info=so_stub_for_libtelux_tel
-Wl,--defsym=_ZNSt23_Sp_counted_ptr_inplaceIN5telux6common18FunctionalCallbackIJRKSt6vectorISt10shared_ptrINS0_3tel10SimProfileEESaIS7_EENS1_9ErrorCodeEEEESaISD_ELN9__gnu_cxx12_Lock_policyE2EED0Ev=so_stub_for_libtelux_tel
-Wl,--defsym=_ZNSt23_Sp_counted_ptr_inplaceIN5telux6common18FunctionalCallbackIJRKSt6vectorISt10shared_ptrINS0_3tel10SimProfileEESaIS7_EENS1_9ErrorCodeEEEESaISD_ELN9__gnu_cxx12_Lock_policyE2EED1Ev=so_stub_for_libtelux_tel
-Wl,--defsym=_ZNSt23_Sp_counted_ptr_inplaceIN5telux6common18FunctionalCallbackIJRKSt6vectorISt10shared_ptrINS0_3tel10SimProfileEESaIS7_EENS1_9ErrorCodeEEEESaISD_ELN9__gnu_cxx12_Lock_policyE2EED2Ev=so_stub_for_libtelux_tel
-Wl,--defsym=_ZNSt23_Sp_counted_ptr_inplaceIN5telux6common18FunctionalCallbackIJSt3mapI6SlotIdNS0_3tel10SlotStatusESt4lessIS4_ESaISt4pairIKS4_S6_EEENS1_9ErrorCodeEEEESaISF_ELN9__gnu_cxx12_Lock_policyE2EE10_M_destroyEv=so_stub_for_libtelux_tel
-Wl,--defsym=_ZNSt23_Sp_counted_ptr_inplaceIN5telux6common18FunctionalCallbackIJSt3mapI6SlotIdNS0_3tel10SlotStatusESt4lessIS4_ESaISt4pairIKS4_S6_EEENS1_9ErrorCodeEEEESaISF_ELN9__gnu_cxx12_Lock_policyE2EE10_M_disposeEv=so_stub_for_libtelux_tel
-Wl,--defsym=_ZNSt23_Sp_counted_ptr_inplaceIN5telux6common18FunctionalCallbackIJSt3mapI6SlotIdNS0_3tel10SlotStatusESt4lessIS4_ESaISt4pairIKS4_S6_EEENS1_9ErrorCodeEEEESaISF_ELN9__gnu_cxx12_Lock_policyE2EE14_M_get_deleterERKSt9type_info=so_stub_for_libtelux_tel
-Wl,--defsym=_ZNSt23_Sp_counted_ptr_inplaceIN5telux6common18FunctionalCallbackIJSt3mapI6SlotIdNS0_3tel10SlotStatusESt4lessIS4_ESaISt4pairIKS4_S6_EEENS1_9ErrorCodeEEEESaISF_ELN9__gnu_cxx12_Lock_policyE2EED0Ev=so_stub_for_libtelux_tel
-Wl,--defsym=_ZNSt23_Sp_counted_ptr_inplaceIN5telux6common18FunctionalCallbackIJSt3mapI6SlotIdNS0_3tel10SlotStatusESt4lessIS4_ESaISt4pairIKS4_S6_EEENS1_9ErrorCodeEEEESaISF_ELN9__gnu_cxx12_Lock_policyE2EED1Ev=so_stub_for_libtelux_tel
-Wl,--defsym=_ZNSt23_Sp_counted_ptr_inplaceIN5telux6common18FunctionalCallbackIJSt3mapI6SlotIdNS0_3tel10SlotStatusESt4lessIS4_ESaISt4pairIKS4_S6_EEENS1_9ErrorCodeEEEESaISF_ELN9__gnu_cxx12_Lock_policyE2EED2Ev=so_stub_for_libtelux_tel
-Wl,--defsym=_ZNSt23_Sp_counted_ptr_inplaceIN5telux6common18FunctionalCallbackIJSt6bitsetILj16EENS1_9ErrorCodeEEEESaIS6_ELN9__gnu_cxx12_Lock_policyE2EE10_M_destroyEv=so_stub_for_libtelux_tel
-Wl,--defsym=_ZNSt23_Sp_counted_ptr_inplaceIN5telux6common18FunctionalCallbackIJSt6bitsetILj16EENS1_9ErrorCodeEEEESaIS6_ELN9__gnu_cxx12_Lock_policyE2EE10_M_disposeEv=so_stub_for_libtelux_tel
-Wl,--defsym=_ZNSt23_Sp_counted_ptr_inplaceIN5telux6common18FunctionalCallbackIJSt6bitsetILj16EENS1_9ErrorCodeEEEESaIS6_ELN9__gnu_cxx12_Lock_policyE2EE14_M_get_deleterERKSt9type_info=so_stub_for_libtelux_tel
-Wl,--defsym=_ZNSt23_Sp_counted_ptr_inplaceIN5telux6common18FunctionalCallbackIJSt6bitsetILj16EENS1_9ErrorCodeEEEESaIS6_ELN9__gnu_cxx12_Lock_policyE2EED0Ev=so_stub_for_libtelux_tel
-Wl,--defsym=_ZNSt23_Sp_counted_ptr_inplaceIN5telux6common18FunctionalCallbackIJSt6bitsetILj16EENS1_9ErrorCodeEEEESaIS6_ELN9__gnu_cxx12_Lock_policyE2EED1Ev=so_stub_for_libtelux_tel
-Wl,--defsym=_ZNSt23_Sp_counted_ptr_inplaceIN5telux6common18FunctionalCallbackIJSt6bitsetILj16EENS1_9ErrorCodeEEEESaIS6_ELN9__gnu_cxx12_Lock_policyE2EED2Ev=so_stub_for_libtelux_tel
-Wl,--defsym=_ZNSt23_Sp_counted_ptr_inplaceIN5telux6common18FunctionalCallbackIJSt6vectorINS0_3tel12OperatorInfoESaIS5_EENS1_9ErrorCodeEEEESaIS9_ELN9__gnu_cxx12_Lock_policyE2EE10_M_destroyEv=so_stub_for_libtelux_tel
-Wl,--defsym=_ZNSt23_Sp_counted_ptr_inplaceIN5telux6common18FunctionalCallbackIJSt6vectorINS0_3tel12OperatorInfoESaIS5_EENS1_9ErrorCodeEEEESaIS9_ELN9__gnu_cxx12_Lock_policyE2EE10_M_disposeEv=so_stub_for_libtelux_tel
-Wl,--defsym=_ZNSt23_Sp_counted_ptr_inplaceIN5telux6common18FunctionalCallbackIJSt6vectorINS0_3tel12OperatorInfoESaIS5_EENS1_9ErrorCodeEEEESaIS9_ELN9__gnu_cxx12_Lock_policyE2EE14_M_get_deleterERKSt9type_info=so_stub_for_libtelux_tel
-Wl,--defsym=_ZNSt23_Sp_counted_ptr_inplaceIN5telux6common18FunctionalCallbackIJSt6vectorINS0_3tel12OperatorInfoESaIS5_EENS1_9ErrorCodeEEEESaIS9_ELN9__gnu_cxx12_Lock_policyE2EED0Ev=so_stub_for_libtelux_tel
-Wl,--defsym=_ZNSt23_Sp_counted_ptr_inplaceIN5telux6common18FunctionalCallbackIJSt6vectorINS0_3tel12OperatorInfoESaIS5_EENS1_9ErrorCodeEEEESaIS9_ELN9__gnu_cxx12_Lock_policyE2EED1Ev=so_stub_for_libtelux_tel
-Wl,--defsym=_ZNSt23_Sp_counted_ptr_inplaceIN5telux6common18FunctionalCallbackIJSt6vectorINS0_3tel12OperatorInfoESaIS5_EENS1_9ErrorCodeEEEESaIS9_ELN9__gnu_cxx12_Lock_policyE2EED2Ev=so_stub_for_libtelux_tel
-Wl,--defsym=_ZNSt23_Sp_counted_ptr_inplaceIN5telux6common18FunctionalCallbackIJSt6vectorINS0_3tel19CellBroadcastFilterESaIS5_EENS1_9ErrorCodeEEEESaIS9_ELN9__gnu_cxx12_Lock_policyE2EE10_M_destroyEv=so_stub_for_libtelux_tel
-Wl,--defsym=_ZNSt23_Sp_counted_ptr_inplaceIN5telux6common18FunctionalCallbackIJSt6vectorINS0_3tel19CellBroadcastFilterESaIS5_EENS1_9ErrorCodeEEEESaIS9_ELN9__gnu_cxx12_Lock_policyE2EE10_M_disposeEv=so_stub_for_libtelux_tel
-Wl,--defsym=_ZNSt23_Sp_counted_ptr_inplaceIN5telux6common18FunctionalCallbackIJSt6vectorINS0_3tel19CellBroadcastFilterESaIS5_EENS1_9ErrorCodeEEEESaIS9_ELN9__gnu_cxx12_Lock_policyE2EE14_M_get_deleterERKSt9type_info=so_stub_for_libtelux_tel
-Wl,--defsym=_ZNSt23_Sp_counted_ptr_inplaceIN5telux6common18FunctionalCallbackIJSt6vectorINS0_3tel19CellBroadcastFilterESaIS5_EENS1_9ErrorCodeEEEESaIS9_ELN9__gnu_cxx12_Lock_policyE2EED0Ev=so_stub_for_libtelux_tel
-Wl,--defsym=_ZNSt23_Sp_counted_ptr_inplaceIN5telux6common18FunctionalCallbackIJSt6vectorINS0_3tel19CellBroadcastFilterESaIS5_EENS1_9ErrorCodeEEEESaIS9_ELN9__gnu_cxx12_Lock_policyE2EED1Ev=so_stub_for_libtelux_tel
-Wl,--defsym=_ZNSt23_Sp_counted_ptr_inplaceIN5telux6common18FunctionalCallbackIJSt6vectorINS0_3tel19CellBroadcastFilterESaIS5_EENS1_9ErrorCodeEEEESaIS9_ELN9__gnu_cxx12_Lock_policyE2EED2Ev=so_stub_for_libtelux_tel
-Wl,--defsym=_ZNSt23_Sp_counted_ptr_inplaceIN5telux6common18FunctionalCallbackIJSt6vectorINS0_3tel20PreferredNetworkInfoESaIS5_EES7_NS1_9ErrorCodeEEEESaIS9_ELN9__gnu_cxx12_Lock_policyE2EE10_M_destroyEv=so_stub_for_libtelux_tel
-Wl,--defsym=_ZNSt23_Sp_counted_ptr_inplaceIN5telux6common18FunctionalCallbackIJSt6vectorINS0_3tel20PreferredNetworkInfoESaIS5_EES7_NS1_9ErrorCodeEEEESaIS9_ELN9__gnu_cxx12_Lock_policyE2EE10_M_disposeEv=so_stub_for_libtelux_tel
-Wl,--defsym=_ZNSt23_Sp_counted_ptr_inplaceIN5telux6common18FunctionalCallbackIJSt6vectorINS0_3tel20PreferredNetworkInfoESaIS5_EES7_NS1_9ErrorCodeEEEESaIS9_ELN9__gnu_cxx12_Lock_policyE2EE14_M_get_deleterERKSt9type_info=so_stub_for_libtelux_tel
-Wl,--defsym=_ZNSt23_Sp_counted_ptr_inplaceIN5telux6common18FunctionalCallbackIJSt6vectorINS0_3tel20PreferredNetworkInfoESaIS5_EES7_NS1_9ErrorCodeEEEESaIS9_ELN9__gnu_cxx12_Lock_policyE2EED0Ev=so_stub_for_libtelux_tel
-Wl,--defsym=_ZNSt23_Sp_counted_ptr_inplaceIN5telux6common18FunctionalCallbackIJSt6vectorINS0_3tel20PreferredNetworkInfoESaIS5_EES7_NS1_9ErrorCodeEEEESaIS9_ELN9__gnu_cxx12_Lock_policyE2EED1Ev=so_stub_for_libtelux_tel
-Wl,--defsym=_ZNSt23_Sp_counted_ptr_inplaceIN5telux6common18FunctionalCallbackIJSt6vectorINS0_3tel20PreferredNetworkInfoESaIS5_EES7_NS1_9ErrorCodeEEEESaIS9_ELN9__gnu_cxx12_Lock_policyE2EED2Ev=so_stub_for_libtelux_tel
-Wl,--defsym=_ZNSt23_Sp_counted_ptr_inplaceIN5telux6common18FunctionalCallbackIJSt6vectorISt10shared_ptrINS0_3tel8CellInfoEESaIS7_EENS1_9ErrorCodeEEEESaISB_ELN9__gnu_cxx12_Lock_policyE2EE10_M_destroyEv=so_stub_for_libtelux_tel
-Wl,--defsym=_ZNSt23_Sp_counted_ptr_inplaceIN5telux6common18FunctionalCallbackIJSt6vectorISt10shared_ptrINS0_3tel8CellInfoEESaIS7_EENS1_9ErrorCodeEEEESaISB_ELN9__gnu_cxx12_Lock_policyE2EE10_M_disposeEv=so_stub_for_libtelux_tel
-Wl,--defsym=_ZNSt23_Sp_counted_ptr_inplaceIN5telux6common18FunctionalCallbackIJSt6vectorISt10shared_ptrINS0_3tel8CellInfoEESaIS7_EENS1_9ErrorCodeEEEESaISB_ELN9__gnu_cxx12_Lock_policyE2EE14_M_get_deleterERKSt9type_info=so_stub_for_libtelux_tel
-Wl,--defsym=_ZNSt23_Sp_counted_ptr_inplaceIN5telux6common18FunctionalCallbackIJSt6vectorISt10shared_ptrINS0_3tel8CellInfoEESaIS7_EENS1_9ErrorCodeEEEESaISB_ELN9__gnu_cxx12_Lock_policyE2EED0Ev=so_stub_for_libtelux_tel
-Wl,--defsym=_ZNSt23_Sp_counted_ptr_inplaceIN5telux6common18FunctionalCallbackIJSt6vectorISt10shared_ptrINS0_3tel8CellInfoEESaIS7_EENS1_9ErrorCodeEEEESaISB_ELN9__gnu_cxx12_Lock_policyE2EED1Ev=so_stub_for_libtelux_tel
-Wl,--defsym=_ZNSt23_Sp_counted_ptr_inplaceIN5telux6common18FunctionalCallbackIJSt6vectorISt10shared_ptrINS0_3tel8CellInfoEESaIS7_EENS1_9ErrorCodeEEEESaISB_ELN9__gnu_cxx12_Lock_policyE2EED2Ev=so_stub_for_libtelux_tel
-Wl,--defsym=_ZNSt23_Sp_counted_ptr_inplaceIN5telux6common6ResultESaIS2_ELN9__gnu_cxx12_Lock_policyE2EE10_M_destroyEv=so_stub_for_libtelux_tel
-Wl,--defsym=_ZNSt23_Sp_counted_ptr_inplaceIN5telux6common6ResultESaIS2_ELN9__gnu_cxx12_Lock_policyE2EE10_M_disposeEv=so_stub_for_libtelux_tel
-Wl,--defsym=_ZNSt23_Sp_counted_ptr_inplaceIN5telux6common6ResultESaIS2_ELN9__gnu_cxx12_Lock_policyE2EE14_M_get_deleterERKSt9type_info=so_stub_for_libtelux_tel
-Wl,--defsym=_ZNSt23_Sp_counted_ptr_inplaceIN5telux6common6ResultESaIS2_ELN9__gnu_cxx12_Lock_policyE2EED0Ev=so_stub_for_libtelux_tel
-Wl,--defsym=_ZNSt23_Sp_counted_ptr_inplaceIN5telux6common6ResultESaIS2_ELN9__gnu_cxx12_Lock_policyE2EED1Ev=so_stub_for_libtelux_tel
-Wl,--defsym=_ZNSt23_Sp_counted_ptr_inplaceIN5telux6common6ResultESaIS2_ELN9__gnu_cxx12_Lock_policyE2EED2Ev=so_stub_for_libtelux_tel
-Wl,--defsym=_ZNSt23_Sp_counted_ptr_inplaceINSt8__detail4_NFAINSt7__cxx1112regex_traitsIcEEEESaIS5_ELN9__gnu_cxx12_Lock_policyE2EE10_M_destroyEv=so_stub_for_libtelux_tel
-Wl,--defsym=_ZNSt23_Sp_counted_ptr_inplaceINSt8__detail4_NFAINSt7__cxx1112regex_traitsIcEEEESaIS5_ELN9__gnu_cxx12_Lock_policyE2EE10_M_disposeEv=so_stub_for_libtelux_tel
-Wl,--defsym=_ZNSt23_Sp_counted_ptr_inplaceINSt8__detail4_NFAINSt7__cxx1112regex_traitsIcEEEESaIS5_ELN9__gnu_cxx12_Lock_policyE2EE14_M_get_deleterERKSt9type_info=so_stub_for_libtelux_tel
-Wl,--defsym=_ZNSt23_Sp_counted_ptr_inplaceINSt8__detail4_NFAINSt7__cxx1112regex_traitsIcEEEESaIS5_ELN9__gnu_cxx12_Lock_policyE2EED0Ev=so_stub_for_libtelux_tel
-Wl,--defsym=_ZNSt23_Sp_counted_ptr_inplaceINSt8__detail4_NFAINSt7__cxx1112regex_traitsIcEEEESaIS5_ELN9__gnu_cxx12_Lock_policyE2EED1Ev=so_stub_for_libtelux_tel
-Wl,--defsym=_ZNSt23_Sp_counted_ptr_inplaceINSt8__detail4_NFAINSt7__cxx1112regex_traitsIcEEEESaIS5_ELN9__gnu_cxx12_Lock_policyE2EED2Ev=so_stub_for_libtelux_tel
-Wl,--defsym=_ZNSt23_Sp_counted_ptr_inplaceISt6threadSaIS0_ELN9__gnu_cxx12_Lock_policyE2EE10_M_destroyEv=so_stub_for_libtelux_tel
-Wl,--defsym=_ZNSt23_Sp_counted_ptr_inplaceISt6threadSaIS0_ELN9__gnu_cxx12_Lock_policyE2EE10_M_disposeEv=so_stub_for_libtelux_tel
-Wl,--defsym=_ZNSt23_Sp_counted_ptr_inplaceISt6threadSaIS0_ELN9__gnu_cxx12_Lock_policyE2EE14_M_get_deleterERKSt9type_info=so_stub_for_libtelux_tel
-Wl,--defsym=_ZNSt23_Sp_counted_ptr_inplaceISt6threadSaIS0_ELN9__gnu_cxx12_Lock_policyE2EED0Ev=so_stub_for_libtelux_tel
-Wl,--defsym=_ZNSt23_Sp_counted_ptr_inplaceISt6threadSaIS0_ELN9__gnu_cxx12_Lock_policyE2EED1Ev=so_stub_for_libtelux_tel
-Wl,--defsym=_ZNSt23_Sp_counted_ptr_inplaceISt6threadSaIS0_ELN9__gnu_cxx12_Lock_policyE2EED2Ev=so_stub_for_libtelux_tel
-Wl,--defsym=_ZNSt23_Sp_counted_ptr_inplaceISt6vectorIS0_IhSaIhEESaIS2_EESaIS4_ELN9__gnu_cxx12_Lock_policyE2EE10_M_destroyEv=so_stub_for_libtelux_tel
-Wl,--defsym=_ZNSt23_Sp_counted_ptr_inplaceISt6vectorIS0_IhSaIhEESaIS2_EESaIS4_ELN9__gnu_cxx12_Lock_policyE2EE10_M_disposeEv=so_stub_for_libtelux_tel
-Wl,--defsym=_ZNSt23_Sp_counted_ptr_inplaceISt6vectorIS0_IhSaIhEESaIS2_EESaIS4_ELN9__gnu_cxx12_Lock_policyE2EE14_M_get_deleterERKSt9type_info=so_stub_for_libtelux_tel
-Wl,--defsym=_ZNSt23_Sp_counted_ptr_inplaceISt6vectorIS0_IhSaIhEESaIS2_EESaIS4_ELN9__gnu_cxx12_Lock_policyE2EED0Ev=so_stub_for_libtelux_tel
-Wl,--defsym=_ZNSt23_Sp_counted_ptr_inplaceISt6vectorIS0_IhSaIhEESaIS2_EESaIS4_ELN9__gnu_cxx12_Lock_policyE2EED1Ev=so_stub_for_libtelux_tel
-Wl,--defsym=_ZNSt23_Sp_counted_ptr_inplaceISt6vectorIS0_IhSaIhEESaIS2_EESaIS4_ELN9__gnu_cxx12_Lock_policyE2EED2Ev=so_stub_for_libtelux_tel
-Wl,--defsym=_ZNSt3mapI6SlotIdN5telux3tel10SlotStatusESt4lessIS0_ESaISt4pairIKS0_S3_EEEixERS7_=so_stub_for_libtelux_tel
-Wl,--defsym=_ZNSt3mapIiiSt4lessIiESaISt4pairIKiiEEEixERS3_=so_stub_for_libtelux_tel
-Wl,--defsym=_ZNSt3mapIiN5telux3tel17VoiceServiceStateESt4lessIiESaISt4pairIKiS2_EEEixEOi=so_stub_for_libtelux_tel
-Wl,--defsym=_ZNSt3mapIiN5telux3tel17VoiceServiceStateESt4lessIiESaISt4pairIKiS2_EEEixERS6_=so_stub_for_libtelux_tel
-Wl,--defsym=_ZNSt3mapIiN5telux3tel23VoiceServiceDenialCauseESt4lessIiESaISt4pairIKiS2_EEEixEOi=so_stub_for_libtelux_tel
-Wl,--defsym=_ZNSt3mapIiN5telux3tel23VoiceServiceDenialCauseESt4lessIiESaISt4pairIKiS2_EEEixERS6_=so_stub_for_libtelux_tel
-Wl,--defsym=_ZNSt3mapIiSt10shared_ptrIN5telux3qmi14VoiceQmiClientEESt4lessIiESaISt4pairIKiS4_EEEixERS8_=so_stub_for_libtelux_tel
-Wl,--defsym=_ZNSt3mapIiSt10shared_ptrIN5telux3tel11ISmsManagerEESt4lessIiESaISt4pairIKiS4_EEEixERS8_=so_stub_for_libtelux_tel
-Wl,--defsym=_ZNSt3mapIiSt10shared_ptrIN5telux3tel15ISapCardManagerEESt4lessIiESaISt4pairIKiS4_EEEixERS8_=so_stub_for_libtelux_tel
-Wl,--defsym=_ZNSt3mapIiSt10shared_ptrIN5telux3tel16SubscriptionImplEESt4lessIiESaISt4pairIKiS4_EEEixERS8_=so_stub_for_libtelux_tel
-Wl,--defsym=_ZNSt3mapIiSt10shared_ptrIN5telux3tel17IRemoteSimManagerEESt4lessIiESaISt4pairIKiS4_EEEixERS8_=so_stub_for_libtelux_tel
-Wl,--defsym=_ZNSt3mapIiSt10shared_ptrIN5telux3tel21ICellBroadcastManagerEESt4lessIiESaISt4pairIKiS4_EEEixEOi=so_stub_for_libtelux_tel
-Wl,--defsym=_ZNSt3mapIiSt10shared_ptrIN5telux3tel21IServingSystemManagerEESt4lessIiESaISt4pairIKiS4_EEEixERS8_=so_stub_for_libtelux_tel
-Wl,--defsym=_ZNSt3mapIiSt10shared_ptrIN5telux3tel24INetworkSelectionManagerEESt4lessIiESaISt4pairIKiS4_EEEixERS8_=so_stub_for_libtelux_tel
-Wl,--defsym=_ZNSt3mapIiSt10shared_ptrIN5telux3tel5PhoneEESt4lessIiESaISt4pairIKiS4_EEEixERS8_=so_stub_for_libtelux_tel
-Wl,--defsym=_ZNSt3mapIiSt10shared_ptrIN5telux3tel8CardImplEESt4lessIiESaISt4pairIKiS4_EEEixERS8_=so_stub_for_libtelux_tel
-Wl,--defsym=_ZNSt3mapIiSt8weak_ptrIN5telux6common24ICommandResponseCallbackEESt4lessIiESaISt4pairIKiS4_EEEixERS8_=so_stub_for_libtelux_tel
-Wl,--defsym=_ZNSt3mapIllSt4lessIlESaISt4pairIKllEEEixERS3_=so_stub_for_libtelux_tel
-Wl,--defsym=_ZNSt3mapIN5telux3tel19SignalStrengthLevelEiSt4lessIS2_ESaISt4pairIKS2_iEEEC1ESt16initializer_listIS7_ERKS4_RKS8_=so_stub_for_libtelux_tel
-Wl,--defsym=_ZNSt3mapIN5telux3tel19SignalStrengthLevelEiSt4lessIS2_ESaISt4pairIKS2_iEEEC2ESt16initializer_listIS7_ERKS4_RKS8_=so_stub_for_libtelux_tel
-Wl,--defsym=_ZNSt3mapIN5telux3tel19SignalStrengthLevelEiSt4lessIS2_ESaISt4pairIKS2_iEEED1Ev=so_stub_for_libtelux_tel
-Wl,--defsym=_ZNSt3mapIN5telux3tel19SignalStrengthLevelEiSt4lessIS2_ESaISt4pairIKS2_iEEED2Ev=so_stub_for_libtelux_tel
-Wl,--defsym=_ZNSt3mapINSt7__cxx1112basic_stringIcSt11char_traitsIcESaIcEEES5_St4lessIS5_ESaISt4pairIKS5_S5_EEEixERS9_=so_stub_for_libtelux_tel
-Wl,--defsym=_ZNSt3mapINSt7__cxx1112basic_stringIcSt11char_traitsIcESaIcEEESt10shared_ptrISt6vectorIS7_IhSaIhEESaIS9_EEESt4lessIS5_ESaISt4pairIKS5_SC_EEEixERSG_=so_stub_for_libtelux_tel
-Wl,--defsym=_ZNSt4pairIKNSt7__cxx1112basic_stringIcSt11char_traitsIcESaIcEEES5_ED1Ev=so_stub_for_libtelux_tel
-Wl,--defsym=_ZNSt4pairIKNSt7__cxx1112basic_stringIcSt11char_traitsIcESaIcEEES5_ED2Ev=so_stub_for_libtelux_tel
-Wl,--defsym=_ZNSt4pairIKNSt7__cxx1112basic_stringIcSt11char_traitsIcESaIcEEESt10shared_ptrISt6vectorIS8_IhSaIhEESaISA_EEEED1Ev=so_stub_for_libtelux_tel
-Wl,--defsym=_ZNSt4pairIKNSt7__cxx1112basic_stringIcSt11char_traitsIcESaIcEEESt10shared_ptrISt6vectorIS8_IhSaIhEESaISA_EEEED2Ev=so_stub_for_libtelux_tel
-Wl,--defsym=_ZNSt4pairINSt7__cxx1112basic_stringIcSt11char_traitsIcESaIcEEES5_ED1Ev=so_stub_for_libtelux_tel
-Wl,--defsym=_ZNSt4pairINSt7__cxx1112basic_stringIcSt11char_traitsIcESaIcEEES5_ED2Ev=so_stub_for_libtelux_tel
-Wl,--defsym=_ZNSt5dequeIlSaIlEE16_M_push_back_auxIJRKlEEEvDpOT_=so_stub_for_libtelux_tel
-Wl,--defsym=_ZNSt5dequeINSt8__detail9_StateSeqINSt7__cxx1112regex_traitsIcEEEESaIS5_EE16_M_push_back_auxIJRKS5_EEEvDpOT_=so_stub_for_libtelux_tel
-Wl,--defsym=_ZNSt5dequeINSt8__detail9_StateSeqINSt7__cxx1112regex_traitsIcEEEESaIS5_EE16_M_push_back_auxIJS5_EEEvDpOT_=so_stub_for_libtelux_tel
-Wl,--defsym=_ZNSt5dequeINSt8__detail9_StateSeqINSt7__cxx1112regex_traitsIcEEEESaIS5_EE17_M_reallocate_mapEjb=so_stub_for_libtelux_tel
-Wl,--defsym=_ZNSt5dequeISt13shared_futureIvESaIS1_EE16_M_push_back_auxIJRKS1_EEEvDpOT_=so_stub_for_libtelux_tel
-Wl,--defsym=_ZNSt5dequeISt13shared_futureIvESaIS1_EE19_M_destroy_data_auxESt15_Deque_iteratorIS1_RS1_PS1_ES7_=so_stub_for_libtelux_tel
-Wl,--defsym=_ZNSt5dequeISt13shared_futureIvESaIS1_EE8_M_eraseESt15_Deque_iteratorIS1_RS1_PS1_E=so_stub_for_libtelux_tel
-Wl,--defsym=_ZNSt5dequeISt13shared_futureIvESaIS1_EE8pop_backEv=so_stub_for_libtelux_tel
-Wl,--defsym=_ZNSt5dequeISt13shared_futureIvESaIS1_EE9pop_frontEv=so_stub_for_libtelux_tel
-Wl,--defsym=_ZNSt5dequeISt13shared_futureIvESaIS1_EE9push_backERKS1_=so_stub_for_libtelux_tel
-Wl,--defsym=_ZNSt5dequeISt13shared_futureIvESaIS1_EED1Ev=so_stub_for_libtelux_tel
-Wl,--defsym=_ZNSt5dequeISt13shared_futureIvESaIS1_EED2Ev=so_stub_for_libtelux_tel
-Wl,--defsym=_ZNSt6futureIbE3getEv=so_stub_for_libtelux_tel
-Wl,--defsym=_ZNSt6vectorI20GsmCmasCellbroadcastSaIS0_EE17_M_realloc_insertIJRKS0_EEEvN9__gnu_cxx17__normal_iteratorIPS0_S2_EEDpOT_=so_stub_for_libtelux_tel
-Wl,--defsym=_ZNSt6vectorI20GsmCmasCellbroadcastSaIS0_EED1Ev=so_stub_for_libtelux_tel
-Wl,--defsym=_ZNSt6vectorI20GsmCmasCellbroadcastSaIS0_EED2Ev=so_stub_for_libtelux_tel
-Wl,--defsym=_ZNSt6vectorIcSaIcEE17_M_realloc_insertIJcEEEvN9__gnu_cxx17__normal_iteratorIPcS1_EEDpOT_=so_stub_for_libtelux_tel
-Wl,--defsym=_ZNSt6vectorIcSaIcEE17_M_realloc_insertIJiEEEvN9__gnu_cxx17__normal_iteratorIPcS1_EEDpOT_=so_stub_for_libtelux_tel
-Wl,--defsym=_ZNSt6vectorIcSaIcEEC1ERKS1_=so_stub_for_libtelux_tel
-Wl,--defsym=_ZNSt6vectorIcSaIcEEC1IPKcvEET_S5_RKS0_=so_stub_for_libtelux_tel
-Wl,--defsym=_ZNSt6vectorIcSaIcEEC2ERKS1_=so_stub_for_libtelux_tel
-Wl,--defsym=_ZNSt6vectorIcSaIcEEC2IPKcvEET_S5_RKS0_=so_stub_for_libtelux_tel
-Wl,--defsym=_ZNSt6vectorIhSaIhEE15_M_range_insertIN9__gnu_cxx17__normal_iteratorIPhS1_EEEEvS6_T_S7_St20forward_iterator_tag=so_stub_for_libtelux_tel
-Wl,--defsym=_ZNSt6vectorIhSaIhEE15_M_range_insertIN9__gnu_cxx17__normal_iteratorIPKhS1_EEEEvNS4_IPhS1_EET_SA_St20forward_iterator_tag=so_stub_for_libtelux_tel
-Wl,--defsym=_ZNSt6vectorIhSaIhEE15_M_range_insertIPhEEvN9__gnu_cxx17__normal_iteratorIS3_S1_EET_S7_St20forward_iterator_tag=so_stub_for_libtelux_tel
-Wl,--defsym=_ZNSt6vectorIhSaIhEE17_M_realloc_insertIJhEEEvN9__gnu_cxx17__normal_iteratorIPhS1_EEDpOT_=so_stub_for_libtelux_tel
-Wl,--defsym=_ZNSt6vectorIhSaIhEE17_M_realloc_insertIJiEEEvN9__gnu_cxx17__normal_iteratorIPhS1_EEDpOT_=so_stub_for_libtelux_tel
-Wl,--defsym=_ZNSt6vectorIhSaIhEE17_M_realloc_insertIJRhEEEvN9__gnu_cxx17__normal_iteratorIPhS1_EEDpOT_=so_stub_for_libtelux_tel
-Wl,--defsym=_ZNSt6vectorIhSaIhEE17_M_realloc_insertIJRKhEEEvN9__gnu_cxx17__normal_iteratorIPhS1_EEDpOT_=so_stub_for_libtelux_tel
-Wl,--defsym=_ZNSt6vectorIhSaIhEEC1ERKS1_=so_stub_for_libtelux_tel
-Wl,--defsym=_ZNSt6vectorIhSaIhEEC1IN9__gnu_cxx17__normal_iteratorIPhS1_EEvEET_S7_RKS0_=so_stub_for_libtelux_tel
-Wl,--defsym=_ZNSt6vectorIhSaIhEEC1IN9__gnu_cxx17__normal_iteratorIPKhS1_EEvEET_S8_RKS0_=so_stub_for_libtelux_tel
-Wl,--defsym=_ZNSt6vectorIhSaIhEEC1IPhvEET_S4_RKS0_=so_stub_for_libtelux_tel
-Wl,--defsym=_ZNSt6vectorIhSaIhEEC2ERKS1_=so_stub_for_libtelux_tel
-Wl,--defsym=_ZNSt6vectorIhSaIhEEC2IN9__gnu_cxx17__normal_iteratorIPhS1_EEvEET_S7_RKS0_=so_stub_for_libtelux_tel
-Wl,--defsym=_ZNSt6vectorIhSaIhEEC2IN9__gnu_cxx17__normal_iteratorIPKhS1_EEvEET_S8_RKS0_=so_stub_for_libtelux_tel
-Wl,--defsym=_ZNSt6vectorIhSaIhEEC2IPhvEET_S4_RKS0_=so_stub_for_libtelux_tel
-Wl,--defsym=_ZNSt6vectorIiSaIiEE17_M_realloc_insertIJRiEEEvN9__gnu_cxx17__normal_iteratorIPiS1_EEDpOT_=so_stub_for_libtelux_tel
-Wl,--defsym=_ZNSt6vectorIiSaIiEEaSERKS1_=so_stub_for_libtelux_tel
-Wl,--defsym=_ZNSt6vectorIiSaIiEEC1ERKS1_=so_stub_for_libtelux_tel
-Wl,--defsym=_ZNSt6vectorIiSaIiEEC1ESt16initializer_listIiERKS0_=so_stub_for_libtelux_tel
-Wl,--defsym=_ZNSt6vectorIiSaIiEEC2ERKS1_=so_stub_for_libtelux_tel
-Wl,--defsym=_ZNSt6vectorIiSaIiEEC2ESt16initializer_listIiERKS0_=so_stub_for_libtelux_tel
-Wl,--defsym=_ZNSt6vectorIjSaIjEE17_M_realloc_insertIJRKjEEEvN9__gnu_cxx17__normal_iteratorIPjS1_EEDpOT_=so_stub_for_libtelux_tel
-Wl,--defsym=_ZNSt6vectorIN5telux3qmi19QmiPreferredNetworkESaIS2_EE17_M_realloc_insertIJRS2_EEEvN9__gnu_cxx17__normal_iteratorIPS2_S4_EEDpOT_=so_stub_for_libtelux_tel
-Wl,--defsym=_ZNSt6vectorIN5telux3tel12OperatorInfoESaIS2_EE17_M_realloc_insertIJRS2_EEEvN9__gnu_cxx17__normal_iteratorIPS2_S4_EEDpOT_=so_stub_for_libtelux_tel
-Wl,--defsym=_ZNSt6vectorIN5telux3tel12OperatorInfoESaIS2_EED1Ev=so_stub_for_libtelux_tel
-Wl,--defsym=_ZNSt6vectorIN5telux3tel12OperatorInfoESaIS2_EED2Ev=so_stub_for_libtelux_tel
-Wl,--defsym=_ZNSt6vectorIN5telux3tel13CardAppStatusESaIS2_EE17_M_realloc_insertIJRS2_EEEvN9__gnu_cxx17__normal_iteratorIPS2_S4_EEDpOT_=so_stub_for_libtelux_tel
-Wl,--defsym=_ZNSt6vectorIN5telux3tel13CardAppStatusESaIS2_EE8_M_eraseEN9__gnu_cxx17__normal_iteratorIPS2_S4_EE=so_stub_for_libtelux_tel
-Wl,--defsym=_ZNSt6vectorIN5telux3tel13CardAppStatusESaIS2_EEC1ERKS4_=so_stub_for_libtelux_tel
-Wl,--defsym=_ZNSt6vectorIN5telux3tel13CardAppStatusESaIS2_EEC2ERKS4_=so_stub_for_libtelux_tel
-Wl,--defsym=_ZNSt6vectorIN5telux3tel13CardAppStatusESaIS2_EED1Ev=so_stub_for_libtelux_tel
-Wl,--defsym=_ZNSt6vectorIN5telux3tel13CardAppStatusESaIS2_EED2Ev=so_stub_for_libtelux_tel
-Wl,--defsym=_ZNSt6vectorIN5telux3tel16SimRatCapabilityESaIS2_EE17_M_realloc_insertIJRS2_EEEvN9__gnu_cxx17__normal_iteratorIPS2_S4_EEDpOT_=so_stub_for_libtelux_tel
-Wl,--defsym=_ZNSt6vectorIN5telux3tel16SimRatCapabilityESaIS2_EEC1ERKS4_=so_stub_for_libtelux_tel
-Wl,--defsym=_ZNSt6vectorIN5telux3tel16SimRatCapabilityESaIS2_EEC2ERKS4_=so_stub_for_libtelux_tel
-Wl,--defsym=_ZNSt6vectorIN5telux3tel19CellBroadcastFilterESaIS2_EE17_M_realloc_insertIJRS2_EEEvN9__gnu_cxx17__normal_iteratorIPS2_S4_EEDpOT_=so_stub_for_libtelux_tel
-Wl,--defsym=_ZNSt6vectorIN5telux3tel19CellBroadcastFilterESaIS2_EEC1ERKS4_=so_stub_for_libtelux_tel
-Wl,--defsym=_ZNSt6vectorIN5telux3tel19CellBroadcastFilterESaIS2_EEC2ERKS4_=so_stub_for_libtelux_tel
-Wl,--defsym=_ZNSt6vectorIN5telux3tel20PreferredNetworkInfoESaIS2_EE17_M_realloc_insertIJRS2_EEEvN9__gnu_cxx17__normal_iteratorIPS2_S4_EEDpOT_=so_stub_for_libtelux_tel
-Wl,--defsym=_ZNSt6vectorIN5telux3tel8CallInfoESaIS2_EE17_M_realloc_insertIJRS2_EEEvN9__gnu_cxx17__normal_iteratorIPS2_S4_EEDpOT_=so_stub_for_libtelux_tel
-Wl,--defsym=_ZNSt6vectorIN5telux3tel8CallInfoESaIS2_EE20_M_allocate_and_copyIN9__gnu_cxx17__normal_iteratorIPKS2_S4_EEEEPS2_jT_SC_=so_stub_for_libtelux_tel
-Wl,--defsym=_ZNSt6vectorIN5telux3tel8CallInfoESaIS2_EE8_M_eraseEN9__gnu_cxx17__normal_iteratorIPS2_S4_EE=so_stub_for_libtelux_tel
-Wl,--defsym=_ZNSt6vectorIN5telux3tel8CallInfoESaIS2_EEaSERKS4_=so_stub_for_libtelux_tel
-Wl,--defsym=_ZNSt6vectorIN5telux3tel8CallInfoESaIS2_EED1Ev=so_stub_for_libtelux_tel
-Wl,--defsym=_ZNSt6vectorIN5telux3tel8CallInfoESaIS2_EED2Ev=so_stub_for_libtelux_tel
-Wl,--defsym=_ZNSt6vectorINSt7__cxx1112basic_stringIcSt11char_traitsIcESaIcEEESaIS5_EE17_M_realloc_insertIJRKS5_EEEvN9__gnu_cxx17__normal_iteratorIPS5_S7_EEDpOT_=so_stub_for_libtelux_tel
-Wl,--defsym=_ZNSt6vectorINSt7__cxx1112basic_stringIcSt11char_traitsIcESaIcEEESaIS5_EE17_M_realloc_insertIJRS5_EEEvN9__gnu_cxx17__normal_iteratorIPS5_S7_EEDpOT_=so_stub_for_libtelux_tel
-Wl,--defsym=_ZNSt6vectorINSt7__cxx1112basic_stringIcSt11char_traitsIcESaIcEEESaIS5_EE9push_backERKS5_=so_stub_for_libtelux_tel
-Wl,--defsym=_ZNSt6vectorINSt7__cxx1112basic_stringIcSt11char_traitsIcESaIcEEESaIS5_EEC1ERKS7_=so_stub_for_libtelux_tel
-Wl,--defsym=_ZNSt6vectorINSt7__cxx1112basic_stringIcSt11char_traitsIcESaIcEEESaIS5_EEC2ERKS7_=so_stub_for_libtelux_tel
-Wl,--defsym=_ZNSt6vectorINSt7__cxx1112basic_stringIcSt11char_traitsIcESaIcEEESaIS5_EED1Ev=so_stub_for_libtelux_tel
-Wl,--defsym=_ZNSt6vectorINSt7__cxx1112basic_stringIcSt11char_traitsIcESaIcEEESaIS5_EED2Ev=so_stub_for_libtelux_tel
-Wl,--defsym=_ZNSt6vectorINSt7__cxx1112basic_stringIDsSt11char_traitsIDsESaIDsEEESaIS5_EE12emplace_backIJRS5_EEEvDpOT_=so_stub_for_libtelux_tel
-Wl,--defsym=_ZNSt6vectorINSt7__cxx1112basic_stringIDsSt11char_traitsIDsESaIDsEEESaIS5_EE12emplace_backIJS5_EEEvDpOT_=so_stub_for_libtelux_tel
-Wl,--defsym=_ZNSt6vectorINSt7__cxx1112basic_stringIDsSt11char_traitsIDsESaIDsEEESaIS5_EE17_M_realloc_insertIJRS5_EEEvN9__gnu_cxx17__normal_iteratorIPS5_S7_EEDpOT_=so_stub_for_libtelux_tel
-Wl,--defsym=_ZNSt6vectorINSt7__cxx1112basic_stringIDsSt11char_traitsIDsESaIDsEEESaIS5_EE17_M_realloc_insertIJS5_EEEvN9__gnu_cxx17__normal_iteratorIPS5_S7_EEDpOT_=so_stub_for_libtelux_tel
-Wl,--defsym=_ZNSt6vectorINSt7__cxx1112basic_stringIDsSt11char_traitsIDsESaIDsEEESaIS5_EE8_M_eraseEN9__gnu_cxx17__normal_iteratorIPS5_S7_EE=so_stub_for_libtelux_tel
-Wl,--defsym=_ZNSt6vectorINSt7__cxx1112basic_stringIDsSt11char_traitsIDsESaIDsEEESaIS5_EED1Ev=so_stub_for_libtelux_tel
-Wl,--defsym=_ZNSt6vectorINSt7__cxx1112basic_stringIDsSt11char_traitsIDsESaIDsEEESaIS5_EED2Ev=so_stub_for_libtelux_tel
-Wl,--defsym=_ZNSt6vectorINSt7__cxx1112regex_traitsIcE10_RegexMaskESaIS3_EE17_M_realloc_insertIJRKS3_EEEvN9__gnu_cxx17__normal_iteratorIPS3_S5_EEDpOT_=so_stub_for_libtelux_tel
-Wl,--defsym=_ZNSt6vectorINSt7__cxx1112regex_traitsIcE10_RegexMaskESaIS3_EEC1ERKS5_=so_stub_for_libtelux_tel
-Wl,--defsym=_ZNSt6vectorINSt7__cxx1112regex_traitsIcE10_RegexMaskESaIS3_EEC2ERKS5_=so_stub_for_libtelux_tel
-Wl,--defsym=_ZNSt6vectorINSt7__cxx119sub_matchIN9__gnu_cxx17__normal_iteratorIPKcNS0_12basic_stringIcSt11char_traitsIcESaIcEEEEEEESaISC_EE17_M_default_appendEj=so_stub_for_libtelux_tel
-Wl,--defsym=_ZNSt6vectorINSt7__cxx119sub_matchIN9__gnu_cxx17__normal_iteratorIPKcNS0_12basic_stringIcSt11char_traitsIcESaIcEEEEEEESaISC_EE6resizeEj=so_stub_for_libtelux_tel
-Wl,--defsym=_ZNSt6vectorINSt7__cxx119sub_matchIN9__gnu_cxx17__normal_iteratorIPKcNS0_12basic_stringIcSt11char_traitsIcESaIcEEEEEEESaISC_EEaSERKSE_=so_stub_for_libtelux_tel
-Wl,--defsym=_ZNSt6vectorINSt7__cxx119sub_matchIN9__gnu_cxx17__normal_iteratorIPKcNS0_12basic_stringIcSt11char_traitsIcESaIcEEEEEEESaISC_EEC1ERKSE_=so_stub_for_libtelux_tel
-Wl,--defsym=_ZNSt6vectorINSt7__cxx119sub_matchIN9__gnu_cxx17__normal_iteratorIPKcNS0_12basic_stringIcSt11char_traitsIcESaIcEEEEEEESaISC_EEC2ERKSE_=so_stub_for_libtelux_tel
-Wl,--defsym=_ZNSt6vectorINSt8__detail6_StateIcEESaIS2_EE12emplace_backIJS2_EEEvDpOT_=so_stub_for_libtelux_tel
-Wl,--defsym=_ZNSt6vectorINSt8__detail6_StateIcEESaIS2_EE17_M_realloc_insertIJS2_EEEvN9__gnu_cxx17__normal_iteratorIPS2_S4_EEDpOT_=so_stub_for_libtelux_tel
-Wl,--defsym=_ZNSt6vectorINSt8__detail6_StateIcEESaIS2_EED1Ev=so_stub_for_libtelux_tel
-Wl,--defsym=_ZNSt6vectorINSt8__detail6_StateIcEESaIS2_EED2Ev=so_stub_for_libtelux_tel
-Wl,--defsym=_ZNSt6vectorIS_IhSaIhEESaIS1_EE17_M_default_appendEj=so_stub_for_libtelux_tel
-Wl,--defsym=_ZNSt6vectorIS_IhSaIhEESaIS1_EE17_M_realloc_insertIJRKS1_EEEvN9__gnu_cxx17__normal_iteratorIPS1_S3_EEDpOT_=so_stub_for_libtelux_tel
-Wl,--defsym=_ZNSt6vectorIS_IhSaIhEESaIS1_EE6resizeEj=so_stub_for_libtelux_tel
-Wl,--defsym=_ZNSt6vectorIS_IhSaIhEESaIS1_EED1Ev=so_stub_for_libtelux_tel
-Wl,--defsym=_ZNSt6vectorIS_IhSaIhEESaIS1_EED2Ev=so_stub_for_libtelux_tel
-Wl,--defsym=_ZNSt6vectorISt10shared_ptrIN5telux3tel10SimProfileEESaIS4_EE17_M_realloc_insertIJRS4_EEEvN9__gnu_cxx17__normal_iteratorIPS4_S6_EEDpOT_=so_stub_for_libtelux_tel
-Wl,--defsym=_ZNSt6vectorISt10shared_ptrIN5telux3tel10SimProfileEESaIS4_EED1Ev=so_stub_for_libtelux_tel
-Wl,--defsym=_ZNSt6vectorISt10shared_ptrIN5telux3tel10SimProfileEESaIS4_EED2Ev=so_stub_for_libtelux_tel
-Wl,--defsym=_ZNSt6vectorISt10shared_ptrIN5telux3tel11CardAppImplEESaIS4_EE17_M_realloc_insertIJRS4_EEEvN9__gnu_cxx17__normal_iteratorIPS4_S6_EEDpOT_=so_stub_for_libtelux_tel
-Wl,--defsym=_ZNSt6vectorISt10shared_ptrIN5telux3tel11CardAppImplEESaIS4_EED1Ev=so_stub_for_libtelux_tel
-Wl,--defsym=_ZNSt6vectorISt10shared_ptrIN5telux3tel11CardAppImplEESaIS4_EED2Ev=so_stub_for_libtelux_tel
-Wl,--defsym=_ZNSt6vectorISt10shared_ptrIN5telux3tel13ISubscriptionEESaIS4_EE17_M_realloc_insertIJRS0_INS2_16SubscriptionImplEEEEEvN9__gnu_cxx17__normal_iteratorIPS4_S6_EEDpOT_=so_stub_for_libtelux_tel
-Wl,--defsym=_ZNSt6vectorISt10shared_ptrIN5telux3tel13ISubscriptionEESaIS4_EED1Ev=so_stub_for_libtelux_tel
-Wl,--defsym=_ZNSt6vectorISt10shared_ptrIN5telux3tel13ISubscriptionEESaIS4_EED2Ev=so_stub_for_libtelux_tel
-Wl,--defsym=_ZNSt6vectorISt10shared_ptrIN5telux3tel3ril6SocketEESaIS5_EE12emplace_backIJRS5_EEEvDpOT_=so_stub_for_libtelux_tel
-Wl,--defsym=_ZNSt6vectorISt10shared_ptrIN5telux3tel3ril6SocketEESaIS5_EE17_M_realloc_insertIJRS5_EEEvN9__gnu_cxx17__normal_iteratorIPS5_S7_EEDpOT_=so_stub_for_libtelux_tel
-Wl,--defsym=_ZNSt6vectorISt10shared_ptrIN5telux3tel3ril6SocketEESaIS5_EED1Ev=so_stub_for_libtelux_tel
-Wl,--defsym=_ZNSt6vectorISt10shared_ptrIN5telux3tel3ril6SocketEESaIS5_EED2Ev=so_stub_for_libtelux_tel
-Wl,--defsym=_ZNSt6vectorISt10shared_ptrIN5telux3tel4CallEESaIS4_EE12emplace_backIJRS4_EEEvDpOT_=so_stub_for_libtelux_tel
-Wl,--defsym=_ZNSt6vectorISt10shared_ptrIN5telux3tel4CallEESaIS4_EE17_M_realloc_insertIJRS4_EEEvN9__gnu_cxx17__normal_iteratorIPS4_S6_EEDpOT_=so_stub_for_libtelux_tel
-Wl,--defsym=_ZNSt6vectorISt10shared_ptrIN5telux3tel4CallEESaIS4_EE17_M_realloc_insertIJS4_EEEvN9__gnu_cxx17__normal_iteratorIPS4_S6_EEDpOT_=so_stub_for_libtelux_tel
-Wl,--defsym=_ZNSt6vectorISt10shared_ptrIN5telux3tel4CallEESaIS4_EE8_M_eraseEN9__gnu_cxx17__normal_iteratorIPS4_S6_EE=so_stub_for_libtelux_tel
-Wl,--defsym=_ZNSt6vectorISt10shared_ptrIN5telux3tel4CallEESaIS4_EED1Ev=so_stub_for_libtelux_tel
-Wl,--defsym=_ZNSt6vectorISt10shared_ptrIN5telux3tel4CallEESaIS4_EED2Ev=so_stub_for_libtelux_tel
-Wl,--defsym=_ZNSt6vectorISt10shared_ptrIN5telux3tel5ICallEESaIS4_EEC1IN9__gnu_cxx17__normal_iteratorIPS0_INS2_4CallEES_ISB_SaISB_EEEEvEET_SG_RKS5_=so_stub_for_libtelux_tel
-Wl,--defsym=_ZNSt6vectorISt10shared_ptrIN5telux3tel5ICallEESaIS4_EEC2IN9__gnu_cxx17__normal_iteratorIPS0_INS2_4CallEES_ISB_SaISB_EEEEvEET_SG_RKS5_=so_stub_for_libtelux_tel
-Wl,--defsym=_ZNSt6vectorISt10shared_ptrIN5telux3tel8CellInfoEESaIS4_EE17_M_realloc_insertIJRS0_INS2_11GsmCellInfoEEEEEvN9__gnu_cxx17__normal_iteratorIPS4_S6_EEDpOT_=so_stub_for_libtelux_tel
-Wl,--defsym=_ZNSt6vectorISt10shared_ptrIN5telux3tel8CellInfoEESaIS4_EE17_M_realloc_insertIJRS0_INS2_11LteCellInfoEEEEEvN9__gnu_cxx17__normal_iteratorIPS4_S6_EEDpOT_=so_stub_for_libtelux_tel
-Wl,--defsym=_ZNSt6vectorISt10shared_ptrIN5telux3tel8CellInfoEESaIS4_EE17_M_realloc_insertIJRS0_INS2_12CdmaCellInfoEEEEEvN9__gnu_cxx17__normal_iteratorIPS4_S6_EEDpOT_=so_stub_for_libtelux_tel
-Wl,--defsym=_ZNSt6vectorISt10shared_ptrIN5telux3tel8CellInfoEESaIS4_EE17_M_realloc_insertIJRS0_INS2_13WcdmaCellInfoEEEEEvN9__gnu_cxx17__normal_iteratorIPS4_S6_EEDpOT_=so_stub_for_libtelux_tel
-Wl,--defsym=_ZNSt6vectorISt10shared_ptrIN5telux3tel8CellInfoEESaIS4_EE17_M_realloc_insertIJRS0_INS2_15TdscdmaCellInfoEEEEEvN9__gnu_cxx17__normal_iteratorIPS4_S6_EEDpOT_=so_stub_for_libtelux_tel
-Wl,--defsym=_ZNSt6vectorISt10shared_ptrIN5telux3tel8CellInfoEESaIS4_EEaSERKS6_=so_stub_for_libtelux_tel
-Wl,--defsym=_ZNSt6vectorISt10shared_ptrIN5telux3tel8CellInfoEESaIS4_EEC1ERKS6_=so_stub_for_libtelux_tel
-Wl,--defsym=_ZNSt6vectorISt10shared_ptrIN5telux3tel8CellInfoEESaIS4_EEC2ERKS6_=so_stub_for_libtelux_tel
-Wl,--defsym=_ZNSt6vectorISt10shared_ptrIN5telux3tel8CellInfoEESaIS4_EED1Ev=so_stub_for_libtelux_tel
-Wl,--defsym=_ZNSt6vectorISt10shared_ptrIN5telux3tel8CellInfoEESaIS4_EED2Ev=so_stub_for_libtelux_tel
-Wl,--defsym=_ZNSt6vectorISt10shared_ptrIN5telux3tel8ICardAppEESaIS4_EE17_M_realloc_insertIJRS0_INS2_11CardAppImplEEEEEvN9__gnu_cxx17__normal_iteratorIPS4_S6_EEDpOT_=so_stub_for_libtelux_tel
-Wl,--defsym=_ZNSt6vectorISt10shared_ptrIN5telux3tel8ICardAppEESaIS4_EED1Ev=so_stub_for_libtelux_tel
-Wl,--defsym=_ZNSt6vectorISt10shared_ptrIN5telux3tel8ICardAppEESaIS4_EED2Ev=so_stub_for_libtelux_tel
-Wl,--defsym=_ZNSt6vectorISt4pairIccESaIS1_EE17_M_realloc_insertIJS1_EEEvN9__gnu_cxx17__normal_iteratorIPS1_S3_EEDpOT_=so_stub_for_libtelux_tel
-Wl,--defsym=_ZNSt6vectorISt4pairIccESaIS1_EEC1ERKS3_=so_stub_for_libtelux_tel
-Wl,--defsym=_ZNSt6vectorISt4pairIccESaIS1_EEC2ERKS3_=so_stub_for_libtelux_tel
-Wl,--defsym=_ZNSt6vectorISt4pairIlS_INSt7__cxx119sub_matchIN9__gnu_cxx17__normal_iteratorIPKcNS1_12basic_stringIcSt11char_traitsIcESaIcEEEEEEESaISD_EEESaISG_EE12emplace_backIJRlRKSF_EEEvDpOT_=so_stub_for_libtelux_tel
-Wl,--defsym=_ZNSt6vectorISt4pairIlS_INSt7__cxx119sub_matchIN9__gnu_cxx17__normal_iteratorIPKcNS1_12basic_stringIcSt11char_traitsIcESaIcEEEEEEESaISD_EEESaISG_EE17_M_realloc_insertIJRlRKSF_EEEvNS4_IPSG_SI_EEDpOT_=so_stub_for_libtelux_tel
-Wl,--defsym=_ZNSt6vectorISt4pairIlS_INSt7__cxx119sub_matchIN9__gnu_cxx17__normal_iteratorIPKcNS1_12basic_stringIcSt11char_traitsIcESaIcEEEEEEESaISD_EEESaISG_EED1Ev=so_stub_for_libtelux_tel
-Wl,--defsym=_ZNSt6vectorISt4pairIlS_INSt7__cxx119sub_matchIN9__gnu_cxx17__normal_iteratorIPKcNS1_12basic_stringIcSt11char_traitsIcESaIcEEEEEEESaISD_EEESaISG_EED2Ev=so_stub_for_libtelux_tel
-Wl,--defsym=_ZNSt6vectorISt4pairIN9__gnu_cxx17__normal_iteratorIPKcNSt7__cxx1112basic_stringIcSt11char_traitsIcESaIcEEEEEiESaISC_EEC1EjRKSD_=so_stub_for_libtelux_tel
-Wl,--defsym=_ZNSt6vectorISt4pairIN9__gnu_cxx17__normal_iteratorIPKcNSt7__cxx1112basic_stringIcSt11char_traitsIcESaIcEEEEEiESaISC_EEC2EjRKSD_=so_stub_for_libtelux_tel
-Wl,--defsym=_ZNSt6vectorISt4pairINSt7__cxx1112basic_stringIcSt11char_traitsIcESaIcEEES6_ESaIS7_EE12emplace_backIJS7_EEEvDpOT_=so_stub_for_libtelux_tel
-Wl,--defsym=_ZNSt6vectorISt4pairINSt7__cxx1112basic_stringIcSt11char_traitsIcESaIcEEES6_ESaIS7_EE17_M_realloc_insertIJS7_EEEvN9__gnu_cxx17__normal_iteratorIPS7_S9_EEDpOT_=so_stub_for_libtelux_tel
-Wl,--defsym=_ZNSt6vectorISt4pairINSt7__cxx1112basic_stringIcSt11char_traitsIcESaIcEEES6_ESaIS7_EEC1ERKS9_=so_stub_for_libtelux_tel
-Wl,--defsym=_ZNSt6vectorISt4pairINSt7__cxx1112basic_stringIcSt11char_traitsIcESaIcEEES6_ESaIS7_EEC2ERKS9_=so_stub_for_libtelux_tel
-Wl,--defsym=_ZNSt6vectorISt4pairINSt7__cxx1112basic_stringIcSt11char_traitsIcESaIcEEES6_ESaIS7_EED1Ev=so_stub_for_libtelux_tel
-Wl,--defsym=_ZNSt6vectorISt4pairINSt7__cxx1112basic_stringIcSt11char_traitsIcESaIcEEES6_ESaIS7_EED2Ev=so_stub_for_libtelux_tel
-Wl,--defsym=_ZNSt6vectorISt8weak_ptrIN5telux3tel12ISmsListenerEESaIS4_EE17_M_realloc_insertIJRS4_EEEvN9__gnu_cxx17__normal_iteratorIPS4_S6_EEDpOT_=so_stub_for_libtelux_tel
-Wl,--defsym=_ZNSt6vectorISt8weak_ptrIN5telux3tel12ISmsListenerEESaIS4_EE17_M_realloc_insertIJRSt10shared_ptrIS3_EEEEvN9__gnu_cxx17__normal_iteratorIPS4_S6_EEDpOT_=so_stub_for_libtelux_tel
-Wl,--defsym=_ZNSt6vectorISt8weak_ptrIN5telux3tel12ISmsListenerEESaIS4_EE8_M_eraseEN9__gnu_cxx17__normal_iteratorIPS4_S6_EE=so_stub_for_libtelux_tel
-Wl,--defsym=_ZNSt6vectorISt8weak_ptrIN5telux3tel12ISmsListenerEESaIS4_EED1Ev=so_stub_for_libtelux_tel
-Wl,--defsym=_ZNSt6vectorISt8weak_ptrIN5telux3tel12ISmsListenerEESaIS4_EED2Ev=so_stub_for_libtelux_tel
-Wl,--defsym=_ZNSt6vectorISt8weak_ptrIN5telux3tel13ICallListenerEESaIS4_EE17_M_realloc_insertIJRS4_EEEvN9__gnu_cxx17__normal_iteratorIPS4_S6_EEDpOT_=so_stub_for_libtelux_tel
-Wl,--defsym=_ZNSt6vectorISt8weak_ptrIN5telux3tel13ICallListenerEESaIS4_EE17_M_realloc_insertIJRSt10shared_ptrIS3_EEEEvN9__gnu_cxx17__normal_iteratorIPS4_S6_EEDpOT_=so_stub_for_libtelux_tel
-Wl,--defsym=_ZNSt6vectorISt8weak_ptrIN5telux3tel13ICallListenerEESaIS4_EE8_M_eraseEN9__gnu_cxx17__normal_iteratorIPS4_S6_EE=so_stub_for_libtelux_tel
-Wl,--defsym=_ZNSt6vectorISt8weak_ptrIN5telux3tel13ICallListenerEESaIS4_EED1Ev=so_stub_for_libtelux_tel
-Wl,--defsym=_ZNSt6vectorISt8weak_ptrIN5telux3tel13ICallListenerEESaIS4_EED2Ev=so_stub_for_libtelux_tel
-Wl,--defsym=_ZNSt6vectorISt8weak_ptrIN5telux3tel13ICardListenerEESaIS4_EE17_M_realloc_insertIJRS4_EEEvN9__gnu_cxx17__normal_iteratorIPS4_S6_EEDpOT_=so_stub_for_libtelux_tel
-Wl,--defsym=_ZNSt6vectorISt8weak_ptrIN5telux3tel13ICardListenerEESaIS4_EE17_M_realloc_insertIJRSt10shared_ptrIS3_EEEEvN9__gnu_cxx17__normal_iteratorIPS4_S6_EEDpOT_=so_stub_for_libtelux_tel
-Wl,--defsym=_ZNSt6vectorISt8weak_ptrIN5telux3tel13ICardListenerEESaIS4_EE8_M_eraseEN9__gnu_cxx17__normal_iteratorIPS4_S6_EE=so_stub_for_libtelux_tel
-Wl,--defsym=_ZNSt6vectorISt8weak_ptrIN5telux3tel13ICardListenerEESaIS4_EED1Ev=so_stub_for_libtelux_tel
-Wl,--defsym=_ZNSt6vectorISt8weak_ptrIN5telux3tel13ICardListenerEESaIS4_EED2Ev=so_stub_for_libtelux_tel
-Wl,--defsym=_ZNSt6vectorISt8weak_ptrIN5telux3tel14IPhoneListenerEESaIS4_EE17_M_realloc_insertIJRS4_EEEvN9__gnu_cxx17__normal_iteratorIPS4_S6_EEDpOT_=so_stub_for_libtelux_tel
-Wl,--defsym=_ZNSt6vectorISt8weak_ptrIN5telux3tel14IPhoneListenerEESaIS4_EE17_M_realloc_insertIJRSt10shared_ptrIS3_EEEEvN9__gnu_cxx17__normal_iteratorIPS4_S6_EEDpOT_=so_stub_for_libtelux_tel
-Wl,--defsym=_ZNSt6vectorISt8weak_ptrIN5telux3tel14IPhoneListenerEESaIS4_EE8_M_eraseEN9__gnu_cxx17__normal_iteratorIPS4_S6_EE=so_stub_for_libtelux_tel
-Wl,--defsym=_ZNSt6vectorISt8weak_ptrIN5telux3tel14IPhoneListenerEESaIS4_EED1Ev=so_stub_for_libtelux_tel
-Wl,--defsym=_ZNSt6vectorISt8weak_ptrIN5telux3tel14IPhoneListenerEESaIS4_EED2Ev=so_stub_for_libtelux_tel
-Wl,--defsym=_ZNSt6vectorISt8weak_ptrIN5telux3tel16ISapCardListenerEESaIS4_EE17_M_realloc_insertIJRS4_EEEvN9__gnu_cxx17__normal_iteratorIPS4_S6_EEDpOT_=so_stub_for_libtelux_tel
-Wl,--defsym=_ZNSt6vectorISt8weak_ptrIN5telux3tel16ISapCardListenerEESaIS4_EE17_M_realloc_insertIJRSt10shared_ptrIS3_EEEEvN9__gnu_cxx17__normal_iteratorIPS4_S6_EEDpOT_=so_stub_for_libtelux_tel
-Wl,--defsym=_ZNSt6vectorISt8weak_ptrIN5telux3tel16ISapCardListenerEESaIS4_EE8_M_eraseEN9__gnu_cxx17__normal_iteratorIPS4_S6_EE=so_stub_for_libtelux_tel
-Wl,--defsym=_ZNSt6vectorISt8weak_ptrIN5telux3tel16ISapCardListenerEESaIS4_EED1Ev=so_stub_for_libtelux_tel
-Wl,--defsym=_ZNSt6vectorISt8weak_ptrIN5telux3tel16ISapCardListenerEESaIS4_EED2Ev=so_stub_for_libtelux_tel
-Wl,--defsym=_ZNSt6vectorISt8weak_ptrIN5telux3tel17IMultiSimListenerEESaIS4_EE17_M_realloc_insertIJRS4_EEEvN9__gnu_cxx17__normal_iteratorIPS4_S6_EEDpOT_=so_stub_for_libtelux_tel
-Wl,--defsym=_ZNSt6vectorISt8weak_ptrIN5telux3tel17IMultiSimListenerEESaIS4_EE17_M_realloc_insertIJRSt10shared_ptrIS3_EEEEvN9__gnu_cxx17__normal_iteratorIPS4_S6_EEDpOT_=so_stub_for_libtelux_tel
-Wl,--defsym=_ZNSt6vectorISt8weak_ptrIN5telux3tel17IMultiSimListenerEESaIS4_EE8_M_eraseEN9__gnu_cxx17__normal_iteratorIPS4_S6_EE=so_stub_for_libtelux_tel
-Wl,--defsym=_ZNSt6vectorISt8weak_ptrIN5telux3tel17IMultiSimListenerEESaIS4_EED1Ev=so_stub_for_libtelux_tel
-Wl,--defsym=_ZNSt6vectorISt8weak_ptrIN5telux3tel17IMultiSimListenerEESaIS4_EED2Ev=so_stub_for_libtelux_tel
-Wl,--defsym=_ZNSt6vectorISt8weak_ptrIN5telux3tel18IRemoteSimListenerEESaIS4_EE17_M_realloc_insertIJRS4_EEEvN9__gnu_cxx17__normal_iteratorIPS4_S6_EEDpOT_=so_stub_for_libtelux_tel
-Wl,--defsym=_ZNSt6vectorISt8weak_ptrIN5telux3tel18IRemoteSimListenerEESaIS4_EE17_M_realloc_insertIJRSt10shared_ptrIS3_EEEEvN9__gnu_cxx17__normal_iteratorIPS4_S6_EEDpOT_=so_stub_for_libtelux_tel
-Wl,--defsym=_ZNSt6vectorISt8weak_ptrIN5telux3tel18IRemoteSimListenerEESaIS4_EE8_M_eraseEN9__gnu_cxx17__normal_iteratorIPS4_S6_EE=so_stub_for_libtelux_tel
-Wl,--defsym=_ZNSt6vectorISt8weak_ptrIN5telux3tel18IRemoteSimListenerEESaIS4_EED1Ev=so_stub_for_libtelux_tel
-Wl,--defsym=_ZNSt6vectorISt8weak_ptrIN5telux3tel18IRemoteSimListenerEESaIS4_EED2Ev=so_stub_for_libtelux_tel
-Wl,--defsym=_ZNSt6vectorISt8weak_ptrIN5telux3tel19ISimProfileListenerEESaIS4_EE17_M_realloc_insertIJRS4_EEEvN9__gnu_cxx17__normal_iteratorIPS4_S6_EEDpOT_=so_stub_for_libtelux_tel
-Wl,--defsym=_ZNSt6vectorISt8weak_ptrIN5telux3tel19ISimProfileListenerEESaIS4_EE17_M_realloc_insertIJRSt10shared_ptrIS3_EEEEvN9__gnu_cxx17__normal_iteratorIPS4_S6_EEDpOT_=so_stub_for_libtelux_tel
-Wl,--defsym=_ZNSt6vectorISt8weak_ptrIN5telux3tel19ISimProfileListenerEESaIS4_EE8_M_eraseEN9__gnu_cxx17__normal_iteratorIPS4_S6_EE=so_stub_for_libtelux_tel
-Wl,--defsym=_ZNSt6vectorISt8weak_ptrIN5telux3tel19ISimProfileListenerEESaIS4_EED1Ev=so_stub_for_libtelux_tel
-Wl,--defsym=_ZNSt6vectorISt8weak_ptrIN5telux3tel19ISimProfileListenerEESaIS4_EED2Ev=so_stub_for_libtelux_tel
-Wl,--defsym=_ZNSt6vectorISt8weak_ptrIN5telux3tel21ISubscriptionListenerEESaIS4_EE17_M_realloc_insertIJRS4_EEEvN9__gnu_cxx17__normal_iteratorIPS4_S6_EEDpOT_=so_stub_for_libtelux_tel
-Wl,--defsym=_ZNSt6vectorISt8weak_ptrIN5telux3tel21ISubscriptionListenerEESaIS4_EE17_M_realloc_insertIJRSt10shared_ptrIS3_EEEEvN9__gnu_cxx17__normal_iteratorIPS4_S6_EEDpOT_=so_stub_for_libtelux_tel
-Wl,--defsym=_ZNSt6vectorISt8weak_ptrIN5telux3tel21ISubscriptionListenerEESaIS4_EE8_M_eraseEN9__gnu_cxx17__normal_iteratorIPS4_S6_EE=so_stub_for_libtelux_tel
-Wl,--defsym=_ZNSt6vectorISt8weak_ptrIN5telux3tel21ISubscriptionListenerEESaIS4_EED1Ev=so_stub_for_libtelux_tel
-Wl,--defsym=_ZNSt6vectorISt8weak_ptrIN5telux3tel21ISubscriptionListenerEESaIS4_EED2Ev=so_stub_for_libtelux_tel
-Wl,--defsym=_ZNSt6vectorISt8weak_ptrIN5telux3tel22ICellBroadcastListenerEESaIS4_EE17_M_realloc_insertIJRS4_EEEvN9__gnu_cxx17__normal_iteratorIPS4_S6_EEDpOT_=so_stub_for_libtelux_tel
-Wl,--defsym=_ZNSt6vectorISt8weak_ptrIN5telux3tel22ICellBroadcastListenerEESaIS4_EE17_M_realloc_insertIJRSt10shared_ptrIS3_EEEEvN9__gnu_cxx17__normal_iteratorIPS4_S6_EEDpOT_=so_stub_for_libtelux_tel
-Wl,--defsym=_ZNSt6vectorISt8weak_ptrIN5telux3tel22ICellBroadcastListenerEESaIS4_EE8_M_eraseEN9__gnu_cxx17__normal_iteratorIPS4_S6_EE=so_stub_for_libtelux_tel
-Wl,--defsym=_ZNSt6vectorISt8weak_ptrIN5telux3tel22ICellBroadcastListenerEESaIS4_EED1Ev=so_stub_for_libtelux_tel
-Wl,--defsym=_ZNSt6vectorISt8weak_ptrIN5telux3tel22ICellBroadcastListenerEESaIS4_EED2Ev=so_stub_for_libtelux_tel
-Wl,--defsym=_ZNSt6vectorISt8weak_ptrIN5telux3tel22IServingSystemListenerEESaIS4_EE17_M_realloc_insertIJRS4_EEEvN9__gnu_cxx17__normal_iteratorIPS4_S6_EEDpOT_=so_stub_for_libtelux_tel
-Wl,--defsym=_ZNSt6vectorISt8weak_ptrIN5telux3tel22IServingSystemListenerEESaIS4_EE17_M_realloc_insertIJRSt10shared_ptrIS3_EEEEvN9__gnu_cxx17__normal_iteratorIPS4_S6_EEDpOT_=so_stub_for_libtelux_tel
-Wl,--defsym=_ZNSt6vectorISt8weak_ptrIN5telux3tel22IServingSystemListenerEESaIS4_EE8_M_eraseEN9__gnu_cxx17__normal_iteratorIPS4_S6_EE=so_stub_for_libtelux_tel
-Wl,--defsym=_ZNSt6vectorISt8weak_ptrIN5telux3tel22IServingSystemListenerEESaIS4_EED1Ev=so_stub_for_libtelux_tel
-Wl,--defsym=_ZNSt6vectorISt8weak_ptrIN5telux3tel22IServingSystemListenerEESaIS4_EED2Ev=so_stub_for_libtelux_tel
-Wl,--defsym=_ZNSt6vectorISt8weak_ptrIN5telux3tel25INetworkSelectionListenerEESaIS4_EE17_M_realloc_insertIJRS4_EEEvN9__gnu_cxx17__normal_iteratorIPS4_S6_EEDpOT_=so_stub_for_libtelux_tel
-Wl,--defsym=_ZNSt6vectorISt8weak_ptrIN5telux3tel25INetworkSelectionListenerEESaIS4_EE17_M_realloc_insertIJRSt10shared_ptrIS3_EEEEvN9__gnu_cxx17__normal_iteratorIPS4_S6_EEDpOT_=so_stub_for_libtelux_tel
-Wl,--defsym=_ZNSt6vectorISt8weak_ptrIN5telux3tel25INetworkSelectionListenerEESaIS4_EE8_M_eraseEN9__gnu_cxx17__normal_iteratorIPS4_S6_EE=so_stub_for_libtelux_tel
-Wl,--defsym=_ZNSt6vectorISt8weak_ptrIN5telux3tel25INetworkSelectionListenerEESaIS4_EED1Ev=so_stub_for_libtelux_tel
-Wl,--defsym=_ZNSt6vectorISt8weak_ptrIN5telux3tel25INetworkSelectionListenerEESaIS4_EED2Ev=so_stub_for_libtelux_tel
-Wl,--defsym=_ZNSt6vectorISt8weak_ptrIN5telux3tel3ril12IRilListenerEESaIS5_EE17_M_realloc_insertIJRS5_EEEvN9__gnu_cxx17__normal_iteratorIPS5_S7_EEDpOT_=so_stub_for_libtelux_tel
-Wl,--defsym=_ZNSt6vectorISt8weak_ptrIN5telux3tel3ril12IRilListenerEESaIS5_EE17_M_realloc_insertIJRSt10shared_ptrIS4_EEEEvN9__gnu_cxx17__normal_iteratorIPS5_S7_EEDpOT_=so_stub_for_libtelux_tel
-Wl,--defsym=_ZNSt6vectorISt8weak_ptrIN5telux3tel3ril12IRilListenerEESaIS5_EE8_M_eraseEN9__gnu_cxx17__normal_iteratorIPS5_S7_EE=so_stub_for_libtelux_tel
-Wl,--defsym=_ZNSt6vectorISt8weak_ptrIN5telux3tel3ril12IRilListenerEESaIS5_EED1Ev=so_stub_for_libtelux_tel
-Wl,--defsym=_ZNSt6vectorISt8weak_ptrIN5telux3tel3ril12IRilListenerEESaIS5_EED2Ev=so_stub_for_libtelux_tel
-Wl,--defsym=_ZNSt7__cxx1110_List_baseISt10shared_ptrIN5telux3tel3ril7RequestEESaIS6_EE8_M_clearEv=so_stub_for_libtelux_tel
-Wl,--defsym=_ZNSt7__cxx1110_List_baseISt10shared_ptrIN5telux3tel3ril8ResponseEESaIS6_EE8_M_clearEv=so_stub_for_libtelux_tel
-Wl,--defsym=_ZNSt7__cxx1111basic_regexIcNS_12regex_traitsIcEEEC1IPKcEET_S7_NSt15regex_constants18syntax_option_typeE=so_stub_for_libtelux_tel
-Wl,--defsym=_ZNSt7__cxx1111basic_regexIcNS_12regex_traitsIcEEEC2IPKcEET_S7_NSt15regex_constants18syntax_option_typeE=so_stub_for_libtelux_tel
-Wl,--defsym=_ZNSt7__cxx1111basic_regexIcNS_12regex_traitsIcEEED1Ev=so_stub_for_libtelux_tel
-Wl,--defsym=_ZNSt7__cxx1111basic_regexIcNS_12regex_traitsIcEEED2Ev=so_stub_for_libtelux_tel
-Wl,--defsym=_ZNSt7__cxx1112basic_stringIcSt11char_traitsIcESaIcEE12_M_constructIN9__gnu_cxx17__normal_iteratorIPDsNS0_IDsS1_IDsESaIDsEEEEEEEvT_SD_St20forward_iterator_tag=so_stub_for_libtelux_tel
-Wl,--defsym=_ZNSt7__cxx1112basic_stringIcSt11char_traitsIcESaIcEE12_M_constructIN9__gnu_cxx17__normal_iteratorIPhSt6vectorIhSaIhEEEEEEvT_SD_St20forward_iterator_tag=so_stub_for_libtelux_tel
-Wl,--defsym=_ZNSt7__cxx1112basic_stringIcSt11char_traitsIcESaIcEE12_M_constructIN9__gnu_cxx17__normal_iteratorIPKcS4_EEEEvT_SB_St20forward_iterator_tag=so_stub_for_libtelux_tel
-Wl,--defsym=_ZNSt7__cxx1112basic_stringIcSt11char_traitsIcESaIcEE12_M_constructIPcEEvT_S7_St20forward_iterator_tag=so_stub_for_libtelux_tel
-Wl,--defsym=_ZNSt7__cxx1112basic_stringIcSt11char_traitsIcESaIcEE12_M_constructIPKcEEvT_S8_St20forward_iterator_tag=so_stub_for_libtelux_tel
-Wl,--defsym=_ZNSt7__cxx1112basic_stringIcSt11char_traitsIcESaIcEE12_M_constructIPKDsEEvT_S8_St20forward_iterator_tag=so_stub_for_libtelux_tel
-Wl,--defsym=_ZNSt7__cxx1112basic_stringIcSt11char_traitsIcESaIcEE19_M_replace_dispatchIPKDsEERS4_N9__gnu_cxx17__normal_iteratorIPKcS4_EESD_T_SE_St12__false_type=so_stub_for_libtelux_tel
-Wl,--defsym=_ZNSt7__cxx1112basic_stringIDsSt11char_traitsIDsESaIDsEE10_M_replaceEjjPKDsj=so_stub_for_libtelux_tel
-Wl,--defsym=_ZNSt7__cxx1112basic_stringIDsSt11char_traitsIDsESaIDsEE12_M_constructIN9__gnu_cxx17__normal_iteratorIPKcNS0_IcS1_IcESaIcEEEEEEEvT_SE_St20forward_iterator_tag=so_stub_for_libtelux_tel
-Wl,--defsym=_ZNSt7__cxx1112basic_stringIDsSt11char_traitsIDsESaIDsEE12_M_constructIPDsEEvT_S7_St20forward_iterator_tag=so_stub_for_libtelux_tel
-Wl,--defsym=_ZNSt7__cxx1112basic_stringIDsSt11char_traitsIDsESaIDsEE12_M_constructIPKcEEvT_S8_St20forward_iterator_tag=so_stub_for_libtelux_tel
-Wl,--defsym=_ZNSt7__cxx1112basic_stringIDsSt11char_traitsIDsESaIDsEE12_M_constructIPKDsEEvT_S8_St20forward_iterator_tag=so_stub_for_libtelux_tel
-Wl,--defsym=_ZNSt7__cxx1112basic_stringIDsSt11char_traitsIDsESaIDsEE14_M_replace_auxEjjjDs=so_stub_for_libtelux_tel
-Wl,--defsym=_ZNSt7__cxx1112basic_stringIDsSt11char_traitsIDsESaIDsEE19_M_replace_dispatchIPKcEERS4_N9__gnu_cxx17__normal_iteratorIPKDsS4_EESD_T_SE_St12__false_type=so_stub_for_libtelux_tel
-Wl,--defsym=_ZNSt7__cxx1112basic_stringIDsSt11char_traitsIDsESaIDsEE6resizeEjDs=so_stub_for_libtelux_tel
-Wl,--defsym=_ZNSt7__cxx1112basic_stringIDsSt11char_traitsIDsESaIDsEE9_M_appendEPKDsj=so_stub_for_libtelux_tel
-Wl,--defsym=_ZNSt7__cxx1112basic_stringIDsSt11char_traitsIDsESaIDsEE9_M_assignERKS4_=so_stub_for_libtelux_tel
-Wl,--defsym=_ZNSt7__cxx1112basic_stringIDsSt11char_traitsIDsESaIDsEE9_M_createERjj=so_stub_for_libtelux_tel
-Wl,--defsym=_ZNSt7__cxx1112basic_stringIDsSt11char_traitsIDsESaIDsEE9_M_mutateEjjPKDsj=so_stub_for_libtelux_tel
-Wl,--defsym=_ZNSt7__cxx1112basic_stringIDsSt11char_traitsIDsESaIDsEEaSEOS4_=so_stub_for_libtelux_tel
-Wl,--defsym=_ZNSt7__cxx1112basic_stringIDsSt11char_traitsIDsESaIDsEEC1EPKDsRKS3_=so_stub_for_libtelux_tel
-Wl,--defsym=_ZNSt7__cxx1112basic_stringIDsSt11char_traitsIDsESaIDsEEC2EPKDsRKS3_=so_stub_for_libtelux_tel
-Wl,--defsym=_ZNSt7__cxx1114regex_iteratorIN9__gnu_cxx17__normal_iteratorIPKcNS_12basic_stringIcSt11char_traitsIcESaIcEEEEEcNS_12regex_traitsIcEEEC1ESA_SA_RKNS_11basic_regexIcSC_EENSt15regex_constants15match_flag_typeE=so_stub_for_libtelux_tel
-Wl,--defsym=_ZNSt7__cxx1114regex_iteratorIN9__gnu_cxx17__normal_iteratorIPKcNS_12basic_stringIcSt11char_traitsIcESaIcEEEEEcNS_12regex_traitsIcEEEC2ESA_SA_RKNS_11basic_regexIcSC_EENSt15regex_constants15match_flag_typeE=so_stub_for_libtelux_tel
-Wl,--defsym=_ZNSt7__cxx1114regex_iteratorIN9__gnu_cxx17__normal_iteratorIPKcNS_12basic_stringIcSt11char_traitsIcESaIcEEEEEcNS_12regex_traitsIcEEEppEv=so_stub_for_libtelux_tel
-Wl,--defsym=_ZNSt7__cxx1115wstring_convertISt18codecvt_utf8_utf16IDsLm1114111ELSt12codecvt_mode0EEDsSaIDsESaIcEE10from_bytesEPKcS8_=so_stub_for_libtelux_tel
-Wl,--defsym=_ZNSt7__cxx1115wstring_convertISt18codecvt_utf8_utf16IDsLm1114111ELSt12codecvt_mode0EEDsSaIDsESaIcEE8to_bytesEPKDsS8_=so_stub_for_libtelux_tel
-Wl,--defsym=_ZNSt7__cxx1115wstring_convertISt18codecvt_utf8_utf16IDsLm1114111ELSt12codecvt_mode0EEDsSaIDsESaIcEEC1EPS3_=so_stub_for_libtelux_tel
-Wl,--defsym=_ZNSt7__cxx1115wstring_convertISt18codecvt_utf8_utf16IDsLm1114111ELSt12codecvt_mode0EEDsSaIDsESaIcEEC2EPS3_=so_stub_for_libtelux_tel
-Wl,--defsym=_ZNSt7__cxx1115wstring_convertISt18codecvt_utf8_utf16IDsLm1114111ELSt12codecvt_mode0EEDsSaIDsESaIcEED1Ev=so_stub_for_libtelux_tel
-Wl,--defsym=_ZNSt7__cxx1115wstring_convertISt18codecvt_utf8_utf16IDsLm1114111ELSt12codecvt_mode0EEDsSaIDsESaIcEED2Ev=so_stub_for_libtelux_tel
-Wl,--defsym=_ZNSt7__cxx114listISt10shared_ptrIN5telux3tel3ril8ResponseEESaIS6_EE9_M_insertIJRS6_EEEvSt14_List_iteratorIS6_EDpOT_=so_stub_for_libtelux_tel
-Wl,--defsym=_ZNSt8__detail12_ScannerBaseC1ENSt15regex_constants18syntax_option_typeE=so_stub_for_libtelux_tel
-Wl,--defsym=_ZNSt8__detail12_ScannerBaseC2ENSt15regex_constants18syntax_option_typeE=so_stub_for_libtelux_tel
-Wl,--defsym=_ZNSt8__detail13__compile_nfaINSt7__cxx1112regex_traitsIcEEPKcEENSt9enable_ifIXsrNS_27__is_contiguous_normal_iterIT0_EE5valueESt10shared_ptrIKNS_4_NFAIT_EEEE4typeES8_S8_RKNSC_11locale_typeENSt15regex_constants18syntax_option_typeE=so_stub_for_libtelux_tel
-Wl,--defsym=_ZNSt8__detail15_BracketMatcherINSt7__cxx1112regex_traitsIcEELb0ELb0EE13_M_make_cacheESt17integral_constantIbLb1EE=so_stub_for_libtelux_tel
-Wl,--defsym=_ZNSt8__detail15_BracketMatcherINSt7__cxx1112regex_traitsIcEELb0ELb0EE13_M_make_rangeEcc=so_stub_for_libtelux_tel
-Wl,--defsym=_ZNSt8__detail15_BracketMatcherINSt7__cxx1112regex_traitsIcEELb0ELb0EE22_M_add_character_classERKNS1_12basic_stringIcSt11char_traitsIcESaIcEEEb=so_stub_for_libtelux_tel
-Wl,--defsym=_ZNSt8__detail15_BracketMatcherINSt7__cxx1112regex_traitsIcEELb0ELb0EE22_M_add_collate_elementERKNS1_12basic_stringIcSt11char_traitsIcESaIcEEE=so_stub_for_libtelux_tel
-Wl,--defsym=_ZNSt8__detail15_BracketMatcherINSt7__cxx1112regex_traitsIcEELb0ELb0EE24_M_add_equivalence_classERKNS1_12basic_stringIcSt11char_traitsIcESaIcEEE=so_stub_for_libtelux_tel
-Wl,--defsym=_ZNSt8__detail15_BracketMatcherINSt7__cxx1112regex_traitsIcEELb0ELb0EE8_M_readyEv=so_stub_for_libtelux_tel
-Wl,--defsym=_ZNSt8__detail15_BracketMatcherINSt7__cxx1112regex_traitsIcEELb0ELb0EEC1EOS4_=so_stub_for_libtelux_tel
-Wl,--defsym=_ZNSt8__detail15_BracketMatcherINSt7__cxx1112regex_traitsIcEELb0ELb0EEC1ERKS4_=so_stub_for_libtelux_tel
-Wl,--defsym=_ZNSt8__detail15_BracketMatcherINSt7__cxx1112regex_traitsIcEELb0ELb0EEC2EOS4_=so_stub_for_libtelux_tel
-Wl,--defsym=_ZNSt8__detail15_BracketMatcherINSt7__cxx1112regex_traitsIcEELb0ELb0EEC2ERKS4_=so_stub_for_libtelux_tel
-Wl,--defsym=_ZNSt8__detail15_BracketMatcherINSt7__cxx1112regex_traitsIcEELb0ELb0EED1Ev=so_stub_for_libtelux_tel
-Wl,--defsym=_ZNSt8__detail15_BracketMatcherINSt7__cxx1112regex_traitsIcEELb0ELb0EED2Ev=so_stub_for_libtelux_tel
-Wl,--defsym=_ZNSt8__detail15_BracketMatcherINSt7__cxx1112regex_traitsIcEELb0ELb1EE13_M_make_cacheESt17integral_constantIbLb1EE=so_stub_for_libtelux_tel
-Wl,--defsym=_ZNSt8__detail15_BracketMatcherINSt7__cxx1112regex_traitsIcEELb0ELb1EE13_M_make_rangeEcc=so_stub_for_libtelux_tel
-Wl,--defsym=_ZNSt8__detail15_BracketMatcherINSt7__cxx1112regex_traitsIcEELb0ELb1EE22_M_add_character_classERKNS1_12basic_stringIcSt11char_traitsIcESaIcEEEb=so_stub_for_libtelux_tel
-Wl,--defsym=_ZNSt8__detail15_BracketMatcherINSt7__cxx1112regex_traitsIcEELb0ELb1EE22_M_add_collate_elementERKNS1_12basic_stringIcSt11char_traitsIcESaIcEEE=so_stub_for_libtelux_tel
-Wl,--defsym=_ZNSt8__detail15_BracketMatcherINSt7__cxx1112regex_traitsIcEELb0ELb1EE24_M_add_equivalence_classERKNS1_12basic_stringIcSt11char_traitsIcESaIcEEE=so_stub_for_libtelux_tel
-Wl,--defsym=_ZNSt8__detail15_BracketMatcherINSt7__cxx1112regex_traitsIcEELb0ELb1EE8_M_readyEv=so_stub_for_libtelux_tel
-Wl,--defsym=_ZNSt8__detail15_BracketMatcherINSt7__cxx1112regex_traitsIcEELb0ELb1EEC1EOS4_=so_stub_for_libtelux_tel
-Wl,--defsym=_ZNSt8__detail15_BracketMatcherINSt7__cxx1112regex_traitsIcEELb0ELb1EEC1ERKS4_=so_stub_for_libtelux_tel
-Wl,--defsym=_ZNSt8__detail15_BracketMatcherINSt7__cxx1112regex_traitsIcEELb0ELb1EEC2EOS4_=so_stub_for_libtelux_tel
-Wl,--defsym=_ZNSt8__detail15_BracketMatcherINSt7__cxx1112regex_traitsIcEELb0ELb1EEC2ERKS4_=so_stub_for_libtelux_tel
-Wl,--defsym=_ZNSt8__detail15_BracketMatcherINSt7__cxx1112regex_traitsIcEELb0ELb1EED1Ev=so_stub_for_libtelux_tel
-Wl,--defsym=_ZNSt8__detail15_BracketMatcherINSt7__cxx1112regex_traitsIcEELb0ELb1EED2Ev=so_stub_for_libtelux_tel
-Wl,--defsym=_ZNSt8__detail15_BracketMatcherINSt7__cxx1112regex_traitsIcEELb1ELb0EE11_M_add_charEc=so_stub_for_libtelux_tel
-Wl,--defsym=_ZNSt8__detail15_BracketMatcherINSt7__cxx1112regex_traitsIcEELb1ELb0EE13_M_make_cacheESt17integral_constantIbLb1EE=so_stub_for_libtelux_tel
-Wl,--defsym=_ZNSt8__detail15_BracketMatcherINSt7__cxx1112regex_traitsIcEELb1ELb0EE13_M_make_rangeEcc=so_stub_for_libtelux_tel
-Wl,--defsym=_ZNSt8__detail15_BracketMatcherINSt7__cxx1112regex_traitsIcEELb1ELb0EE22_M_add_character_classERKNS1_12basic_stringIcSt11char_traitsIcESaIcEEEb=so_stub_for_libtelux_tel
-Wl,--defsym=_ZNSt8__detail15_BracketMatcherINSt7__cxx1112regex_traitsIcEELb1ELb0EE22_M_add_collate_elementERKNS1_12basic_stringIcSt11char_traitsIcESaIcEEE=so_stub_for_libtelux_tel
-Wl,--defsym=_ZNSt8__detail15_BracketMatcherINSt7__cxx1112regex_traitsIcEELb1ELb0EE24_M_add_equivalence_classERKNS1_12basic_stringIcSt11char_traitsIcESaIcEEE=so_stub_for_libtelux_tel
-Wl,--defsym=_ZNSt8__detail15_BracketMatcherINSt7__cxx1112regex_traitsIcEELb1ELb0EE8_M_readyEv=so_stub_for_libtelux_tel
-Wl,--defsym=_ZNSt8__detail15_BracketMatcherINSt7__cxx1112regex_traitsIcEELb1ELb0EEC1EOS4_=so_stub_for_libtelux_tel
-Wl,--defsym=_ZNSt8__detail15_BracketMatcherINSt7__cxx1112regex_traitsIcEELb1ELb0EEC1ERKS4_=so_stub_for_libtelux_tel
-Wl,--defsym=_ZNSt8__detail15_BracketMatcherINSt7__cxx1112regex_traitsIcEELb1ELb0EEC2EOS4_=so_stub_for_libtelux_tel
-Wl,--defsym=_ZNSt8__detail15_BracketMatcherINSt7__cxx1112regex_traitsIcEELb1ELb0EEC2ERKS4_=so_stub_for_libtelux_tel
-Wl,--defsym=_ZNSt8__detail15_BracketMatcherINSt7__cxx1112regex_traitsIcEELb1ELb0EED1Ev=so_stub_for_libtelux_tel
-Wl,--defsym=_ZNSt8__detail15_BracketMatcherINSt7__cxx1112regex_traitsIcEELb1ELb0EED2Ev=so_stub_for_libtelux_tel
-Wl,--defsym=_ZNSt8__detail15_BracketMatcherINSt7__cxx1112regex_traitsIcEELb1ELb1EE11_M_add_charEc=so_stub_for_libtelux_tel
-Wl,--defsym=_ZNSt8__detail15_BracketMatcherINSt7__cxx1112regex_traitsIcEELb1ELb1EE13_M_make_cacheESt17integral_constantIbLb1EE=so_stub_for_libtelux_tel
-Wl,--defsym=_ZNSt8__detail15_BracketMatcherINSt7__cxx1112regex_traitsIcEELb1ELb1EE13_M_make_rangeEcc=so_stub_for_libtelux_tel
-Wl,--defsym=_ZNSt8__detail15_BracketMatcherINSt7__cxx1112regex_traitsIcEELb1ELb1EE22_M_add_character_classERKNS1_12basic_stringIcSt11char_traitsIcESaIcEEEb=so_stub_for_libtelux_tel
-Wl,--defsym=_ZNSt8__detail15_BracketMatcherINSt7__cxx1112regex_traitsIcEELb1ELb1EE22_M_add_collate_elementERKNS1_12basic_stringIcSt11char_traitsIcESaIcEEE=so_stub_for_libtelux_tel
-Wl,--defsym=_ZNSt8__detail15_BracketMatcherINSt7__cxx1112regex_traitsIcEELb1ELb1EE24_M_add_equivalence_classERKNS1_12basic_stringIcSt11char_traitsIcESaIcEEE=so_stub_for_libtelux_tel
-Wl,--defsym=_ZNSt8__detail15_BracketMatcherINSt7__cxx1112regex_traitsIcEELb1ELb1EE8_M_readyEv=so_stub_for_libtelux_tel
-Wl,--defsym=_ZNSt8__detail15_BracketMatcherINSt7__cxx1112regex_traitsIcEELb1ELb1EEC1EOS4_=so_stub_for_libtelux_tel
-Wl,--defsym=_ZNSt8__detail15_BracketMatcherINSt7__cxx1112regex_traitsIcEELb1ELb1EEC1ERKS4_=so_stub_for_libtelux_tel
-Wl,--defsym=_ZNSt8__detail15_BracketMatcherINSt7__cxx1112regex_traitsIcEELb1ELb1EEC2EOS4_=so_stub_for_libtelux_tel
-Wl,--defsym=_ZNSt8__detail15_BracketMatcherINSt7__cxx1112regex_traitsIcEELb1ELb1EEC2ERKS4_=so_stub_for_libtelux_tel
-Wl,--defsym=_ZNSt8__detail15_BracketMatcherINSt7__cxx1112regex_traitsIcEELb1ELb1EED1Ev=so_stub_for_libtelux_tel
-Wl,--defsym=_ZNSt8__detail15_BracketMatcherINSt7__cxx1112regex_traitsIcEELb1ELb1EED2Ev=so_stub_for_libtelux_tel
-Wl,--defsym=_ZNSt8__detail16_Backref_matcherIN9__gnu_cxx17__normal_iteratorIPKcNSt7__cxx1112basic_stringIcSt11char_traitsIcESaIcEEEEENS5_12regex_traitsIcEEE8_M_applyESB_SB_SB_SB_=so_stub_for_libtelux_tel
-Wl,--defsym=_ZNSt8__detail17__regex_algo_implIN9__gnu_cxx17__normal_iteratorIPKcNSt7__cxx1112basic_stringIcSt11char_traitsIcESaIcEEEEESaINS5_9sub_matchISB_EEEcNS5_12regex_traitsIcEELNS_20_RegexExecutorPolicyE0ELb0EEEbT_SI_RNS5_13match_resultsISI_T0_EERKNS5_11basic_regexIT1_T2_EENSt15regex_constants15match_flag_typeE=so_stub_for_libtelux_tel
-Wl,--defsym=_ZNSt8__detail4_NFAINSt7__cxx1112regex_traitsIcEEE13_M_insert_altEllb=so_stub_for_libtelux_tel
-Wl,--defsym=_ZNSt8__detail4_NFAINSt7__cxx1112regex_traitsIcEEE15_M_insert_dummyEv=so_stub_for_libtelux_tel
-Wl,--defsym=_ZNSt8__detail4_NFAINSt7__cxx1112regex_traitsIcEEE16_M_insert_acceptEv=so_stub_for_libtelux_tel
-Wl,--defsym=_ZNSt8__detail4_NFAINSt7__cxx1112regex_traitsIcEEE16_M_insert_repeatEllb=so_stub_for_libtelux_tel
-Wl,--defsym=_ZNSt8__detail4_NFAINSt7__cxx1112regex_traitsIcEEE17_M_insert_backrefEj=so_stub_for_libtelux_tel
-Wl,--defsym=_ZNSt8__detail4_NFAINSt7__cxx1112regex_traitsIcEEE17_M_insert_matcherESt8functionIFbcEE=so_stub_for_libtelux_tel
-Wl,--defsym=_ZNSt8__detail4_NFAINSt7__cxx1112regex_traitsIcEEE18_M_eliminate_dummyEv=so_stub_for_libtelux_tel
-Wl,--defsym=_ZNSt8__detail4_NFAINSt7__cxx1112regex_traitsIcEEE18_M_insert_line_endEv=so_stub_for_libtelux_tel
-Wl,--defsym=_ZNSt8__detail4_NFAINSt7__cxx1112regex_traitsIcEEE19_M_insert_lookaheadElb=so_stub_for_libtelux_tel
-Wl,--defsym=_ZNSt8__detail4_NFAINSt7__cxx1112regex_traitsIcEEE20_M_insert_line_beginEv=so_stub_for_libtelux_tel
-Wl,--defsym=_ZNSt8__detail4_NFAINSt7__cxx1112regex_traitsIcEEE20_M_insert_word_boundEb=so_stub_for_libtelux_tel
-Wl,--defsym=_ZNSt8__detail4_NFAINSt7__cxx1112regex_traitsIcEEE21_M_insert_subexpr_endEv=so_stub_for_libtelux_tel
-Wl,--defsym=_ZNSt8__detail4_NFAINSt7__cxx1112regex_traitsIcEEE23_M_insert_subexpr_beginEv=so_stub_for_libtelux_tel
-Wl,--defsym=_ZNSt8__detail4_NFAINSt7__cxx1112regex_traitsIcEEEC1ERKSt6localeNSt15regex_constants18syntax_option_typeE=so_stub_for_libtelux_tel
-Wl,--defsym=_ZNSt8__detail4_NFAINSt7__cxx1112regex_traitsIcEEEC2ERKSt6localeNSt15regex_constants18syntax_option_typeE=so_stub_for_libtelux_tel
-Wl,--defsym=_ZNSt8__detail8_ScannerIcE10_M_advanceEv=so_stub_for_libtelux_tel
-Wl,--defsym=_ZNSt8__detail8_ScannerIcE12_M_eat_classEc=so_stub_for_libtelux_tel
-Wl,--defsym=_ZNSt8__detail8_ScannerIcE14_M_scan_normalEv=so_stub_for_libtelux_tel
-Wl,--defsym=_ZNSt8__detail8_ScannerIcE16_M_scan_in_braceEv=so_stub_for_libtelux_tel
-Wl,--defsym=_ZNSt8__detail8_ScannerIcE17_M_eat_escape_awkEv=so_stub_for_libtelux_tel
-Wl,--defsym=_ZNSt8__detail8_ScannerIcE18_M_eat_escape_ecmaEv=so_stub_for_libtelux_tel
-Wl,--defsym=_ZNSt8__detail8_ScannerIcE18_M_scan_in_bracketEv=so_stub_for_libtelux_tel
-Wl,--defsym=_ZNSt8__detail8_ScannerIcE19_M_eat_escape_posixEv=so_stub_for_libtelux_tel
-Wl,--defsym=_ZNSt8__detail8_ScannerIcEC1EPKcS3_NSt15regex_constants18syntax_option_typeESt6locale=so_stub_for_libtelux_tel
-Wl,--defsym=_ZNSt8__detail8_ScannerIcEC2EPKcS3_NSt15regex_constants18syntax_option_typeESt6locale=so_stub_for_libtelux_tel
-Wl,--defsym=_ZNSt8__detail9_CompilerINSt7__cxx1112regex_traitsIcEEE11_M_try_charEv=so_stub_for_libtelux_tel
-Wl,--defsym=_ZNSt8__detail9_CompilerINSt7__cxx1112regex_traitsIcEEE12_M_assertionEv=so_stub_for_libtelux_tel
-Wl,--defsym=_ZNSt8__detail9_CompilerINSt7__cxx1112regex_traitsIcEEE13_M_quantifierEv=so_stub_for_libtelux_tel
-Wl,--defsym=_ZNSt8__detail9_CompilerINSt7__cxx1112regex_traitsIcEEE14_M_alternativeEv=so_stub_for_libtelux_tel
-Wl,--defsym=_ZNSt8__detail9_CompilerINSt7__cxx1112regex_traitsIcEEE14_M_disjunctionEv=so_stub_for_libtelux_tel
-Wl,--defsym=_ZNSt8__detail9_CompilerINSt7__cxx1112regex_traitsIcEEE18_M_expression_termILb0ELb0EEEbRSt4pairIbcERNS_15_BracketMatcherIS3_XT_EXT0_EEE=so_stub_for_libtelux_tel
-Wl,--defsym=_ZNSt8__detail9_CompilerINSt7__cxx1112regex_traitsIcEEE18_M_expression_termILb0ELb1EEEbRSt4pairIbcERNS_15_BracketMatcherIS3_XT_EXT0_EEE=so_stub_for_libtelux_tel
-Wl,--defsym=_ZNSt8__detail9_CompilerINSt7__cxx1112regex_traitsIcEEE18_M_expression_termILb1ELb0EEEbRSt4pairIbcERNS_15_BracketMatcherIS3_XT_EXT0_EEE=so_stub_for_libtelux_tel
-Wl,--defsym=_ZNSt8__detail9_CompilerINSt7__cxx1112regex_traitsIcEEE18_M_expression_termILb1ELb1EEEbRSt4pairIbcERNS_15_BracketMatcherIS3_XT_EXT0_EEE=so_stub_for_libtelux_tel
-Wl,--defsym=_ZNSt8__detail9_CompilerINSt7__cxx1112regex_traitsIcEEE21_M_bracket_expressionEv=so_stub_for_libtelux_tel
-Wl,--defsym=_ZNSt8__detail9_CompilerINSt7__cxx1112regex_traitsIcEEE22_M_insert_char_matcherILb0ELb0EEEvv=so_stub_for_libtelux_tel
-Wl,--defsym=_ZNSt8__detail9_CompilerINSt7__cxx1112regex_traitsIcEEE22_M_insert_char_matcherILb0ELb1EEEvv=so_stub_for_libtelux_tel
-Wl,--defsym=_ZNSt8__detail9_CompilerINSt7__cxx1112regex_traitsIcEEE22_M_insert_char_matcherILb1ELb0EEEvv=so_stub_for_libtelux_tel
-Wl,--defsym=_ZNSt8__detail9_CompilerINSt7__cxx1112regex_traitsIcEEE22_M_insert_char_matcherILb1ELb1EEEvv=so_stub_for_libtelux_tel
-Wl,--defsym=_ZNSt8__detail9_CompilerINSt7__cxx1112regex_traitsIcEEE25_M_insert_bracket_matcherILb0ELb0EEEvb=so_stub_for_libtelux_tel
-Wl,--defsym=_ZNSt8__detail9_CompilerINSt7__cxx1112regex_traitsIcEEE25_M_insert_bracket_matcherILb0ELb1EEEvb=so_stub_for_libtelux_tel
-Wl,--defsym=_ZNSt8__detail9_CompilerINSt7__cxx1112regex_traitsIcEEE25_M_insert_bracket_matcherILb1ELb0EEEvb=so_stub_for_libtelux_tel
-Wl,--defsym=_ZNSt8__detail9_CompilerINSt7__cxx1112regex_traitsIcEEE25_M_insert_bracket_matcherILb1ELb1EEEvb=so_stub_for_libtelux_tel
-Wl,--defsym=_ZNSt8__detail9_CompilerINSt7__cxx1112regex_traitsIcEEE26_M_insert_any_matcher_ecmaILb0ELb0EEEvv=so_stub_for_libtelux_tel
-Wl,--defsym=_ZNSt8__detail9_CompilerINSt7__cxx1112regex_traitsIcEEE26_M_insert_any_matcher_ecmaILb0ELb1EEEvv=so_stub_for_libtelux_tel
-Wl,--defsym=_ZNSt8__detail9_CompilerINSt7__cxx1112regex_traitsIcEEE26_M_insert_any_matcher_ecmaILb1ELb0EEEvv=so_stub_for_libtelux_tel
-Wl,--defsym=_ZNSt8__detail9_CompilerINSt7__cxx1112regex_traitsIcEEE26_M_insert_any_matcher_ecmaILb1ELb1EEEvv=so_stub_for_libtelux_tel
-Wl,--defsym=_ZNSt8__detail9_CompilerINSt7__cxx1112regex_traitsIcEEE27_M_insert_any_matcher_posixILb0ELb0EEEvv=so_stub_for_libtelux_tel
-Wl,--defsym=_ZNSt8__detail9_CompilerINSt7__cxx1112regex_traitsIcEEE27_M_insert_any_matcher_posixILb0ELb1EEEvv=so_stub_for_libtelux_tel
-Wl,--defsym=_ZNSt8__detail9_CompilerINSt7__cxx1112regex_traitsIcEEE27_M_insert_any_matcher_posixILb1ELb0EEEvv=so_stub_for_libtelux_tel
-Wl,--defsym=_ZNSt8__detail9_CompilerINSt7__cxx1112regex_traitsIcEEE27_M_insert_any_matcher_posixILb1ELb1EEEvv=so_stub_for_libtelux_tel
-Wl,--defsym=_ZNSt8__detail9_CompilerINSt7__cxx1112regex_traitsIcEEE33_M_insert_character_class_matcherILb0ELb0EEEvv=so_stub_for_libtelux_tel
-Wl,--defsym=_ZNSt8__detail9_CompilerINSt7__cxx1112regex_traitsIcEEE33_M_insert_character_class_matcherILb0ELb1EEEvv=so_stub_for_libtelux_tel
-Wl,--defsym=_ZNSt8__detail9_CompilerINSt7__cxx1112regex_traitsIcEEE33_M_insert_character_class_matcherILb1ELb0EEEvv=so_stub_for_libtelux_tel
-Wl,--defsym=_ZNSt8__detail9_CompilerINSt7__cxx1112regex_traitsIcEEE33_M_insert_character_class_matcherILb1ELb1EEEvv=so_stub_for_libtelux_tel
-Wl,--defsym=_ZNSt8__detail9_CompilerINSt7__cxx1112regex_traitsIcEEE6_M_popEv=so_stub_for_libtelux_tel
-Wl,--defsym=_ZNSt8__detail9_CompilerINSt7__cxx1112regex_traitsIcEEE7_M_atomEv=so_stub_for_libtelux_tel
-Wl,--defsym=_ZNSt8__detail9_CompilerINSt7__cxx1112regex_traitsIcEEE7_M_termEv=so_stub_for_libtelux_tel
-Wl,--defsym=_ZNSt8__detail9_CompilerINSt7__cxx1112regex_traitsIcEEEC1EPKcS6_RKSt6localeNSt15regex_constants18syntax_option_typeE=so_stub_for_libtelux_tel
-Wl,--defsym=_ZNSt8__detail9_CompilerINSt7__cxx1112regex_traitsIcEEEC2EPKcS6_RKSt6localeNSt15regex_constants18syntax_option_typeE=so_stub_for_libtelux_tel
-Wl,--defsym=_ZNSt8__detail9_CompilerINSt7__cxx1112regex_traitsIcEEED1Ev=so_stub_for_libtelux_tel
-Wl,--defsym=_ZNSt8__detail9_CompilerINSt7__cxx1112regex_traitsIcEEED2Ev=so_stub_for_libtelux_tel
-Wl,--defsym=_ZNSt8__detail9_ExecutorIN9__gnu_cxx17__normal_iteratorIPKcNSt7__cxx1112basic_stringIcSt11char_traitsIcESaIcEEEEESaINS5_9sub_matchISB_EEENS5_12regex_traitsIcEELb0EE12_M_lookaheadEl=so_stub_for_libtelux_tel
-Wl,--defsym=_ZNSt8__detail9_ExecutorIN9__gnu_cxx17__normal_iteratorIPKcNSt7__cxx1112basic_stringIcSt11char_traitsIcESaIcEEEEESaINS5_9sub_matchISB_EEENS5_12regex_traitsIcEELb0EE16_M_handle_repeatENSH_11_Match_modeEl=so_stub_for_libtelux_tel
-Wl,--defsym=_ZNSt8__detail9_ExecutorIN9__gnu_cxx17__normal_iteratorIPKcNSt7__cxx1112basic_stringIcSt11char_traitsIcESaIcEEEEESaINS5_9sub_matchISB_EEENS5_12regex_traitsIcEELb0EE16_M_main_dispatchENSH_11_Match_modeESt17integral_constantIbLb0EE=so_stub_for_libtelux_tel
-Wl,--defsym=_ZNSt8__detail9_ExecutorIN9__gnu_cxx17__normal_iteratorIPKcNSt7__cxx1112basic_stringIcSt11char_traitsIcESaIcEEEEESaINS5_9sub_matchISB_EEENS5_12regex_traitsIcEELb0EE16_M_rep_once_moreENSH_11_Match_modeEl=so_stub_for_libtelux_tel
-Wl,--defsym=_ZNSt8__detail9_ExecutorIN9__gnu_cxx17__normal_iteratorIPKcNSt7__cxx1112basic_stringIcSt11char_traitsIcESaIcEEEEESaINS5_9sub_matchISB_EEENS5_12regex_traitsIcEELb0EE17_M_handle_backrefENSH_11_Match_modeEl=so_stub_for_libtelux_tel
-Wl,--defsym=_ZNSt8__detail9_ExecutorIN9__gnu_cxx17__normal_iteratorIPKcNSt7__cxx1112basic_stringIcSt11char_traitsIcESaIcEEEEESaINS5_9sub_matchISB_EEENS5_12regex_traitsIcEELb0EE21_M_handle_alternativeENSH_11_Match_modeEl=so_stub_for_libtelux_tel
-Wl,--defsym=_ZNSt8__detail9_ExecutorIN9__gnu_cxx17__normal_iteratorIPKcNSt7__cxx1112basic_stringIcSt11char_traitsIcESaIcEEEEESaINS5_9sub_matchISB_EEENS5_12regex_traitsIcEELb0EE23_M_handle_word_boundaryENSH_11_Match_modeEl=so_stub_for_libtelux_tel
-Wl,--defsym=_ZNSt8__detail9_ExecutorIN9__gnu_cxx17__normal_iteratorIPKcNSt7__cxx1112basic_stringIcSt11char_traitsIcESaIcEEEEESaINS5_9sub_matchISB_EEENS5_12regex_traitsIcEELb0EE27_M_handle_subexpr_lookaheadENSH_11_Match_modeEl=so_stub_for_libtelux_tel
-Wl,--defsym=_ZNSt8__detail9_ExecutorIN9__gnu_cxx17__normal_iteratorIPKcNSt7__cxx1112basic_stringIcSt11char_traitsIcESaIcEEEEESaINS5_9sub_matchISB_EEENS5_12regex_traitsIcEELb0EE6_M_dfsENSH_11_Match_modeEl=so_stub_for_libtelux_tel
-Wl,--defsym=_ZNSt8__detail9_ExecutorIN9__gnu_cxx17__normal_iteratorIPKcNSt7__cxx1112basic_stringIcSt11char_traitsIcESaIcEEEEESaINS5_9sub_matchISB_EEENS5_12regex_traitsIcEELb0EE9_M_searchEv=so_stub_for_libtelux_tel
-Wl,--defsym=_ZNSt8__detail9_ExecutorIN9__gnu_cxx17__normal_iteratorIPKcNSt7__cxx1112basic_stringIcSt11char_traitsIcESaIcEEEEESaINS5_9sub_matchISB_EEENS5_12regex_traitsIcEELb0EEC1ESB_SB_RSt6vectorISD_SE_ERKNS5_11basic_regexIcSG_EENSt15regex_constants15match_flag_typeE=so_stub_for_libtelux_tel
-Wl,--defsym=_ZNSt8__detail9_ExecutorIN9__gnu_cxx17__normal_iteratorIPKcNSt7__cxx1112basic_stringIcSt11char_traitsIcESaIcEEEEESaINS5_9sub_matchISB_EEENS5_12regex_traitsIcEELb0EEC2ESB_SB_RSt6vectorISD_SE_ERKNS5_11basic_regexIcSG_EENSt15regex_constants15match_flag_typeE=so_stub_for_libtelux_tel
-Wl,--defsym=_ZNSt8__detail9_ExecutorIN9__gnu_cxx17__normal_iteratorIPKcNSt7__cxx1112basic_stringIcSt11char_traitsIcESaIcEEEEESaINS5_9sub_matchISB_EEENS5_12regex_traitsIcEELb0EED1Ev=so_stub_for_libtelux_tel
-Wl,--defsym=_ZNSt8__detail9_ExecutorIN9__gnu_cxx17__normal_iteratorIPKcNSt7__cxx1112basic_stringIcSt11char_traitsIcESaIcEEEEESaINS5_9sub_matchISB_EEENS5_12regex_traitsIcEELb0EED2Ev=so_stub_for_libtelux_tel
-Wl,--defsym=_ZNSt8__detail9_ExecutorIN9__gnu_cxx17__normal_iteratorIPKcNSt7__cxx1112basic_stringIcSt11char_traitsIcESaIcEEEEESaINS5_9sub_matchISB_EEENS5_12regex_traitsIcEELb1EE12_M_lookaheadEl=so_stub_for_libtelux_tel
-Wl,--defsym=_ZNSt8__detail9_ExecutorIN9__gnu_cxx17__normal_iteratorIPKcNSt7__cxx1112basic_stringIcSt11char_traitsIcESaIcEEEEESaINS5_9sub_matchISB_EEENS5_12regex_traitsIcEELb1EE15_M_handle_matchENSH_11_Match_modeEl=so_stub_for_libtelux_tel
-Wl,--defsym=_ZNSt8__detail9_ExecutorIN9__gnu_cxx17__normal_iteratorIPKcNSt7__cxx1112basic_stringIcSt11char_traitsIcESaIcEEEEESaINS5_9sub_matchISB_EEENS5_12regex_traitsIcEELb1EE16_M_handle_acceptENSH_11_Match_modeEl=so_stub_for_libtelux_tel
-Wl,--defsym=_ZNSt8__detail9_ExecutorIN9__gnu_cxx17__normal_iteratorIPKcNSt7__cxx1112basic_stringIcSt11char_traitsIcESaIcEEEEESaINS5_9sub_matchISB_EEENS5_12regex_traitsIcEELb1EE16_M_handle_repeatENSH_11_Match_modeEl=so_stub_for_libtelux_tel
-Wl,--defsym=_ZNSt8__detail9_ExecutorIN9__gnu_cxx17__normal_iteratorIPKcNSt7__cxx1112basic_stringIcSt11char_traitsIcESaIcEEEEESaINS5_9sub_matchISB_EEENS5_12regex_traitsIcEELb1EE16_M_rep_once_moreENSH_11_Match_modeEl=so_stub_for_libtelux_tel
-Wl,--defsym=_ZNSt8__detail9_ExecutorIN9__gnu_cxx17__normal_iteratorIPKcNSt7__cxx1112basic_stringIcSt11char_traitsIcESaIcEEEEESaINS5_9sub_matchISB_EEENS5_12regex_traitsIcEELb1EE17_M_handle_backrefENSH_11_Match_modeEl=so_stub_for_libtelux_tel
-Wl,--defsym=_ZNSt8__detail9_ExecutorIN9__gnu_cxx17__normal_iteratorIPKcNSt7__cxx1112basic_stringIcSt11char_traitsIcESaIcEEEEESaINS5_9sub_matchISB_EEENS5_12regex_traitsIcEELb1EE21_M_handle_alternativeENSH_11_Match_modeEl=so_stub_for_libtelux_tel
-Wl,--defsym=_ZNSt8__detail9_ExecutorIN9__gnu_cxx17__normal_iteratorIPKcNSt7__cxx1112basic_stringIcSt11char_traitsIcESaIcEEEEESaINS5_9sub_matchISB_EEENS5_12regex_traitsIcEELb1EE23_M_handle_word_boundaryENSH_11_Match_modeEl=so_stub_for_libtelux_tel
-Wl,--defsym=_ZNSt8__detail9_ExecutorIN9__gnu_cxx17__normal_iteratorIPKcNSt7__cxx1112basic_stringIcSt11char_traitsIcESaIcEEEEESaINS5_9sub_matchISB_EEENS5_12regex_traitsIcEELb1EE27_M_handle_subexpr_lookaheadENSH_11_Match_modeEl=so_stub_for_libtelux_tel
-Wl,--defsym=_ZNSt8__detail9_ExecutorIN9__gnu_cxx17__normal_iteratorIPKcNSt7__cxx1112basic_stringIcSt11char_traitsIcESaIcEEEEESaINS5_9sub_matchISB_EEENS5_12regex_traitsIcEELb1EE6_M_dfsENSH_11_Match_modeEl=so_stub_for_libtelux_tel
-Wl,--defsym=_ZNSt8__detail9_ExecutorIN9__gnu_cxx17__normal_iteratorIPKcNSt7__cxx1112basic_stringIcSt11char_traitsIcESaIcEEEEESaINS5_9sub_matchISB_EEENS5_12regex_traitsIcEELb1EE9_M_searchEv=so_stub_for_libtelux_tel
-Wl,--defsym=_ZNSt8__detail9_ExecutorIN9__gnu_cxx17__normal_iteratorIPKcNSt7__cxx1112basic_stringIcSt11char_traitsIcESaIcEEEEESaINS5_9sub_matchISB_EEENS5_12regex_traitsIcEELb1EEC1ESB_SB_RSt6vectorISD_SE_ERKNS5_11basic_regexIcSG_EENSt15regex_constants15match_flag_typeE=so_stub_for_libtelux_tel
-Wl,--defsym=_ZNSt8__detail9_ExecutorIN9__gnu_cxx17__normal_iteratorIPKcNSt7__cxx1112basic_stringIcSt11char_traitsIcESaIcEEEEESaINS5_9sub_matchISB_EEENS5_12regex_traitsIcEELb1EEC2ESB_SB_RSt6vectorISD_SE_ERKNS5_11basic_regexIcSG_EENSt15regex_constants15match_flag_typeE=so_stub_for_libtelux_tel
-Wl,--defsym=_ZNSt8__detail9_ExecutorIN9__gnu_cxx17__normal_iteratorIPKcNSt7__cxx1112basic_stringIcSt11char_traitsIcESaIcEEEEESaINS5_9sub_matchISB_EEENS5_12regex_traitsIcEELb1EED1Ev=so_stub_for_libtelux_tel
-Wl,--defsym=_ZNSt8__detail9_ExecutorIN9__gnu_cxx17__normal_iteratorIPKcNSt7__cxx1112basic_stringIcSt11char_traitsIcESaIcEEEEESaINS5_9sub_matchISB_EEENS5_12regex_traitsIcEELb1EED2Ev=so_stub_for_libtelux_tel
-Wl,--defsym=_ZNSt8__detail9_Map_baseIiSt4pairIKiSt10shared_ptrIN5telux6common16ICommandCallbackEEESaIS8_ENS_10_Select1stESt8equal_toIiESt4hashIiENS_18_Mod_range_hashingENS_20_Default_ranged_hashENS_20_Prime_rehash_policyENS_17_Hashtable_traitsILb0ELb0ELb1EEELb1EEixERS2_=so_stub_for_libtelux_tel
-Wl,--defsym=_ZNSt8__detail9_StateSeqINSt7__cxx1112regex_traitsIcEEE8_M_cloneEv=so_stub_for_libtelux_tel
-Wl,--defsym=_ZNSt8functionIFb9RadioTechRK17CmasCellbroadcastEEC1ERKS5_=so_stub_for_libtelux_tel
-Wl,--defsym=_ZNSt8functionIFb9RadioTechRK17CmasCellbroadcastEEC2ERKS5_=so_stub_for_libtelux_tel
-Wl,--defsym=_ZNSt8functionIFbcEEaSEOS1_=so_stub_for_libtelux_tel
-Wl,--defsym=_ZNSt8functionIFbcEEC1ERKS1_=so_stub_for_libtelux_tel
-Wl,--defsym=_ZNSt8functionIFbcEEC1INSt8__detail15_BracketMatcherINSt7__cxx1112regex_traitsIcEELb0ELb0EEEvvEET_=so_stub_for_libtelux_tel
-Wl,--defsym=_ZNSt8functionIFbcEEC1INSt8__detail15_BracketMatcherINSt7__cxx1112regex_traitsIcEELb0ELb1EEEvvEET_=so_stub_for_libtelux_tel
-Wl,--defsym=_ZNSt8functionIFbcEEC1INSt8__detail15_BracketMatcherINSt7__cxx1112regex_traitsIcEELb1ELb0EEEvvEET_=so_stub_for_libtelux_tel
-Wl,--defsym=_ZNSt8functionIFbcEEC1INSt8__detail15_BracketMatcherINSt7__cxx1112regex_traitsIcEELb1ELb1EEEvvEET_=so_stub_for_libtelux_tel
-Wl,--defsym=_ZNSt8functionIFbcEEC2ERKS1_=so_stub_for_libtelux_tel
-Wl,--defsym=_ZNSt8functionIFbcEEC2INSt8__detail15_BracketMatcherINSt7__cxx1112regex_traitsIcEELb0ELb0EEEvvEET_=so_stub_for_libtelux_tel
-Wl,--defsym=_ZNSt8functionIFbcEEC2INSt8__detail15_BracketMatcherINSt7__cxx1112regex_traitsIcEELb0ELb1EEEvvEET_=so_stub_for_libtelux_tel
-Wl,--defsym=_ZNSt8functionIFbcEEC2INSt8__detail15_BracketMatcherINSt7__cxx1112regex_traitsIcEELb1ELb0EEEvvEET_=so_stub_for_libtelux_tel
-Wl,--defsym=_ZNSt8functionIFbcEEC2INSt8__detail15_BracketMatcherINSt7__cxx1112regex_traitsIcEELb1ELb1EEEvvEET_=so_stub_for_libtelux_tel
-Wl,--defsym=_ZNSt8functionIFvbbN5telux6common9ErrorCodeEEEC1ERKS4_=so_stub_for_libtelux_tel
-Wl,--defsym=_ZNSt8functionIFvbbN5telux6common9ErrorCodeEEEC2ERKS4_=so_stub_for_libtelux_tel
-Wl,--defsym=_ZNSt8functionIFvbN5telux6common9ErrorCodeEEEC1ERKS4_=so_stub_for_libtelux_tel
-Wl,--defsym=_ZNSt8functionIFvbN5telux6common9ErrorCodeEEEC2ERKS4_=so_stub_for_libtelux_tel
-Wl,--defsym=_ZNSt8functionIFviN5telux6common9ErrorCodeEEEC1ERKS4_=so_stub_for_libtelux_tel
-Wl,--defsym=_ZNSt8functionIFviN5telux6common9ErrorCodeEEEC2ERKS4_=so_stub_for_libtelux_tel
-Wl,--defsym=_ZNSt8functionIFvN5telux3tel15RadioTechnologyENS0_6common9ErrorCodeEEEC1ERKS6_=so_stub_for_libtelux_tel
-Wl,--defsym=_ZNSt8functionIFvN5telux3tel15RadioTechnologyENS0_6common9ErrorCodeEEEC2ERKS6_=so_stub_for_libtelux_tel
-Wl,--defsym=_ZNSt8functionIFvN5telux3tel20NetworkSelectionModeENS0_6common9ErrorCodeEEEC1ERKS6_=so_stub_for_libtelux_tel
-Wl,--defsym=_ZNSt8functionIFvN5telux3tel20NetworkSelectionModeENS0_6common9ErrorCodeEEEC2ERKS6_=so_stub_for_libtelux_tel
-Wl,--defsym=_ZNSt8functionIFvN5telux3tel23ServiceDomainPreferenceENS0_6common9ErrorCodeEEEC1ERKS6_=so_stub_for_libtelux_tel
-Wl,--defsym=_ZNSt8functionIFvN5telux3tel23ServiceDomainPreferenceENS0_6common9ErrorCodeEEEC2ERKS6_=so_stub_for_libtelux_tel
-Wl,--defsym=_ZNSt8functionIFvN5telux3tel8SapStateENS0_6common9ErrorCodeEEEC1ERKS6_=so_stub_for_libtelux_tel
-Wl,--defsym=_ZNSt8functionIFvN5telux3tel8SapStateENS0_6common9ErrorCodeEEEC2ERKS6_=so_stub_for_libtelux_tel
-Wl,--defsym=_ZNSt8functionIFvN5telux3tel9ECallModeENS0_6common9ErrorCodeEEEC1ERKS6_=so_stub_for_libtelux_tel
-Wl,--defsym=_ZNSt8functionIFvN5telux3tel9ECallModeENS0_6common9ErrorCodeEEEC2ERKS6_=so_stub_for_libtelux_tel
-Wl,--defsym=_ZNSt8functionIFvN5telux6common9ErrorCodeEEEC1ERKS4_=so_stub_for_libtelux_tel
-Wl,--defsym=_ZNSt8functionIFvN5telux6common9ErrorCodeEEEC2ERKS4_=so_stub_for_libtelux_tel
-Wl,--defsym=_ZNSt8functionIFvN5telux6common9ErrorCodeEiNS0_3tel20ECallHlapTimerStatusEEEC1ERKS6_=so_stub_for_libtelux_tel
-Wl,--defsym=_ZNSt8functionIFvN5telux6common9ErrorCodeEiNS0_3tel20ECallHlapTimerStatusEEEC2ERKS6_=so_stub_for_libtelux_tel
-Wl,--defsym=_ZNSt8functionIFvN5telux6common9ErrorCodeESt10shared_ptrINS0_3tel5ICallEEEEC1ERKS8_=so_stub_for_libtelux_tel
-Wl,--defsym=_ZNSt8functionIFvN5telux6common9ErrorCodeESt10shared_ptrINS0_3tel5ICallEEEEC2ERKS8_=so_stub_for_libtelux_tel
-Wl,--defsym=_ZNSt8functionIFvNSt7__cxx1112basic_stringIcSt11char_traitsIcESaIcEEEN5telux6common9ErrorCodeEEEC1ERKSA_=so_stub_for_libtelux_tel
-Wl,--defsym=_ZNSt8functionIFvNSt7__cxx1112basic_stringIcSt11char_traitsIcESaIcEEEN5telux6common9ErrorCodeEEEC2ERKSA_=so_stub_for_libtelux_tel
-Wl,--defsym=_ZNSt8functionIFvRKNSt7__cxx1112basic_stringIcSt11char_traitsIcESaIcEEEN5telux6common9ErrorCodeEEEC1ERKSC_=so_stub_for_libtelux_tel
-Wl,--defsym=_ZNSt8functionIFvRKNSt7__cxx1112basic_stringIcSt11char_traitsIcESaIcEEEN5telux6common9ErrorCodeEEEC2ERKSC_=so_stub_for_libtelux_tel
-Wl,--defsym=_ZNSt8functionIFvRKSt6vectorISt10shared_ptrIN5telux3tel10SimProfileEESaIS5_EENS2_6common9ErrorCodeEEEC1ERKSD_=so_stub_for_libtelux_tel
-Wl,--defsym=_ZNSt8functionIFvRKSt6vectorISt10shared_ptrIN5telux3tel10SimProfileEESaIS5_EENS2_6common9ErrorCodeEEEC2ERKSD_=so_stub_for_libtelux_tel
-Wl,--defsym=_ZNSt8functionIFvSt3mapI6SlotIdN5telux3tel10SlotStatusESt4lessIS1_ESaISt4pairIKS1_S4_EEENS2_6common9ErrorCodeEEEC1ERKSF_=so_stub_for_libtelux_tel
-Wl,--defsym=_ZNSt8functionIFvSt3mapI6SlotIdN5telux3tel10SlotStatusESt4lessIS1_ESaISt4pairIKS1_S4_EEENS2_6common9ErrorCodeEEEC2ERKSF_=so_stub_for_libtelux_tel
-Wl,--defsym=_ZNSt8functionIFvSt6bitsetILj16EEN5telux6common9ErrorCodeEEEC1ERKS6_=so_stub_for_libtelux_tel
-Wl,--defsym=_ZNSt8functionIFvSt6bitsetILj16EEN5telux6common9ErrorCodeEEEC2ERKS6_=so_stub_for_libtelux_tel
-Wl,--defsym=_ZNSt8functionIFvSt6vectorIN5telux3tel12OperatorInfoESaIS3_EENS1_6common9ErrorCodeEEEC1ERKS9_=so_stub_for_libtelux_tel
-Wl,--defsym=_ZNSt8functionIFvSt6vectorIN5telux3tel12OperatorInfoESaIS3_EENS1_6common9ErrorCodeEEEC2ERKS9_=so_stub_for_libtelux_tel
-Wl,--defsym=_ZNSt8functionIFvSt6vectorIN5telux3tel19CellBroadcastFilterESaIS3_EENS1_6common9ErrorCodeEEEC1ERKS9_=so_stub_for_libtelux_tel
-Wl,--defsym=_ZNSt8functionIFvSt6vectorIN5telux3tel19CellBroadcastFilterESaIS3_EENS1_6common9ErrorCodeEEEC2ERKS9_=so_stub_for_libtelux_tel
-Wl,--defsym=_ZNSt8functionIFvSt6vectorIN5telux3tel20PreferredNetworkInfoESaIS3_EES5_NS1_6common9ErrorCodeEEEC1ERKS9_=so_stub_for_libtelux_tel
-Wl,--defsym=_ZNSt8functionIFvSt6vectorIN5telux3tel20PreferredNetworkInfoESaIS3_EES5_NS1_6common9ErrorCodeEEEC2ERKS9_=so_stub_for_libtelux_tel
-Wl,--defsym=_ZNSt8functionIFvSt6vectorISt10shared_ptrIN5telux3tel8CellInfoEESaIS5_EENS2_6common9ErrorCodeEEEC1ERKSB_=so_stub_for_libtelux_tel
-Wl,--defsym=_ZNSt8functionIFvSt6vectorISt10shared_ptrIN5telux3tel8CellInfoEESaIS5_EENS2_6common9ErrorCodeEEEC2ERKSB_=so_stub_for_libtelux_tel
-Wl,--defsym=_ZNSt8_Rb_treeI6SlotIdSt4pairIKS0_N5telux3tel10SlotStatusEESt10_Select1stIS6_ESt4lessIS0_ESaIS6_EE14_M_insert_nodeEPSt18_Rb_tree_node_baseSE_PSt13_Rb_tree_nodeIS6_E=so_stub_for_libtelux_tel
-Wl,--defsym=_ZNSt8_Rb_treeI6SlotIdSt4pairIKS0_N5telux3tel10SlotStatusEESt10_Select1stIS6_ESt4lessIS0_ESaIS6_EE17_M_emplace_uniqueIJS0_RS5_EEES1_ISt17_Rb_tree_iteratorIS6_EbEDpOT_=so_stub_for_libtelux_tel
-Wl,--defsym=_ZNSt8_Rb_treeI6SlotIdSt4pairIKS0_N5telux3tel10SlotStatusEESt10_Select1stIS6_ESt4lessIS0_ESaIS6_EE22_M_emplace_hint_uniqueIJRKSt21piecewise_construct_tSt5tupleIJRS2_EESH_IJEEEEESt17_Rb_tree_iteratorIS6_ESt23_Rb_tree_const_iteratorIS6_EDpOT_=so_stub_for_libtelux_tel
-Wl,--defsym=_ZNSt8_Rb_treeI6SlotIdSt4pairIKS0_N5telux3tel10SlotStatusEESt10_Select1stIS6_ESt4lessIS0_ESaIS6_EE24_M_get_insert_unique_posERS2_=so_stub_for_libtelux_tel
-Wl,--defsym=_ZNSt8_Rb_treeI6SlotIdSt4pairIKS0_N5telux3tel10SlotStatusEESt10_Select1stIS6_ESt4lessIS0_ESaIS6_EE29_M_get_insert_hint_unique_posESt23_Rb_tree_const_iteratorIS6_ERS2_=so_stub_for_libtelux_tel
-Wl,--defsym=_ZNSt8_Rb_treeI6SlotIdSt4pairIKS0_N5telux3tel10SlotStatusEESt10_Select1stIS6_ESt4lessIS0_ESaIS6_EE7_M_copyINSC_11_Alloc_nodeEEEPSt13_Rb_tree_nodeIS6_EPKSG_PSt18_Rb_tree_node_baseRT_=so_stub_for_libtelux_tel
-Wl,--defsym=_ZNSt8_Rb_treeI6SlotIdSt4pairIKS0_N5telux3tel10SlotStatusEESt10_Select1stIS6_ESt4lessIS0_ESaIS6_EE8_M_eraseEPSt13_Rb_tree_nodeIS6_E=so_stub_for_libtelux_tel
-Wl,--defsym=_ZNSt8_Rb_treeI6SlotIdSt4pairIKS0_N5telux3tel10SlotStatusEESt10_Select1stIS6_ESt4lessIS0_ESaIS6_EEC1ERKSC_=so_stub_for_libtelux_tel
-Wl,--defsym=_ZNSt8_Rb_treeI6SlotIdSt4pairIKS0_N5telux3tel10SlotStatusEESt10_Select1stIS6_ESt4lessIS0_ESaIS6_EEC2ERKSC_=so_stub_for_libtelux_tel
-Wl,--defsym=_ZNSt8_Rb_treeIiSt4pairIKiiESt10_Select1stIS2_ESt4lessIiESaIS2_EE14_M_insert_nodeEPSt18_Rb_tree_node_baseSA_PSt13_Rb_tree_nodeIS2_E=so_stub_for_libtelux_tel
-Wl,--defsym=_ZNSt8_Rb_treeIiSt4pairIKiiESt10_Select1stIS2_ESt4lessIiESaIS2_EE17_M_emplace_uniqueIJRiSA_EEES0_ISt17_Rb_tree_iteratorIS2_EbEDpOT_=so_stub_for_libtelux_tel
-Wl,--defsym=_ZNSt8_Rb_treeIiSt4pairIKiiESt10_Select1stIS2_ESt4lessIiESaIS2_EE22_M_emplace_hint_uniqueIJRKSt21piecewise_construct_tSt5tupleIJRS1_EESD_IJEEEEESt17_Rb_tree_iteratorIS2_ESt23_Rb_tree_const_iteratorIS2_EDpOT_=so_stub_for_libtelux_tel
-Wl,--defsym=_ZNSt8_Rb_treeIiSt4pairIKiiESt10_Select1stIS2_ESt4lessIiESaIS2_EE24_M_get_insert_unique_posERS1_=so_stub_for_libtelux_tel
-Wl,--defsym=_ZNSt8_Rb_treeIiSt4pairIKiiESt10_Select1stIS2_ESt4lessIiESaIS2_EE29_M_get_insert_hint_unique_posESt23_Rb_tree_const_iteratorIS2_ERS1_=so_stub_for_libtelux_tel
-Wl,--defsym=_ZNSt8_Rb_treeIiSt4pairIKiiESt10_Select1stIS2_ESt4lessIiESaIS2_EE8_M_eraseEPSt13_Rb_tree_nodeIS2_E=so_stub_for_libtelux_tel
-Wl,--defsym=_ZNSt8_Rb_treeIiSt4pairIKiN5telux3tel17VoiceServiceStateEESt10_Select1stIS5_ESt4lessIiESaIS5_EE14_M_insert_nodeEPSt18_Rb_tree_node_baseSD_PSt13_Rb_tree_nodeIS5_E=so_stub_for_libtelux_tel
-Wl,--defsym=_ZNSt8_Rb_treeIiSt4pairIKiN5telux3tel17VoiceServiceStateEESt10_Select1stIS5_ESt4lessIiESaIS5_EE22_M_emplace_hint_uniqueIJRKSt21piecewise_construct_tSt5tupleIJOiEESG_IJEEEEESt17_Rb_tree_iteratorIS5_ESt23_Rb_tree_const_iteratorIS5_EDpOT_=so_stub_for_libtelux_tel
-Wl,--defsym=_ZNSt8_Rb_treeIiSt4pairIKiN5telux3tel17VoiceServiceStateEESt10_Select1stIS5_ESt4lessIiESaIS5_EE22_M_emplace_hint_uniqueIJRKSt21piecewise_construct_tSt5tupleIJRS1_EESG_IJEEEEESt17_Rb_tree_iteratorIS5_ESt23_Rb_tree_const_iteratorIS5_EDpOT_=so_stub_for_libtelux_tel
-Wl,--defsym=_ZNSt8_Rb_treeIiSt4pairIKiN5telux3tel17VoiceServiceStateEESt10_Select1stIS5_ESt4lessIiESaIS5_EE24_M_get_insert_unique_posERS1_=so_stub_for_libtelux_tel
-Wl,--defsym=_ZNSt8_Rb_treeIiSt4pairIKiN5telux3tel17VoiceServiceStateEESt10_Select1stIS5_ESt4lessIiESaIS5_EE29_M_get_insert_hint_unique_posESt23_Rb_tree_const_iteratorIS5_ERS1_=so_stub_for_libtelux_tel
-Wl,--defsym=_ZNSt8_Rb_treeIiSt4pairIKiN5telux3tel17VoiceServiceStateEESt10_Select1stIS5_ESt4lessIiESaIS5_EE8_M_eraseEPSt13_Rb_tree_nodeIS5_E=so_stub_for_libtelux_tel
-Wl,--defsym=_ZNSt8_Rb_treeIiSt4pairIKiN5telux3tel23VoiceServiceDenialCauseEESt10_Select1stIS5_ESt4lessIiESaIS5_EE14_M_insert_nodeEPSt18_Rb_tree_node_baseSD_PSt13_Rb_tree_nodeIS5_E=so_stub_for_libtelux_tel
-Wl,--defsym=_ZNSt8_Rb_treeIiSt4pairIKiN5telux3tel23VoiceServiceDenialCauseEESt10_Select1stIS5_ESt4lessIiESaIS5_EE22_M_emplace_hint_uniqueIJRKSt21piecewise_construct_tSt5tupleIJOiEESG_IJEEEEESt17_Rb_tree_iteratorIS5_ESt23_Rb_tree_const_iteratorIS5_EDpOT_=so_stub_for_libtelux_tel
-Wl,--defsym=_ZNSt8_Rb_treeIiSt4pairIKiN5telux3tel23VoiceServiceDenialCauseEESt10_Select1stIS5_ESt4lessIiESaIS5_EE22_M_emplace_hint_uniqueIJRKSt21piecewise_construct_tSt5tupleIJRS1_EESG_IJEEEEESt17_Rb_tree_iteratorIS5_ESt23_Rb_tree_const_iteratorIS5_EDpOT_=so_stub_for_libtelux_tel
-Wl,--defsym=_ZNSt8_Rb_treeIiSt4pairIKiN5telux3tel23VoiceServiceDenialCauseEESt10_Select1stIS5_ESt4lessIiESaIS5_EE24_M_get_insert_unique_posERS1_=so_stub_for_libtelux_tel
-Wl,--defsym=_ZNSt8_Rb_treeIiSt4pairIKiN5telux3tel23VoiceServiceDenialCauseEESt10_Select1stIS5_ESt4lessIiESaIS5_EE29_M_get_insert_hint_unique_posESt23_Rb_tree_const_iteratorIS5_ERS1_=so_stub_for_libtelux_tel
-Wl,--defsym=_ZNSt8_Rb_treeIiSt4pairIKiN5telux3tel23VoiceServiceDenialCauseEESt10_Select1stIS5_ESt4lessIiESaIS5_EE8_M_eraseEPSt13_Rb_tree_nodeIS5_E=so_stub_for_libtelux_tel
-Wl,--defsym=_ZNSt8_Rb_treeIiSt4pairIKiSt10shared_ptrIN5telux3qmi14VoiceQmiClientEEESt10_Select1stIS7_ESt4lessIiESaIS7_EE14_M_insert_nodeEPSt18_Rb_tree_node_baseSF_PSt13_Rb_tree_nodeIS7_E=so_stub_for_libtelux_tel
-Wl,--defsym=_ZNSt8_Rb_treeIiSt4pairIKiSt10shared_ptrIN5telux3qmi14VoiceQmiClientEEESt10_Select1stIS7_ESt4lessIiESaIS7_EE17_M_emplace_uniqueIJRiRS6_EEES0_ISt17_Rb_tree_iteratorIS7_EbEDpOT_=so_stub_for_libtelux_tel
-Wl,--defsym=_ZNSt8_Rb_treeIiSt4pairIKiSt10shared_ptrIN5telux3qmi14VoiceQmiClientEEESt10_Select1stIS7_ESt4lessIiESaIS7_EE22_M_emplace_hint_uniqueIJRKSt21piecewise_construct_tSt5tupleIJRS1_EESI_IJEEEEESt17_Rb_tree_iteratorIS7_ESt23_Rb_tree_const_iteratorIS7_EDpOT_=so_stub_for_libtelux_tel
-Wl,--defsym=_ZNSt8_Rb_treeIiSt4pairIKiSt10shared_ptrIN5telux3qmi14VoiceQmiClientEEESt10_Select1stIS7_ESt4lessIiESaIS7_EE24_M_get_insert_unique_posERS1_=so_stub_for_libtelux_tel
-Wl,--defsym=_ZNSt8_Rb_treeIiSt4pairIKiSt10shared_ptrIN5telux3qmi14VoiceQmiClientEEESt10_Select1stIS7_ESt4lessIiESaIS7_EE29_M_get_insert_hint_unique_posESt23_Rb_tree_const_iteratorIS7_ERS1_=so_stub_for_libtelux_tel
-Wl,--defsym=_ZNSt8_Rb_treeIiSt4pairIKiSt10shared_ptrIN5telux3qmi14VoiceQmiClientEEESt10_Select1stIS7_ESt4lessIiESaIS7_EE8_M_eraseEPSt13_Rb_tree_nodeIS7_E=so_stub_for_libtelux_tel
-Wl,--defsym=_ZNSt8_Rb_treeIiSt4pairIKiSt10shared_ptrIN5telux3tel11ISmsManagerEEESt10_Select1stIS7_ESt4lessIiESaIS7_EE14_M_insert_nodeEPSt18_Rb_tree_node_baseSF_PSt13_Rb_tree_nodeIS7_E=so_stub_for_libtelux_tel
-Wl,--defsym=_ZNSt8_Rb_treeIiSt4pairIKiSt10shared_ptrIN5telux3tel11ISmsManagerEEESt10_Select1stIS7_ESt4lessIiESaIS7_EE17_M_emplace_uniqueIJRiRS2_INS4_10SmsManagerEEEEES0_ISt17_Rb_tree_iteratorIS7_EbEDpOT_=so_stub_for_libtelux_tel
-Wl,--defsym=_ZNSt8_Rb_treeIiSt4pairIKiSt10shared_ptrIN5telux3tel11ISmsManagerEEESt10_Select1stIS7_ESt4lessIiESaIS7_EE22_M_emplace_hint_uniqueIJRKSt21piecewise_construct_tSt5tupleIJRS1_EESI_IJEEEEESt17_Rb_tree_iteratorIS7_ESt23_Rb_tree_const_iteratorIS7_EDpOT_=so_stub_for_libtelux_tel
-Wl,--defsym=_ZNSt8_Rb_treeIiSt4pairIKiSt10shared_ptrIN5telux3tel11ISmsManagerEEESt10_Select1stIS7_ESt4lessIiESaIS7_EE24_M_get_insert_unique_posERS1_=so_stub_for_libtelux_tel
-Wl,--defsym=_ZNSt8_Rb_treeIiSt4pairIKiSt10shared_ptrIN5telux3tel11ISmsManagerEEESt10_Select1stIS7_ESt4lessIiESaIS7_EE29_M_get_insert_hint_unique_posESt23_Rb_tree_const_iteratorIS7_ERS1_=so_stub_for_libtelux_tel
-Wl,--defsym=_ZNSt8_Rb_treeIiSt4pairIKiSt10shared_ptrIN5telux3tel11ISmsManagerEEESt10_Select1stIS7_ESt4lessIiESaIS7_EE8_M_eraseEPSt13_Rb_tree_nodeIS7_E=so_stub_for_libtelux_tel
-Wl,--defsym=_ZNSt8_Rb_treeIiSt4pairIKiSt10shared_ptrIN5telux3tel15ISapCardManagerEEESt10_Select1stIS7_ESt4lessIiESaIS7_EE14_M_insert_nodeEPSt18_Rb_tree_node_baseSF_PSt13_Rb_tree_nodeIS7_E=so_stub_for_libtelux_tel
-Wl,--defsym=_ZNSt8_Rb_treeIiSt4pairIKiSt10shared_ptrIN5telux3tel15ISapCardManagerEEESt10_Select1stIS7_ESt4lessIiESaIS7_EE17_M_emplace_uniqueIJRiRS2_INS4_18SapCardManagerImplEEEEES0_ISt17_Rb_tree_iteratorIS7_EbEDpOT_=so_stub_for_libtelux_tel
-Wl,--defsym=_ZNSt8_Rb_treeIiSt4pairIKiSt10shared_ptrIN5telux3tel15ISapCardManagerEEESt10_Select1stIS7_ESt4lessIiESaIS7_EE22_M_emplace_hint_uniqueIJRKSt21piecewise_construct_tSt5tupleIJRS1_EESI_IJEEEEESt17_Rb_tree_iteratorIS7_ESt23_Rb_tree_const_iteratorIS7_EDpOT_=so_stub_for_libtelux_tel
-Wl,--defsym=_ZNSt8_Rb_treeIiSt4pairIKiSt10shared_ptrIN5telux3tel15ISapCardManagerEEESt10_Select1stIS7_ESt4lessIiESaIS7_EE24_M_get_insert_unique_posERS1_=so_stub_for_libtelux_tel
-Wl,--defsym=_ZNSt8_Rb_treeIiSt4pairIKiSt10shared_ptrIN5telux3tel15ISapCardManagerEEESt10_Select1stIS7_ESt4lessIiESaIS7_EE29_M_get_insert_hint_unique_posESt23_Rb_tree_const_iteratorIS7_ERS1_=so_stub_for_libtelux_tel
-Wl,--defsym=_ZNSt8_Rb_treeIiSt4pairIKiSt10shared_ptrIN5telux3tel15ISapCardManagerEEESt10_Select1stIS7_ESt4lessIiESaIS7_EE8_M_eraseEPSt13_Rb_tree_nodeIS7_E=so_stub_for_libtelux_tel
-Wl,--defsym=_ZNSt8_Rb_treeIiSt4pairIKiSt10shared_ptrIN5telux3tel16SubscriptionImplEEESt10_Select1stIS7_ESt4lessIiESaIS7_EE22_M_emplace_hint_uniqueIJRKSt21piecewise_construct_tSt5tupleIJRS1_EESI_IJEEEEESt17_Rb_tree_iteratorIS7_ESt23_Rb_tree_const_iteratorIS7_EDpOT_=so_stub_for_libtelux_tel
-Wl,--defsym=_ZNSt8_Rb_treeIiSt4pairIKiSt10shared_ptrIN5telux3tel16SubscriptionImplEEESt10_Select1stIS7_ESt4lessIiESaIS7_EE24_M_get_insert_unique_posERS1_=so_stub_for_libtelux_tel
-Wl,--defsym=_ZNSt8_Rb_treeIiSt4pairIKiSt10shared_ptrIN5telux3tel16SubscriptionImplEEESt10_Select1stIS7_ESt4lessIiESaIS7_EE29_M_get_insert_hint_unique_posESt23_Rb_tree_const_iteratorIS7_ERS1_=so_stub_for_libtelux_tel
-Wl,--defsym=_ZNSt8_Rb_treeIiSt4pairIKiSt10shared_ptrIN5telux3tel16SubscriptionImplEEESt10_Select1stIS7_ESt4lessIiESaIS7_EE8_M_eraseEPSt13_Rb_tree_nodeIS7_E=so_stub_for_libtelux_tel
-Wl,--defsym=_ZNSt8_Rb_treeIiSt4pairIKiSt10shared_ptrIN5telux3tel17IRemoteSimManagerEEESt10_Select1stIS7_ESt4lessIiESaIS7_EE14_M_insert_nodeEPSt18_Rb_tree_node_baseSF_PSt13_Rb_tree_nodeIS7_E=so_stub_for_libtelux_tel
-Wl,--defsym=_ZNSt8_Rb_treeIiSt4pairIKiSt10shared_ptrIN5telux3tel17IRemoteSimManagerEEESt10_Select1stIS7_ESt4lessIiESaIS7_EE17_M_emplace_uniqueIJRiRS2_INS4_16RemoteSimManagerEEEEES0_ISt17_Rb_tree_iteratorIS7_EbEDpOT_=so_stub_for_libtelux_tel
-Wl,--defsym=_ZNSt8_Rb_treeIiSt4pairIKiSt10shared_ptrIN5telux3tel17IRemoteSimManagerEEESt10_Select1stIS7_ESt4lessIiESaIS7_EE22_M_emplace_hint_uniqueIJRKSt21piecewise_construct_tSt5tupleIJRS1_EESI_IJEEEEESt17_Rb_tree_iteratorIS7_ESt23_Rb_tree_const_iteratorIS7_EDpOT_=so_stub_for_libtelux_tel
-Wl,--defsym=_ZNSt8_Rb_treeIiSt4pairIKiSt10shared_ptrIN5telux3tel17IRemoteSimManagerEEESt10_Select1stIS7_ESt4lessIiESaIS7_EE24_M_get_insert_unique_posERS1_=so_stub_for_libtelux_tel
-Wl,--defsym=_ZNSt8_Rb_treeIiSt4pairIKiSt10shared_ptrIN5telux3tel17IRemoteSimManagerEEESt10_Select1stIS7_ESt4lessIiESaIS7_EE29_M_get_insert_hint_unique_posESt23_Rb_tree_const_iteratorIS7_ERS1_=so_stub_for_libtelux_tel
-Wl,--defsym=_ZNSt8_Rb_treeIiSt4pairIKiSt10shared_ptrIN5telux3tel17IRemoteSimManagerEEESt10_Select1stIS7_ESt4lessIiESaIS7_EE8_M_eraseEPSt13_Rb_tree_nodeIS7_E=so_stub_for_libtelux_tel
-Wl,--defsym=_ZNSt8_Rb_treeIiSt4pairIKiSt10shared_ptrIN5telux3tel21ICellBroadcastManagerEEESt10_Select1stIS7_ESt4lessIiESaIS7_EE14_M_insert_nodeEPSt18_Rb_tree_node_baseSF_PSt13_Rb_tree_nodeIS7_E=so_stub_for_libtelux_tel
-Wl,--defsym=_ZNSt8_Rb_treeIiSt4pairIKiSt10shared_ptrIN5telux3tel21ICellBroadcastManagerEEESt10_Select1stIS7_ESt4lessIiESaIS7_EE17_M_emplace_uniqueIJR6SlotIdRS2_INS4_24CellBroadcastManagerImplEEEEES0_ISt17_Rb_tree_iteratorIS7_EbEDpOT_=so_stub_for_libtelux_tel
-Wl,--defsym=_ZNSt8_Rb_treeIiSt4pairIKiSt10shared_ptrIN5telux3tel21ICellBroadcastManagerEEESt10_Select1stIS7_ESt4lessIiESaIS7_EE22_M_emplace_hint_uniqueIJRKSt21piecewise_construct_tSt5tupleIJOiEESI_IJEEEEESt17_Rb_tree_iteratorIS7_ESt23_Rb_tree_const_iteratorIS7_EDpOT_=so_stub_for_libtelux_tel
-Wl,--defsym=_ZNSt8_Rb_treeIiSt4pairIKiSt10shared_ptrIN5telux3tel21ICellBroadcastManagerEEESt10_Select1stIS7_ESt4lessIiESaIS7_EE24_M_get_insert_unique_posERS1_=so_stub_for_libtelux_tel
-Wl,--defsym=_ZNSt8_Rb_treeIiSt4pairIKiSt10shared_ptrIN5telux3tel21ICellBroadcastManagerEEESt10_Select1stIS7_ESt4lessIiESaIS7_EE29_M_get_insert_hint_unique_posESt23_Rb_tree_const_iteratorIS7_ERS1_=so_stub_for_libtelux_tel
-Wl,--defsym=_ZNSt8_Rb_treeIiSt4pairIKiSt10shared_ptrIN5telux3tel21ICellBroadcastManagerEEESt10_Select1stIS7_ESt4lessIiESaIS7_EE8_M_eraseEPSt13_Rb_tree_nodeIS7_E=so_stub_for_libtelux_tel
-Wl,--defsym=_ZNSt8_Rb_treeIiSt4pairIKiSt10shared_ptrIN5telux3tel21IServingSystemManagerEEESt10_Select1stIS7_ESt4lessIiESaIS7_EE14_M_insert_nodeEPSt18_Rb_tree_node_baseSF_PSt13_Rb_tree_nodeIS7_E=so_stub_for_libtelux_tel
-Wl,--defsym=_ZNSt8_Rb_treeIiSt4pairIKiSt10shared_ptrIN5telux3tel21IServingSystemManagerEEESt10_Select1stIS7_ESt4lessIiESaIS7_EE17_M_emplace_uniqueIJRiRS2_INS4_20ServingSystemManagerEEEEES0_ISt17_Rb_tree_iteratorIS7_EbEDpOT_=so_stub_for_libtelux_tel
-Wl,--defsym=_ZNSt8_Rb_treeIiSt4pairIKiSt10shared_ptrIN5telux3tel21IServingSystemManagerEEESt10_Select1stIS7_ESt4lessIiESaIS7_EE22_M_emplace_hint_uniqueIJRKSt21piecewise_construct_tSt5tupleIJRS1_EESI_IJEEEEESt17_Rb_tree_iteratorIS7_ESt23_Rb_tree_const_iteratorIS7_EDpOT_=so_stub_for_libtelux_tel
-Wl,--defsym=_ZNSt8_Rb_treeIiSt4pairIKiSt10shared_ptrIN5telux3tel21IServingSystemManagerEEESt10_Select1stIS7_ESt4lessIiESaIS7_EE24_M_get_insert_unique_posERS1_=so_stub_for_libtelux_tel
-Wl,--defsym=_ZNSt8_Rb_treeIiSt4pairIKiSt10shared_ptrIN5telux3tel21IServingSystemManagerEEESt10_Select1stIS7_ESt4lessIiESaIS7_EE29_M_get_insert_hint_unique_posESt23_Rb_tree_const_iteratorIS7_ERS1_=so_stub_for_libtelux_tel
-Wl,--defsym=_ZNSt8_Rb_treeIiSt4pairIKiSt10shared_ptrIN5telux3tel21IServingSystemManagerEEESt10_Select1stIS7_ESt4lessIiESaIS7_EE8_M_eraseEPSt13_Rb_tree_nodeIS7_E=so_stub_for_libtelux_tel
-Wl,--defsym=_ZNSt8_Rb_treeIiSt4pairIKiSt10shared_ptrIN5telux3tel24INetworkSelectionManagerEEESt10_Select1stIS7_ESt4lessIiESaIS7_EE14_M_insert_nodeEPSt18_Rb_tree_node_baseSF_PSt13_Rb_tree_nodeIS7_E=so_stub_for_libtelux_tel
-Wl,--defsym=_ZNSt8_Rb_treeIiSt4pairIKiSt10shared_ptrIN5telux3tel24INetworkSelectionManagerEEESt10_Select1stIS7_ESt4lessIiESaIS7_EE17_M_emplace_uniqueIJRiRS2_INS4_23NetworkSelectionManagerEEEEES0_ISt17_Rb_tree_iteratorIS7_EbEDpOT_=so_stub_for_libtelux_tel
-Wl,--defsym=_ZNSt8_Rb_treeIiSt4pairIKiSt10shared_ptrIN5telux3tel24INetworkSelectionManagerEEESt10_Select1stIS7_ESt4lessIiESaIS7_EE22_M_emplace_hint_uniqueIJRKSt21piecewise_construct_tSt5tupleIJRS1_EESI_IJEEEEESt17_Rb_tree_iteratorIS7_ESt23_Rb_tree_const_iteratorIS7_EDpOT_=so_stub_for_libtelux_tel
-Wl,--defsym=_ZNSt8_Rb_treeIiSt4pairIKiSt10shared_ptrIN5telux3tel24INetworkSelectionManagerEEESt10_Select1stIS7_ESt4lessIiESaIS7_EE24_M_get_insert_unique_posERS1_=so_stub_for_libtelux_tel
-Wl,--defsym=_ZNSt8_Rb_treeIiSt4pairIKiSt10shared_ptrIN5telux3tel24INetworkSelectionManagerEEESt10_Select1stIS7_ESt4lessIiESaIS7_EE29_M_get_insert_hint_unique_posESt23_Rb_tree_const_iteratorIS7_ERS1_=so_stub_for_libtelux_tel
-Wl,--defsym=_ZNSt8_Rb_treeIiSt4pairIKiSt10shared_ptrIN5telux3tel24INetworkSelectionManagerEEESt10_Select1stIS7_ESt4lessIiESaIS7_EE8_M_eraseEPSt13_Rb_tree_nodeIS7_E=so_stub_for_libtelux_tel
-Wl,--defsym=_ZNSt8_Rb_treeIiSt4pairIKiSt10shared_ptrIN5telux3tel5PhoneEEESt10_Select1stIS7_ESt4lessIiESaIS7_EE14_M_insert_nodeEPSt18_Rb_tree_node_baseSF_PSt13_Rb_tree_nodeIS7_E=so_stub_for_libtelux_tel
-Wl,--defsym=_ZNSt8_Rb_treeIiSt4pairIKiSt10shared_ptrIN5telux3tel5PhoneEEESt10_Select1stIS7_ESt4lessIiESaIS7_EE17_M_emplace_uniqueIJRiRS6_EEES0_ISt17_Rb_tree_iteratorIS7_EbEDpOT_=so_stub_for_libtelux_tel
-Wl,--defsym=_ZNSt8_Rb_treeIiSt4pairIKiSt10shared_ptrIN5telux3tel5PhoneEEESt10_Select1stIS7_ESt4lessIiESaIS7_EE22_M_emplace_hint_uniqueIJRKSt21piecewise_construct_tSt5tupleIJRS1_EESI_IJEEEEESt17_Rb_tree_iteratorIS7_ESt23_Rb_tree_const_iteratorIS7_EDpOT_=so_stub_for_libtelux_tel
-Wl,--defsym=_ZNSt8_Rb_treeIiSt4pairIKiSt10shared_ptrIN5telux3tel5PhoneEEESt10_Select1stIS7_ESt4lessIiESaIS7_EE24_M_get_insert_unique_posERS1_=so_stub_for_libtelux_tel
-Wl,--defsym=_ZNSt8_Rb_treeIiSt4pairIKiSt10shared_ptrIN5telux3tel5PhoneEEESt10_Select1stIS7_ESt4lessIiESaIS7_EE29_M_get_insert_hint_unique_posESt23_Rb_tree_const_iteratorIS7_ERS1_=so_stub_for_libtelux_tel
-Wl,--defsym=_ZNSt8_Rb_treeIiSt4pairIKiSt10shared_ptrIN5telux3tel5PhoneEEESt10_Select1stIS7_ESt4lessIiESaIS7_EE8_M_eraseEPSt13_Rb_tree_nodeIS7_E=so_stub_for_libtelux_tel
-Wl,--defsym=_ZNSt8_Rb_treeIiSt4pairIKiSt10shared_ptrIN5telux3tel8CardImplEEESt10_Select1stIS7_ESt4lessIiESaIS7_EE14_M_insert_nodeEPSt18_Rb_tree_node_baseSF_PSt13_Rb_tree_nodeIS7_E=so_stub_for_libtelux_tel
-Wl,--defsym=_ZNSt8_Rb_treeIiSt4pairIKiSt10shared_ptrIN5telux3tel8CardImplEEESt10_Select1stIS7_ESt4lessIiESaIS7_EE17_M_emplace_uniqueIJRiRS6_EEES0_ISt17_Rb_tree_iteratorIS7_EbEDpOT_=so_stub_for_libtelux_tel
-Wl,--defsym=_ZNSt8_Rb_treeIiSt4pairIKiSt10shared_ptrIN5telux3tel8CardImplEEESt10_Select1stIS7_ESt4lessIiESaIS7_EE22_M_emplace_hint_uniqueIJRKSt21piecewise_construct_tSt5tupleIJRS1_EESI_IJEEEEESt17_Rb_tree_iteratorIS7_ESt23_Rb_tree_const_iteratorIS7_EDpOT_=so_stub_for_libtelux_tel
-Wl,--defsym=_ZNSt8_Rb_treeIiSt4pairIKiSt10shared_ptrIN5telux3tel8CardImplEEESt10_Select1stIS7_ESt4lessIiESaIS7_EE24_M_get_insert_unique_posERS1_=so_stub_for_libtelux_tel
-Wl,--defsym=_ZNSt8_Rb_treeIiSt4pairIKiSt10shared_ptrIN5telux3tel8CardImplEEESt10_Select1stIS7_ESt4lessIiESaIS7_EE29_M_get_insert_hint_unique_posESt23_Rb_tree_const_iteratorIS7_ERS1_=so_stub_for_libtelux_tel
-Wl,--defsym=_ZNSt8_Rb_treeIiSt4pairIKiSt10shared_ptrIN5telux3tel8CardImplEEESt10_Select1stIS7_ESt4lessIiESaIS7_EE8_M_eraseEPSt13_Rb_tree_nodeIS7_E=so_stub_for_libtelux_tel
-Wl,--defsym=_ZNSt8_Rb_treeIiSt4pairIKiSt8weak_ptrIN5telux6common24ICommandResponseCallbackEEESt10_Select1stIS7_ESt4lessIiESaIS7_EE11equal_rangeERS1_=so_stub_for_libtelux_tel
-Wl,--defsym=_ZNSt8_Rb_treeIiSt4pairIKiSt8weak_ptrIN5telux6common24ICommandResponseCallbackEEESt10_Select1stIS7_ESt4lessIiESaIS7_EE12_M_erase_auxESt23_Rb_tree_const_iteratorIS7_E=so_stub_for_libtelux_tel
-Wl,--defsym=_ZNSt8_Rb_treeIiSt4pairIKiSt8weak_ptrIN5telux6common24ICommandResponseCallbackEEESt10_Select1stIS7_ESt4lessIiESaIS7_EE12_M_erase_auxESt23_Rb_tree_const_iteratorIS7_ESF_=so_stub_for_libtelux_tel
-Wl,--defsym=_ZNSt8_Rb_treeIiSt4pairIKiSt8weak_ptrIN5telux6common24ICommandResponseCallbackEEESt10_Select1stIS7_ESt4lessIiESaIS7_EE22_M_emplace_hint_uniqueIJRKSt21piecewise_construct_tSt5tupleIJRS1_EESI_IJEEEEESt17_Rb_tree_iteratorIS7_ESt23_Rb_tree_const_iteratorIS7_EDpOT_=so_stub_for_libtelux_tel
-Wl,--defsym=_ZNSt8_Rb_treeIiSt4pairIKiSt8weak_ptrIN5telux6common24ICommandResponseCallbackEEESt10_Select1stIS7_ESt4lessIiESaIS7_EE24_M_get_insert_unique_posERS1_=so_stub_for_libtelux_tel
-Wl,--defsym=_ZNSt8_Rb_treeIiSt4pairIKiSt8weak_ptrIN5telux6common24ICommandResponseCallbackEEESt10_Select1stIS7_ESt4lessIiESaIS7_EE29_M_get_insert_hint_unique_posESt23_Rb_tree_const_iteratorIS7_ERS1_=so_stub_for_libtelux_tel
-Wl,--defsym=_ZNSt8_Rb_treeIiSt4pairIKiSt8weak_ptrIN5telux6common24ICommandResponseCallbackEEESt10_Select1stIS7_ESt4lessIiESaIS7_EE8_M_eraseEPSt13_Rb_tree_nodeIS7_E=so_stub_for_libtelux_tel
-Wl,--defsym=_ZNSt8_Rb_treeIlSt4pairIKllESt10_Select1stIS2_ESt4lessIlESaIS2_EE22_M_emplace_hint_uniqueIJRKSt21piecewise_construct_tSt5tupleIJRS1_EESD_IJEEEEESt17_Rb_tree_iteratorIS2_ESt23_Rb_tree_const_iteratorIS2_EDpOT_=so_stub_for_libtelux_tel
-Wl,--defsym=_ZNSt8_Rb_treeIlSt4pairIKllESt10_Select1stIS2_ESt4lessIlESaIS2_EE24_M_get_insert_unique_posERS1_=so_stub_for_libtelux_tel
-Wl,--defsym=_ZNSt8_Rb_treeIlSt4pairIKllESt10_Select1stIS2_ESt4lessIlESaIS2_EE29_M_get_insert_hint_unique_posESt23_Rb_tree_const_iteratorIS2_ERS1_=so_stub_for_libtelux_tel
-Wl,--defsym=_ZNSt8_Rb_treeIlSt4pairIKllESt10_Select1stIS2_ESt4lessIlESaIS2_EE8_M_eraseEPSt13_Rb_tree_nodeIS2_E=so_stub_for_libtelux_tel
-Wl,--defsym=_ZNSt8_Rb_treeIN5telux3tel19SignalStrengthLevelESt4pairIKS2_iESt10_Select1stIS5_ESt4lessIS2_ESaIS5_EE24_M_get_insert_unique_posERS4_=so_stub_for_libtelux_tel
-Wl,--defsym=_ZNSt8_Rb_treeIN5telux3tel19SignalStrengthLevelESt4pairIKS2_iESt10_Select1stIS5_ESt4lessIS2_ESaIS5_EE29_M_get_insert_hint_unique_posESt23_Rb_tree_const_iteratorIS5_ERS4_=so_stub_for_libtelux_tel
-Wl,--defsym=_ZNSt8_Rb_treeIN5telux3tel19SignalStrengthLevelESt4pairIKS2_iESt10_Select1stIS5_ESt4lessIS2_ESaIS5_EE7_M_copyINSB_11_Alloc_nodeEEEPSt13_Rb_tree_nodeIS5_EPKSF_PSt18_Rb_tree_node_baseRT_=so_stub_for_libtelux_tel
-Wl,--defsym=_ZNSt8_Rb_treeIN5telux3tel19SignalStrengthLevelESt4pairIKS2_iESt10_Select1stIS5_ESt4lessIS2_ESaIS5_EE8_M_eraseEPSt13_Rb_tree_nodeIS5_E=so_stub_for_libtelux_tel
-Wl,--defsym=_ZNSt8_Rb_treeIN5telux3tel19SignalStrengthLevelESt4pairIKS2_iESt10_Select1stIS5_ESt4lessIS2_ESaIS5_EEC1ERKSB_=so_stub_for_libtelux_tel
-Wl,--defsym=_ZNSt8_Rb_treeIN5telux3tel19SignalStrengthLevelESt4pairIKS2_iESt10_Select1stIS5_ESt4lessIS2_ESaIS5_EEC2ERKSB_=so_stub_for_libtelux_tel
-Wl,--defsym=_ZNSt8_Rb_treeINSt7__cxx1112basic_stringIcSt11char_traitsIcESaIcEEESt4pairIKS5_S5_ESt10_Select1stIS8_ESt4lessIS5_ESaIS8_EE14_M_insert_nodeEPSt18_Rb_tree_node_baseSG_PSt13_Rb_tree_nodeIS8_E=so_stub_for_libtelux_tel
-Wl,--defsym=_ZNSt8_Rb_treeINSt7__cxx1112basic_stringIcSt11char_traitsIcESaIcEEESt4pairIKS5_S5_ESt10_Select1stIS8_ESt4lessIS5_ESaIS8_EE22_M_emplace_hint_uniqueIJRKSt21piecewise_construct_tSt5tupleIJRS7_EESJ_IJEEEEESt17_Rb_tree_iteratorIS8_ESt23_Rb_tree_const_iteratorIS8_EDpOT_=so_stub_for_libtelux_tel
-Wl,--defsym=_ZNSt8_Rb_treeINSt7__cxx1112basic_stringIcSt11char_traitsIcESaIcEEESt4pairIKS5_S5_ESt10_Select1stIS8_ESt4lessIS5_ESaIS8_EE24_M_get_insert_unique_posERS7_=so_stub_for_libtelux_tel
-Wl,--defsym=_ZNSt8_Rb_treeINSt7__cxx1112basic_stringIcSt11char_traitsIcESaIcEEESt4pairIKS5_S5_ESt10_Select1stIS8_ESt4lessIS5_ESaIS8_EE29_M_get_insert_hint_unique_posESt23_Rb_tree_const_iteratorIS8_ERS7_=so_stub_for_libtelux_tel
-Wl,--defsym=_ZNSt8_Rb_treeINSt7__cxx1112basic_stringIcSt11char_traitsIcESaIcEEESt4pairIKS5_St10shared_ptrISt6vectorIS9_IhSaIhEESaISB_EEEESt10_Select1stISF_ESt4lessIS5_ESaISF_EE11equal_rangeERS7_=so_stub_for_libtelux_tel
-Wl,--defsym=_ZNSt8_Rb_treeINSt7__cxx1112basic_stringIcSt11char_traitsIcESaIcEEESt4pairIKS5_St10shared_ptrISt6vectorIS9_IhSaIhEESaISB_EEEESt10_Select1stISF_ESt4lessIS5_ESaISF_EE12_M_erase_auxESt23_Rb_tree_const_iteratorISF_ESN_=so_stub_for_libtelux_tel
-Wl,--defsym=_ZNSt8_Rb_treeINSt7__cxx1112basic_stringIcSt11char_traitsIcESaIcEEESt4pairIKS5_St10shared_ptrISt6vectorIS9_IhSaIhEESaISB_EEEESt10_Select1stISF_ESt4lessIS5_ESaISF_EE14_M_insert_nodeEPSt18_Rb_tree_node_baseSN_PSt13_Rb_tree_nodeISF_E=so_stub_for_libtelux_tel
-Wl,--defsym=_ZNSt8_Rb_treeINSt7__cxx1112basic_stringIcSt11char_traitsIcESaIcEEESt4pairIKS5_St10shared_ptrISt6vectorIS9_IhSaIhEESaISB_EEEESt10_Select1stISF_ESt4lessIS5_ESaISF_EE22_M_emplace_hint_uniqueIJRKSt21piecewise_construct_tSt5tupleIJRS7_EESQ_IJEEEEESt17_Rb_tree_iteratorISF_ESt23_Rb_tree_const_iteratorISF_EDpOT_=so_stub_for_libtelux_tel
-Wl,--defsym=_ZNSt8_Rb_treeINSt7__cxx1112basic_stringIcSt11char_traitsIcESaIcEEESt4pairIKS5_St10shared_ptrISt6vectorIS9_IhSaIhEESaISB_EEEESt10_Select1stISF_ESt4lessIS5_ESaISF_EE24_M_get_insert_unique_posERS7_=so_stub_for_libtelux_tel
-Wl,--defsym=_ZNSt8_Rb_treeINSt7__cxx1112basic_stringIcSt11char_traitsIcESaIcEEESt4pairIKS5_St10shared_ptrISt6vectorIS9_IhSaIhEESaISB_EEEESt10_Select1stISF_ESt4lessIS5_ESaISF_EE29_M_get_insert_hint_unique_posESt23_Rb_tree_const_iteratorISF_ERS7_=so_stub_for_libtelux_tel
-Wl,--defsym=_ZNSt8_Rb_treeINSt7__cxx1112basic_stringIcSt11char_traitsIcESaIcEEESt4pairIKS5_St10shared_ptrISt6vectorIS9_IhSaIhEESaISB_EEEESt10_Select1stISF_ESt4lessIS5_ESaISF_EE4findERS7_=so_stub_for_libtelux_tel
-Wl,--defsym=_ZNSt8_Rb_treeINSt7__cxx1112basic_stringIcSt11char_traitsIcESaIcEEESt4pairIKS5_St10shared_ptrISt6vectorIS9_IhSaIhEESaISB_EEEESt10_Select1stISF_ESt4lessIS5_ESaISF_EE8_M_eraseEPSt13_Rb_tree_nodeISF_E=so_stub_for_libtelux_tel
-Wl,--defsym=_ZSt13__adjust_heapIN9__gnu_cxx17__normal_iteratorIPcSt6vectorIcSaIcEEEEicNS0_5__ops15_Iter_less_iterEEvT_T0_SA_T1_T2_=so_stub_for_libtelux_tel
-Wl,--defsym=_ZSt13binary_searchIN9__gnu_cxx17__normal_iteratorIPKcSt6vectorIcSaIcEEEEcEbT_S8_RKT0_=so_stub_for_libtelux_tel
-Wl,--defsym=_ZSt13move_backwardISt13shared_futureIvEESt15_Deque_iteratorIT_RS3_PS3_ES2_IS3_RKS3_PS7_ESA_S6_=so_stub_for_libtelux_tel
-Wl,--defsym=_ZSt13regex_replaceINSt7__cxx1112regex_traitsIcEEcSt11char_traitsIcESaIcEENS0_12basic_stringIT0_T1_T2_EERKSA_RKNS0_11basic_regexIS7_T_EEPKS7_NSt15regex_constants15match_flag_typeE=so_stub_for_libtelux_tel
-Wl,--defsym=_ZSt13regex_replaceISt20back_insert_iteratorINSt7__cxx1112basic_stringIcSt11char_traitsIcESaIcEEEEN9__gnu_cxx17__normal_iteratorIPKcS6_EENS1_12regex_traitsIcEEcET_SF_T0_SG_RKNS1_11basic_regexIT2_T1_EEPKSI_NSt15regex_constants15match_flag_typeE=so_stub_for_libtelux_tel
-Wl,--defsym=_ZSt16__do_str_codecvtINSt7__cxx1112basic_stringIcSt11char_traitsIcESaIcEEEDsSt7codecvtIDsc11__mbstate_tES7_MS8_KFNSt12codecvt_base6resultERS7_PKDsSD_RSD_PcSF_RSF_EEbPKT0_SL_RT_RKT1_RT2_RjT3_=so_stub_for_libtelux_tel
-Wl,--defsym=_ZSt16__do_str_codecvtINSt7__cxx1112basic_stringIDsSt11char_traitsIDsESaIDsEEEcSt7codecvtIDsc11__mbstate_tES7_MS8_KFNSt12codecvt_base6resultERS7_PKcSD_RSD_PDsSF_RSF_EEbPKT0_SL_RT_RKT1_RT2_RjT3_=so_stub_for_libtelux_tel
-Wl,--defsym=_ZSt16__insertion_sortIN9__gnu_cxx17__normal_iteratorIPcSt6vectorIcSaIcEEEENS0_5__ops15_Iter_less_iterEEvT_S9_T0_=so_stub_for_libtelux_tel
-Wl,--defsym=_ZSt18make_exception_ptrISt12future_errorENSt15__exception_ptr13exception_ptrET_=so_stub_for_libtelux_tel
-Wl,--defsym=_ZSt19__throw_regex_errorNSt15regex_constants10error_typeEPKc=so_stub_for_libtelux_tel
-Wl,--defsym=_ZSt20__throw_bad_weak_ptrv=so_stub_for_libtelux_tel
-Wl,--defsym=_ZSt22__final_insertion_sortIN9__gnu_cxx17__normal_iteratorIPcSt6vectorIcSaIcEEEENS0_5__ops15_Iter_less_iterEEvT_S9_T0_=so_stub_for_libtelux_tel
-Wl,--defsym=_ZSt3hexRSt8ios_base=so_stub_for_libtelux_tel
-Wl,--defsym=_ZSt4moveISt13shared_futureIvEESt15_Deque_iteratorIT_RS3_PS3_ES6_S6_S6_=so_stub_for_libtelux_tel
-Wl,--defsym=_ZSt4swapISt6localeENSt9enable_ifIXsrSt6__and_IJSt6__not_ISt15__is_tuple_likeIT_EESt21is_move_constructibleIS5_ESt18is_move_assignableIS5_EEE5valueEvE4typeERS5_SF_=so_stub_for_libtelux_tel
-Wl,--defsym=_ZSt7find_ifIN9__gnu_cxx17__normal_iteratorIPSt8weak_ptrIN5telux3tel12ISmsListenerEESt6vectorIS6_SaIS6_EEEEZNS3_6common15ListenerManagerIS5_E16registerListenerES6_EUlS6_E_ET_SG_SG_T0_=so_stub_for_libtelux_tel
-Wl,--defsym=_ZSt7find_ifIN9__gnu_cxx17__normal_iteratorIPSt8weak_ptrIN5telux3tel13ICallListenerEESt6vectorIS6_SaIS6_EEEEZNS3_6common15ListenerManagerIS5_E16registerListenerES6_EUlS6_E_ET_SG_SG_T0_=so_stub_for_libtelux_tel
-Wl,--defsym=_ZSt7find_ifIN9__gnu_cxx17__normal_iteratorIPSt8weak_ptrIN5telux3tel13ICardListenerEESt6vectorIS6_SaIS6_EEEEZNS3_6common15ListenerManagerIS5_E16registerListenerES6_EUlS6_E_ET_SG_SG_T0_=so_stub_for_libtelux_tel
-Wl,--defsym=_ZSt7find_ifIN9__gnu_cxx17__normal_iteratorIPSt8weak_ptrIN5telux3tel14IPhoneListenerEESt6vectorIS6_SaIS6_EEEEZNS3_6common15ListenerManagerIS5_E16registerListenerES6_EUlS6_E_ET_SG_SG_T0_=so_stub_for_libtelux_tel
-Wl,--defsym=_ZSt7find_ifIN9__gnu_cxx17__normal_iteratorIPSt8weak_ptrIN5telux3tel16ISapCardListenerEESt6vectorIS6_SaIS6_EEEEZNS3_6common15ListenerManagerIS5_E16registerListenerES6_EUlS6_E_ET_SG_SG_T0_=so_stub_for_libtelux_tel
-Wl,--defsym=_ZSt7find_ifIN9__gnu_cxx17__normal_iteratorIPSt8weak_ptrIN5telux3tel17IMultiSimListenerEESt6vectorIS6_SaIS6_EEEEZNS3_6common15ListenerManagerIS5_E16registerListenerES6_EUlS6_E_ET_SG_SG_T0_=so_stub_for_libtelux_tel
-Wl,--defsym=_ZSt7find_ifIN9__gnu_cxx17__normal_iteratorIPSt8weak_ptrIN5telux3tel18IRemoteSimListenerEESt6vectorIS6_SaIS6_EEEEZNS3_6common15ListenerManagerIS5_E16registerListenerES6_EUlS6_E_ET_SG_SG_T0_=so_stub_for_libtelux_tel
-Wl,--defsym=_ZSt7find_ifIN9__gnu_cxx17__normal_iteratorIPSt8weak_ptrIN5telux3tel19ISimProfileListenerEESt6vectorIS6_SaIS6_EEEEZNS3_6common15ListenerManagerIS5_E16registerListenerES6_EUlS6_E_ET_SG_SG_T0_=so_stub_for_libtelux_tel
-Wl,--defsym=_ZSt7find_ifIN9__gnu_cxx17__normal_iteratorIPSt8weak_ptrIN5telux3tel21ISubscriptionListenerEESt6vectorIS6_SaIS6_EEEEZNS3_6common15ListenerManagerIS5_E16registerListenerES6_EUlS6_E_ET_SG_SG_T0_=so_stub_for_libtelux_tel
-Wl,--defsym=_ZSt7find_ifIN9__gnu_cxx17__normal_iteratorIPSt8weak_ptrIN5telux3tel22ICellBroadcastListenerEESt6vectorIS6_SaIS6_EEEEZNS3_6common15ListenerManagerIS5_E16registerListenerES6_EUlS6_E_ET_SG_SG_T0_=so_stub_for_libtelux_tel
-Wl,--defsym=_ZSt7find_ifIN9__gnu_cxx17__normal_iteratorIPSt8weak_ptrIN5telux3tel22IServingSystemListenerEESt6vectorIS6_SaIS6_EEEEZNS3_6common15ListenerManagerIS5_E16registerListenerES6_EUlS6_E_ET_SG_SG_T0_=so_stub_for_libtelux_tel
-Wl,--defsym=_ZSt7find_ifIN9__gnu_cxx17__normal_iteratorIPSt8weak_ptrIN5telux3tel25INetworkSelectionListenerEESt6vectorIS6_SaIS6_EEEEZNS3_6common15ListenerManagerIS5_E16registerListenerES6_EUlS6_E_ET_SG_SG_T0_=so_stub_for_libtelux_tel
-Wl,--defsym=_ZSt7find_ifIN9__gnu_cxx17__normal_iteratorIPSt8weak_ptrIN5telux3tel3ril12IRilListenerEESt6vectorIS7_SaIS7_EEEEZNS3_6common15ListenerManagerIS6_E16registerListenerES7_EUlS7_E_ET_SH_SH_T0_=so_stub_for_libtelux_tel
-Wl,--defsym=_ZSt8__uniqueIN9__gnu_cxx17__normal_iteratorIPcSt6vectorIcSaIcEEEENS0_5__ops19_Iter_equal_to_iterEET_S9_S9_T0_=so_stub_for_libtelux_tel
-Wl,--defsym=_ZSt9__find_ifIN9__gnu_cxx17__normal_iteratorIPcNSt7__cxx1112basic_stringIcSt11char_traitsIcESaIcEEEEENS0_5__ops16_Iter_equals_valIKcEEET_SE_SE_T0_St26random_access_iterator_tag=so_stub_for_libtelux_tel
-Wl,--defsym=_ZSt9__find_ifIN9__gnu_cxx17__normal_iteratorIPiSt6vectorIiSaIiEEEENS0_5__ops16_Iter_equals_valIKiEEET_SB_SB_T0_St26random_access_iterator_tag=so_stub_for_libtelux_tel
-Wl,--defsym=_ZSt9__find_ifIN9__gnu_cxx17__normal_iteratorIPKNSt7__cxx1112basic_stringIcSt11char_traitsIcESaIcEEESt6vectorIS7_SaIS7_EEEENS0_5__ops16_Iter_equals_valIS8_EEET_SH_SH_T0_St26random_access_iterator_tag=so_stub_for_libtelux_tel
-Wl,--defsym=_ZSt9__find_ifIN9__gnu_cxx17__normal_iteratorIPSt8weak_ptrIN5telux3tel12ISmsListenerEESt6vectorIS6_SaIS6_EEEENS0_5__ops10_Iter_predIZNS3_6common15ListenerManagerIS5_E16registerListenerES6_EUlS6_E_EEET_SJ_SJ_T0_=so_stub_for_libtelux_tel
-Wl,--defsym=_ZSt9__find_ifIN9__gnu_cxx17__normal_iteratorIPSt8weak_ptrIN5telux3tel12ISmsListenerEESt6vectorIS6_SaIS6_EEEENS0_5__ops10_Iter_predIZNS3_6common15ListenerManagerIS5_E16registerListenerES6_EUlS6_E_EEET_SJ_SJ_T0_St26random_access_iterator_tag=so_stub_for_libtelux_tel
-Wl,--defsym=_ZSt9__find_ifIN9__gnu_cxx17__normal_iteratorIPSt8weak_ptrIN5telux3tel13ICallListenerEESt6vectorIS6_SaIS6_EEEENS0_5__ops10_Iter_predIZNS3_6common15ListenerManagerIS5_E16registerListenerES6_EUlS6_E_EEET_SJ_SJ_T0_=so_stub_for_libtelux_tel
-Wl,--defsym=_ZSt9__find_ifIN9__gnu_cxx17__normal_iteratorIPSt8weak_ptrIN5telux3tel13ICallListenerEESt6vectorIS6_SaIS6_EEEENS0_5__ops10_Iter_predIZNS3_6common15ListenerManagerIS5_E16registerListenerES6_EUlS6_E_EEET_SJ_SJ_T0_St26random_access_iterator_tag=so_stub_for_libtelux_tel
-Wl,--defsym=_ZSt9__find_ifIN9__gnu_cxx17__normal_iteratorIPSt8weak_ptrIN5telux3tel13ICardListenerEESt6vectorIS6_SaIS6_EEEENS0_5__ops10_Iter_predIZNS3_6common15ListenerManagerIS5_E16registerListenerES6_EUlS6_E_EEET_SJ_SJ_T0_=so_stub_for_libtelux_tel
-Wl,--defsym=_ZSt9__find_ifIN9__gnu_cxx17__normal_iteratorIPSt8weak_ptrIN5telux3tel13ICardListenerEESt6vectorIS6_SaIS6_EEEENS0_5__ops10_Iter_predIZNS3_6common15ListenerManagerIS5_E16registerListenerES6_EUlS6_E_EEET_SJ_SJ_T0_St26random_access_iterator_tag=so_stub_for_libtelux_tel
-Wl,--defsym=_ZSt9__find_ifIN9__gnu_cxx17__normal_iteratorIPSt8weak_ptrIN5telux3tel14IPhoneListenerEESt6vectorIS6_SaIS6_EEEENS0_5__ops10_Iter_predIZNS3_6common15ListenerManagerIS5_E16registerListenerES6_EUlS6_E_EEET_SJ_SJ_T0_=so_stub_for_libtelux_tel
-Wl,--defsym=_ZSt9__find_ifIN9__gnu_cxx17__normal_iteratorIPSt8weak_ptrIN5telux3tel14IPhoneListenerEESt6vectorIS6_SaIS6_EEEENS0_5__ops10_Iter_predIZNS3_6common15ListenerManagerIS5_E16registerListenerES6_EUlS6_E_EEET_SJ_SJ_T0_St26random_access_iterator_tag=so_stub_for_libtelux_tel
-Wl,--defsym=_ZSt9__find_ifIN9__gnu_cxx17__normal_iteratorIPSt8weak_ptrIN5telux3tel16ISapCardListenerEESt6vectorIS6_SaIS6_EEEENS0_5__ops10_Iter_predIZNS3_6common15ListenerManagerIS5_E16registerListenerES6_EUlS6_E_EEET_SJ_SJ_T0_=so_stub_for_libtelux_tel
-Wl,--defsym=_ZSt9__find_ifIN9__gnu_cxx17__normal_iteratorIPSt8weak_ptrIN5telux3tel16ISapCardListenerEESt6vectorIS6_SaIS6_EEEENS0_5__ops10_Iter_predIZNS3_6common15ListenerManagerIS5_E16registerListenerES6_EUlS6_E_EEET_SJ_SJ_T0_St26random_access_iterator_tag=so_stub_for_libtelux_tel
-Wl,--defsym=_ZSt9__find_ifIN9__gnu_cxx17__normal_iteratorIPSt8weak_ptrIN5telux3tel17IMultiSimListenerEESt6vectorIS6_SaIS6_EEEENS0_5__ops10_Iter_predIZNS3_6common15ListenerManagerIS5_E16registerListenerES6_EUlS6_E_EEET_SJ_SJ_T0_=so_stub_for_libtelux_tel
-Wl,--defsym=_ZSt9__find_ifIN9__gnu_cxx17__normal_iteratorIPSt8weak_ptrIN5telux3tel17IMultiSimListenerEESt6vectorIS6_SaIS6_EEEENS0_5__ops10_Iter_predIZNS3_6common15ListenerManagerIS5_E16registerListenerES6_EUlS6_E_EEET_SJ_SJ_T0_St26random_access_iterator_tag=so_stub_for_libtelux_tel
-Wl,--defsym=_ZSt9__find_ifIN9__gnu_cxx17__normal_iteratorIPSt8weak_ptrIN5telux3tel18IRemoteSimListenerEESt6vectorIS6_SaIS6_EEEENS0_5__ops10_Iter_predIZNS3_6common15ListenerManagerIS5_E16registerListenerES6_EUlS6_E_EEET_SJ_SJ_T0_=so_stub_for_libtelux_tel
-Wl,--defsym=_ZSt9__find_ifIN9__gnu_cxx17__normal_iteratorIPSt8weak_ptrIN5telux3tel18IRemoteSimListenerEESt6vectorIS6_SaIS6_EEEENS0_5__ops10_Iter_predIZNS3_6common15ListenerManagerIS5_E16registerListenerES6_EUlS6_E_EEET_SJ_SJ_T0_St26random_access_iterator_tag=so_stub_for_libtelux_tel
-Wl,--defsym=_ZSt9__find_ifIN9__gnu_cxx17__normal_iteratorIPSt8weak_ptrIN5telux3tel19ISimProfileListenerEESt6vectorIS6_SaIS6_EEEENS0_5__ops10_Iter_predIZNS3_6common15ListenerManagerIS5_E16registerListenerES6_EUlS6_E_EEET_SJ_SJ_T0_=so_stub_for_libtelux_tel
-Wl,--defsym=_ZSt9__find_ifIN9__gnu_cxx17__normal_iteratorIPSt8weak_ptrIN5telux3tel19ISimProfileListenerEESt6vectorIS6_SaIS6_EEEENS0_5__ops10_Iter_predIZNS3_6common15ListenerManagerIS5_E16registerListenerES6_EUlS6_E_EEET_SJ_SJ_T0_St26random_access_iterator_tag=so_stub_for_libtelux_tel
-Wl,--defsym=_ZSt9__find_ifIN9__gnu_cxx17__normal_iteratorIPSt8weak_ptrIN5telux3tel21ISubscriptionListenerEESt6vectorIS6_SaIS6_EEEENS0_5__ops10_Iter_predIZNS3_6common15ListenerManagerIS5_E16registerListenerES6_EUlS6_E_EEET_SJ_SJ_T0_=so_stub_for_libtelux_tel
-Wl,--defsym=_ZSt9__find_ifIN9__gnu_cxx17__normal_iteratorIPSt8weak_ptrIN5telux3tel21ISubscriptionListenerEESt6vectorIS6_SaIS6_EEEENS0_5__ops10_Iter_predIZNS3_6common15ListenerManagerIS5_E16registerListenerES6_EUlS6_E_EEET_SJ_SJ_T0_St26random_access_iterator_tag=so_stub_for_libtelux_tel
-Wl,--defsym=_ZSt9__find_ifIN9__gnu_cxx17__normal_iteratorIPSt8weak_ptrIN5telux3tel22ICellBroadcastListenerEESt6vectorIS6_SaIS6_EEEENS0_5__ops10_Iter_predIZNS3_6common15ListenerManagerIS5_E16registerListenerES6_EUlS6_E_EEET_SJ_SJ_T0_=so_stub_for_libtelux_tel
-Wl,--defsym=_ZSt9__find_ifIN9__gnu_cxx17__normal_iteratorIPSt8weak_ptrIN5telux3tel22ICellBroadcastListenerEESt6vectorIS6_SaIS6_EEEENS0_5__ops10_Iter_predIZNS3_6common15ListenerManagerIS5_E16registerListenerES6_EUlS6_E_EEET_SJ_SJ_T0_St26random_access_iterator_tag=so_stub_for_libtelux_tel
-Wl,--defsym=_ZSt9__find_ifIN9__gnu_cxx17__normal_iteratorIPSt8weak_ptrIN5telux3tel22IServingSystemListenerEESt6vectorIS6_SaIS6_EEEENS0_5__ops10_Iter_predIZNS3_6common15ListenerManagerIS5_E16registerListenerES6_EUlS6_E_EEET_SJ_SJ_T0_=so_stub_for_libtelux_tel
-Wl,--defsym=_ZSt9__find_ifIN9__gnu_cxx17__normal_iteratorIPSt8weak_ptrIN5telux3tel22IServingSystemListenerEESt6vectorIS6_SaIS6_EEEENS0_5__ops10_Iter_predIZNS3_6common15ListenerManagerIS5_E16registerListenerES6_EUlS6_E_EEET_SJ_SJ_T0_St26random_access_iterator_tag=so_stub_for_libtelux_tel
-Wl,--defsym=_ZSt9__find_ifIN9__gnu_cxx17__normal_iteratorIPSt8weak_ptrIN5telux3tel25INetworkSelectionListenerEESt6vectorIS6_SaIS6_EEEENS0_5__ops10_Iter_predIZNS3_6common15ListenerManagerIS5_E16registerListenerES6_EUlS6_E_EEET_SJ_SJ_T0_=so_stub_for_libtelux_tel
-Wl,--defsym=_ZSt9__find_ifIN9__gnu_cxx17__normal_iteratorIPSt8weak_ptrIN5telux3tel25INetworkSelectionListenerEESt6vectorIS6_SaIS6_EEEENS0_5__ops10_Iter_predIZNS3_6common15ListenerManagerIS5_E16registerListenerES6_EUlS6_E_EEET_SJ_SJ_T0_St26random_access_iterator_tag=so_stub_for_libtelux_tel
-Wl,--defsym=_ZSt9__find_ifIN9__gnu_cxx17__normal_iteratorIPSt8weak_ptrIN5telux3tel3ril12IRilListenerEESt6vectorIS7_SaIS7_EEEENS0_5__ops10_Iter_predIZNS3_6common15ListenerManagerIS6_E16registerListenerES7_EUlS7_E_EEET_SK_SK_T0_=so_stub_for_libtelux_tel
-Wl,--defsym=_ZSt9__find_ifIN9__gnu_cxx17__normal_iteratorIPSt8weak_ptrIN5telux3tel3ril12IRilListenerEESt6vectorIS7_SaIS7_EEEENS0_5__ops10_Iter_predIZNS3_6common15ListenerManagerIS6_E16registerListenerES7_EUlS7_E_EEET_SK_SK_T0_St26random_access_iterator_tag=so_stub_for_libtelux_tel
-Wl,--defsym=_ZSt9__find_ifIPKcN9__gnu_cxx5__ops16_Iter_equals_valIS0_EEET_S6_S6_T0_St26random_access_iterator_tag=so_stub_for_libtelux_tel
-Wl,--defsym=_ZSteqRKSt10error_codeRKSt15error_condition=so_stub_for_libtelux_tel
-Wl,--defsym=_ZStlsIcSt11char_traitsIcELj16EERSt13basic_ostreamIT_T0_ES6_RKSt6bitsetIXT1_EE=so_stub_for_libtelux_tel
-Wl,--defsym=_ZStplIDsSt11char_traitsIDsESaIDsEENSt7__cxx1112basic_stringIT_T0_T1_EERKS8_SA_=so_stub_for_libtelux_tel
-Wl,--defsym=_ZThn12_N5telux3tel11CallManager33onGetECallHlapTimerStatusResponseEP46voice_get_ecall_hlap_timer_status_resp_msg_v02iiPv=so_stub_for_libtelux_tel
-Wl,--defsym=_ZThn12_N5telux3tel11CallManagerD0Ev=so_stub_for_libtelux_tel
-Wl,--defsym=_ZThn12_N5telux3tel11CallManagerD1Ev=so_stub_for_libtelux_tel
-Wl,--defsym=_ZThn12_N5telux3tel12PhoneManager21onOperatingModeChangeEi=so_stub_for_libtelux_tel
-Wl,--defsym=_ZThn12_N5telux3tel12PhoneManager24onDmsServiceStatusChangeENS_6common13ServiceStatusEi=so_stub_for_libtelux_tel
-Wl,--defsym=_ZThn12_N5telux3tel12PhoneManagerD0Ev=so_stub_for_libtelux_tel
-Wl,--defsym=_ZThn12_N5telux3tel12PhoneManagerD1Ev=so_stub_for_libtelux_tel
-Wl,--defsym=_ZThn12_N5telux3tel15CardManagerImpl23handleSolicitedResponseESt10shared_ptrINS_6common6ResultEE=so_stub_for_libtelux_tel
-Wl,--defsym=_ZThn12_N5telux3tel15CardManagerImpl25handleUnsolicitedResponseESt10shared_ptrINS_6common6ResultEE=so_stub_for_libtelux_tel
-Wl,--defsym=_ZThn12_N5telux3tel15CardManagerImplD0Ev=so_stub_for_libtelux_tel
-Wl,--defsym=_ZThn12_N5telux3tel15CardManagerImplD1Ev=so_stub_for_libtelux_tel
-Wl,--defsym=_ZThn12_N5telux3tel15MultiSimManager21onIndRegisterResponseEii=so_stub_for_libtelux_tel
-Wl,--defsym=_ZThn12_N5telux3tel15MultiSimManagerD0Ev=so_stub_for_libtelux_tel
-Wl,--defsym=_ZThn12_N5telux3tel15MultiSimManagerD1Ev=so_stub_for_libtelux_tel
-Wl,--defsym=_ZThn12_N5telux3tel16SubscriptionImpl24onUimServiceStatusChangeENS_6common13ServiceStatusE=so_stub_for_libtelux_tel
-Wl,--defsym=_ZThn12_N5telux3tel16SubscriptionImplD0Ev=so_stub_for_libtelux_tel
-Wl,--defsym=_ZThn12_N5telux3tel16SubscriptionImplD1Ev=so_stub_for_libtelux_tel
-Wl,--defsym=_ZThn12_N5telux3tel18SapCardManagerImpl20onSapRequestResponseEP28uim_sap_request_resp_msg_v01Pv=so_stub_for_libtelux_tel
-Wl,--defsym=_ZThn12_N5telux3tel18SapCardManagerImplD0Ev=so_stub_for_libtelux_tel
-Wl,--defsym=_ZThn12_N5telux3tel18SapCardManagerImplD1Ev=so_stub_for_libtelux_tel
-Wl,--defsym=_ZThn12_N5telux3tel20ServingSystemManager21onIndRegisterResponseEii=so_stub_for_libtelux_tel
-Wl,--defsym=_ZThn12_N5telux3tel20ServingSystemManagerD0Ev=so_stub_for_libtelux_tel
-Wl,--defsym=_ZThn12_N5telux3tel20ServingSystemManagerD1Ev=so_stub_for_libtelux_tel
-Wl,--defsym=_ZThn12_N5telux3tel23NetworkSelectionManager10onResponseEP39nas_get_preferred_networks_resp_msg_v01Pvi=so_stub_for_libtelux_tel
-Wl,--defsym=_ZThn12_N5telux3tel23NetworkSelectionManagerD0Ev=so_stub_for_libtelux_tel
-Wl,--defsym=_ZThn12_N5telux3tel23NetworkSelectionManagerD1Ev=so_stub_for_libtelux_tel
-Wl,--defsym=_ZThn12_N5telux3tel5Phone21onServiceStatusChangeENS_6common13ServiceStatusE=so_stub_for_libtelux_tel
-Wl,--defsym=_ZThn12_N5telux3tel5PhoneD0Ev=so_stub_for_libtelux_tel
-Wl,--defsym=_ZThn12_N5telux3tel5PhoneD1Ev=so_stub_for_libtelux_tel
-Wl,--defsym=_ZThn16_N5telux3tel11CallManager13onECallStatusEP30voice_ecall_status_ind_msg_v02i=so_stub_for_libtelux_tel
-Wl,--defsym=_ZThn16_N5telux3tel11CallManager22onECallHlapTimerStatusEP41voice_ecall_hlap_timer_status_ind_msg_v02i=so_stub_for_libtelux_tel
-Wl,--defsym=_ZThn16_N5telux3tel11CallManager26onVoiceServiceStatusChangeENS_6common13ServiceStatusEi=so_stub_for_libtelux_tel
-Wl,--defsym=_ZThn16_N5telux3tel11CallManagerD0Ev=so_stub_for_libtelux_tel
-Wl,--defsym=_ZThn16_N5telux3tel11CallManagerD1Ev=so_stub_for_libtelux_tel
-Wl,--defsym=_ZThn16_N5telux3tel12PhoneManager26onVoiceServiceStatusChangeENS_6common13ServiceStatusEi=so_stub_for_libtelux_tel
-Wl,--defsym=_ZThn16_N5telux3tel12PhoneManagerD0Ev=so_stub_for_libtelux_tel
-Wl,--defsym=_ZThn16_N5telux3tel12PhoneManagerD1Ev=so_stub_for_libtelux_tel
-Wl,--defsym=_ZThn16_N5telux3tel16SubscriptionImpl21onServiceStatusChangeENS_6common13ServiceStatusE=so_stub_for_libtelux_tel
-Wl,--defsym=_ZThn16_N5telux3tel16SubscriptionImplD0Ev=so_stub_for_libtelux_tel
-Wl,--defsym=_ZThn16_N5telux3tel16SubscriptionImplD1Ev=so_stub_for_libtelux_tel
-Wl,--defsym=_ZThn16_N5telux3tel23NetworkSelectionManager10onResponseEiPvi=so_stub_for_libtelux_tel
-Wl,--defsym=_ZThn16_N5telux3tel23NetworkSelectionManagerD0Ev=so_stub_for_libtelux_tel
-Wl,--defsym=_ZThn16_N5telux3tel23NetworkSelectionManagerD1Ev=so_stub_for_libtelux_tel
-Wl,--defsym=_ZThn16_N5telux3tel5Phone25voiceServiceStateResponseERKSt10shared_ptrINS0_16VoiceServiceInfoEENS_6common9ErrorCodeE=so_stub_for_libtelux_tel
-Wl,--defsym=_ZThn16_N5telux3tel5PhoneD0Ev=so_stub_for_libtelux_tel
-Wl,--defsym=_ZThn16_N5telux3tel5PhoneD1Ev=so_stub_for_libtelux_tel
-Wl,--defsym=_ZThn20_N5telux3tel11CallManager21onServiceStatusChangeENS_6common13ServiceStatusE=so_stub_for_libtelux_tel
-Wl,--defsym=_ZThn20_N5telux3tel11CallManagerD0Ev=so_stub_for_libtelux_tel
-Wl,--defsym=_ZThn20_N5telux3tel11CallManagerD1Ev=so_stub_for_libtelux_tel
-Wl,--defsym=_ZThn20_N5telux3tel12PhoneManager21onServiceStatusChangeENS_6common13ServiceStatusE=so_stub_for_libtelux_tel
-Wl,--defsym=_ZThn20_N5telux3tel12PhoneManagerD0Ev=so_stub_for_libtelux_tel
-Wl,--defsym=_ZThn20_N5telux3tel12PhoneManagerD1Ev=so_stub_for_libtelux_tel
-Wl,--defsym=_ZThn20_N5telux3tel16SubscriptionImpl32onReadTransparentRequestResponseEP33uim_read_transparent_resp_msg_v01Pv=so_stub_for_libtelux_tel
-Wl,--defsym=_ZThn20_N5telux3tel16SubscriptionImplD0Ev=so_stub_for_libtelux_tel
-Wl,--defsym=_ZThn20_N5telux3tel16SubscriptionImplD1Ev=so_stub_for_libtelux_tel
-Wl,--defsym=_ZThn20_N5telux3tel23NetworkSelectionManager10onResponseEP37nas_perform_network_scan_resp_msg_v01Pvi=so_stub_for_libtelux_tel
-Wl,--defsym=_ZThn20_N5telux3tel23NetworkSelectionManagerD0Ev=so_stub_for_libtelux_tel
-Wl,--defsym=_ZThn20_N5telux3tel23NetworkSelectionManagerD1Ev=so_stub_for_libtelux_tel
-Wl,--defsym=_ZThn20_N5telux3tel5Phone31onSetECallOperatingModeResponseEiPv=so_stub_for_libtelux_tel
-Wl,--defsym=_ZThn20_N5telux3tel5PhoneD0Ev=so_stub_for_libtelux_tel
-Wl,--defsym=_ZThn20_N5telux3tel5PhoneD1Ev=so_stub_for_libtelux_tel
-Wl,--defsym=_ZThn24_N5telux3tel12PhoneManager24setOperatingModeResponseEiPv=so_stub_for_libtelux_tel
-Wl,--defsym=_ZThn24_N5telux3tel12PhoneManagerD0Ev=so_stub_for_libtelux_tel
-Wl,--defsym=_ZThn24_N5telux3tel12PhoneManagerD1Ev=so_stub_for_libtelux_tel
-Wl,--defsym=_ZThn24_N5telux3tel16SubscriptionImpl22onDmsMsisdnRequestRespEP27dms_get_msisdn_resp_msg_v01Pv=so_stub_for_libtelux_tel
-Wl,--defsym=_ZThn24_N5telux3tel16SubscriptionImplD0Ev=so_stub_for_libtelux_tel
-Wl,--defsym=_ZThn24_N5telux3tel16SubscriptionImplD1Ev=so_stub_for_libtelux_tel
-Wl,--defsym=_ZThn24_N5telux3tel23NetworkSelectionManager21onIndRegisterResponseEii=so_stub_for_libtelux_tel
-Wl,--defsym=_ZThn24_N5telux3tel23NetworkSelectionManagerD0Ev=so_stub_for_libtelux_tel
-Wl,--defsym=_ZThn24_N5telux3tel23NetworkSelectionManagerD1Ev=so_stub_for_libtelux_tel
-Wl,--defsym=_ZThn24_N5telux3tel5Phone31onGetECallOperatingModeResponseEiiPv=so_stub_for_libtelux_tel
-Wl,--defsym=_ZThn24_N5telux3tel5PhoneD0Ev=so_stub_for_libtelux_tel
-Wl,--defsym=_ZThn24_N5telux3tel5PhoneD1Ev=so_stub_for_libtelux_tel
-Wl,--defsym=_ZThn28_N5telux3tel12PhoneManager24getOperatingModeResponseEiiPv=so_stub_for_libtelux_tel
-Wl,--defsym=_ZThn28_N5telux3tel12PhoneManagerD0Ev=so_stub_for_libtelux_tel
-Wl,--defsym=_ZThn28_N5telux3tel12PhoneManagerD1Ev=so_stub_for_libtelux_tel
-Wl,--defsym=_ZThn28_N5telux3tel5Phone18onRegisterResponseEi=so_stub_for_libtelux_tel
-Wl,--defsym=_ZThn28_N5telux3tel5PhoneD0Ev=so_stub_for_libtelux_tel
-Wl,--defsym=_ZThn28_N5telux3tel5PhoneD1Ev=so_stub_for_libtelux_tel
-Wl,--defsym=_ZThn32_N5telux3tel12PhoneManager22setEventReportResponseEiPv=so_stub_for_libtelux_tel
-Wl,--defsym=_ZThn32_N5telux3tel12PhoneManagerD0Ev=so_stub_for_libtelux_tel
-Wl,--defsym=_ZThn32_N5telux3tel12PhoneManagerD1Ev=so_stub_for_libtelux_tel
-Wl,--defsym=_ZThn4_N5telux3tel10SmsManager23handleSolicitedResponseESt10shared_ptrINS_6common6ResultEE=so_stub_for_libtelux_tel
-Wl,--defsym=_ZThn4_N5telux3tel10SmsManager25handleUnsolicitedResponseESt10shared_ptrINS_6common6ResultEE=so_stub_for_libtelux_tel
-Wl,--defsym=_ZThn4_N5telux3tel10SmsManagerD0Ev=so_stub_for_libtelux_tel
-Wl,--defsym=_ZThn4_N5telux3tel10SmsManagerD1Ev=so_stub_for_libtelux_tel
-Wl,--defsym=_ZThn4_N5telux3tel11CallManager24onVoiceSetConfigResponseEiPv=so_stub_for_libtelux_tel
-Wl,--defsym=_ZThn4_N5telux3tel11CallManagerD0Ev=so_stub_for_libtelux_tel
-Wl,--defsym=_ZThn4_N5telux3tel11CallManagerD1Ev=so_stub_for_libtelux_tel
-Wl,--defsym=_ZThn4_N5telux3tel11CardAppImpl23handleSolicitedResponseESt10shared_ptrINS_6common6ResultEE=so_stub_for_libtelux_tel
-Wl,--defsym=_ZThn4_N5telux3tel11CardAppImpl25handleUnsolicitedResponseESt10shared_ptrINS_6common6ResultEE=so_stub_for_libtelux_tel
-Wl,--defsym=_ZThn4_N5telux3tel11CardAppImplD0Ev=so_stub_for_libtelux_tel
-Wl,--defsym=_ZThn4_N5telux3tel11CardAppImplD1Ev=so_stub_for_libtelux_tel
-Wl,--defsym=_ZThn4_N5telux3tel12PhoneManager19onRadioStateChangedEiNS0_10RadioStateE=so_stub_for_libtelux_tel
-Wl,--defsym=_ZThn4_N5telux3tel12PhoneManager21onCellInfoListChangedEiSt6vectorISt10shared_ptrINS0_8CellInfoEESaIS5_EE=so_stub_for_libtelux_tel
-Wl,--defsym=_ZThn4_N5telux3tel12PhoneManager21onServiceStateChangedEiNS0_12ServiceStateE=so_stub_for_libtelux_tel
-Wl,--defsym=_ZThn4_N5telux3tel12PhoneManager21onServiceStatusChangeENS_6common13ServiceStatusE=so_stub_for_libtelux_tel
-Wl,--defsym=_ZThn4_N5telux3tel12PhoneManager23onSignalStrengthChangedEiSt10shared_ptrINS0_14SignalStrengthEE=so_stub_for_libtelux_tel
-Wl,--defsym=_ZThn4_N5telux3tel12PhoneManager26onECallOperatingModeChangeEiNS0_13ECallModeInfoE=so_stub_for_libtelux_tel
-Wl,--defsym=_ZThn4_N5telux3tel12PhoneManager26onVoiceServiceStateChangedEiRKSt10shared_ptrINS0_16VoiceServiceInfoEE=so_stub_for_libtelux_tel
-Wl,--defsym=_ZThn4_N5telux3tel12PhoneManager29onVoiceRadioTechnologyChangedEiNS0_15RadioTechnologyE=so_stub_for_libtelux_tel
-Wl,--defsym=_ZThn4_N5telux3tel12PhoneManagerD0Ev=so_stub_for_libtelux_tel
-Wl,--defsym=_ZThn4_N5telux3tel12PhoneManagerD1Ev=so_stub_for_libtelux_tel
-Wl,--defsym=_ZThn4_N5telux3tel15CardManagerImpl24onUimServiceStatusChangeENS_6common13ServiceStatusE=so_stub_for_libtelux_tel
-Wl,--defsym=_ZThn4_N5telux3tel15CardManagerImplD0Ev=so_stub_for_libtelux_tel
-Wl,--defsym=_ZThn4_N5telux3tel15CardManagerImplD1Ev=so_stub_for_libtelux_tel
-Wl,--defsym=_ZThn4_N5telux3tel15MultiSimManager23onHighCapabilityChangedEP35nas_high_capability_sub_ind_msg_v01=so_stub_for_libtelux_tel
-Wl,--defsym=_ZThn4_N5telux3tel15MultiSimManager24onNasServiceStatusChangeENS_6common13ServiceStatusE=so_stub_for_libtelux_tel
-Wl,--defsym=_ZThn4_N5telux3tel15MultiSimManagerD0Ev=so_stub_for_libtelux_tel
-Wl,--defsym=_ZThn4_N5telux3tel15MultiSimManagerD1Ev=so_stub_for_libtelux_tel
-Wl,--defsym=_ZThn4_N5telux3tel16RemoteSimManager23onCardResetNotificationEP33uim_remote_card_reset_ind_msg_v01=so_stub_for_libtelux_tel
-Wl,--defsym=_ZThn4_N5telux3tel16RemoteSimManager25onCardConnectNotificationEP30uim_remote_connect_ind_msg_v01=so_stub_for_libtelux_tel
-Wl,--defsym=_ZThn4_N5telux3tel16RemoteSimManager25onCardPowerUpNotificationEP36uim_remote_card_power_up_ind_msg_v01=so_stub_for_libtelux_tel
-Wl,--defsym=_ZThn4_N5telux3tel16RemoteSimManager26onApduTransferNotificationEP27uim_remote_apdu_ind_msg_v01=so_stub_for_libtelux_tel
-Wl,--defsym=_ZThn4_N5telux3tel16RemoteSimManager27onCardPowerDownNotificationEP38uim_remote_card_power_down_ind_msg_v01=so_stub_for_libtelux_tel
-Wl,--defsym=_ZThn4_N5telux3tel16RemoteSimManager28onCardDisconnectNotificationEP33uim_remote_disconnect_ind_msg_v01=so_stub_for_libtelux_tel
-Wl,--defsym=_ZThn4_N5telux3tel16RemoteSimManager30onRemoteSimServiceStatusChangeENS_6common13ServiceStatusE=so_stub_for_libtelux_tel
-Wl,--defsym=_ZThn4_N5telux3tel16RemoteSimManagerD0Ev=so_stub_for_libtelux_tel
-Wl,--defsym=_ZThn4_N5telux3tel16RemoteSimManagerD1Ev=so_stub_for_libtelux_tel
-Wl,--defsym=_ZThn4_N5telux3tel16SubscriptionImpl23handleSolicitedResponseESt10shared_ptrINS_6common6ResultEE=so_stub_for_libtelux_tel
-Wl,--defsym=_ZThn4_N5telux3tel16SubscriptionImpl25handleUnsolicitedResponseESt10shared_ptrINS_6common6ResultEE=so_stub_for_libtelux_tel
-Wl,--defsym=_ZThn4_N5telux3tel16SubscriptionImplD0Ev=so_stub_for_libtelux_tel
-Wl,--defsym=_ZThn4_N5telux3tel16SubscriptionImplD1Ev=so_stub_for_libtelux_tel
-Wl,--defsym=_ZThn4_N5telux3tel18SapCardManagerImpl24onUimServiceStatusChangeENS_6common13ServiceStatusE=so_stub_for_libtelux_tel
-Wl,--defsym=_ZThn4_N5telux3tel18SapCardManagerImplD0Ev=so_stub_for_libtelux_tel
-Wl,--defsym=_ZThn4_N5telux3tel18SapCardManagerImplD1Ev=so_stub_for_libtelux_tel
-Wl,--defsym=_ZThn4_N5telux3tel19SubscriptionManager21onServiceStatusChangeENS_6common13ServiceStatusE=so_stub_for_libtelux_tel
-Wl,--defsym=_ZThn4_N5telux3tel19SubscriptionManager25onSubscriptionInfoChangedESt10shared_ptrINS0_13ISubscriptionEE=so_stub_for_libtelux_tel
-Wl,--defsym=_ZThn4_N5telux3tel19SubscriptionManagerD0Ev=so_stub_for_libtelux_tel
-Wl,--defsym=_ZThn4_N5telux3tel19SubscriptionManagerD1Ev=so_stub_for_libtelux_tel
-Wl,--defsym=_ZThn4_N5telux3tel20ServingSystemManager19onSystemInfoChangedEP24nas_sys_info_ind_msg_v01=so_stub_for_libtelux_tel
-Wl,--defsym=_ZThn4_N5telux3tel20ServingSystemManager24onNasServiceStatusChangeENS_6common13ServiceStatusE=so_stub_for_libtelux_tel
-Wl,--defsym=_ZThn4_N5telux3tel20ServingSystemManager34onSystemSelectionPreferenceChangedEP43nas_system_selection_preference_ind_msg_v01=so_stub_for_libtelux_tel
-Wl,--defsym=_ZThn4_N5telux3tel20ServingSystemManagerD0Ev=so_stub_for_libtelux_tel
-Wl,--defsym=_ZThn4_N5telux3tel20ServingSystemManagerD1Ev=so_stub_for_libtelux_tel
-Wl,--defsym=_ZThn4_N5telux3tel21SimProfileManagerImpl15onAddProfileIndERK27uim_add_profile_ind_msg_v01=so_stub_for_libtelux_tel
-Wl,--defsym=_ZThn4_N5telux3tel21SimProfileManagerImpl24onUimServiceStatusChangeENS_6common13ServiceStatusE=so_stub_for_libtelux_tel
-Wl,--defsym=_ZThn4_N5telux3tel21SimProfileManagerImplD0Ev=so_stub_for_libtelux_tel
-Wl,--defsym=_ZThn4_N5telux3tel21SimProfileManagerImplD1Ev=so_stub_for_libtelux_tel
-Wl,--defsym=_ZThn4_N5telux3tel23NetworkSelectionManager24onNasServiceStatusChangeENS_6common13ServiceStatusE=so_stub_for_libtelux_tel
-Wl,--defsym=_ZThn4_N5telux3tel23NetworkSelectionManager34onSystemSelectionPreferenceChangedEP43nas_system_selection_preference_ind_msg_v01=so_stub_for_libtelux_tel
-Wl,--defsym=_ZThn4_N5telux3tel23NetworkSelectionManagerD0Ev=so_stub_for_libtelux_tel
-Wl,--defsym=_ZThn4_N5telux3tel23NetworkSelectionManagerD1Ev=so_stub_for_libtelux_tel
-Wl,--defsym=_ZThn4_N5telux3tel24CellBroadcastManagerImpl23onEventReportIndicationEP28wms_event_report_ind_msg_v01=so_stub_for_libtelux_tel
-Wl,--defsym=_ZThn4_N5telux3tel24CellBroadcastManagerImpl24onWmsServiceStatusChangeENS_6common13ServiceStatusE=so_stub_for_libtelux_tel
-Wl,--defsym=_ZThn4_N5telux3tel24CellBroadcastManagerImpl31onBroadcastConfigurationChangedEP32wms_broadcast_config_ind_msg_v01=so_stub_for_libtelux_tel
-Wl,--defsym=_ZThn4_N5telux3tel24CellBroadcastManagerImplD0Ev=so_stub_for_libtelux_tel
-Wl,--defsym=_ZThn4_N5telux3tel24CellBroadcastManagerImplD1Ev=so_stub_for_libtelux_tel
-Wl,--defsym=_ZThn4_N5telux3tel4Call23handleSolicitedResponseESt10shared_ptrINS_6common6ResultEE=so_stub_for_libtelux_tel
-Wl,--defsym=_ZThn4_N5telux3tel4Call25handleUnsolicitedResponseESt10shared_ptrINS_6common6ResultEE=so_stub_for_libtelux_tel
-Wl,--defsym=_ZThn4_N5telux3tel4CallD0Ev=so_stub_for_libtelux_tel
-Wl,--defsym=_ZThn4_N5telux3tel4CallD1Ev=so_stub_for_libtelux_tel
-Wl,--defsym=_ZThn4_N5telux3tel5Phone23handleSolicitedResponseESt10shared_ptrINS_6common6ResultEE=so_stub_for_libtelux_tel
-Wl,--defsym=_ZThn4_N5telux3tel5Phone25handleUnsolicitedResponseESt10shared_ptrINS_6common6ResultEE=so_stub_for_libtelux_tel
-Wl,--defsym=_ZThn4_N5telux3tel5PhoneD0Ev=so_stub_for_libtelux_tel
-Wl,--defsym=_ZThn4_N5telux3tel5PhoneD1Ev=so_stub_for_libtelux_tel
-Wl,--defsym=_ZThn4_N5telux3tel8CardImpl23handleSolicitedResponseESt10shared_ptrINS_6common6ResultEE=so_stub_for_libtelux_tel
-Wl,--defsym=_ZThn4_N5telux3tel8CardImpl25handleUnsolicitedResponseESt10shared_ptrINS_6common6ResultEE=so_stub_for_libtelux_tel
-Wl,--defsym=_ZThn4_N5telux3tel8CardImplD0Ev=so_stub_for_libtelux_tel
-Wl,--defsym=_ZThn4_N5telux3tel8CardImplD1Ev=so_stub_for_libtelux_tel
-Wl,--defsym=_ZThn8_N5telux3tel10SmsManager21onServiceStatusChangeENS_6common13ServiceStatusE=so_stub_for_libtelux_tel
-Wl,--defsym=_ZThn8_N5telux3tel10SmsManagerD0Ev=so_stub_for_libtelux_tel
-Wl,--defsym=_ZThn8_N5telux3tel10SmsManagerD1Ev=so_stub_for_libtelux_tel
-Wl,--defsym=_ZThn8_N5telux3tel11CallManager18onRegisterResponseEi=so_stub_for_libtelux_tel
-Wl,--defsym=_ZThn8_N5telux3tel11CallManagerD0Ev=so_stub_for_libtelux_tel
-Wl,--defsym=_ZThn8_N5telux3tel11CallManagerD1Ev=so_stub_for_libtelux_tel
-Wl,--defsym=_ZThn8_N5telux3tel12PhoneManager29getCellularCapabilityResponseEP31dms_get_device_cap_resp_msg_v01iPv=so_stub_for_libtelux_tel
-Wl,--defsym=_ZThn8_N5telux3tel12PhoneManagerD0Ev=so_stub_for_libtelux_tel
-Wl,--defsym=_ZThn8_N5telux3tel12PhoneManagerD1Ev=so_stub_for_libtelux_tel
-Wl,--defsym=_ZThn8_N5telux3tel15CardManagerImpl21onServiceStatusChangeENS_6common13ServiceStatusE=so_stub_for_libtelux_tel
-Wl,--defsym=_ZThn8_N5telux3tel15CardManagerImplD0Ev=so_stub_for_libtelux_tel
-Wl,--defsym=_ZThn8_N5telux3tel15CardManagerImplD1Ev=so_stub_for_libtelux_tel
-Wl,--defsym=_ZThn8_N5telux3tel15MultiSimManager19onSlotStatusChangedE34uim_slot_status_change_ind_msg_v01=so_stub_for_libtelux_tel
-Wl,--defsym=_ZThn8_N5telux3tel15MultiSimManager24onUimServiceStatusChangeENS_6common13ServiceStatusE=so_stub_for_libtelux_tel
-Wl,--defsym=_ZThn8_N5telux3tel15MultiSimManagerD0Ev=so_stub_for_libtelux_tel
-Wl,--defsym=_ZThn8_N5telux3tel15MultiSimManagerD1Ev=so_stub_for_libtelux_tel
-Wl,--defsym=_ZThn8_N5telux3tel16SubscriptionImpl24onDmsServiceStatusChangeENS_6common13ServiceStatusEi=so_stub_for_libtelux_tel
-Wl,--defsym=_ZThn8_N5telux3tel16SubscriptionImplD0Ev=so_stub_for_libtelux_tel
-Wl,--defsym=_ZThn8_N5telux3tel16SubscriptionImplD1Ev=so_stub_for_libtelux_tel
-Wl,--defsym=_ZThn8_N5telux3tel18SapCardManagerImpl23onSapConnectionResponseEP31uim_sap_connection_resp_msg_v01Pv=so_stub_for_libtelux_tel
-Wl,--defsym=_ZThn8_N5telux3tel18SapCardManagerImplD0Ev=so_stub_for_libtelux_tel
-Wl,--defsym=_ZThn8_N5telux3tel18SapCardManagerImplD1Ev=so_stub_for_libtelux_tel
-Wl,--defsym=_ZThn8_N5telux3tel19SubscriptionManager17onCardInfoChangedEi=so_stub_for_libtelux_tel
-Wl,--defsym=_ZThn8_N5telux3tel19SubscriptionManager21onServiceStatusChangeENS_6common13ServiceStatusE=so_stub_for_libtelux_tel
-Wl,--defsym=_ZThn8_N5telux3tel19SubscriptionManagerD0Ev=so_stub_for_libtelux_tel
-Wl,--defsym=_ZThn8_N5telux3tel19SubscriptionManagerD1Ev=so_stub_for_libtelux_tel
-Wl,--defsym=_ZThn8_N5telux3tel20ServingSystemManager10onResponseEiPvi=so_stub_for_libtelux_tel
-Wl,--defsym=_ZThn8_N5telux3tel20ServingSystemManagerD0Ev=so_stub_for_libtelux_tel
-Wl,--defsym=_ZThn8_N5telux3tel20ServingSystemManagerD1Ev=so_stub_for_libtelux_tel
-Wl,--defsym=_ZThn8_N5telux3tel23NetworkSelectionManager10onResponseEiPvi=so_stub_for_libtelux_tel
-Wl,--defsym=_ZThn8_N5telux3tel23NetworkSelectionManagerD0Ev=so_stub_for_libtelux_tel
-Wl,--defsym=_ZThn8_N5telux3tel23NetworkSelectionManagerD1Ev=so_stub_for_libtelux_tel
-Wl,--defsym=_ZThn8_N5telux3tel4Call19onDialECallResponseEP28voice_dial_call_resp_msg_v02Pv=so_stub_for_libtelux_tel
-Wl,--defsym=_ZThn8_N5telux3tel4CallD0Ev=so_stub_for_libtelux_tel
-Wl,--defsym=_ZThn8_N5telux3tel4CallD1Ev=so_stub_for_libtelux_tel
-Wl,--defsym=_ZThn8_N5telux3tel5Phone15onECallOprtModeEP33voice_ecall_oprt_mode_ind_msg_v02i=so_stub_for_libtelux_tel
-Wl,--defsym=_ZThn8_N5telux3tel5Phone26onVoiceServiceStatusChangeENS_6common13ServiceStatusEi=so_stub_for_libtelux_tel
-Wl,--defsym=_ZThn8_N5telux3tel5PhoneD0Ev=so_stub_for_libtelux_tel
-Wl,--defsym=_ZThn8_N5telux3tel5PhoneD1Ev=so_stub_for_libtelux_tel
-Wl,--defsym=_ZThn8_N5telux3tel8CardImpl24onUimServiceStatusChangeENS_6common13ServiceStatusE=so_stub_for_libtelux_tel
-Wl,--defsym=_ZThn8_N5telux3tel8CardImplD0Ev=so_stub_for_libtelux_tel
-Wl,--defsym=_ZThn8_N5telux3tel8CardImplD1Ev=so_stub_for_libtelux_tel
-Wl,--defsym=_ZTI17CmasCellbroadcast=so_stub_for_libtelux_tel
-Wl,--defsym=_ZTI20GsmCmasCellbroadcast=so_stub_for_libtelux_tel
-Wl,--defsym=_ZTI21UmtsCmasCellbroadcast=so_stub_for_libtelux_tel
-Wl,--defsym=_ZTIN5telux3qmi12IQmiListenerE=so_stub_for_libtelux_tel
-Wl,--defsym=_ZTIN5telux3qmi15IQmiDmsListenerE=so_stub_for_libtelux_tel
-Wl,--defsym=_ZTIN5telux3qmi15IQmiNasListenerE=so_stub_for_libtelux_tel
-Wl,--defsym=_ZTIN5telux3qmi15IQmiUimListenerE=so_stub_for_libtelux_tel
-Wl,--defsym=_ZTIN5telux3qmi15IQmiWmsListenerE=so_stub_for_libtelux_tel
-Wl,--defsym=_ZTIN5telux3qmi17IQmiVoiceListenerE=so_stub_for_libtelux_tel
-Wl,--defsym=_ZTIN5telux3qmi21IQmiUimRemoteListenerE=so_stub_for_libtelux_tel
-Wl,--defsym=_ZTIN5telux3qmi22IQmiSapRequestCallbackE=so_stub_for_libtelux_tel
-Wl,--defsym=_ZTIN5telux3qmi24IQmiECallRequestCallbackE=so_stub_for_libtelux_tel
-Wl,--defsym=_ZTIN5telux3qmi25IQmiMsisdnRequestCallbackE=so_stub_for_libtelux_tel
-Wl,--defsym=_ZTIN5telux3qmi25IQmiSapConnectionCallbackE=so_stub_for_libtelux_tel
-Wl,--defsym=_ZTIN5telux3qmi26IQmiSetEventReportCallbackE=so_stub_for_libtelux_tel
-Wl,--defsym=_ZTIN5telux3qmi26IQmiVoiceSetConfigCallbackE=so_stub_for_libtelux_tel
-Wl,--defsym=_ZTIN5telux3qmi28IQmiGetOperatingModeCallbackE=so_stub_for_libtelux_tel
-Wl,--defsym=_ZTIN5telux3qmi28IQmiSetOperatingModeCallbackE=so_stub_for_libtelux_tel
-Wl,--defsym=_ZTIN5telux3qmi30IQmiCellularCapabilityCallbackE=so_stub_for_libtelux_tel
-Wl,--defsym=_ZTIN5telux3qmi30IQmiPerformNetworkScanCallbackE=so_stub_for_libtelux_tel
-Wl,--defsym=_ZTIN5telux3qmi32IQmiGetPreferredNetworksCallbackE=so_stub_for_libtelux_tel
-Wl,--defsym=_ZTIN5telux3qmi32IQmiSetPreferredNetworksCallbackE=so_stub_for_libtelux_tel
-Wl,--defsym=_ZTIN5telux3qmi33IQmiGetECallOperatingModeCallbackE=so_stub_for_libtelux_tel
-Wl,--defsym=_ZTIN5telux3qmi33IQmiSetECallOperatingModeCallbackE=so_stub_for_libtelux_tel
-Wl,--defsym=_ZTIN5telux3qmi34IQmiReadTransparentRequestCallbackE=so_stub_for_libtelux_tel
-Wl,--defsym=_ZTIN5telux3qmi34IQmiRegisterNasIndicationsCallbackE=so_stub_for_libtelux_tel
-Wl,--defsym=_ZTIN5telux3qmi35IQmiGetECallHlapTimerStatusCallbackE=so_stub_for_libtelux_tel
-Wl,--defsym=_ZTIN5telux3qmi36IQmiRegisterVoiceIndicationsCallbackE=so_stub_for_libtelux_tel
-Wl,--defsym=_ZTIN5telux3qmi40IQmiSetSystemSelectionPreferenceCallbackE=so_stub_for_libtelux_tel
-Wl,--defsym=_ZTIN5telux3tel10SmsManagerE=so_stub_for_libtelux_tel
-Wl,--defsym=_ZTIN5telux3tel11CallManager15ResponseHandlerE=so_stub_for_libtelux_tel
-Wl,--defsym=_ZTIN5telux3tel11CallManagerE=so_stub_for_libtelux_tel
-Wl,--defsym=_ZTIN5telux3tel11CardAppImplE=so_stub_for_libtelux_tel
-Wl,--defsym=_ZTIN5telux3tel11GsmCellInfoE=so_stub_for_libtelux_tel
-Wl,--defsym=_ZTIN5telux3tel11ISmsManagerE=so_stub_for_libtelux_tel
-Wl,--defsym=_ZTIN5telux3tel11LteCellInfoE=so_stub_for_libtelux_tel
-Wl,--defsym=_ZTIN5telux3tel12CdmaCellInfoE=so_stub_for_libtelux_tel
-Wl,--defsym=_ZTIN5telux3tel12ICallManagerE=so_stub_for_libtelux_tel
-Wl,--defsym=_ZTIN5telux3tel12ICardManagerE=so_stub_for_libtelux_tel
-Wl,--defsym=_ZTIN5telux3tel12PhoneManagerE=so_stub_for_libtelux_tel
-Wl,--defsym=_ZTIN5telux3tel13ICardListenerE=so_stub_for_libtelux_tel
-Wl,--defsym=_ZTIN5telux3tel13IPhoneManagerE=so_stub_for_libtelux_tel
-Wl,--defsym=_ZTIN5telux3tel13ISubscriptionE=so_stub_for_libtelux_tel
-Wl,--defsym=_ZTIN5telux3tel13WcdmaCellInfoE=so_stub_for_libtelux_tel
-Wl,--defsym=_ZTIN5telux3tel14IPhoneListenerE=so_stub_for_libtelux_tel
-Wl,--defsym=_ZTIN5telux3tel15CardManagerImplE=so_stub_for_libtelux_tel
-Wl,--defsym=_ZTIN5telux3tel15ISapCardManagerE=so_stub_for_libtelux_tel
-Wl,--defsym=_ZTIN5telux3tel15MultiSimManagerE=so_stub_for_libtelux_tel
-Wl,--defsym=_ZTIN5telux3tel15TdscdmaCellInfoE=so_stub_for_libtelux_tel
-Wl,--defsym=_ZTIN5telux3tel16IMultiSimManagerE=so_stub_for_libtelux_tel
-Wl,--defsym=_ZTIN5telux3tel16RemoteSimManagerE=so_stub_for_libtelux_tel
-Wl,--defsym=_ZTIN5telux3tel16SubscriptionImplE=so_stub_for_libtelux_tel
-Wl,--defsym=_ZTIN5telux3tel17IRemoteSimManagerE=so_stub_for_libtelux_tel
-Wl,--defsym=_ZTIN5telux3tel18ISimProfileManagerE=so_stub_for_libtelux_tel
-Wl,--defsym=_ZTIN5telux3tel18SapCardManagerImplE=so_stub_for_libtelux_tel
-Wl,--defsym=_ZTIN5telux3tel19SubscriptionManagerE=so_stub_for_libtelux_tel
-Wl,--defsym=_ZTIN5telux3tel20ISubscriptionManagerE=so_stub_for_libtelux_tel
-Wl,--defsym=_ZTIN5telux3tel20ServingSystemManagerE=so_stub_for_libtelux_tel
-Wl,--defsym=_ZTIN5telux3tel21ICellBroadcastManagerE=so_stub_for_libtelux_tel
-Wl,--defsym=_ZTIN5telux3tel21IServingSystemManagerE=so_stub_for_libtelux_tel
-Wl,--defsym=_ZTIN5telux3tel21ISubscriptionListenerE=so_stub_for_libtelux_tel
-Wl,--defsym=_ZTIN5telux3tel21SimProfileManagerImplE=so_stub_for_libtelux_tel
-Wl,--defsym=_ZTIN5telux3tel23NetworkSelectionManagerE=so_stub_for_libtelux_tel
-Wl,--defsym=_ZTIN5telux3tel24CellBroadcastManagerImplE=so_stub_for_libtelux_tel
-Wl,--defsym=_ZTIN5telux3tel24INetworkSelectionManagerE=so_stub_for_libtelux_tel
-Wl,--defsym=_ZTIN5telux3tel26IVoiceServiceStateCallbackE=so_stub_for_libtelux_tel
-Wl,--defsym=_ZTIN5telux3tel3ril12IRilListenerE=so_stub_for_libtelux_tel
-Wl,--defsym=_ZTIN5telux3tel3ril15ISocketListenerE=so_stub_for_libtelux_tel
-Wl,--defsym=_ZTIN5telux3tel3ril3Ril14SocketListenerE=so_stub_for_libtelux_tel
-Wl,--defsym=_ZTIN5telux3tel4CallE=so_stub_for_libtelux_tel
-Wl,--defsym=_ZTIN5telux3tel5ICallE=so_stub_for_libtelux_tel
-Wl,--defsym=_ZTIN5telux3tel5ICardE=so_stub_for_libtelux_tel
-Wl,--defsym=_ZTIN5telux3tel5PhoneE=so_stub_for_libtelux_tel
-Wl,--defsym=_ZTIN5telux3tel5Utils19ParcelReadExceptionE=so_stub_for_libtelux_tel
-Wl,--defsym=_ZTIN5telux3tel6IPhoneE=so_stub_for_libtelux_tel
-Wl,--defsym=_ZTIN5telux3tel8CardImplE=so_stub_for_libtelux_tel
-Wl,--defsym=_ZTIN5telux3tel8CellInfoE=so_stub_for_libtelux_tel
-Wl,--defsym=_ZTIN5telux3tel8ICardAppE=so_stub_for_libtelux_tel
-Wl,--defsym=_ZTIN5telux6common15ResponseHandlerE=so_stub_for_libtelux_tel
-Wl,--defsym=_ZTIN5telux6common16ICommandCallbackE=so_stub_for_libtelux_tel
-Wl,--defsym=_ZTIN5telux6common18FunctionalCallbackIJbbNS0_9ErrorCodeEEEE=so_stub_for_libtelux_tel
-Wl,--defsym=_ZTIN5telux6common18FunctionalCallbackIJbNS0_9ErrorCodeEEEE=so_stub_for_libtelux_tel
-Wl,--defsym=_ZTIN5telux6common18FunctionalCallbackIJiNS0_9ErrorCodeEEEE=so_stub_for_libtelux_tel
-Wl,--defsym=_ZTIN5telux6common18FunctionalCallbackIJNS0_9ErrorCodeEEEE=so_stub_for_libtelux_tel
-Wl,--defsym=_ZTIN5telux6common18FunctionalCallbackIJNS0_9ErrorCodeEiNS_3tel20ECallHlapTimerStatusEEEE=so_stub_for_libtelux_tel
-Wl,--defsym=_ZTIN5telux6common18FunctionalCallbackIJNS0_9ErrorCodeESt10shared_ptrINS_3tel5ICallEEEEE=so_stub_for_libtelux_tel
-Wl,--defsym=_ZTIN5telux6common18FunctionalCallbackIJNS_3tel15RadioTechnologyENS0_9ErrorCodeEEEE=so_stub_for_libtelux_tel
-Wl,--defsym=_ZTIN5telux6common18FunctionalCallbackIJNS_3tel20NetworkSelectionModeENS0_9ErrorCodeEEEE=so_stub_for_libtelux_tel
-Wl,--defsym=_ZTIN5telux6common18FunctionalCallbackIJNS_3tel23ServiceDomainPreferenceENS0_9ErrorCodeEEEE=so_stub_for_libtelux_tel
-Wl,--defsym=_ZTIN5telux6common18FunctionalCallbackIJNS_3tel8SapStateENS0_9ErrorCodeEEEE=so_stub_for_libtelux_tel
-Wl,--defsym=_ZTIN5telux6common18FunctionalCallbackIJNS_3tel9ECallModeENS0_9ErrorCodeEEEE=so_stub_for_libtelux_tel
-Wl,--defsym=_ZTIN5telux6common18FunctionalCallbackIJNSt7__cxx1112basic_stringIcSt11char_traitsIcESaIcEEENS0_9ErrorCodeEEEE=so_stub_for_libtelux_tel
-Wl,--defsym=_ZTIN5telux6common18FunctionalCallbackIJRKNSt7__cxx1112basic_stringIcSt11char_traitsIcESaIcEEENS0_9ErrorCodeEEEE=so_stub_for_libtelux_tel
-Wl,--defsym=_ZTIN5telux6common18FunctionalCallbackIJRKSt6vectorISt10shared_ptrINS_3tel10SimProfileEESaIS6_EENS0_9ErrorCodeEEEE=so_stub_for_libtelux_tel
-Wl,--defsym=_ZTIN5telux6common18FunctionalCallbackIJSt3mapI6SlotIdNS_3tel10SlotStatusESt4lessIS3_ESaISt4pairIKS3_S5_EEENS0_9ErrorCodeEEEE=so_stub_for_libtelux_tel
-Wl,--defsym=_ZTIN5telux6common18FunctionalCallbackIJSt6bitsetILj16EENS0_9ErrorCodeEEEE=so_stub_for_libtelux_tel
-Wl,--defsym=_ZTIN5telux6common18FunctionalCallbackIJSt6vectorINS_3tel12OperatorInfoESaIS4_EENS0_9ErrorCodeEEEE=so_stub_for_libtelux_tel
-Wl,--defsym=_ZTIN5telux6common18FunctionalCallbackIJSt6vectorINS_3tel19CellBroadcastFilterESaIS4_EENS0_9ErrorCodeEEEE=so_stub_for_libtelux_tel
-Wl,--defsym=_ZTIN5telux6common18FunctionalCallbackIJSt6vectorINS_3tel20PreferredNetworkInfoESaIS4_EES6_NS0_9ErrorCodeEEEE=so_stub_for_libtelux_tel
-Wl,--defsym=_ZTIN5telux6common18FunctionalCallbackIJSt6vectorISt10shared_ptrINS_3tel8CellInfoEESaIS6_EENS0_9ErrorCodeEEEE=so_stub_for_libtelux_tel
-Wl,--defsym=_ZTIN5telux6common22IServiceStatusListenerE=so_stub_for_libtelux_tel
-Wl,--defsym=_ZTINSt13__future_base13_State_baseV2E=so_stub_for_libtelux_tel
-Wl,--defsym=_ZTINSt13__future_base21_Async_state_commonV2E=so_stub_for_libtelux_tel
-Wl,--defsym=_ZTINSt13__future_base7_ResultIbEE=so_stub_for_libtelux_tel
-Wl,--defsym=_ZTINSt13__future_base7_ResultIvEE=so_stub_for_libtelux_tel
-Wl,--defsym=_ZTINSt8__detail11_AnyMatcherINSt7__cxx1112regex_traitsIcEELb0ELb0ELb0EEE=so_stub_for_libtelux_tel
-Wl,--defsym=_ZTINSt8__detail11_AnyMatcherINSt7__cxx1112regex_traitsIcEELb0ELb0ELb1EEE=so_stub_for_libtelux_tel
-Wl,--defsym=_ZTINSt8__detail11_AnyMatcherINSt7__cxx1112regex_traitsIcEELb0ELb1ELb0EEE=so_stub_for_libtelux_tel
-Wl,--defsym=_ZTINSt8__detail11_AnyMatcherINSt7__cxx1112regex_traitsIcEELb0ELb1ELb1EEE=so_stub_for_libtelux_tel
-Wl,--defsym=_ZTINSt8__detail11_AnyMatcherINSt7__cxx1112regex_traitsIcEELb1ELb0ELb0EEE=so_stub_for_libtelux_tel
-Wl,--defsym=_ZTINSt8__detail11_AnyMatcherINSt7__cxx1112regex_traitsIcEELb1ELb0ELb1EEE=so_stub_for_libtelux_tel
-Wl,--defsym=_ZTINSt8__detail11_AnyMatcherINSt7__cxx1112regex_traitsIcEELb1ELb1ELb0EEE=so_stub_for_libtelux_tel
-Wl,--defsym=_ZTINSt8__detail11_AnyMatcherINSt7__cxx1112regex_traitsIcEELb1ELb1ELb1EEE=so_stub_for_libtelux_tel
-Wl,--defsym=_ZTINSt8__detail12_CharMatcherINSt7__cxx1112regex_traitsIcEELb0ELb0EEE=so_stub_for_libtelux_tel
-Wl,--defsym=_ZTINSt8__detail12_CharMatcherINSt7__cxx1112regex_traitsIcEELb0ELb1EEE=so_stub_for_libtelux_tel
-Wl,--defsym=_ZTINSt8__detail12_CharMatcherINSt7__cxx1112regex_traitsIcEELb1ELb0EEE=so_stub_for_libtelux_tel
-Wl,--defsym=_ZTINSt8__detail12_CharMatcherINSt7__cxx1112regex_traitsIcEELb1ELb1EEE=so_stub_for_libtelux_tel
-Wl,--defsym=_ZTINSt8__detail15_BracketMatcherINSt7__cxx1112regex_traitsIcEELb0ELb0EEE=so_stub_for_libtelux_tel
-Wl,--defsym=_ZTINSt8__detail15_BracketMatcherINSt7__cxx1112regex_traitsIcEELb0ELb1EEE=so_stub_for_libtelux_tel
-Wl,--defsym=_ZTINSt8__detail15_BracketMatcherINSt7__cxx1112regex_traitsIcEELb1ELb0EEE=so_stub_for_libtelux_tel
-Wl,--defsym=_ZTINSt8__detail15_BracketMatcherINSt7__cxx1112regex_traitsIcEELb1ELb1EEE=so_stub_for_libtelux_tel
-Wl,--defsym=_ZTISt11_Mutex_baseILN9__gnu_cxx12_Lock_policyE2EE=so_stub_for_libtelux_tel
-Wl,--defsym=_ZTISt16_Sp_counted_baseILN9__gnu_cxx12_Lock_policyE2EE=so_stub_for_libtelux_tel
-Wl,--defsym=_ZTISt18codecvt_utf8_utf16IDsLm1114111ELSt12codecvt_mode0EE=so_stub_for_libtelux_tel
-Wl,--defsym=_ZTISt19_Sp_make_shared_tag=so_stub_for_libtelux_tel
-Wl,--defsym=_ZTISt23enable_shared_from_thisIN5telux3tel10SmsManagerEE=so_stub_for_libtelux_tel
-Wl,--defsym=_ZTISt23enable_shared_from_thisIN5telux3tel11CallManagerEE=so_stub_for_libtelux_tel
-Wl,--defsym=_ZTISt23enable_shared_from_thisIN5telux3tel11CardAppImplEE=so_stub_for_libtelux_tel
-Wl,--defsym=_ZTISt23enable_shared_from_thisIN5telux3tel12PhoneManagerEE=so_stub_for_libtelux_tel
-Wl,--defsym=_ZTISt23enable_shared_from_thisIN5telux3tel15CardManagerImplEE=so_stub_for_libtelux_tel
-Wl,--defsym=_ZTISt23enable_shared_from_thisIN5telux3tel15MultiSimManagerEE=so_stub_for_libtelux_tel
-Wl,--defsym=_ZTISt23enable_shared_from_thisIN5telux3tel16RemoteSimManagerEE=so_stub_for_libtelux_tel
-Wl,--defsym=_ZTISt23enable_shared_from_thisIN5telux3tel16SubscriptionImplEE=so_stub_for_libtelux_tel
-Wl,--defsym=_ZTISt23enable_shared_from_thisIN5telux3tel18SapCardManagerImplEE=so_stub_for_libtelux_tel
-Wl,--defsym=_ZTISt23enable_shared_from_thisIN5telux3tel19SubscriptionManagerEE=so_stub_for_libtelux_tel
-Wl,--defsym=_ZTISt23enable_shared_from_thisIN5telux3tel20ServingSystemManagerEE=so_stub_for_libtelux_tel
-Wl,--defsym=_ZTISt23enable_shared_from_thisIN5telux3tel21SimProfileManagerImplEE=so_stub_for_libtelux_tel
-Wl,--defsym=_ZTISt23enable_shared_from_thisIN5telux3tel23NetworkSelectionManagerEE=so_stub_for_libtelux_tel
-Wl,--defsym=_ZTISt23enable_shared_from_thisIN5telux3tel24CellBroadcastManagerImplEE=so_stub_for_libtelux_tel
-Wl,--defsym=_ZTISt23enable_shared_from_thisIN5telux3tel4CallEE=so_stub_for_libtelux_tel
-Wl,--defsym=_ZTISt23enable_shared_from_thisIN5telux3tel5PhoneEE=so_stub_for_libtelux_tel
-Wl,--defsym=_ZTISt23enable_shared_from_thisIN5telux3tel8CardImplEE=so_stub_for_libtelux_tel
-Wl,--defsym=_ZTISt23_Sp_counted_ptr_inplaceI6ParcelSaIS0_ELN9__gnu_cxx12_Lock_policyE2EE=so_stub_for_libtelux_tel
-Wl,--defsym=_ZTISt23_Sp_counted_ptr_inplaceIN5telux3tel10SimProfileESaIS2_ELN9__gnu_cxx12_Lock_policyE2EE=so_stub_for_libtelux_tel
-Wl,--defsym=_ZTISt23_Sp_counted_ptr_inplaceIN5telux3tel10SmsManagerESaIS2_ELN9__gnu_cxx12_Lock_policyE2EE=so_stub_for_libtelux_tel
-Wl,--defsym=_ZTISt23_Sp_counted_ptr_inplaceIN5telux3tel10SmsMessageESaIS2_ELN9__gnu_cxx12_Lock_policyE2EE=so_stub_for_libtelux_tel
-Wl,--defsym=_ZTISt23_Sp_counted_ptr_inplaceIN5telux3tel11CallManager15ResponseHandlerESaIS3_ELN9__gnu_cxx12_Lock_policyE2EE=so_stub_for_libtelux_tel
-Wl,--defsym=_ZTISt23_Sp_counted_ptr_inplaceIN5telux3tel11CallManagerESaIS2_ELN9__gnu_cxx12_Lock_policyE2EE=so_stub_for_libtelux_tel
-Wl,--defsym=_ZTISt23_Sp_counted_ptr_inplaceIN5telux3tel11CardAppImplESaIS2_ELN9__gnu_cxx12_Lock_policyE2EE=so_stub_for_libtelux_tel
-Wl,--defsym=_ZTISt23_Sp_counted_ptr_inplaceIN5telux3tel11GsmCellInfoESaIS2_ELN9__gnu_cxx12_Lock_policyE2EE=so_stub_for_libtelux_tel
-Wl,--defsym=_ZTISt23_Sp_counted_ptr_inplaceIN5telux3tel11LteCellInfoESaIS2_ELN9__gnu_cxx12_Lock_policyE2EE=so_stub_for_libtelux_tel
-Wl,--defsym=_ZTISt23_Sp_counted_ptr_inplaceIN5telux3tel12CdmaCellInfoESaIS2_ELN9__gnu_cxx12_Lock_policyE2EE=so_stub_for_libtelux_tel
-Wl,--defsym=_ZTISt23_Sp_counted_ptr_inplaceIN5telux3tel12PhoneManagerESaIS2_ELN9__gnu_cxx12_Lock_policyE2EE=so_stub_for_libtelux_tel
-Wl,--defsym=_ZTISt23_Sp_counted_ptr_inplaceIN5telux3tel13WcdmaCellInfoESaIS2_ELN9__gnu_cxx12_Lock_policyE2EE=so_stub_for_libtelux_tel
-Wl,--defsym=_ZTISt23_Sp_counted_ptr_inplaceIN5telux3tel14SignalStrengthESaIS2_ELN9__gnu_cxx12_Lock_policyE2EE=so_stub_for_libtelux_tel
-Wl,--defsym=_ZTISt23_Sp_counted_ptr_inplaceIN5telux3tel15CardManagerImplESaIS2_ELN9__gnu_cxx12_Lock_policyE2EE=so_stub_for_libtelux_tel
-Wl,--defsym=_ZTISt23_Sp_counted_ptr_inplaceIN5telux3tel15MultiSimManagerESaIS2_ELN9__gnu_cxx12_Lock_policyE2EE=so_stub_for_libtelux_tel
-Wl,--defsym=_ZTISt23_Sp_counted_ptr_inplaceIN5telux3tel15TdscdmaCellInfoESaIS2_ELN9__gnu_cxx12_Lock_policyE2EE=so_stub_for_libtelux_tel
-Wl,--defsym=_ZTISt23_Sp_counted_ptr_inplaceIN5telux3tel16RemoteSimManagerESaIS2_ELN9__gnu_cxx12_Lock_policyE2EE=so_stub_for_libtelux_tel
-Wl,--defsym=_ZTISt23_Sp_counted_ptr_inplaceIN5telux3tel16SubscriptionImplESaIS2_ELN9__gnu_cxx12_Lock_policyE2EE=so_stub_for_libtelux_tel
-Wl,--defsym=_ZTISt23_Sp_counted_ptr_inplaceIN5telux3tel16VoiceServiceInfoESaIS2_ELN9__gnu_cxx12_Lock_policyE2EE=so_stub_for_libtelux_tel
-Wl,--defsym=_ZTISt23_Sp_counted_ptr_inplaceIN5telux3tel18SapCardManagerImplESaIS2_ELN9__gnu_cxx12_Lock_policyE2EE=so_stub_for_libtelux_tel
-Wl,--defsym=_ZTISt23_Sp_counted_ptr_inplaceIN5telux3tel19SubscriptionManagerESaIS2_ELN9__gnu_cxx12_Lock_policyE2EE=so_stub_for_libtelux_tel
-Wl,--defsym=_ZTISt23_Sp_counted_ptr_inplaceIN5telux3tel20CellBroadcastMessageESaIS2_ELN9__gnu_cxx12_Lock_policyE2EE=so_stub_for_libtelux_tel
-Wl,--defsym=_ZTISt23_Sp_counted_ptr_inplaceIN5telux3tel20ServingSystemManagerESaIS2_ELN9__gnu_cxx12_Lock_policyE2EE=so_stub_for_libtelux_tel
-Wl,--defsym=_ZTISt23_Sp_counted_ptr_inplaceIN5telux3tel21GsmSignalStrengthInfoESaIS2_ELN9__gnu_cxx12_Lock_policyE2EE=so_stub_for_libtelux_tel
-Wl,--defsym=_ZTISt23_Sp_counted_ptr_inplaceIN5telux3tel21LteSignalStrengthInfoESaIS2_ELN9__gnu_cxx12_Lock_policyE2EE=so_stub_for_libtelux_tel
-Wl,--defsym=_ZTISt23_Sp_counted_ptr_inplaceIN5telux3tel21SimProfileManagerImplESaIS2_ELN9__gnu_cxx12_Lock_policyE2EE=so_stub_for_libtelux_tel
-Wl,--defsym=_ZTISt23_Sp_counted_ptr_inplaceIN5telux3tel22CdmaSignalStrengthInfoESaIS2_ELN9__gnu_cxx12_Lock_policyE2EE=so_stub_for_libtelux_tel
-Wl,--defsym=_ZTISt23_Sp_counted_ptr_inplaceIN5telux3tel22Nr5gSignalStrengthInfoESaIS2_ELN9__gnu_cxx12_Lock_policyE2EE=so_stub_for_libtelux_tel
-Wl,--defsym=_ZTISt23_Sp_counted_ptr_inplaceIN5telux3tel23NetworkSelectionManagerESaIS2_ELN9__gnu_cxx12_Lock_policyE2EE=so_stub_for_libtelux_tel
-Wl,--defsym=_ZTISt23_Sp_counted_ptr_inplaceIN5telux3tel23WcdmaSignalStrengthInfoESaIS2_ELN9__gnu_cxx12_Lock_policyE2EE=so_stub_for_libtelux_tel
-Wl,--defsym=_ZTISt23_Sp_counted_ptr_inplaceIN5telux3tel24CellBroadcastManagerImplESaIS2_ELN9__gnu_cxx12_Lock_policyE2EE=so_stub_for_libtelux_tel
-Wl,--defsym=_ZTISt23_Sp_counted_ptr_inplaceIN5telux3tel25TdscdmaSignalStrengthInfoESaIS2_ELN9__gnu_cxx12_Lock_policyE2EE=so_stub_for_libtelux_tel
-Wl,--defsym=_ZTISt23_Sp_counted_ptr_inplaceIN5telux3tel3ril3Ril14SocketListenerESaIS4_ELN9__gnu_cxx12_Lock_policyE2EE=so_stub_for_libtelux_tel
-Wl,--defsym=_ZTISt23_Sp_counted_ptr_inplaceIN5telux3tel3ril6SocketESaIS3_ELN9__gnu_cxx12_Lock_policyE2EE=so_stub_for_libtelux_tel
-Wl,--defsym=_ZTISt23_Sp_counted_ptr_inplaceIN5telux3tel3ril7RequestESaIS3_ELN9__gnu_cxx12_Lock_policyE2EE=so_stub_for_libtelux_tel
-Wl,--defsym=_ZTISt23_Sp_counted_ptr_inplaceIN5telux3tel3ril8ResponseESaIS3_ELN9__gnu_cxx12_Lock_policyE2EE=so_stub_for_libtelux_tel
-Wl,--defsym=_ZTISt23_Sp_counted_ptr_inplaceIN5telux3tel4CallESaIS2_ELN9__gnu_cxx12_Lock_policyE2EE=so_stub_for_libtelux_tel
-Wl,--defsym=_ZTISt23_Sp_counted_ptr_inplaceIN5telux3tel5PhoneESaIS2_ELN9__gnu_cxx12_Lock_policyE2EE=so_stub_for_libtelux_tel
-Wl,--defsym=_ZTISt23_Sp_counted_ptr_inplaceIN5telux3tel7SmsInfoESaIS2_ELN9__gnu_cxx12_Lock_policyE2EE=so_stub_for_libtelux_tel
-Wl,--defsym=_ZTISt23_Sp_counted_ptr_inplaceIN5telux3tel8CardImplESaIS2_ELN9__gnu_cxx12_Lock_policyE2EE=so_stub_for_libtelux_tel
-Wl,--defsym=_ZTISt23_Sp_counted_ptr_inplaceIN5telux3tel8CmasInfoESaIS2_ELN9__gnu_cxx12_Lock_policyE2EE=so_stub_for_libtelux_tel
-Wl,--defsym=_ZTISt23_Sp_counted_ptr_inplaceIN5telux3tel8EtwsInfoESaIS2_ELN9__gnu_cxx12_Lock_policyE2EE=so_stub_for_libtelux_tel
-Wl,--defsym=_ZTISt23_Sp_counted_ptr_inplaceIN5telux6common15ListenerManagerINS0_3tel12ISmsListenerEEESaIS5_ELN9__gnu_cxx12_Lock_policyE2EE=so_stub_for_libtelux_tel
-Wl,--defsym=_ZTISt23_Sp_counted_ptr_inplaceIN5telux6common15ListenerManagerINS0_3tel13ICallListenerEEESaIS5_ELN9__gnu_cxx12_Lock_policyE2EE=so_stub_for_libtelux_tel
-Wl,--defsym=_ZTISt23_Sp_counted_ptr_inplaceIN5telux6common15ListenerManagerINS0_3tel13ICardListenerEEESaIS5_ELN9__gnu_cxx12_Lock_policyE2EE=so_stub_for_libtelux_tel
-Wl,--defsym=_ZTISt23_Sp_counted_ptr_inplaceIN5telux6common15ListenerManagerINS0_3tel14IPhoneListenerEEESaIS5_ELN9__gnu_cxx12_Lock_policyE2EE=so_stub_for_libtelux_tel
-Wl,--defsym=_ZTISt23_Sp_counted_ptr_inplaceIN5telux6common15ListenerManagerINS0_3tel16ISapCardListenerEEESaIS5_ELN9__gnu_cxx12_Lock_policyE2EE=so_stub_for_libtelux_tel
-Wl,--defsym=_ZTISt23_Sp_counted_ptr_inplaceIN5telux6common15ListenerManagerINS0_3tel17IMultiSimListenerEEESaIS5_ELN9__gnu_cxx12_Lock_policyE2EE=so_stub_for_libtelux_tel
-Wl,--defsym=_ZTISt23_Sp_counted_ptr_inplaceIN5telux6common15ListenerManagerINS0_3tel18IRemoteSimListenerEEESaIS5_ELN9__gnu_cxx12_Lock_policyE2EE=so_stub_for_libtelux_tel
-Wl,--defsym=_ZTISt23_Sp_counted_ptr_inplaceIN5telux6common15ListenerManagerINS0_3tel19ISimProfileListenerEEESaIS5_ELN9__gnu_cxx12_Lock_policyE2EE=so_stub_for_libtelux_tel
-Wl,--defsym=_ZTISt23_Sp_counted_ptr_inplaceIN5telux6common15ListenerManagerINS0_3tel21ISubscriptionListenerEEESaIS5_ELN9__gnu_cxx12_Lock_policyE2EE=so_stub_for_libtelux_tel
-Wl,--defsym=_ZTISt23_Sp_counted_ptr_inplaceIN5telux6common15ListenerManagerINS0_3tel22ICellBroadcastListenerEEESaIS5_ELN9__gnu_cxx12_Lock_policyE2EE=so_stub_for_libtelux_tel
-Wl,--defsym=_ZTISt23_Sp_counted_ptr_inplaceIN5telux6common15ListenerManagerINS0_3tel22IServingSystemListenerEEESaIS5_ELN9__gnu_cxx12_Lock_policyE2EE=so_stub_for_libtelux_tel
-Wl,--defsym=_ZTISt23_Sp_counted_ptr_inplaceIN5telux6common15ListenerManagerINS0_3tel25INetworkSelectionListenerEEESaIS5_ELN9__gnu_cxx12_Lock_policyE2EE=so_stub_for_libtelux_tel
-Wl,--defsym=_ZTISt23_Sp_counted_ptr_inplaceIN5telux6common15ListenerManagerINS0_3tel3ril12IRilListenerEEESaIS6_ELN9__gnu_cxx12_Lock_policyE2EE=so_stub_for_libtelux_tel
-Wl,--defsym=_ZTISt23_Sp_counted_ptr_inplaceIN5telux6common18FunctionalCallbackIJbbNS1_9ErrorCodeEEEESaIS4_ELN9__gnu_cxx12_Lock_policyE2EE=so_stub_for_libtelux_tel
-Wl,--defsym=_ZTISt23_Sp_counted_ptr_inplaceIN5telux6common18FunctionalCallbackIJbNS1_9ErrorCodeEEEESaIS4_ELN9__gnu_cxx12_Lock_policyE2EE=so_stub_for_libtelux_tel
-Wl,--defsym=_ZTISt23_Sp_counted_ptr_inplaceIN5telux6common18FunctionalCallbackIJiNS1_9ErrorCodeEEEESaIS4_ELN9__gnu_cxx12_Lock_policyE2EE=so_stub_for_libtelux_tel
-Wl,--defsym=_ZTISt23_Sp_counted_ptr_inplaceIN5telux6common18FunctionalCallbackIJNS0_3tel15RadioTechnologyENS1_9ErrorCodeEEEESaIS6_ELN9__gnu_cxx12_Lock_policyE2EE=so_stub_for_libtelux_tel
-Wl,--defsym=_ZTISt23_Sp_counted_ptr_inplaceIN5telux6common18FunctionalCallbackIJNS0_3tel20NetworkSelectionModeENS1_9ErrorCodeEEEESaIS6_ELN9__gnu_cxx12_Lock_policyE2EE=so_stub_for_libtelux_tel
-Wl,--defsym=_ZTISt23_Sp_counted_ptr_inplaceIN5telux6common18FunctionalCallbackIJNS0_3tel23ServiceDomainPreferenceENS1_9ErrorCodeEEEESaIS6_ELN9__gnu_cxx12_Lock_policyE2EE=so_stub_for_libtelux_tel
-Wl,--defsym=_ZTISt23_Sp_counted_ptr_inplaceIN5telux6common18FunctionalCallbackIJNS0_3tel8SapStateENS1_9ErrorCodeEEEESaIS6_ELN9__gnu_cxx12_Lock_policyE2EE=so_stub_for_libtelux_tel
-Wl,--defsym=_ZTISt23_Sp_counted_ptr_inplaceIN5telux6common18FunctionalCallbackIJNS0_3tel9ECallModeENS1_9ErrorCodeEEEESaIS6_ELN9__gnu_cxx12_Lock_policyE2EE=so_stub_for_libtelux_tel
-Wl,--defsym=_ZTISt23_Sp_counted_ptr_inplaceIN5telux6common18FunctionalCallbackIJNS1_9ErrorCodeEEEESaIS4_ELN9__gnu_cxx12_Lock_policyE2EE=so_stub_for_libtelux_tel
-Wl,--defsym=_ZTISt23_Sp_counted_ptr_inplaceIN5telux6common18FunctionalCallbackIJNS1_9ErrorCodeEiNS0_3tel20ECallHlapTimerStatusEEEESaIS6_ELN9__gnu_cxx12_Lock_policyE2EE=so_stub_for_libtelux_tel
-Wl,--defsym=_ZTISt23_Sp_counted_ptr_inplaceIN5telux6common18FunctionalCallbackIJNS1_9ErrorCodeESt10shared_ptrINS0_3tel5ICallEEEEESaIS8_ELN9__gnu_cxx12_Lock_policyE2EE=so_stub_for_libtelux_tel
-Wl,--defsym=_ZTISt23_Sp_counted_ptr_inplaceIN5telux6common18FunctionalCallbackIJNSt7__cxx1112basic_stringIcSt11char_traitsIcESaIcEEENS1_9ErrorCodeEEEESaISA_ELN9__gnu_cxx12_Lock_policyE2EE=so_stub_for_libtelux_tel
-Wl,--defsym=_ZTISt23_Sp_counted_ptr_inplaceIN5telux6common18FunctionalCallbackIJRKNSt7__cxx1112basic_stringIcSt11char_traitsIcESaIcEEENS1_9ErrorCodeEEEESaISC_ELN9__gnu_cxx12_Lock_policyE2EE=so_stub_for_libtelux_tel
-Wl,--defsym=_ZTISt23_Sp_counted_ptr_inplaceIN5telux6common18FunctionalCallbackIJRKSt6vectorISt10shared_ptrINS0_3tel10SimProfileEESaIS7_EENS1_9ErrorCodeEEEESaISD_ELN9__gnu_cxx12_Lock_policyE2EE=so_stub_for_libtelux_tel
-Wl,--defsym=_ZTISt23_Sp_counted_ptr_inplaceIN5telux6common18FunctionalCallbackIJSt3mapI6SlotIdNS0_3tel10SlotStatusESt4lessIS4_ESaISt4pairIKS4_S6_EEENS1_9ErrorCodeEEEESaISF_ELN9__gnu_cxx12_Lock_policyE2EE=so_stub_for_libtelux_tel
-Wl,--defsym=_ZTISt23_Sp_counted_ptr_inplaceIN5telux6common18FunctionalCallbackIJSt6bitsetILj16EENS1_9ErrorCodeEEEESaIS6_ELN9__gnu_cxx12_Lock_policyE2EE=so_stub_for_libtelux_tel
-Wl,--defsym=_ZTISt23_Sp_counted_ptr_inplaceIN5telux6common18FunctionalCallbackIJSt6vectorINS0_3tel12OperatorInfoESaIS5_EENS1_9ErrorCodeEEEESaIS9_ELN9__gnu_cxx12_Lock_policyE2EE=so_stub_for_libtelux_tel
-Wl,--defsym=_ZTISt23_Sp_counted_ptr_inplaceIN5telux6common18FunctionalCallbackIJSt6vectorINS0_3tel19CellBroadcastFilterESaIS5_EENS1_9ErrorCodeEEEESaIS9_ELN9__gnu_cxx12_Lock_policyE2EE=so_stub_for_libtelux_tel
-Wl,--defsym=_ZTISt23_Sp_counted_ptr_inplaceIN5telux6common18FunctionalCallbackIJSt6vectorINS0_3tel20PreferredNetworkInfoESaIS5_EES7_NS1_9ErrorCodeEEEESaIS9_ELN9__gnu_cxx12_Lock_policyE2EE=so_stub_for_libtelux_tel
-Wl,--defsym=_ZTISt23_Sp_counted_ptr_inplaceIN5telux6common18FunctionalCallbackIJSt6vectorISt10shared_ptrINS0_3tel8CellInfoEESaIS7_EENS1_9ErrorCodeEEEESaISB_ELN9__gnu_cxx12_Lock_policyE2EE=so_stub_for_libtelux_tel
-Wl,--defsym=_ZTISt23_Sp_counted_ptr_inplaceIN5telux6common6ResultESaIS2_ELN9__gnu_cxx12_Lock_policyE2EE=so_stub_for_libtelux_tel
-Wl,--defsym=_ZTISt23_Sp_counted_ptr_inplaceINSt8__detail4_NFAINSt7__cxx1112regex_traitsIcEEEESaIS5_ELN9__gnu_cxx12_Lock_policyE2EE=so_stub_for_libtelux_tel
-Wl,--defsym=_ZTISt23_Sp_counted_ptr_inplaceISt6threadSaIS0_ELN9__gnu_cxx12_Lock_policyE2EE=so_stub_for_libtelux_tel
-Wl,--defsym=_ZTISt23_Sp_counted_ptr_inplaceISt6vectorIS0_IhSaIhEESaIS2_EESaIS4_ELN9__gnu_cxx12_Lock_policyE2EE=so_stub_for_libtelux_tel
-Wl,--defsym=_ZTS17CmasCellbroadcast=so_stub_for_libtelux_tel
-Wl,--defsym=_ZTS20GsmCmasCellbroadcast=so_stub_for_libtelux_tel
-Wl,--defsym=_ZTS21UmtsCmasCellbroadcast=so_stub_for_libtelux_tel
-Wl,--defsym=_ZTSN5telux3qmi12IQmiListenerE=so_stub_for_libtelux_tel
-Wl,--defsym=_ZTSN5telux3qmi15IQmiDmsListenerE=so_stub_for_libtelux_tel
-Wl,--defsym=_ZTSN5telux3qmi15IQmiNasListenerE=so_stub_for_libtelux_tel
-Wl,--defsym=_ZTSN5telux3qmi15IQmiUimListenerE=so_stub_for_libtelux_tel
-Wl,--defsym=_ZTSN5telux3qmi15IQmiWmsListenerE=so_stub_for_libtelux_tel
-Wl,--defsym=_ZTSN5telux3qmi17IQmiVoiceListenerE=so_stub_for_libtelux_tel
-Wl,--defsym=_ZTSN5telux3qmi21IQmiUimRemoteListenerE=so_stub_for_libtelux_tel
-Wl,--defsym=_ZTSN5telux3qmi22IQmiSapRequestCallbackE=so_stub_for_libtelux_tel
-Wl,--defsym=_ZTSN5telux3qmi24IQmiECallRequestCallbackE=so_stub_for_libtelux_tel
-Wl,--defsym=_ZTSN5telux3qmi25IQmiMsisdnRequestCallbackE=so_stub_for_libtelux_tel
-Wl,--defsym=_ZTSN5telux3qmi25IQmiSapConnectionCallbackE=so_stub_for_libtelux_tel
-Wl,--defsym=_ZTSN5telux3qmi26IQmiSetEventReportCallbackE=so_stub_for_libtelux_tel
-Wl,--defsym=_ZTSN5telux3qmi26IQmiVoiceSetConfigCallbackE=so_stub_for_libtelux_tel
-Wl,--defsym=_ZTSN5telux3qmi28IQmiGetOperatingModeCallbackE=so_stub_for_libtelux_tel
-Wl,--defsym=_ZTSN5telux3qmi28IQmiSetOperatingModeCallbackE=so_stub_for_libtelux_tel
-Wl,--defsym=_ZTSN5telux3qmi30IQmiCellularCapabilityCallbackE=so_stub_for_libtelux_tel
-Wl,--defsym=_ZTSN5telux3qmi30IQmiPerformNetworkScanCallbackE=so_stub_for_libtelux_tel
-Wl,--defsym=_ZTSN5telux3qmi32IQmiGetPreferredNetworksCallbackE=so_stub_for_libtelux_tel
-Wl,--defsym=_ZTSN5telux3qmi32IQmiSetPreferredNetworksCallbackE=so_stub_for_libtelux_tel
-Wl,--defsym=_ZTSN5telux3qmi33IQmiGetECallOperatingModeCallbackE=so_stub_for_libtelux_tel
-Wl,--defsym=_ZTSN5telux3qmi33IQmiSetECallOperatingModeCallbackE=so_stub_for_libtelux_tel
-Wl,--defsym=_ZTSN5telux3qmi34IQmiReadTransparentRequestCallbackE=so_stub_for_libtelux_tel
-Wl,--defsym=_ZTSN5telux3qmi34IQmiRegisterNasIndicationsCallbackE=so_stub_for_libtelux_tel
-Wl,--defsym=_ZTSN5telux3qmi35IQmiGetECallHlapTimerStatusCallbackE=so_stub_for_libtelux_tel
-Wl,--defsym=_ZTSN5telux3qmi36IQmiRegisterVoiceIndicationsCallbackE=so_stub_for_libtelux_tel
-Wl,--defsym=_ZTSN5telux3qmi40IQmiSetSystemSelectionPreferenceCallbackE=so_stub_for_libtelux_tel
-Wl,--defsym=_ZTSN5telux3tel10SmsManagerE=so_stub_for_libtelux_tel
-Wl,--defsym=_ZTSN5telux3tel11CallManager15ResponseHandlerE=so_stub_for_libtelux_tel
-Wl,--defsym=_ZTSN5telux3tel11CallManagerE=so_stub_for_libtelux_tel
-Wl,--defsym=_ZTSN5telux3tel11CardAppImplE=so_stub_for_libtelux_tel
-Wl,--defsym=_ZTSN5telux3tel11GsmCellInfoE=so_stub_for_libtelux_tel
-Wl,--defsym=_ZTSN5telux3tel11ISmsManagerE=so_stub_for_libtelux_tel
-Wl,--defsym=_ZTSN5telux3tel11LteCellInfoE=so_stub_for_libtelux_tel
-Wl,--defsym=_ZTSN5telux3tel12CdmaCellInfoE=so_stub_for_libtelux_tel
-Wl,--defsym=_ZTSN5telux3tel12ICallManagerE=so_stub_for_libtelux_tel
-Wl,--defsym=_ZTSN5telux3tel12ICardManagerE=so_stub_for_libtelux_tel
-Wl,--defsym=_ZTSN5telux3tel12PhoneManagerE=so_stub_for_libtelux_tel
-Wl,--defsym=_ZTSN5telux3tel13ICardListenerE=so_stub_for_libtelux_tel
-Wl,--defsym=_ZTSN5telux3tel13IPhoneManagerE=so_stub_for_libtelux_tel
-Wl,--defsym=_ZTSN5telux3tel13ISubscriptionE=so_stub_for_libtelux_tel
-Wl,--defsym=_ZTSN5telux3tel13WcdmaCellInfoE=so_stub_for_libtelux_tel
-Wl,--defsym=_ZTSN5telux3tel14IPhoneListenerE=so_stub_for_libtelux_tel
-Wl,--defsym=_ZTSN5telux3tel15CardManagerImplE=so_stub_for_libtelux_tel
-Wl,--defsym=_ZTSN5telux3tel15ISapCardManagerE=so_stub_for_libtelux_tel
-Wl,--defsym=_ZTSN5telux3tel15MultiSimManagerE=so_stub_for_libtelux_tel
-Wl,--defsym=_ZTSN5telux3tel15TdscdmaCellInfoE=so_stub_for_libtelux_tel
-Wl,--defsym=_ZTSN5telux3tel16IMultiSimManagerE=so_stub_for_libtelux_tel
-Wl,--defsym=_ZTSN5telux3tel16RemoteSimManagerE=so_stub_for_libtelux_tel
-Wl,--defsym=_ZTSN5telux3tel16SubscriptionImplE=so_stub_for_libtelux_tel
-Wl,--defsym=_ZTSN5telux3tel17IRemoteSimManagerE=so_stub_for_libtelux_tel
-Wl,--defsym=_ZTSN5telux3tel18ISimProfileManagerE=so_stub_for_libtelux_tel
-Wl,--defsym=_ZTSN5telux3tel18SapCardManagerImplE=so_stub_for_libtelux_tel
-Wl,--defsym=_ZTSN5telux3tel19SubscriptionManagerE=so_stub_for_libtelux_tel
-Wl,--defsym=_ZTSN5telux3tel20ISubscriptionManagerE=so_stub_for_libtelux_tel
-Wl,--defsym=_ZTSN5telux3tel20ServingSystemManagerE=so_stub_for_libtelux_tel
-Wl,--defsym=_ZTSN5telux3tel21ICellBroadcastManagerE=so_stub_for_libtelux_tel
-Wl,--defsym=_ZTSN5telux3tel21IServingSystemManagerE=so_stub_for_libtelux_tel
-Wl,--defsym=_ZTSN5telux3tel21ISubscriptionListenerE=so_stub_for_libtelux_tel
-Wl,--defsym=_ZTSN5telux3tel21SimProfileManagerImplE=so_stub_for_libtelux_tel
-Wl,--defsym=_ZTSN5telux3tel23NetworkSelectionManagerE=so_stub_for_libtelux_tel
