-Wl,--defsym=__gcov_error_file=so_stub_for_libtelux_therm
-Wl,--defsym=__gcov_master=so_stub_for_libtelux_therm
-Wl,--defsym=__gcov_sort_n_vals=so_stub_for_libtelux_therm
-Wl,--defsym=__gcov_var=so_stub_for_libtelux_therm
-Wl,--defsym=_ZGVZNKSt8__detail11_AnyMatcherINSt7__cxx1112regex_traitsIcEELb0ELb0ELb0EEclEcE5__nul=so_stub_for_libtelux_therm
-Wl,--defsym=_ZGVZNKSt8__detail11_AnyMatcherINSt7__cxx1112regex_traitsIcEELb0ELb0ELb1EEclEcE5__nul=so_stub_for_libtelux_therm
-Wl,--defsym=_ZGVZNKSt8__detail11_AnyMatcherINSt7__cxx1112regex_traitsIcEELb0ELb1ELb0EEclEcE5__nul=so_stub_for_libtelux_therm
-Wl,--defsym=_ZGVZNKSt8__detail11_AnyMatcherINSt7__cxx1112regex_traitsIcEELb0ELb1ELb1EEclEcE5__nul=so_stub_for_libtelux_therm
-Wl,--defsym=_ZN5telux5therm11ThermalZone13getTripPointsEv=so_stub_for_libtelux_therm
-Wl,--defsym=_ZN5telux5therm11ThermalZone13setTripPointsESt6vectorISt10shared_ptrINS0_9TripPointEESaIS5_EE=so_stub_for_libtelux_therm
-Wl,--defsym=_ZN5telux5therm11ThermalZone14getCurrentTempEv=so_stub_for_libtelux_therm
-Wl,--defsym=_ZN5telux5therm11ThermalZone14getDescriptionB5cxx11Ev=so_stub_for_libtelux_therm
-Wl,--defsym=_ZN5telux5therm11ThermalZone14getPassiveTempEv=so_stub_for_libtelux_therm
-Wl,--defsym=_ZN5telux5therm11ThermalZone14setCurrentTempEi=so_stub_for_libtelux_therm
-Wl,--defsym=_ZN5telux5therm11ThermalZone14setDescriptionENSt7__cxx1112basic_stringIcSt11char_traitsIcESaIcEEE=so_stub_for_libtelux_therm
-Wl,--defsym=_ZN5telux5therm11ThermalZone14setPassiveTempEi=so_stub_for_libtelux_therm
-Wl,--defsym=_ZN5telux5therm11ThermalZone22getBoundCoolingDevicesEv=so_stub_for_libtelux_therm
-Wl,--defsym=_ZN5telux5therm11ThermalZone22setBoundCoolingDevicesESt6vectorINS0_18BoundCoolingDeviceESaIS3_EE=so_stub_for_libtelux_therm
-Wl,--defsym=_ZN5telux5therm11ThermalZone5getIdEv=so_stub_for_libtelux_therm
-Wl,--defsym=_ZN5telux5therm11ThermalZone5setIdEi=so_stub_for_libtelux_therm
-Wl,--defsym=_ZN5telux5therm11ThermalZone8toStringB5cxx11Ev=so_stub_for_libtelux_therm
-Wl,--defsym=_ZN5telux5therm11ThermalZoneC1Ev=so_stub_for_libtelux_therm
-Wl,--defsym=_ZN5telux5therm11ThermalZoneC2Ev=so_stub_for_libtelux_therm
-Wl,--defsym=_ZN5telux5therm11ThermalZoneD0Ev=so_stub_for_libtelux_therm
-Wl,--defsym=_ZN5telux5therm11ThermalZoneD1Ev=so_stub_for_libtelux_therm
-Wl,--defsym=_ZN5telux5therm11ThermalZoneD2Ev=so_stub_for_libtelux_therm
-Wl,--defsym=_ZN5telux5therm13CoolingDevice14getDescriptionB5cxx11Ev=so_stub_for_libtelux_therm
-Wl,--defsym=_ZN5telux5therm13CoolingDevice14setDescriptionENSt7__cxx1112basic_stringIcSt11char_traitsIcESaIcEEE=so_stub_for_libtelux_therm
-Wl,--defsym=_ZN5telux5therm13CoolingDevice18getMaxCoolingLevelEv=so_stub_for_libtelux_therm
-Wl,--defsym=_ZN5telux5therm13CoolingDevice18setMaxCoolingLevelEi=so_stub_for_libtelux_therm
-Wl,--defsym=_ZN5telux5therm13CoolingDevice22getCurrentCoolingLevelEv=so_stub_for_libtelux_therm
-Wl,--defsym=_ZN5telux5therm13CoolingDevice22setCurrentCoolingLevelEi=so_stub_for_libtelux_therm
-Wl,--defsym=_ZN5telux5therm13CoolingDevice5getIdEv=so_stub_for_libtelux_therm
-Wl,--defsym=_ZN5telux5therm13CoolingDevice5setIdEi=so_stub_for_libtelux_therm
-Wl,--defsym=_ZN5telux5therm13CoolingDevice8toStringB5cxx11Ev=so_stub_for_libtelux_therm
-Wl,--defsym=_ZN5telux5therm13CoolingDeviceC1Ev=so_stub_for_libtelux_therm
-Wl,--defsym=_ZN5telux5therm13CoolingDeviceC2Ev=so_stub_for_libtelux_therm
-Wl,--defsym=_ZN5telux5therm13CoolingDeviceD0Ev=so_stub_for_libtelux_therm
-Wl,--defsym=_ZN5telux5therm13CoolingDeviceD1Ev=so_stub_for_libtelux_therm
-Wl,--defsym=_ZN5telux5therm13CoolingDeviceD2Ev=so_stub_for_libtelux_therm
-Wl,--defsym=_ZN5telux5therm14ThermalFactory11getInstanceEv=so_stub_for_libtelux_therm
-Wl,--defsym=_ZN5telux5therm14ThermalFactory17getThermalManagerEv=so_stub_for_libtelux_therm
-Wl,--defsym=_ZN5telux5therm14ThermalFactory25getThermalShutdownManagerEv=so_stub_for_libtelux_therm
-Wl,--defsym=_ZN5telux5therm14ThermalFactoryC1Ev=so_stub_for_libtelux_therm
-Wl,--defsym=_ZN5telux5therm14ThermalFactoryC2Ev=so_stub_for_libtelux_therm
-Wl,--defsym=_ZN5telux5therm14ThermalFactoryD1Ev=so_stub_for_libtelux_therm
-Wl,--defsym=_ZN5telux5therm14ThermalFactoryD2Ev=so_stub_for_libtelux_therm
-Wl,--defsym=_ZN5telux5therm14ThermalManager13findTripPointENSt7__cxx1112basic_stringIcSt11char_traitsIcESaIcEEES7_RSt6vectorISt10shared_ptrINS0_9TripPointEESaISB_EE=so_stub_for_libtelux_therm
-Wl,--defsym=_ZN5telux5therm14ThermalManager14getThermalZoneEi=so_stub_for_libtelux_therm
-Wl,--defsym=_ZN5telux5therm14ThermalManager15getThermalZonesEv=so_stub_for_libtelux_therm
-Wl,--defsym=_ZN5telux5therm14ThermalManager16getCoolingDeviceEi=so_stub_for_libtelux_therm
-Wl,--defsym=_ZN5telux5therm14ThermalManager17findCoolingDeviceEP6direntNSt7__cxx1112basic_stringIcSt11char_traitsIcESaIcEEEiRSt6vectorINS0_18BoundCoolingDeviceESaISB_EE=so_stub_for_libtelux_therm
-Wl,--defsym=_ZN5telux5therm14ThermalManager17getCoolingDevicesEv=so_stub_for_libtelux_therm
-Wl,--defsym=_ZN5telux5therm14ThermalManager4initEv=so_stub_for_libtelux_therm
-Wl,--defsym=_ZN5telux5therm14ThermalManagerC1Ev=so_stub_for_libtelux_therm
-Wl,--defsym=_ZN5telux5therm14ThermalManagerC2Ev=so_stub_for_libtelux_therm
-Wl,--defsym=_ZN5telux5therm14ThermalManagerD0Ev=so_stub_for_libtelux_therm
-Wl,--defsym=_ZN5telux5therm14ThermalManagerD1Ev=so_stub_for_libtelux_therm
-Wl,--defsym=_ZN5telux5therm14ThermalManagerD2Ev=so_stub_for_libtelux_therm
-Wl,--defsym=_ZN5telux5therm14ThermalUtility14getSensorAliasENSt7__cxx1112basic_stringIcSt11char_traitsIcESaIcEEE=so_stub_for_libtelux_therm
-Wl,--defsym=_ZN5telux5therm14ThermalUtility15readIntFromFileENSt7__cxx1112basic_stringIcSt11char_traitsIcESaIcEEES7_Ri=so_stub_for_libtelux_therm
-Wl,--defsym=_ZN5telux5therm14ThermalUtility16getTripPointTypeENSt7__cxx1112basic_stringIcSt11char_traitsIcESaIcEEEi=so_stub_for_libtelux_therm
-Wl,--defsym=_ZN5telux5therm14ThermalUtility16stringToTripTypeENSt7__cxx1112basic_stringIcSt11char_traitsIcESaIcEEE=so_stub_for_libtelux_therm
-Wl,--defsym=_ZN5telux5therm14ThermalUtility17getBoundCDevCountEi=so_stub_for_libtelux_therm
-Wl,--defsym=_ZN5telux5therm14ThermalUtility17getTripPointCountEi=so_stub_for_libtelux_therm
-Wl,--defsym=_ZN5telux5therm14ThermalUtility18readStringFromFileENSt7__cxx1112basic_stringIcSt11char_traitsIcESaIcEEES7_RS7_=so_stub_for_libtelux_therm
-Wl,--defsym=_ZN5telux5therm14ThermalUtility5getIdENSt7__cxx1112basic_stringIcSt11char_traitsIcESaIcEEE=so_stub_for_libtelux_therm
-Wl,--defsym=_ZN5telux5therm24IThermalShutdownListener17onShutdownEnabledEv=so_stub_for_libtelux_therm
-Wl,--defsym=_ZN5telux5therm24IThermalShutdownListener18onShutdownDisabledEv=so_stub_for_libtelux_therm
-Wl,--defsym=_ZN5telux5therm24IThermalShutdownListener28onImminentShutdownEnablementEj=so_stub_for_libtelux_therm
-Wl,--defsym=_ZN5telux5therm26ThermalShutdownManagerImpl13setReadyStateEb=so_stub_for_libtelux_therm
-Wl,--defsym=_ZN5telux5therm26ThermalShutdownManagerImpl14handleResponseEiPv=so_stub_for_libtelux_therm
-Wl,--defsym=_ZN5telux5therm26ThermalShutdownManagerImpl16registerListenerESt8weak_ptrINS0_24IThermalShutdownListenerEE=so_stub_for_libtelux_therm
-Wl,--defsym=_ZN5telux5therm26ThermalShutdownManagerImpl18deregisterListenerESt8weak_ptrINS0_24IThermalShutdownListenerEE=so_stub_for_libtelux_therm
-Wl,--defsym=_ZN5telux5therm26ThermalShutdownManagerImpl19getAutoShutdownModeESt8functionIFvNS0_16AutoShutdownModeEEE=so_stub_for_libtelux_therm
-Wl,--defsym=_ZN5telux5therm26ThermalShutdownManagerImpl19setAutoShutdownModeENS0_16AutoShutdownModeESt8functionIFvNS_6common9ErrorCodeEEEj=so_stub_for_libtelux_therm
-Wl,--defsym=_ZN5telux5therm26ThermalShutdownManagerImpl21waitForInitializationEv=so_stub_for_libtelux_therm
-Wl,--defsym=_ZN5telux5therm26ThermalShutdownManagerImpl22registerEventsResponseEijPv=so_stub_for_libtelux_therm
-Wl,--defsym=_ZN5telux5therm26ThermalShutdownManagerImpl24onAutoShutdownModeUpdateEP34tsens_broadcast_indication_msg_v01=so_stub_for_libtelux_therm
-Wl,--defsym=_ZN5telux5therm26ThermalShutdownManagerImpl24onGetModeCommandResponseEiP28tsens_get_state_resp_msg_v01Pv=so_stub_for_libtelux_therm
-Wl,--defsym=_ZN5telux5therm26ThermalShutdownManagerImpl24onSetModeCommandResponseEiPv=so_stub_for_libtelux_therm
-Wl,--defsym=_ZN5telux5therm26ThermalShutdownManagerImpl33onAutoShutdownServiceStatusChangeENS_6common13ServiceStatusE=so_stub_for_libtelux_therm
-Wl,--defsym=_ZN5telux5therm26ThermalShutdownManagerImpl4initEv=so_stub_for_libtelux_therm
-Wl,--defsym=_ZN5telux5therm26ThermalShutdownManagerImpl7isReadyEv=so_stub_for_libtelux_therm
-Wl,--defsym=_ZN5telux5therm26ThermalShutdownManagerImpl7onReadyEv=so_stub_for_libtelux_therm
-Wl,--defsym=_ZN5telux5therm26ThermalShutdownManagerImpl8initSyncEv=so_stub_for_libtelux_therm
-Wl,--defsym=_ZN5telux5therm26ThermalShutdownManagerImplC1Ev=so_stub_for_libtelux_therm
-Wl,--defsym=_ZN5telux5therm26ThermalShutdownManagerImplC2Ev=so_stub_for_libtelux_therm
-Wl,--defsym=_ZN5telux5therm26ThermalShutdownManagerImplD0Ev=so_stub_for_libtelux_therm
-Wl,--defsym=_ZN5telux5therm26ThermalShutdownManagerImplD1Ev=so_stub_for_libtelux_therm
-Wl,--defsym=_ZN5telux5therm26ThermalShutdownManagerImplD2Ev=so_stub_for_libtelux_therm
-Wl,--defsym=_ZN5telux5therm9TripPoint13getHysteresisEv=so_stub_for_libtelux_therm
-Wl,--defsym=_ZN5telux5therm9TripPoint13setHysteresisEi=so_stub_for_libtelux_therm
-Wl,--defsym=_ZN5telux5therm9TripPoint16getThresholdTempEv=so_stub_for_libtelux_therm
-Wl,--defsym=_ZN5telux5therm9TripPoint16setThresholdTempEi=so_stub_for_libtelux_therm
-Wl,--defsym=_ZN5telux5therm9TripPoint7getTypeEv=so_stub_for_libtelux_therm
-Wl,--defsym=_ZN5telux5therm9TripPoint7setTypeENS0_8TripTypeE=so_stub_for_libtelux_therm
-Wl,--defsym=_ZN5telux5therm9TripPoint8toStringB5cxx11Ev=so_stub_for_libtelux_therm
-Wl,--defsym=_ZN5telux5therm9TripPointC1Ev=so_stub_for_libtelux_therm
-Wl,--defsym=_ZN5telux5therm9TripPointC2Ev=so_stub_for_libtelux_therm
-Wl,--defsym=_ZN5telux5therm9TripPointD0Ev=so_stub_for_libtelux_therm
-Wl,--defsym=_ZN5telux5therm9TripPointD1Ev=so_stub_for_libtelux_therm
-Wl,--defsym=_ZN5telux5therm9TripPointD2Ev=so_stub_for_libtelux_therm
-Wl,--defsym=_ZN5telux6common14AsyncTaskQueueIvE14purgeCompletedEv=so_stub_for_libtelux_therm
-Wl,--defsym=_ZN5telux6common15ListenerManagerINS_5therm24IThermalShutdownListenerEE16registerListenerESt8weak_ptrIS3_E=so_stub_for_libtelux_therm
-Wl,--defsym=_ZN5telux6common15ListenerManagerINS_5therm24IThermalShutdownListenerEE18deRegisterListenerESt8weak_ptrIS3_E=so_stub_for_libtelux_therm
-Wl,--defsym=_ZN5telux6common15ListenerManagerINS_5therm24IThermalShutdownListenerEE21getAvailableListenersERSt6vectorISt8weak_ptrIS3_ESaIS7_EE=so_stub_for_libtelux_therm
-Wl,--defsym=_ZN5telux6common18FunctionalCallbackIJNS0_9ErrorCodeEEED0Ev=so_stub_for_libtelux_therm
-Wl,--defsym=_ZN5telux6common18FunctionalCallbackIJNS0_9ErrorCodeEEED1Ev=so_stub_for_libtelux_therm
-Wl,--defsym=_ZN5telux6common18FunctionalCallbackIJNS0_9ErrorCodeEEED2Ev=so_stub_for_libtelux_therm
-Wl,--defsym=_ZN5telux6common18FunctionalCallbackIJNS_5therm16AutoShutdownModeEEED0Ev=so_stub_for_libtelux_therm
-Wl,--defsym=_ZN5telux6common18FunctionalCallbackIJNS_5therm16AutoShutdownModeEEED1Ev=so_stub_for_libtelux_therm
-Wl,--defsym=_ZN5telux6common18FunctionalCallbackIJNS_5therm16AutoShutdownModeEEED2Ev=so_stub_for_libtelux_therm
-Wl,--defsym=_ZN5telux6common22CommandCallbackManager11addCallbackIJNS0_9ErrorCodeEEEEiSt8functionIFvDpT_EE=so_stub_for_libtelux_therm
-Wl,--defsym=_ZN5telux6common22CommandCallbackManager11addCallbackIJNS_5therm16AutoShutdownModeEEEEiSt8functionIFvDpT_EE=so_stub_for_libtelux_therm
-Wl,--defsym=_ZN5telux6common22CommandCallbackManager15executeCallbackIJRNS0_9ErrorCodeEEEEvSt10shared_ptrINS0_16ICommandCallbackEEDpOT_=so_stub_for_libtelux_therm
-Wl,--defsym=_ZN5telux6common22CommandCallbackManager15executeCallbackIJRNS_5therm16AutoShutdownModeEEEEvSt10shared_ptrINS0_16ICommandCallbackEEDpOT_=so_stub_for_libtelux_therm
-Wl,--defsym=_ZN5telux6common22IServiceStatusListener21onServiceStatusChangeENS0_13ServiceStatusE=so_stub_for_libtelux_therm
-Wl,--defsym=_ZN5telux6common3Log10logMessageIJPKcEEEvNS0_8LogLevelERKNSt7__cxx1112basic_stringIcSt11char_traitsIcESaIcEEESD_RKiDpT_=so_stub_for_libtelux_therm
-Wl,--defsym=_ZN5telux6common3Log10logMessageIJPKciEEEvNS0_8LogLevelERKNSt7__cxx1112basic_stringIcSt11char_traitsIcESaIcEEESD_RKiDpT_=so_stub_for_libtelux_therm
-Wl,--defsym=_ZN5telux6common3Log10logMessageIJPKciS4_iS4_EEEvNS0_8LogLevelERKNSt7__cxx1112basic_stringIcSt11char_traitsIcESaIcEEESD_RKiDpT_=so_stub_for_libtelux_therm
-Wl,--defsym=_ZN5telux6common3Log10logMessageIJPKciS4_PcEEEvNS0_8LogLevelERKNSt7__cxx1112basic_stringIcSt11char_traitsIcESaIcEEESE_RKiDpT_=so_stub_for_libtelux_therm
-Wl,--defsym=_ZN5telux6common3Log10logMessageIJPKcNSt7__cxx1112basic_stringIcSt11char_traitsIcESaIcEEEEEEvNS0_8LogLevelERKSA_SD_RKiDpT_=so_stub_for_libtelux_therm
-Wl,--defsym=_ZN5telux6common3Log10logMessageIJPKcPcEEEvNS0_8LogLevelERKNSt7__cxx1112basic_stringIcSt11char_traitsIcESaIcEEESE_RKiDpT_=so_stub_for_libtelux_therm
-Wl,--defsym=_ZN5telux6common3Log10logMessageIJPKcS4_EEEvNS0_8LogLevelERKNSt7__cxx1112basic_stringIcSt11char_traitsIcESaIcEEESD_RKiDpT_=so_stub_for_libtelux_therm
-Wl,--defsym=_ZN5telux6common3Log10logMessageIJPKcS4_iEEEvNS0_8LogLevelERKNSt7__cxx1112basic_stringIcSt11char_traitsIcESaIcEEESD_RKiDpT_=so_stub_for_libtelux_therm
-Wl,--defsym=_ZN5telux6common3Log10logMessageIJPKcS4_iS4_NSt7__cxx1112basic_stringIcSt11char_traitsIcESaIcEEEEEEvNS0_8LogLevelERKSA_SD_RKiDpT_=so_stub_for_libtelux_therm
-Wl,--defsym=_ZN5telux6common3Log10logMessageIJPKcS4_NSt7__cxx1112basic_stringIcSt11char_traitsIcESaIcEEEEEEvNS0_8LogLevelERKSA_SD_RKiDpT_=so_stub_for_libtelux_therm
-Wl,--defsym=_ZN5telux6common3Log10logMessageIJPKcS4_S4_EEEvNS0_8LogLevelERKNSt7__cxx1112basic_stringIcSt11char_traitsIcESaIcEEESD_RKiDpT_=so_stub_for_libtelux_therm
-Wl,--defsym=_ZN5telux6common3Log16constructMessageINSt7__cxx1119basic_ostringstreamIcSt11char_traitsIcESaIcEEEiJPKcNS3_12basic_stringIcS6_S7_EEEEEvRT_T0_DpT1_=so_stub_for_libtelux_therm
-Wl,--defsym=_ZN5telux6common3Log16constructMessageINSt7__cxx1119basic_ostringstreamIcSt11char_traitsIcESaIcEEEPKcJiSA_iSA_EEEvRT_T0_DpT1_=so_stub_for_libtelux_therm
-Wl,--defsym=_ZN5telux6common3Log16constructMessageINSt7__cxx1119basic_ostringstreamIcSt11char_traitsIcESaIcEEEPKcJiSA_NS3_12basic_stringIcS6_S7_EEEEEvRT_T0_DpT1_=so_stub_for_libtelux_therm
-Wl,--defsym=_ZN5telux6common3Log16constructMessageINSt7__cxx1119basic_ostringstreamIcSt11char_traitsIcESaIcEEEPKcJNS3_12basic_stringIcS6_S7_EEEEEvRT_T0_DpT1_=so_stub_for_libtelux_therm
-Wl,--defsym=_ZN5telux6common3Log16constructMessageINSt7__cxx1119basic_ostringstreamIcSt11char_traitsIcESaIcEEEPKcJSA_iSA_NS3_12basic_stringIcS6_S7_EEEEEvRT_T0_DpT1_=so_stub_for_libtelux_therm
-Wl,--defsym=_ZN5telux6common3Log16constructMessageINSt7__cxx1119basic_ostringstreamIcSt11char_traitsIcESaIcEEEPKcJSA_NS3_12basic_stringIcS6_S7_EEEEEvRT_T0_DpT1_=so_stub_for_libtelux_therm
-Wl,--defsym=_ZN9__gnu_cxx12__to_xstringINSt7__cxx1112basic_stringIcSt11char_traitsIcESaIcEEEcEET_PFiPT0_jPKS8_St9__va_listEjSB_z=so_stub_for_libtelux_therm
-Wl,--defsym=_ZN9__gnu_cxx5__ops10_Iter_predIZN5telux6common15ListenerManagerINS2_5therm24IThermalShutdownListenerEE16registerListenerESt8weak_ptrIS6_EEUlS9_E_EclINS_17__normal_iteratorIPS9_St6vectorIS9_SaIS9_EEEEEEbT_=so_stub_for_libtelux_therm
-Wl,--defsym=_ZNKSt13__future_base13_State_baseV221_M_is_deferred_futureEv=so_stub_for_libtelux_therm
-Wl,--defsym=_ZNKSt14__basic_futureIbE13_M_get_resultEv=so_stub_for_libtelux_therm
-Wl,--defsym=_ZNKSt5ctypeIcE8do_widenEc=so_stub_for_libtelux_therm
-Wl,--defsym=_ZNKSt5ctypeIcE9do_narrowEcc=so_stub_for_libtelux_therm
-Wl,--defsym=_ZNKSt6vectorISt8weak_ptrIN5telux5therm24IThermalShutdownListenerEESaIS4_EE12_M_check_lenEjPKc=so_stub_for_libtelux_therm
-Wl,--defsym=_ZNKSt7__cxx1112regex_traitsIcE16lookup_classnameIPKcEENS1_10_RegexMaskET_S6_b=so_stub_for_libtelux_therm
-Wl,--defsym=_ZNKSt7__cxx1112regex_traitsIcE17transform_primaryIPKcEENS_12basic_stringIcSt11char_traitsIcESaIcEEET_SA_=so_stub_for_libtelux_therm
-Wl,--defsym=_ZNKSt7__cxx1112regex_traitsIcE18lookup_collatenameIPKcEENS_12basic_stringIcSt11char_traitsIcESaIcEEET_SA_=so_stub_for_libtelux_therm
-Wl,--defsym=_ZNKSt7__cxx1112regex_traitsIcE5valueEci=so_stub_for_libtelux_therm
-Wl,--defsym=_ZNKSt7__cxx1112regex_traitsIcE9transformIN9__gnu_cxx17__normal_iteratorIPcNS_12basic_stringIcSt11char_traitsIcESaIcEEEEEEESA_T_SC_=so_stub_for_libtelux_therm
-Wl,--defsym=_ZNKSt7__cxx1112regex_traitsIcE9transformIPcEENS_12basic_stringIcSt11char_traitsIcESaIcEEET_S9_=so_stub_for_libtelux_therm
-Wl,--defsym=_ZNKSt7__cxx1114regex_iteratorIN9__gnu_cxx17__normal_iteratorIPKcNS_12basic_stringIcSt11char_traitsIcESaIcEEEEEcNS_12regex_traitsIcEEEeqERKSD_=so_stub_for_libtelux_therm
-Wl,--defsym=_ZNKSt7__cxx1120regex_token_iteratorIN9__gnu_cxx17__normal_iteratorIPKcNS_12basic_stringIcSt11char_traitsIcESaIcEEEEEcNS_12regex_traitsIcEEE16_M_current_matchEv=so_stub_for_libtelux_therm
-Wl,--defsym=_ZNKSt7__cxx1120regex_token_iteratorIN9__gnu_cxx17__normal_iteratorIPKcNS_12basic_stringIcSt11char_traitsIcESaIcEEEEEcNS_12regex_traitsIcEEEeqERKSD_=so_stub_for_libtelux_therm
-Wl,--defsym=_ZNKSt7__cxx119sub_matchIN9__gnu_cxx17__normal_iteratorIPKcNS_12basic_stringIcSt11char_traitsIcESaIcEEEEEE7compareERKSB_=so_stub_for_libtelux_therm
-Wl,--defsym=_ZNKSt8__detail11_AnyMatcherINSt7__cxx1112regex_traitsIcEELb0ELb1ELb0EEclEc=so_stub_for_libtelux_therm
-Wl,--defsym=_ZNKSt8__detail11_AnyMatcherINSt7__cxx1112regex_traitsIcEELb0ELb1ELb1EEclEc=so_stub_for_libtelux_therm
-Wl,--defsym=_ZNKSt8__detail11_AnyMatcherINSt7__cxx1112regex_traitsIcEELb1ELb1ELb0EE8_M_applyEcSt17integral_constantIbLb1EE=so_stub_for_libtelux_therm
-Wl,--defsym=_ZNKSt8__detail11_AnyMatcherINSt7__cxx1112regex_traitsIcEELb1ELb1ELb1EE8_M_applyEcSt17integral_constantIbLb1EE=so_stub_for_libtelux_therm
-Wl,--defsym=_ZNKSt8__detail20_RegexTranslatorBaseINSt7__cxx1112regex_traitsIcEELb0ELb1EE12_M_transformEc=so_stub_for_libtelux_therm
-Wl,--defsym=_ZNKSt8__detail20_RegexTranslatorBaseINSt7__cxx1112regex_traitsIcEELb1ELb0EE17_M_in_range_icaseEccc=so_stub_for_libtelux_therm
-Wl,--defsym=_ZNKSt8__detail20_RegexTranslatorBaseINSt7__cxx1112regex_traitsIcEELb1ELb1EE12_M_transformEc=so_stub_for_libtelux_therm
-Wl,--defsym=_ZNKSt8__detail20_RegexTranslatorBaseINSt7__cxx1112regex_traitsIcEELb1ELb1EE17_M_in_range_icaseEccc=so_stub_for_libtelux_therm
-Wl,--defsym=_ZNKSt8__detail9_ExecutorIN9__gnu_cxx17__normal_iteratorIPKcNSt7__cxx1112basic_stringIcSt11char_traitsIcESaIcEEEEESaINS5_9sub_matchISB_EEENS5_12regex_traitsIcEELb0EE16_M_word_boundaryEv=so_stub_for_libtelux_therm
-Wl,--defsym=_ZNKSt8__detail9_ExecutorIN9__gnu_cxx17__normal_iteratorIPKcNSt7__cxx1112basic_stringIcSt11char_traitsIcESaIcEEEEESaINS5_9sub_matchISB_EEENS5_12regex_traitsIcEELb1EE16_M_word_boundaryEv=so_stub_for_libtelux_therm
-Wl,--defsym=_ZNSt10_HashtableIiSt4pairIKiSt10shared_ptrIN5telux6common16ICommandCallbackEEESaIS7_ENSt8__detail10_Select1stESt8equal_toIiESt4hashIiENS9_18_Mod_range_hashingENS9_20_Default_ranged_hashENS9_20_Prime_rehash_policyENS9_17_Hashtable_traitsILb0ELb0ELb1EEEE13_M_rehash_auxEjSt17integral_constantIbLb1EE=so_stub_for_libtelux_therm
-Wl,--defsym=_ZNSt10_HashtableIiSt4pairIKiSt10shared_ptrIN5telux6common16ICommandCallbackEEESaIS7_ENSt8__detail10_Select1stESt8equal_toIiESt4hashIiENS9_18_Mod_range_hashingENS9_20_Default_ranged_hashENS9_20_Prime_rehash_policyENS9_17_Hashtable_traitsILb0ELb0ELb1EEEE21_M_insert_unique_nodeEjjPNS9_10_Hash_nodeIS7_Lb0EEEj=so_stub_for_libtelux_therm
-Wl,--defsym=_ZNSt10_HashtableIiSt4pairIKiSt10shared_ptrIN5telux6common16ICommandCallbackEEESaIS7_ENSt8__detail10_Select1stESt8equal_toIiESt4hashIiENS9_18_Mod_range_hashingENS9_20_Default_ranged_hashENS9_20_Prime_rehash_policyENS9_17_Hashtable_traitsILb0ELb0ELb1EEEE9_M_rehashEjRKj=so_stub_for_libtelux_therm
-Wl,--defsym=_ZNSt11__copy_moveILb1ELb0ESt26random_access_iterator_tagE8__copy_mIPSt13shared_futureIvES5_EET0_T_S7_S6_=so_stub_for_libtelux_therm
-Wl,--defsym=_ZNSt11__copy_moveILb1ELb0ESt26random_access_iterator_tagE8__copy_mIPSt8weak_ptrIN5telux5therm24IThermalShutdownListenerEES8_EET0_T_SA_S9_=so_stub_for_libtelux_therm
-Wl,--defsym=_ZNSt11_Deque_baseIlSaIlEE15_M_create_nodesEPPlS3_=so_stub_for_libtelux_therm
-Wl,--defsym=_ZNSt11_Deque_baseIlSaIlEE17_M_initialize_mapEj=so_stub_for_libtelux_therm
-Wl,--defsym=_ZNSt11_Deque_baseIlSaIlEED1Ev=so_stub_for_libtelux_therm
-Wl,--defsym=_ZNSt11_Deque_baseIlSaIlEED2Ev=so_stub_for_libtelux_therm
-Wl,--defsym=_ZNSt11_Deque_baseINSt8__detail9_StateSeqINSt7__cxx1112regex_traitsIcEEEESaIS5_EE15_M_create_nodesEPPS5_S9_=so_stub_for_libtelux_therm
-Wl,--defsym=_ZNSt11_Deque_baseINSt8__detail9_StateSeqINSt7__cxx1112regex_traitsIcEEEESaIS5_EE17_M_initialize_mapEj=so_stub_for_libtelux_therm
-Wl,--defsym=_ZNSt11_Deque_baseINSt8__detail9_StateSeqINSt7__cxx1112regex_traitsIcEEEESaIS5_EED1Ev=so_stub_for_libtelux_therm
-Wl,--defsym=_ZNSt11_Deque_baseINSt8__detail9_StateSeqINSt7__cxx1112regex_traitsIcEEEESaIS5_EED2Ev=so_stub_for_libtelux_therm
-Wl,--defsym=_ZNSt11_Deque_baseISt13shared_futureIvESaIS1_EE15_M_create_nodesEPPS1_S5_=so_stub_for_libtelux_therm
-Wl,--defsym=_ZNSt11_Deque_baseISt13shared_futureIvESaIS1_EE17_M_initialize_mapEj=so_stub_for_libtelux_therm
-Wl,--defsym=_ZNSt11_Deque_baseISt13shared_futureIvESaIS1_EED1Ev=so_stub_for_libtelux_therm
-Wl,--defsym=_ZNSt11_Deque_baseISt13shared_futureIvESaIS1_EED2Ev=so_stub_for_libtelux_therm
-Wl,--defsym=_ZNSt12future_errorC1ESt10error_code=so_stub_for_libtelux_therm
-Wl,--defsym=_ZNSt12future_errorC2ESt10error_code=so_stub_for_libtelux_therm
-Wl,--defsym=_ZNSt12__shared_ptrIN5telux5therm24IThermalShutdownListenerELN9__gnu_cxx12_Lock_policyE2EEC1ERKSt10__weak_ptrIS2_LS4_2EESt9nothrow_t=so_stub_for_libtelux_therm
-Wl,--defsym=_ZNSt12__shared_ptrIN5telux5therm24IThermalShutdownListenerELN9__gnu_cxx12_Lock_policyE2EEC2ERKSt10__weak_ptrIS2_LS4_2EESt9nothrow_t=so_stub_for_libtelux_therm
-Wl,--defsym=_ZNSt12__shared_ptrIN5telux5therm26ThermalShutdownManagerImplELN9__gnu_cxx12_Lock_policyE2EEC1ISaIS2_EJEEESt19_Sp_make_shared_tagRKT_DpOT0_=so_stub_for_libtelux_therm
-Wl,--defsym=_ZNSt12__shared_ptrIN5telux5therm26ThermalShutdownManagerImplELN9__gnu_cxx12_Lock_policyE2EEC2ISaIS2_EJEEESt19_Sp_make_shared_tagRKT_DpOT0_=so_stub_for_libtelux_therm
-Wl,--defsym=_ZNSt12__shared_ptrIN5telux5therm9TripPointELN9__gnu_cxx12_Lock_policyE2EEC1ISaIS2_EJEEESt19_Sp_make_shared_tagRKT_DpOT0_=so_stub_for_libtelux_therm
-Wl,--defsym=_ZNSt12__shared_ptrIN5telux5therm9TripPointELN9__gnu_cxx12_Lock_policyE2EEC2ISaIS2_EJEEESt19_Sp_make_shared_tagRKT_DpOT0_=so_stub_for_libtelux_therm
-Wl,--defsym=_ZNSt12__shared_ptrIN5telux6common15ListenerManagerINS0_5therm24IThermalShutdownListenerEEELN9__gnu_cxx12_Lock_policyE2EEC1ISaIS5_EJEEESt19_Sp_make_shared_tagRKT_DpOT0_=so_stub_for_libtelux_therm
-Wl,--defsym=_ZNSt12__shared_ptrIN5telux6common15ListenerManagerINS0_5therm24IThermalShutdownListenerEEELN9__gnu_cxx12_Lock_policyE2EEC2ISaIS5_EJEEESt19_Sp_make_shared_tagRKT_DpOT0_=so_stub_for_libtelux_therm
-Wl,--defsym=_ZNSt12__shared_ptrINSt8__detail4_NFAINSt7__cxx1112regex_traitsIcEEEELN9__gnu_cxx12_Lock_policyE2EEC1ISaIS5_EJRKSt6localeRNSt15regex_constants18syntax_option_typeEEEESt19_Sp_make_shared_tagRKT_DpOT0_=so_stub_for_libtelux_therm
-Wl,--defsym=_ZNSt12__shared_ptrINSt8__detail4_NFAINSt7__cxx1112regex_traitsIcEEEELN9__gnu_cxx12_Lock_policyE2EEC2ISaIS5_EJRKSt6localeRNSt15regex_constants18syntax_option_typeEEEESt19_Sp_make_shared_tagRKT_DpOT0_=so_stub_for_libtelux_therm
-Wl,--defsym=_ZNSt13__future_base13_State_baseV210wait_untilINSt6chrono3_V212system_clockENS2_8durationIxSt5ratioILx1ELx1000000000EEEEEESt13future_statusRKNS2_10time_pointIT_T0_EE=so_stub_for_libtelux_therm
-Wl,--defsym=_ZNSt13__future_base13_State_baseV213_M_set_resultESt8functionIFSt10unique_ptrINS_12_Result_baseENS3_8_DeleterEEvEEb=so_stub_for_libtelux_therm
-Wl,--defsym=_ZNSt13__future_base13_State_baseV216_M_break_promiseESt10unique_ptrINS_12_Result_baseENS2_8_DeleterEE=so_stub_for_libtelux_therm
-Wl,--defsym=_ZNSt13__future_base13_State_baseV217_M_complete_asyncEv=so_stub_for_libtelux_therm
-Wl,--defsym=_ZNSt13__future_base13_State_baseV24waitEv=so_stub_for_libtelux_therm
-Wl,--defsym=_ZNSt13__future_base13_State_baseV29_M_do_setEPSt8functionIFSt10unique_ptrINS_12_Result_baseENS3_8_DeleterEEvEEPb=so_stub_for_libtelux_therm
-Wl,--defsym=_ZNSt13__future_base13_State_baseV2D0Ev=so_stub_for_libtelux_therm
-Wl,--defsym=_ZNSt13__future_base13_State_baseV2D1Ev=so_stub_for_libtelux_therm
-Wl,--defsym=_ZNSt13__future_base13_State_baseV2D2Ev=so_stub_for_libtelux_therm
-Wl,--defsym=_ZNSt13__future_base21_Async_state_commonV217_M_complete_asyncEv=so_stub_for_libtelux_therm
-Wl,--defsym=_ZNSt13__future_base21_Async_state_commonV2D0Ev=so_stub_for_libtelux_therm
-Wl,--defsym=_ZNSt13__future_base21_Async_state_commonV2D1Ev=so_stub_for_libtelux_therm
-Wl,--defsym=_ZNSt13__future_base21_Async_state_commonV2D2Ev=so_stub_for_libtelux_therm
-Wl,--defsym=_ZNSt13__future_base7_ResultIbE10_M_destroyEv=so_stub_for_libtelux_therm
-Wl,--defsym=_ZNSt13__future_base7_ResultIbED0Ev=so_stub_for_libtelux_therm
-Wl,--defsym=_ZNSt13__future_base7_ResultIbED1Ev=so_stub_for_libtelux_therm
-Wl,--defsym=_ZNSt13__future_base7_ResultIbED2Ev=so_stub_for_libtelux_therm
-Wl,--defsym=_ZNSt13__future_base7_ResultIvE10_M_destroyEv=so_stub_for_libtelux_therm
-Wl,--defsym=_ZNSt13__future_base7_ResultIvED0Ev=so_stub_for_libtelux_therm
-Wl,--defsym=_ZNSt13__future_base7_ResultIvED1Ev=so_stub_for_libtelux_therm
-Wl,--defsym=_ZNSt13__future_base7_ResultIvED2Ev=so_stub_for_libtelux_therm
-Wl,--defsym=_ZNSt14__basic_futureIbEC1ERKSt10shared_ptrINSt13__future_base13_State_baseV2EE=so_stub_for_libtelux_therm
-Wl,--defsym=_ZNSt14__basic_futureIbEC2ERKSt10shared_ptrINSt13__future_base13_State_baseV2EE=so_stub_for_libtelux_therm
-Wl,--defsym=_ZNSt14__basic_futureIvEC1ERKSt10shared_ptrINSt13__future_base13_State_baseV2EE=so_stub_for_libtelux_therm
-Wl,--defsym=_ZNSt14__basic_futureIvEC2ERKSt10shared_ptrINSt13__future_base13_State_baseV2EE=so_stub_for_libtelux_therm
-Wl,--defsym=_ZNSt14_Function_base13_Base_managerINSt8__detail11_AnyMatcherINSt7__cxx1112regex_traitsIcEELb0ELb0ELb0EEEE10_M_managerERSt9_Any_dataRKS8_St18_Manager_operation=so_stub_for_libtelux_therm
-Wl,--defsym=_ZNSt14_Function_base13_Base_managerINSt8__detail11_AnyMatcherINSt7__cxx1112regex_traitsIcEELb0ELb0ELb1EEEE10_M_managerERSt9_Any_dataRKS8_St18_Manager_operation=so_stub_for_libtelux_therm
-Wl,--defsym=_ZNSt14_Function_base13_Base_managerINSt8__detail11_AnyMatcherINSt7__cxx1112regex_traitsIcEELb0ELb1ELb0EEEE10_M_managerERSt9_Any_dataRKS8_St18_Manager_operation=so_stub_for_libtelux_therm
-Wl,--defsym=_ZNSt14_Function_base13_Base_managerINSt8__detail11_AnyMatcherINSt7__cxx1112regex_traitsIcEELb0ELb1ELb1EEEE10_M_managerERSt9_Any_dataRKS8_St18_Manager_operation=so_stub_for_libtelux_therm
-Wl,--defsym=_ZNSt14_Function_base13_Base_managerINSt8__detail11_AnyMatcherINSt7__cxx1112regex_traitsIcEELb1ELb0ELb0EEEE10_M_managerERSt9_Any_dataRKS8_St18_Manager_operation=so_stub_for_libtelux_therm
-Wl,--defsym=_ZNSt14_Function_base13_Base_managerINSt8__detail11_AnyMatcherINSt7__cxx1112regex_traitsIcEELb1ELb0ELb1EEEE10_M_managerERSt9_Any_dataRKS8_St18_Manager_operation=so_stub_for_libtelux_therm
-Wl,--defsym=_ZNSt14_Function_base13_Base_managerINSt8__detail11_AnyMatcherINSt7__cxx1112regex_traitsIcEELb1ELb1ELb0EEEE10_M_managerERSt9_Any_dataRKS8_St18_Manager_operation=so_stub_for_libtelux_therm
-Wl,--defsym=_ZNSt14_Function_base13_Base_managerINSt8__detail11_AnyMatcherINSt7__cxx1112regex_traitsIcEELb1ELb1ELb1EEEE10_M_managerERSt9_Any_dataRKS8_St18_Manager_operation=so_stub_for_libtelux_therm
-Wl,--defsym=_ZNSt14_Function_base13_Base_managerINSt8__detail12_CharMatcherINSt7__cxx1112regex_traitsIcEELb0ELb0EEEE10_M_managerERSt9_Any_dataRKS8_St18_Manager_operation=so_stub_for_libtelux_therm
-Wl,--defsym=_ZNSt14_Function_base13_Base_managerINSt8__detail12_CharMatcherINSt7__cxx1112regex_traitsIcEELb0ELb1EEEE10_M_managerERSt9_Any_dataRKS8_St18_Manager_operation=so_stub_for_libtelux_therm
-Wl,--defsym=_ZNSt14_Function_base13_Base_managerINSt8__detail12_CharMatcherINSt7__cxx1112regex_traitsIcEELb1ELb0EEEE10_M_managerERSt9_Any_dataRKS8_St18_Manager_operation=so_stub_for_libtelux_therm
-Wl,--defsym=_ZNSt14_Function_base13_Base_managerINSt8__detail12_CharMatcherINSt7__cxx1112regex_traitsIcEELb1ELb1EEEE10_M_managerERSt9_Any_dataRKS8_St18_Manager_operation=so_stub_for_libtelux_therm
-Wl,--defsym=_ZNSt14_Function_base13_Base_managerINSt8__detail15_BracketMatcherINSt7__cxx1112regex_traitsIcEELb0ELb0EEEE10_M_managerERSt9_Any_dataRKS8_St18_Manager_operation=so_stub_for_libtelux_therm
-Wl,--defsym=_ZNSt14_Function_base13_Base_managerINSt8__detail15_BracketMatcherINSt7__cxx1112regex_traitsIcEELb0ELb1EEEE10_M_managerERSt9_Any_dataRKS8_St18_Manager_operation=so_stub_for_libtelux_therm
-Wl,--defsym=_ZNSt14_Function_base13_Base_managerINSt8__detail15_BracketMatcherINSt7__cxx1112regex_traitsIcEELb1ELb0EEEE10_M_managerERSt9_Any_dataRKS8_St18_Manager_operation=so_stub_for_libtelux_therm
-Wl,--defsym=_ZNSt14_Function_base13_Base_managerINSt8__detail15_BracketMatcherINSt7__cxx1112regex_traitsIcEELb1ELb1EEEE10_M_managerERSt9_Any_dataRKS8_St18_Manager_operation=so_stub_for_libtelux_therm
-Wl,--defsym=_ZNSt14__shared_countILN9__gnu_cxx12_Lock_policyE2EEC1IN5telux5therm11ThermalZoneESaIS6_EJEEESt19_Sp_make_shared_tagPT_RKT0_DpOT1_=so_stub_for_libtelux_therm
-Wl,--defsym=_ZNSt14__shared_countILN9__gnu_cxx12_Lock_policyE2EEC1IN5telux5therm13CoolingDeviceESaIS6_EJEEESt19_Sp_make_shared_tagPT_RKT0_DpOT1_=so_stub_for_libtelux_therm
-Wl,--defsym=_ZNSt14__shared_countILN9__gnu_cxx12_Lock_policyE2EEC1IN5telux5therm14ThermalManagerESaIS6_EJEEESt19_Sp_make_shared_tagPT_RKT0_DpOT1_=so_stub_for_libtelux_therm
-Wl,--defsym=_ZNSt14__shared_countILN9__gnu_cxx12_Lock_policyE2EEC1IN5telux5therm26ThermalShutdownManagerImplESaIS6_EJEEESt19_Sp_make_shared_tagPT_RKT0_DpOT1_=so_stub_for_libtelux_therm
-Wl,--defsym=_ZNSt14__shared_countILN9__gnu_cxx12_Lock_policyE2EEC1IN5telux5therm9TripPointESaIS6_EJEEESt19_Sp_make_shared_tagPT_RKT0_DpOT1_=so_stub_for_libtelux_therm
-Wl,--defsym=_ZNSt14__shared_countILN9__gnu_cxx12_Lock_policyE2EEC1IN5telux6common18FunctionalCallbackIJNS4_5therm16AutoShutdownModeEEEESaIS9_EJRSt8functionIFvS8_EEEEESt19_Sp_make_shared_tagPT_RKT0_DpOT1_=so_stub_for_libtelux_therm
-Wl,--defsym=_ZNSt14__shared_countILN9__gnu_cxx12_Lock_policyE2EEC1IN5telux6common18FunctionalCallbackIJNS5_9ErrorCodeEEEESaIS8_EJRSt8functionIFvS7_EEEEESt19_Sp_make_shared_tagPT_RKT0_DpOT1_=so_stub_for_libtelux_therm
-Wl,--defsym=_ZNSt14__shared_countILN9__gnu_cxx12_Lock_policyE2EEC2IN5telux5therm11ThermalZoneESaIS6_EJEEESt19_Sp_make_shared_tagPT_RKT0_DpOT1_=so_stub_for_libtelux_therm
-Wl,--defsym=_ZNSt14__shared_countILN9__gnu_cxx12_Lock_policyE2EEC2IN5telux5therm13CoolingDeviceESaIS6_EJEEESt19_Sp_make_shared_tagPT_RKT0_DpOT1_=so_stub_for_libtelux_therm
-Wl,--defsym=_ZNSt14__shared_countILN9__gnu_cxx12_Lock_policyE2EEC2IN5telux5therm14ThermalManagerESaIS6_EJEEESt19_Sp_make_shared_tagPT_RKT0_DpOT1_=so_stub_for_libtelux_therm
-Wl,--defsym=_ZNSt14__shared_countILN9__gnu_cxx12_Lock_policyE2EEC2IN5telux5therm26ThermalShutdownManagerImplESaIS6_EJEEESt19_Sp_make_shared_tagPT_RKT0_DpOT1_=so_stub_for_libtelux_therm
-Wl,--defsym=_ZNSt14__shared_countILN9__gnu_cxx12_Lock_policyE2EEC2IN5telux5therm9TripPointESaIS6_EJEEESt19_Sp_make_shared_tagPT_RKT0_DpOT1_=so_stub_for_libtelux_therm
-Wl,--defsym=_ZNSt14__shared_countILN9__gnu_cxx12_Lock_policyE2EEC2IN5telux6common18FunctionalCallbackIJNS4_5therm16AutoShutdownModeEEEESaIS9_EJRSt8functionIFvS8_EEEEESt19_Sp_make_shared_tagPT_RKT0_DpOT1_=so_stub_for_libtelux_therm
-Wl,--defsym=_ZNSt14__shared_countILN9__gnu_cxx12_Lock_policyE2EEC2IN5telux6common18FunctionalCallbackIJNS5_9ErrorCodeEEEESaIS8_EJRSt8functionIFvS7_EEEEESt19_Sp_make_shared_tagPT_RKT0_DpOT1_=so_stub_for_libtelux_therm
-Wl,--defsym=_ZNSt15_Deque_iteratorISt13shared_futureIvERS1_PS1_EpLEi=so_stub_for_libtelux_therm
-Wl,--defsym=_ZNSt15__exception_ptr12__dest_thunkISt12future_errorEEvPv=so_stub_for_libtelux_therm
-Wl,--defsym=_ZNSt15_Sp_counted_ptrIDnLN9__gnu_cxx12_Lock_policyE2EE10_M_disposeEv=so_stub_for_libtelux_therm
-Wl,--defsym=_ZNSt16_Sp_counted_baseILN9__gnu_cxx12_Lock_policyE2EE10_M_destroyEv=so_stub_for_libtelux_therm
-Wl,--defsym=_ZNSt16_Sp_counted_baseILN9__gnu_cxx12_Lock_policyE2EE10_M_releaseEv=so_stub_for_libtelux_therm
-Wl,--defsym=_ZNSt16_Sp_counted_baseILN9__gnu_cxx12_Lock_policyE2EE15_M_weak_releaseEv=so_stub_for_libtelux_therm
-Wl,--defsym=_ZNSt17_Function_handlerIFbcENSt8__detail11_AnyMatcherINSt7__cxx1112regex_traitsIcEELb0ELb0ELb0EEEE9_M_invokeERKSt9_Any_dataOc=so_stub_for_libtelux_therm
-Wl,--defsym=_ZNSt17_Function_handlerIFbcENSt8__detail11_AnyMatcherINSt7__cxx1112regex_traitsIcEELb0ELb0ELb1EEEE9_M_invokeERKSt9_Any_dataOc=so_stub_for_libtelux_therm
-Wl,--defsym=_ZNSt17_Function_handlerIFbcENSt8__detail11_AnyMatcherINSt7__cxx1112regex_traitsIcEELb0ELb1ELb0EEEE9_M_invokeERKSt9_Any_dataOc=so_stub_for_libtelux_therm
-Wl,--defsym=_ZNSt17_Function_handlerIFbcENSt8__detail11_AnyMatcherINSt7__cxx1112regex_traitsIcEELb0ELb1ELb1EEEE9_M_invokeERKSt9_Any_dataOc=so_stub_for_libtelux_therm
-Wl,--defsym=_ZNSt17_Function_handlerIFbcENSt8__detail11_AnyMatcherINSt7__cxx1112regex_traitsIcEELb1ELb0ELb0EEEE9_M_invokeERKSt9_Any_dataOc=so_stub_for_libtelux_therm
-Wl,--defsym=_ZNSt17_Function_handlerIFbcENSt8__detail11_AnyMatcherINSt7__cxx1112regex_traitsIcEELb1ELb0ELb1EEEE9_M_invokeERKSt9_Any_dataOc=so_stub_for_libtelux_therm
-Wl,--defsym=_ZNSt17_Function_handlerIFbcENSt8__detail11_AnyMatcherINSt7__cxx1112regex_traitsIcEELb1ELb1ELb0EEEE9_M_invokeERKSt9_Any_dataOc=so_stub_for_libtelux_therm
-Wl,--defsym=_ZNSt17_Function_handlerIFbcENSt8__detail11_AnyMatcherINSt7__cxx1112regex_traitsIcEELb1ELb1ELb1EEEE9_M_invokeERKSt9_Any_dataOc=so_stub_for_libtelux_therm
-Wl,--defsym=_ZNSt17_Function_handlerIFbcENSt8__detail12_CharMatcherINSt7__cxx1112regex_traitsIcEELb0ELb0EEEE9_M_invokeERKSt9_Any_dataOc=so_stub_for_libtelux_therm
-Wl,--defsym=_ZNSt17_Function_handlerIFbcENSt8__detail12_CharMatcherINSt7__cxx1112regex_traitsIcEELb0ELb1EEEE9_M_invokeERKSt9_Any_dataOc=so_stub_for_libtelux_therm
-Wl,--defsym=_ZNSt17_Function_handlerIFbcENSt8__detail12_CharMatcherINSt7__cxx1112regex_traitsIcEELb1ELb0EEEE9_M_invokeERKSt9_Any_dataOc=so_stub_for_libtelux_therm
-Wl,--defsym=_ZNSt17_Function_handlerIFbcENSt8__detail12_CharMatcherINSt7__cxx1112regex_traitsIcEELb1ELb1EEEE9_M_invokeERKSt9_Any_dataOc=so_stub_for_libtelux_therm
-Wl,--defsym=_ZNSt17_Function_handlerIFbcENSt8__detail15_BracketMatcherINSt7__cxx1112regex_traitsIcEELb0ELb0EEEE9_M_invokeERKSt9_Any_dataOc=so_stub_for_libtelux_therm
-Wl,--defsym=_ZNSt17_Function_handlerIFbcENSt8__detail15_BracketMatcherINSt7__cxx1112regex_traitsIcEELb0ELb1EEEE9_M_invokeERKSt9_Any_dataOc=so_stub_for_libtelux_therm
-Wl,--defsym=_ZNSt17_Function_handlerIFbcENSt8__detail15_BracketMatcherINSt7__cxx1112regex_traitsIcEELb1ELb0EEEE9_M_invokeERKSt9_Any_dataOc=so_stub_for_libtelux_therm
-Wl,--defsym=_ZNSt17_Function_handlerIFbcENSt8__detail15_BracketMatcherINSt7__cxx1112regex_traitsIcEELb1ELb1EEEE9_M_invokeERKSt9_Any_dataOc=so_stub_for_libtelux_therm
-Wl,--defsym=_ZNSt20__copy_move_backwardILb1ELb0ESt26random_access_iterator_tagE13__copy_move_bIPSt13shared_futureIvES5_EET0_T_S7_S6_=so_stub_for_libtelux_therm
-Wl,--defsym=_ZNSt20__uninitialized_copyILb0EE13__uninit_copyIN9__gnu_cxx17__normal_iteratorIPKN5telux5therm18BoundCoolingDeviceESt6vectorIS6_SaIS6_EEEEPS6_EET0_T_SF_SE_=so_stub_for_libtelux_therm
-Wl,--defsym=_ZNSt20__uninitialized_copyILb0EE13__uninit_copyIN9__gnu_cxx17__normal_iteratorIPKNSt7__cxx1112basic_stringIcSt11char_traitsIcESaIcEEESt6vectorIS9_SaIS9_EEEEPS9_EET0_T_SI_SH_=so_stub_for_libtelux_therm
-Wl,--defsym=_ZNSt20__uninitialized_copyILb0EE13__uninit_copyIN9__gnu_cxx17__normal_iteratorIPKSt4pairINSt7__cxx1112basic_stringIcSt11char_traitsIcESaIcEEESA_ESt6vectorISB_SaISB_EEEEPSB_EET0_T_SK_SJ_=so_stub_for_libtelux_therm
-Wl,--defsym=_ZNSt20__uninitialized_copyILb0EE13__uninit_copyINSt7__cxx1120regex_token_iteratorIN9__gnu_cxx17__normal_iteratorIPKcNS2_12basic_stringIcSt11char_traitsIcESaIcEEEEEcNS2_12regex_traitsIcEEEEPSC_EET0_T_SJ_SI_=so_stub_for_libtelux_therm
-Wl,--defsym=_ZNSt20__uninitialized_copyILb0EE13__uninit_copyIPKNSt7__cxx1112basic_stringIcSt11char_traitsIcESaIcEEEPS7_EET0_T_SC_SB_=so_stub_for_libtelux_therm
-Wl,--defsym=_ZNSt20__uninitialized_copyILb0EE13__uninit_copyIPKNSt8__detail6_StateIcEEPS4_EET0_T_S9_S8_=so_stub_for_libtelux_therm
-Wl,--defsym=_ZNSt23__atomic_futex_unsignedILj2147483648EE22_M_load_and_test_untilEjjbSt12memory_orderbNSt6chrono8durationIxSt5ratioILx1ELx1EEEENS3_IxS4_ILx1ELx1000000000EEEE=so_stub_for_libtelux_therm
-Wl,--defsym=_ZNSt23_Sp_counted_ptr_inplaceIN5telux5therm11ThermalZoneESaIS2_ELN9__gnu_cxx12_Lock_policyE2EE10_M_destroyEv=so_stub_for_libtelux_therm
-Wl,--defsym=_ZNSt23_Sp_counted_ptr_inplaceIN5telux5therm11ThermalZoneESaIS2_ELN9__gnu_cxx12_Lock_policyE2EE10_M_disposeEv=so_stub_for_libtelux_therm
-Wl,--defsym=_ZNSt23_Sp_counted_ptr_inplaceIN5telux5therm11ThermalZoneESaIS2_ELN9__gnu_cxx12_Lock_policyE2EE14_M_get_deleterERKSt9type_info=so_stub_for_libtelux_therm
-Wl,--defsym=_ZNSt23_Sp_counted_ptr_inplaceIN5telux5therm11ThermalZoneESaIS2_ELN9__gnu_cxx12_Lock_policyE2EED0Ev=so_stub_for_libtelux_therm
-Wl,--defsym=_ZNSt23_Sp_counted_ptr_inplaceIN5telux5therm11ThermalZoneESaIS2_ELN9__gnu_cxx12_Lock_policyE2EED1Ev=so_stub_for_libtelux_therm
-Wl,--defsym=_ZNSt23_Sp_counted_ptr_inplaceIN5telux5therm11ThermalZoneESaIS2_ELN9__gnu_cxx12_Lock_policyE2EED2Ev=so_stub_for_libtelux_therm
-Wl,--defsym=_ZNSt23_Sp_counted_ptr_inplaceIN5telux5therm13CoolingDeviceESaIS2_ELN9__gnu_cxx12_Lock_policyE2EE10_M_destroyEv=so_stub_for_libtelux_therm
-Wl,--defsym=_ZNSt23_Sp_counted_ptr_inplaceIN5telux5therm13CoolingDeviceESaIS2_ELN9__gnu_cxx12_Lock_policyE2EE10_M_disposeEv=so_stub_for_libtelux_therm
-Wl,--defsym=_ZNSt23_Sp_counted_ptr_inplaceIN5telux5therm13CoolingDeviceESaIS2_ELN9__gnu_cxx12_Lock_policyE2EE14_M_get_deleterERKSt9type_info=so_stub_for_libtelux_therm
-Wl,--defsym=_ZNSt23_Sp_counted_ptr_inplaceIN5telux5therm13CoolingDeviceESaIS2_ELN9__gnu_cxx12_Lock_policyE2EED0Ev=so_stub_for_libtelux_therm
-Wl,--defsym=_ZNSt23_Sp_counted_ptr_inplaceIN5telux5therm13CoolingDeviceESaIS2_ELN9__gnu_cxx12_Lock_policyE2EED1Ev=so_stub_for_libtelux_therm
-Wl,--defsym=_ZNSt23_Sp_counted_ptr_inplaceIN5telux5therm13CoolingDeviceESaIS2_ELN9__gnu_cxx12_Lock_policyE2EED2Ev=so_stub_for_libtelux_therm
-Wl,--defsym=_ZNSt23_Sp_counted_ptr_inplaceIN5telux5therm14ThermalManagerESaIS2_ELN9__gnu_cxx12_Lock_policyE2EE10_M_destroyEv=so_stub_for_libtelux_therm
-Wl,--defsym=_ZNSt23_Sp_counted_ptr_inplaceIN5telux5therm14ThermalManagerESaIS2_ELN9__gnu_cxx12_Lock_policyE2EE10_M_disposeEv=so_stub_for_libtelux_therm
-Wl,--defsym=_ZNSt23_Sp_counted_ptr_inplaceIN5telux5therm14ThermalManagerESaIS2_ELN9__gnu_cxx12_Lock_policyE2EE14_M_get_deleterERKSt9type_info=so_stub_for_libtelux_therm
-Wl,--defsym=_ZNSt23_Sp_counted_ptr_inplaceIN5telux5therm14ThermalManagerESaIS2_ELN9__gnu_cxx12_Lock_policyE2EED0Ev=so_stub_for_libtelux_therm
-Wl,--defsym=_ZNSt23_Sp_counted_ptr_inplaceIN5telux5therm14ThermalManagerESaIS2_ELN9__gnu_cxx12_Lock_policyE2EED1Ev=so_stub_for_libtelux_therm
-Wl,--defsym=_ZNSt23_Sp_counted_ptr_inplaceIN5telux5therm14ThermalManagerESaIS2_ELN9__gnu_cxx12_Lock_policyE2EED2Ev=so_stub_for_libtelux_therm
-Wl,--defsym=_ZNSt23_Sp_counted_ptr_inplaceIN5telux5therm26ThermalShutdownManagerImplESaIS2_ELN9__gnu_cxx12_Lock_policyE2EE10_M_destroyEv=so_stub_for_libtelux_therm
-Wl,--defsym=_ZNSt23_Sp_counted_ptr_inplaceIN5telux5therm26ThermalShutdownManagerImplESaIS2_ELN9__gnu_cxx12_Lock_policyE2EE10_M_disposeEv=so_stub_for_libtelux_therm
-Wl,--defsym=_ZNSt23_Sp_counted_ptr_inplaceIN5telux5therm26ThermalShutdownManagerImplESaIS2_ELN9__gnu_cxx12_Lock_policyE2EE14_M_get_deleterERKSt9type_info=so_stub_for_libtelux_therm
-Wl,--defsym=_ZNSt23_Sp_counted_ptr_inplaceIN5telux5therm26ThermalShutdownManagerImplESaIS2_ELN9__gnu_cxx12_Lock_policyE2EED0Ev=so_stub_for_libtelux_therm
-Wl,--defsym=_ZNSt23_Sp_counted_ptr_inplaceIN5telux5therm26ThermalShutdownManagerImplESaIS2_ELN9__gnu_cxx12_Lock_policyE2EED1Ev=so_stub_for_libtelux_therm
-Wl,--defsym=_ZNSt23_Sp_counted_ptr_inplaceIN5telux5therm26ThermalShutdownManagerImplESaIS2_ELN9__gnu_cxx12_Lock_policyE2EED2Ev=so_stub_for_libtelux_therm
-Wl,--defsym=_ZNSt23_Sp_counted_ptr_inplaceIN5telux5therm9TripPointESaIS2_ELN9__gnu_cxx12_Lock_policyE2EE10_M_destroyEv=so_stub_for_libtelux_therm
-Wl,--defsym=_ZNSt23_Sp_counted_ptr_inplaceIN5telux5therm9TripPointESaIS2_ELN9__gnu_cxx12_Lock_policyE2EE10_M_disposeEv=so_stub_for_libtelux_therm
-Wl,--defsym=_ZNSt23_Sp_counted_ptr_inplaceIN5telux5therm9TripPointESaIS2_ELN9__gnu_cxx12_Lock_policyE2EE14_M_get_deleterERKSt9type_info=so_stub_for_libtelux_therm
-Wl,--defsym=_ZNSt23_Sp_counted_ptr_inplaceIN5telux5therm9TripPointESaIS2_ELN9__gnu_cxx12_Lock_policyE2EED0Ev=so_stub_for_libtelux_therm
-Wl,--defsym=_ZNSt23_Sp_counted_ptr_inplaceIN5telux5therm9TripPointESaIS2_ELN9__gnu_cxx12_Lock_policyE2EED1Ev=so_stub_for_libtelux_therm
-Wl,--defsym=_ZNSt23_Sp_counted_ptr_inplaceIN5telux5therm9TripPointESaIS2_ELN9__gnu_cxx12_Lock_policyE2EED2Ev=so_stub_for_libtelux_therm
-Wl,--defsym=_ZNSt23_Sp_counted_ptr_inplaceIN5telux6common15ListenerManagerINS0_5therm24IThermalShutdownListenerEEESaIS5_ELN9__gnu_cxx12_Lock_policyE2EE10_M_destroyEv=so_stub_for_libtelux_therm
-Wl,--defsym=_ZNSt23_Sp_counted_ptr_inplaceIN5telux6common15ListenerManagerINS0_5therm24IThermalShutdownListenerEEESaIS5_ELN9__gnu_cxx12_Lock_policyE2EE10_M_disposeEv=so_stub_for_libtelux_therm
-Wl,--defsym=_ZNSt23_Sp_counted_ptr_inplaceIN5telux6common15ListenerManagerINS0_5therm24IThermalShutdownListenerEEESaIS5_ELN9__gnu_cxx12_Lock_policyE2EE14_M_get_deleterERKSt9type_info=so_stub_for_libtelux_therm
-Wl,--defsym=_ZNSt23_Sp_counted_ptr_inplaceIN5telux6common15ListenerManagerINS0_5therm24IThermalShutdownListenerEEESaIS5_ELN9__gnu_cxx12_Lock_policyE2EED0Ev=so_stub_for_libtelux_therm
-Wl,--defsym=_ZNSt23_Sp_counted_ptr_inplaceIN5telux6common15ListenerManagerINS0_5therm24IThermalShutdownListenerEEESaIS5_ELN9__gnu_cxx12_Lock_policyE2EED1Ev=so_stub_for_libtelux_therm
-Wl,--defsym=_ZNSt23_Sp_counted_ptr_inplaceIN5telux6common15ListenerManagerINS0_5therm24IThermalShutdownListenerEEESaIS5_ELN9__gnu_cxx12_Lock_policyE2EED2Ev=so_stub_for_libtelux_therm
-Wl,--defsym=_ZNSt23_Sp_counted_ptr_inplaceIN5telux6common18FunctionalCallbackIJNS0_5therm16AutoShutdownModeEEEESaIS5_ELN9__gnu_cxx12_Lock_policyE2EE10_M_destroyEv=so_stub_for_libtelux_therm
-Wl,--defsym=_ZNSt23_Sp_counted_ptr_inplaceIN5telux6common18FunctionalCallbackIJNS0_5therm16AutoShutdownModeEEEESaIS5_ELN9__gnu_cxx12_Lock_policyE2EE10_M_disposeEv=so_stub_for_libtelux_therm
-Wl,--defsym=_ZNSt23_Sp_counted_ptr_inplaceIN5telux6common18FunctionalCallbackIJNS0_5therm16AutoShutdownModeEEEESaIS5_ELN9__gnu_cxx12_Lock_policyE2EE14_M_get_deleterERKSt9type_info=so_stub_for_libtelux_therm
-Wl,--defsym=_ZNSt23_Sp_counted_ptr_inplaceIN5telux6common18FunctionalCallbackIJNS0_5therm16AutoShutdownModeEEEESaIS5_ELN9__gnu_cxx12_Lock_policyE2EED0Ev=so_stub_for_libtelux_therm
-Wl,--defsym=_ZNSt23_Sp_counted_ptr_inplaceIN5telux6common18FunctionalCallbackIJNS0_5therm16AutoShutdownModeEEEESaIS5_ELN9__gnu_cxx12_Lock_policyE2EED1Ev=so_stub_for_libtelux_therm
-Wl,--defsym=_ZNSt23_Sp_counted_ptr_inplaceIN5telux6common18FunctionalCallbackIJNS0_5therm16AutoShutdownModeEEEESaIS5_ELN9__gnu_cxx12_Lock_policyE2EED2Ev=so_stub_for_libtelux_therm
-Wl,--defsym=_ZNSt23_Sp_counted_ptr_inplaceIN5telux6common18FunctionalCallbackIJNS1_9ErrorCodeEEEESaIS4_ELN9__gnu_cxx12_Lock_policyE2EE10_M_destroyEv=so_stub_for_libtelux_therm
-Wl,--defsym=_ZNSt23_Sp_counted_ptr_inplaceIN5telux6common18FunctionalCallbackIJNS1_9ErrorCodeEEEESaIS4_ELN9__gnu_cxx12_Lock_policyE2EE10_M_disposeEv=so_stub_for_libtelux_therm
-Wl,--defsym=_ZNSt23_Sp_counted_ptr_inplaceIN5telux6common18FunctionalCallbackIJNS1_9ErrorCodeEEEESaIS4_ELN9__gnu_cxx12_Lock_policyE2EE14_M_get_deleterERKSt9type_info=so_stub_for_libtelux_therm
-Wl,--defsym=_ZNSt23_Sp_counted_ptr_inplaceIN5telux6common18FunctionalCallbackIJNS1_9ErrorCodeEEEESaIS4_ELN9__gnu_cxx12_Lock_policyE2EED0Ev=so_stub_for_libtelux_therm
-Wl,--defsym=_ZNSt23_Sp_counted_ptr_inplaceIN5telux6common18FunctionalCallbackIJNS1_9ErrorCodeEEEESaIS4_ELN9__gnu_cxx12_Lock_policyE2EED1Ev=so_stub_for_libtelux_therm
-Wl,--defsym=_ZNSt23_Sp_counted_ptr_inplaceIN5telux6common18FunctionalCallbackIJNS1_9ErrorCodeEEEESaIS4_ELN9__gnu_cxx12_Lock_policyE2EED2Ev=so_stub_for_libtelux_therm
-Wl,--defsym=_ZNSt23_Sp_counted_ptr_inplaceINSt8__detail4_NFAINSt7__cxx1112regex_traitsIcEEEESaIS5_ELN9__gnu_cxx12_Lock_policyE2EE10_M_destroyEv=so_stub_for_libtelux_therm
-Wl,--defsym=_ZNSt23_Sp_counted_ptr_inplaceINSt8__detail4_NFAINSt7__cxx1112regex_traitsIcEEEESaIS5_ELN9__gnu_cxx12_Lock_policyE2EE10_M_disposeEv=so_stub_for_libtelux_therm
-Wl,--defsym=_ZNSt23_Sp_counted_ptr_inplaceINSt8__detail4_NFAINSt7__cxx1112regex_traitsIcEEEESaIS5_ELN9__gnu_cxx12_Lock_policyE2EE14_M_get_deleterERKSt9type_info=so_stub_for_libtelux_therm
-Wl,--defsym=_ZNSt23_Sp_counted_ptr_inplaceINSt8__detail4_NFAINSt7__cxx1112regex_traitsIcEEEESaIS5_ELN9__gnu_cxx12_Lock_policyE2EED0Ev=so_stub_for_libtelux_therm
-Wl,--defsym=_ZNSt23_Sp_counted_ptr_inplaceINSt8__detail4_NFAINSt7__cxx1112regex_traitsIcEEEESaIS5_ELN9__gnu_cxx12_Lock_policyE2EED1Ev=so_stub_for_libtelux_therm
-Wl,--defsym=_ZNSt23_Sp_counted_ptr_inplaceINSt8__detail4_NFAINSt7__cxx1112regex_traitsIcEEEESaIS5_ELN9__gnu_cxx12_Lock_policyE2EED2Ev=so_stub_for_libtelux_therm
-Wl,--defsym=_ZNSt3mapIllSt4lessIlESaISt4pairIKllEEEixERS3_=so_stub_for_libtelux_therm
-Wl,--defsym=_ZNSt4pairINSt7__cxx1112basic_stringIcSt11char_traitsIcESaIcEEES5_ED1Ev=so_stub_for_libtelux_therm
-Wl,--defsym=_ZNSt4pairINSt7__cxx1112basic_stringIcSt11char_traitsIcESaIcEEES5_ED2Ev=so_stub_for_libtelux_therm
-Wl,--defsym=_ZNSt5dequeIlSaIlEE16_M_push_back_auxIJRKlEEEvDpOT_=so_stub_for_libtelux_therm
-Wl,--defsym=_ZNSt5dequeINSt8__detail9_StateSeqINSt7__cxx1112regex_traitsIcEEEESaIS5_EE16_M_push_back_auxIJRKS5_EEEvDpOT_=so_stub_for_libtelux_therm
-Wl,--defsym=_ZNSt5dequeINSt8__detail9_StateSeqINSt7__cxx1112regex_traitsIcEEEESaIS5_EE16_M_push_back_auxIJS5_EEEvDpOT_=so_stub_for_libtelux_therm
-Wl,--defsym=_ZNSt5dequeINSt8__detail9_StateSeqINSt7__cxx1112regex_traitsIcEEEESaIS5_EE17_M_reallocate_mapEjb=so_stub_for_libtelux_therm
-Wl,--defsym=_ZNSt5dequeISt13shared_futureIvESaIS1_EE16_M_push_back_auxIJRKS1_EEEvDpOT_=so_stub_for_libtelux_therm
-Wl,--defsym=_ZNSt5dequeISt13shared_futureIvESaIS1_EE19_M_destroy_data_auxESt15_Deque_iteratorIS1_RS1_PS1_ES7_=so_stub_for_libtelux_therm
-Wl,--defsym=_ZNSt5dequeISt13shared_futureIvESaIS1_EE8_M_eraseESt15_Deque_iteratorIS1_RS1_PS1_E=so_stub_for_libtelux_therm
-Wl,--defsym=_ZNSt5dequeISt13shared_futureIvESaIS1_EE8pop_backEv=so_stub_for_libtelux_therm
-Wl,--defsym=_ZNSt5dequeISt13shared_futureIvESaIS1_EE9pop_frontEv=so_stub_for_libtelux_therm
-Wl,--defsym=_ZNSt5dequeISt13shared_futureIvESaIS1_EE9push_backERKS1_=so_stub_for_libtelux_therm
-Wl,--defsym=_ZNSt5dequeISt13shared_futureIvESaIS1_EED1Ev=so_stub_for_libtelux_therm
-Wl,--defsym=_ZNSt5dequeISt13shared_futureIvESaIS1_EED2Ev=so_stub_for_libtelux_therm
-Wl,--defsym=_ZNSt6futureIbE3getEv=so_stub_for_libtelux_therm
-Wl,--defsym=_ZNSt6vectorIcSaIcEE17_M_realloc_insertIJcEEEvN9__gnu_cxx17__normal_iteratorIPcS1_EEDpOT_=so_stub_for_libtelux_therm
-Wl,--defsym=_ZNSt6vectorIcSaIcEEC1ERKS1_=so_stub_for_libtelux_therm
-Wl,--defsym=_ZNSt6vectorIcSaIcEEC1IPKcvEET_S5_RKS0_=so_stub_for_libtelux_therm
-Wl,--defsym=_ZNSt6vectorIcSaIcEEC2ERKS1_=so_stub_for_libtelux_therm
-Wl,--defsym=_ZNSt6vectorIcSaIcEEC2IPKcvEET_S5_RKS0_=so_stub_for_libtelux_therm
-Wl,--defsym=_ZNSt6vectorIiSaIiEEaSERKS1_=so_stub_for_libtelux_therm
-Wl,--defsym=_ZNSt6vectorIiSaIiEEC1ERKS1_=so_stub_for_libtelux_therm
-Wl,--defsym=_ZNSt6vectorIiSaIiEEC2ERKS1_=so_stub_for_libtelux_therm
-Wl,--defsym=_ZNSt6vectorIjSaIjEE17_M_realloc_insertIJRKjEEEvN9__gnu_cxx17__normal_iteratorIPjS1_EEDpOT_=so_stub_for_libtelux_therm
-Wl,--defsym=_ZNSt6vectorIN5telux5therm18BoundCoolingDeviceESaIS2_EE17_M_realloc_insertIJRS2_EEEvN9__gnu_cxx17__normal_iteratorIPS2_S4_EEDpOT_=so_stub_for_libtelux_therm
-Wl,--defsym=_ZNSt6vectorIN5telux5therm18BoundCoolingDeviceESaIS2_EEC1ERKS4_=so_stub_for_libtelux_therm
-Wl,--defsym=_ZNSt6vectorIN5telux5therm18BoundCoolingDeviceESaIS2_EEC2ERKS4_=so_stub_for_libtelux_therm
-Wl,--defsym=_ZNSt6vectorIN5telux5therm18BoundCoolingDeviceESaIS2_EED1Ev=so_stub_for_libtelux_therm
-Wl,--defsym=_ZNSt6vectorIN5telux5therm18BoundCoolingDeviceESaIS2_EED2Ev=so_stub_for_libtelux_therm
-Wl,--defsym=_ZNSt6vectorINSt7__cxx1112basic_stringIcSt11char_traitsIcESaIcEEESaIS5_EE17_M_realloc_insertIJRKS5_EEEvN9__gnu_cxx17__normal_iteratorIPS5_S7_EEDpOT_=so_stub_for_libtelux_therm
-Wl,--defsym=_ZNSt6vectorINSt7__cxx1112basic_stringIcSt11char_traitsIcESaIcEEESaIS5_EE19_M_range_initializeINS0_20regex_token_iteratorIN9__gnu_cxx17__normal_iteratorIPKcS5_EEcNS0_12regex_traitsIcEEEEEEvT_SI_St20forward_iterator_tag=so_stub_for_libtelux_therm
-Wl,--defsym=_ZNSt6vectorINSt7__cxx1112basic_stringIcSt11char_traitsIcESaIcEEESaIS5_EE9push_backERKS5_=so_stub_for_libtelux_therm
-Wl,--defsym=_ZNSt6vectorINSt7__cxx1112basic_stringIcSt11char_traitsIcESaIcEEESaIS5_EEC1ERKS7_=so_stub_for_libtelux_therm
-Wl,--defsym=_ZNSt6vectorINSt7__cxx1112basic_stringIcSt11char_traitsIcESaIcEEESaIS5_EEC1ESt16initializer_listIS5_ERKS6_=so_stub_for_libtelux_therm
-Wl,--defsym=_ZNSt6vectorINSt7__cxx1112basic_stringIcSt11char_traitsIcESaIcEEESaIS5_EEC1INS0_20regex_token_iteratorIN9__gnu_cxx17__normal_iteratorIPKcS5_EEcNS0_12regex_traitsIcEEEEvEET_SI_RKS6_=so_stub_for_libtelux_therm
-Wl,--defsym=_ZNSt6vectorINSt7__cxx1112basic_stringIcSt11char_traitsIcESaIcEEESaIS5_EEC2ERKS7_=so_stub_for_libtelux_therm
-Wl,--defsym=_ZNSt6vectorINSt7__cxx1112basic_stringIcSt11char_traitsIcESaIcEEESaIS5_EEC2ESt16initializer_listIS5_ERKS6_=so_stub_for_libtelux_therm
-Wl,--defsym=_ZNSt6vectorINSt7__cxx1112basic_stringIcSt11char_traitsIcESaIcEEESaIS5_EEC2INS0_20regex_token_iteratorIN9__gnu_cxx17__normal_iteratorIPKcS5_EEcNS0_12regex_traitsIcEEEEvEET_SI_RKS6_=so_stub_for_libtelux_therm
-Wl,--defsym=_ZNSt6vectorINSt7__cxx1112basic_stringIcSt11char_traitsIcESaIcEEESaIS5_EED1Ev=so_stub_for_libtelux_therm
-Wl,--defsym=_ZNSt6vectorINSt7__cxx1112basic_stringIcSt11char_traitsIcESaIcEEESaIS5_EED2Ev=so_stub_for_libtelux_therm
-Wl,--defsym=_ZNSt6vectorINSt7__cxx1112regex_traitsIcE10_RegexMaskESaIS3_EE17_M_realloc_insertIJRKS3_EEEvN9__gnu_cxx17__normal_iteratorIPS3_S5_EEDpOT_=so_stub_for_libtelux_therm
-Wl,--defsym=_ZNSt6vectorINSt7__cxx1112regex_traitsIcE10_RegexMaskESaIS3_EEC1ERKS5_=so_stub_for_libtelux_therm
-Wl,--defsym=_ZNSt6vectorINSt7__cxx1112regex_traitsIcE10_RegexMaskESaIS3_EEC2ERKS5_=so_stub_for_libtelux_therm
-Wl,--defsym=_ZNSt6vectorINSt7__cxx119sub_matchIN9__gnu_cxx17__normal_iteratorIPKcNS0_12basic_stringIcSt11char_traitsIcESaIcEEEEEEESaISC_EE17_M_default_appendEj=so_stub_for_libtelux_therm
-Wl,--defsym=_ZNSt6vectorINSt7__cxx119sub_matchIN9__gnu_cxx17__normal_iteratorIPKcNS0_12basic_stringIcSt11char_traitsIcESaIcEEEEEEESaISC_EE6resizeEj=so_stub_for_libtelux_therm
-Wl,--defsym=_ZNSt6vectorINSt7__cxx119sub_matchIN9__gnu_cxx17__normal_iteratorIPKcNS0_12basic_stringIcSt11char_traitsIcESaIcEEEEEEESaISC_EEaSERKSE_=so_stub_for_libtelux_therm
-Wl,--defsym=_ZNSt6vectorINSt7__cxx119sub_matchIN9__gnu_cxx17__normal_iteratorIPKcNS0_12basic_stringIcSt11char_traitsIcESaIcEEEEEEESaISC_EEC1ERKSE_=so_stub_for_libtelux_therm
-Wl,--defsym=_ZNSt6vectorINSt7__cxx119sub_matchIN9__gnu_cxx17__normal_iteratorIPKcNS0_12basic_stringIcSt11char_traitsIcESaIcEEEEEEESaISC_EEC2ERKSE_=so_stub_for_libtelux_therm
-Wl,--defsym=_ZNSt6vectorINSt8__detail6_StateIcEESaIS2_EE12emplace_backIJS2_EEEvDpOT_=so_stub_for_libtelux_therm
-Wl,--defsym=_ZNSt6vectorINSt8__detail6_StateIcEESaIS2_EE17_M_realloc_insertIJS2_EEEvN9__gnu_cxx17__normal_iteratorIPS2_S4_EEDpOT_=so_stub_for_libtelux_therm
-Wl,--defsym=_ZNSt6vectorINSt8__detail6_StateIcEESaIS2_EED1Ev=so_stub_for_libtelux_therm
-Wl,--defsym=_ZNSt6vectorINSt8__detail6_StateIcEESaIS2_EED2Ev=so_stub_for_libtelux_therm
-Wl,--defsym=_ZNSt6vectorISt10shared_ptrIN5telux5therm10ITripPointEESaIS4_EE12emplace_backIJRS0_INS2_9TripPointEEEEEvDpOT_=so_stub_for_libtelux_therm
-Wl,--defsym=_ZNSt6vectorISt10shared_ptrIN5telux5therm10ITripPointEESaIS4_EE17_M_realloc_insertIJRS0_INS2_9TripPointEEEEEvN9__gnu_cxx17__normal_iteratorIPS4_S6_EEDpOT_=so_stub_for_libtelux_therm
-Wl,--defsym=_ZNSt6vectorISt10shared_ptrIN5telux5therm10ITripPointEESaIS4_EEC1ERKS6_=so_stub_for_libtelux_therm
-Wl,--defsym=_ZNSt6vectorISt10shared_ptrIN5telux5therm10ITripPointEESaIS4_EEC2ERKS6_=so_stub_for_libtelux_therm
-Wl,--defsym=_ZNSt6vectorISt10shared_ptrIN5telux5therm10ITripPointEESaIS4_EED1Ev=so_stub_for_libtelux_therm
-Wl,--defsym=_ZNSt6vectorISt10shared_ptrIN5telux5therm10ITripPointEESaIS4_EED2Ev=so_stub_for_libtelux_therm
-Wl,--defsym=_ZNSt6vectorISt10shared_ptrIN5telux5therm12IThermalZoneEESaIS4_EE17_M_realloc_insertIJS4_EEEvN9__gnu_cxx17__normal_iteratorIPS4_S6_EEDpOT_=so_stub_for_libtelux_therm
-Wl,--defsym=_ZNSt6vectorISt10shared_ptrIN5telux5therm12IThermalZoneEESaIS4_EED1Ev=so_stub_for_libtelux_therm
-Wl,--defsym=_ZNSt6vectorISt10shared_ptrIN5telux5therm12IThermalZoneEESaIS4_EED2Ev=so_stub_for_libtelux_therm
-Wl,--defsym=_ZNSt6vectorISt10shared_ptrIN5telux5therm14ICoolingDeviceEESaIS4_EE17_M_realloc_insertIJS4_EEEvN9__gnu_cxx17__normal_iteratorIPS4_S6_EEDpOT_=so_stub_for_libtelux_therm
-Wl,--defsym=_ZNSt6vectorISt10shared_ptrIN5telux5therm14ICoolingDeviceEESaIS4_EED1Ev=so_stub_for_libtelux_therm
-Wl,--defsym=_ZNSt6vectorISt10shared_ptrIN5telux5therm14ICoolingDeviceEESaIS4_EED2Ev=so_stub_for_libtelux_therm
-Wl,--defsym=_ZNSt6vectorISt10shared_ptrIN5telux5therm9TripPointEESaIS4_EEC1ERKS6_=so_stub_for_libtelux_therm
-Wl,--defsym=_ZNSt6vectorISt10shared_ptrIN5telux5therm9TripPointEESaIS4_EEC2ERKS6_=so_stub_for_libtelux_therm
-Wl,--defsym=_ZNSt6vectorISt10shared_ptrIN5telux5therm9TripPointEESaIS4_EED1Ev=so_stub_for_libtelux_therm
-Wl,--defsym=_ZNSt6vectorISt10shared_ptrIN5telux5therm9TripPointEESaIS4_EED2Ev=so_stub_for_libtelux_therm
-Wl,--defsym=_ZNSt6vectorISt4pairIccESaIS1_EE17_M_realloc_insertIJS1_EEEvN9__gnu_cxx17__normal_iteratorIPS1_S3_EEDpOT_=so_stub_for_libtelux_therm
-Wl,--defsym=_ZNSt6vectorISt4pairIccESaIS1_EEC1ERKS3_=so_stub_for_libtelux_therm
-Wl,--defsym=_ZNSt6vectorISt4pairIccESaIS1_EEC2ERKS3_=so_stub_for_libtelux_therm
-Wl,--defsym=_ZNSt6vectorISt4pairIlS_INSt7__cxx119sub_matchIN9__gnu_cxx17__normal_iteratorIPKcNS1_12basic_stringIcSt11char_traitsIcESaIcEEEEEEESaISD_EEESaISG_EE12emplace_backIJRlRKSF_EEEvDpOT_=so_stub_for_libtelux_therm
-Wl,--defsym=_ZNSt6vectorISt4pairIlS_INSt7__cxx119sub_matchIN9__gnu_cxx17__normal_iteratorIPKcNS1_12basic_stringIcSt11char_traitsIcESaIcEEEEEEESaISD_EEESaISG_EE17_M_realloc_insertIJRlRKSF_EEEvNS4_IPSG_SI_EEDpOT_=so_stub_for_libtelux_therm
-Wl,--defsym=_ZNSt6vectorISt4pairIlS_INSt7__cxx119sub_matchIN9__gnu_cxx17__normal_iteratorIPKcNS1_12basic_stringIcSt11char_traitsIcESaIcEEEEEEESaISD_EEESaISG_EED1Ev=so_stub_for_libtelux_therm
-Wl,--defsym=_ZNSt6vectorISt4pairIlS_INSt7__cxx119sub_matchIN9__gnu_cxx17__normal_iteratorIPKcNS1_12basic_stringIcSt11char_traitsIcESaIcEEEEEEESaISD_EEESaISG_EED2Ev=so_stub_for_libtelux_therm
-Wl,--defsym=_ZNSt6vectorISt4pairIN9__gnu_cxx17__normal_iteratorIPKcNSt7__cxx1112basic_stringIcSt11char_traitsIcESaIcEEEEEiESaISC_EEC1EjRKSD_=so_stub_for_libtelux_therm
-Wl,--defsym=_ZNSt6vectorISt4pairIN9__gnu_cxx17__normal_iteratorIPKcNSt7__cxx1112basic_stringIcSt11char_traitsIcESaIcEEEEEiESaISC_EEC2EjRKSD_=so_stub_for_libtelux_therm
-Wl,--defsym=_ZNSt6vectorISt4pairINSt7__cxx1112basic_stringIcSt11char_traitsIcESaIcEEES6_ESaIS7_EE12emplace_backIJS7_EEEvDpOT_=so_stub_for_libtelux_therm
-Wl,--defsym=_ZNSt6vectorISt4pairINSt7__cxx1112basic_stringIcSt11char_traitsIcESaIcEEES6_ESaIS7_EE17_M_realloc_insertIJS7_EEEvN9__gnu_cxx17__normal_iteratorIPS7_S9_EEDpOT_=so_stub_for_libtelux_therm
-Wl,--defsym=_ZNSt6vectorISt4pairINSt7__cxx1112basic_stringIcSt11char_traitsIcESaIcEEES6_ESaIS7_EEC1ERKS9_=so_stub_for_libtelux_therm
-Wl,--defsym=_ZNSt6vectorISt4pairINSt7__cxx1112basic_stringIcSt11char_traitsIcESaIcEEES6_ESaIS7_EEC2ERKS9_=so_stub_for_libtelux_therm
-Wl,--defsym=_ZNSt6vectorISt4pairINSt7__cxx1112basic_stringIcSt11char_traitsIcESaIcEEES6_ESaIS7_EED1Ev=so_stub_for_libtelux_therm
-Wl,--defsym=_ZNSt6vectorISt4pairINSt7__cxx1112basic_stringIcSt11char_traitsIcESaIcEEES6_ESaIS7_EED2Ev=so_stub_for_libtelux_therm
-Wl,--defsym=_ZNSt6vectorISt8weak_ptrIN5telux5therm24IThermalShutdownListenerEESaIS4_EE17_M_realloc_insertIJRS4_EEEvN9__gnu_cxx17__normal_iteratorIPS4_S6_EEDpOT_=so_stub_for_libtelux_therm
-Wl,--defsym=_ZNSt6vectorISt8weak_ptrIN5telux5therm24IThermalShutdownListenerEESaIS4_EE17_M_realloc_insertIJRSt10shared_ptrIS3_EEEEvN9__gnu_cxx17__normal_iteratorIPS4_S6_EEDpOT_=so_stub_for_libtelux_therm
-Wl,--defsym=_ZNSt6vectorISt8weak_ptrIN5telux5therm24IThermalShutdownListenerEESaIS4_EE8_M_eraseEN9__gnu_cxx17__normal_iteratorIPS4_S6_EE=so_stub_for_libtelux_therm
-Wl,--defsym=_ZNSt6vectorISt8weak_ptrIN5telux5therm24IThermalShutdownListenerEESaIS4_EED1Ev=so_stub_for_libtelux_therm
-Wl,--defsym=_ZNSt6vectorISt8weak_ptrIN5telux5therm24IThermalShutdownListenerEESaIS4_EED2Ev=so_stub_for_libtelux_therm
-Wl,--defsym=_ZNSt7__cxx1111basic_regexIcNS_12regex_traitsIcEEEC1IPKcEET_S7_NSt15regex_constants18syntax_option_typeE=so_stub_for_libtelux_therm
-Wl,--defsym=_ZNSt7__cxx1111basic_regexIcNS_12regex_traitsIcEEEC2IPKcEET_S7_NSt15regex_constants18syntax_option_typeE=so_stub_for_libtelux_therm
-Wl,--defsym=_ZNSt7__cxx1111basic_regexIcNS_12regex_traitsIcEEED1Ev=so_stub_for_libtelux_therm
-Wl,--defsym=_ZNSt7__cxx1111basic_regexIcNS_12regex_traitsIcEEED2Ev=so_stub_for_libtelux_therm
-Wl,--defsym=_ZNSt7__cxx1112basic_stringIcSt11char_traitsIcESaIcEE12_M_constructIN9__gnu_cxx17__normal_iteratorIPKcS4_EEEEvT_SB_St20forward_iterator_tag=so_stub_for_libtelux_therm
-Wl,--defsym=_ZNSt7__cxx1112basic_stringIcSt11char_traitsIcESaIcEE12_M_constructIPcEEvT_S7_St20forward_iterator_tag=so_stub_for_libtelux_therm
-Wl,--defsym=_ZNSt7__cxx1112basic_stringIcSt11char_traitsIcESaIcEE12_M_constructIPKcEEvT_S8_St20forward_iterator_tag=so_stub_for_libtelux_therm
-Wl,--defsym=_ZNSt7__cxx1112basic_stringIcSt11char_traitsIcESaIcEE12_M_constructISt19istreambuf_iteratorIcS2_EEEvT_S8_St18input_iterator_tag=so_stub_for_libtelux_therm
-Wl,--defsym=_ZNSt7__cxx1112basic_stringIcSt11char_traitsIcESaIcEE19_M_replace_dispatchISt19istreambuf_iteratorIcS2_EEERS4_N9__gnu_cxx17__normal_iteratorIPKcS4_EESD_T_SE_St12__false_type=so_stub_for_libtelux_therm
-Wl,--defsym=_ZNSt7__cxx1114regex_iteratorIN9__gnu_cxx17__normal_iteratorIPKcNS_12basic_stringIcSt11char_traitsIcESaIcEEEEEcNS_12regex_traitsIcEEEC1ESA_SA_RKNS_11basic_regexIcSC_EENSt15regex_constants15match_flag_typeE=so_stub_for_libtelux_therm
-Wl,--defsym=_ZNSt7__cxx1114regex_iteratorIN9__gnu_cxx17__normal_iteratorIPKcNS_12basic_stringIcSt11char_traitsIcESaIcEEEEEcNS_12regex_traitsIcEEEC2ESA_SA_RKNS_11basic_regexIcSC_EENSt15regex_constants15match_flag_typeE=so_stub_for_libtelux_therm
-Wl,--defsym=_ZNSt7__cxx1114regex_iteratorIN9__gnu_cxx17__normal_iteratorIPKcNS_12basic_stringIcSt11char_traitsIcESaIcEEEEEcNS_12regex_traitsIcEEEppEv=so_stub_for_libtelux_therm
-Wl,--defsym=_ZNSt7__cxx1120regex_token_iteratorIN9__gnu_cxx17__normal_iteratorIPKcNS_12basic_stringIcSt11char_traitsIcESaIcEEEEEcNS_12regex_traitsIcEEE19_M_normalize_resultEv=so_stub_for_libtelux_therm
-Wl,--defsym=_ZNSt7__cxx1120regex_token_iteratorIN9__gnu_cxx17__normal_iteratorIPKcNS_12basic_stringIcSt11char_traitsIcESaIcEEEEEcNS_12regex_traitsIcEEE7_M_initESA_SA_=so_stub_for_libtelux_therm
-Wl,--defsym=_ZNSt7__cxx1120regex_token_iteratorIN9__gnu_cxx17__normal_iteratorIPKcNS_12basic_stringIcSt11char_traitsIcESaIcEEEEEcNS_12regex_traitsIcEEEaSERKSD_=so_stub_for_libtelux_therm
-Wl,--defsym=_ZNSt7__cxx1120regex_token_iteratorIN9__gnu_cxx17__normal_iteratorIPKcNS_12basic_stringIcSt11char_traitsIcESaIcEEEEEcNS_12regex_traitsIcEEEC1ERKSD_=so_stub_for_libtelux_therm
-Wl,--defsym=_ZNSt7__cxx1120regex_token_iteratorIN9__gnu_cxx17__normal_iteratorIPKcNS_12basic_stringIcSt11char_traitsIcESaIcEEEEEcNS_12regex_traitsIcEEEC1ESA_SA_RKNS_11basic_regexIcSC_EEiNSt15regex_constants15match_flag_typeE=so_stub_for_libtelux_therm
-Wl,--defsym=_ZNSt7__cxx1120regex_token_iteratorIN9__gnu_cxx17__normal_iteratorIPKcNS_12basic_stringIcSt11char_traitsIcESaIcEEEEEcNS_12regex_traitsIcEEEC2ERKSD_=so_stub_for_libtelux_therm
-Wl,--defsym=_ZNSt7__cxx1120regex_token_iteratorIN9__gnu_cxx17__normal_iteratorIPKcNS_12basic_stringIcSt11char_traitsIcESaIcEEEEEcNS_12regex_traitsIcEEEC2ESA_SA_RKNS_11basic_regexIcSC_EEiNSt15regex_constants15match_flag_typeE=so_stub_for_libtelux_therm
-Wl,--defsym=_ZNSt7__cxx1120regex_token_iteratorIN9__gnu_cxx17__normal_iteratorIPKcNS_12basic_stringIcSt11char_traitsIcESaIcEEEEEcNS_12regex_traitsIcEEED1Ev=so_stub_for_libtelux_therm
-Wl,--defsym=_ZNSt7__cxx1120regex_token_iteratorIN9__gnu_cxx17__normal_iteratorIPKcNS_12basic_stringIcSt11char_traitsIcESaIcEEEEEcNS_12regex_traitsIcEEED2Ev=so_stub_for_libtelux_therm
-Wl,--defsym=_ZNSt7__cxx1120regex_token_iteratorIN9__gnu_cxx17__normal_iteratorIPKcNS_12basic_stringIcSt11char_traitsIcESaIcEEEEEcNS_12regex_traitsIcEEEppEv=so_stub_for_libtelux_therm
-Wl,--defsym=_ZNSt8__detail12_ScannerBaseC1ENSt15regex_constants18syntax_option_typeE=so_stub_for_libtelux_therm
-Wl,--defsym=_ZNSt8__detail12_ScannerBaseC2ENSt15regex_constants18syntax_option_typeE=so_stub_for_libtelux_therm
-Wl,--defsym=_ZNSt8__detail13__compile_nfaINSt7__cxx1112regex_traitsIcEEPKcEENSt9enable_ifIXsrNS_27__is_contiguous_normal_iterIT0_EE5valueESt10shared_ptrIKNS_4_NFAIT_EEEE4typeES8_S8_RKNSC_11locale_typeENSt15regex_constants18syntax_option_typeE=so_stub_for_libtelux_therm
-Wl,--defsym=_ZNSt8__detail15_BracketMatcherINSt7__cxx1112regex_traitsIcEELb0ELb0EE13_M_make_cacheESt17integral_constantIbLb1EE=so_stub_for_libtelux_therm
-Wl,--defsym=_ZNSt8__detail15_BracketMatcherINSt7__cxx1112regex_traitsIcEELb0ELb0EE13_M_make_rangeEcc=so_stub_for_libtelux_therm
-Wl,--defsym=_ZNSt8__detail15_BracketMatcherINSt7__cxx1112regex_traitsIcEELb0ELb0EE22_M_add_character_classERKNS1_12basic_stringIcSt11char_traitsIcESaIcEEEb=so_stub_for_libtelux_therm
-Wl,--defsym=_ZNSt8__detail15_BracketMatcherINSt7__cxx1112regex_traitsIcEELb0ELb0EE22_M_add_collate_elementERKNS1_12basic_stringIcSt11char_traitsIcESaIcEEE=so_stub_for_libtelux_therm
-Wl,--defsym=_ZNSt8__detail15_BracketMatcherINSt7__cxx1112regex_traitsIcEELb0ELb0EE24_M_add_equivalence_classERKNS1_12basic_stringIcSt11char_traitsIcESaIcEEE=so_stub_for_libtelux_therm
-Wl,--defsym=_ZNSt8__detail15_BracketMatcherINSt7__cxx1112regex_traitsIcEELb0ELb0EE8_M_readyEv=so_stub_for_libtelux_therm
-Wl,--defsym=_ZNSt8__detail15_BracketMatcherINSt7__cxx1112regex_traitsIcEELb0ELb0EEC1EOS4_=so_stub_for_libtelux_therm
-Wl,--defsym=_ZNSt8__detail15_BracketMatcherINSt7__cxx1112regex_traitsIcEELb0ELb0EEC1ERKS4_=so_stub_for_libtelux_therm
-Wl,--defsym=_ZNSt8__detail15_BracketMatcherINSt7__cxx1112regex_traitsIcEELb0ELb0EEC2EOS4_=so_stub_for_libtelux_therm
-Wl,--defsym=_ZNSt8__detail15_BracketMatcherINSt7__cxx1112regex_traitsIcEELb0ELb0EEC2ERKS4_=so_stub_for_libtelux_therm
-Wl,--defsym=_ZNSt8__detail15_BracketMatcherINSt7__cxx1112regex_traitsIcEELb0ELb0EED1Ev=so_stub_for_libtelux_therm
-Wl,--defsym=_ZNSt8__detail15_BracketMatcherINSt7__cxx1112regex_traitsIcEELb0ELb0EED2Ev=so_stub_for_libtelux_therm
-Wl,--defsym=_ZNSt8__detail15_BracketMatcherINSt7__cxx1112regex_traitsIcEELb0ELb1EE13_M_make_cacheESt17integral_constantIbLb1EE=so_stub_for_libtelux_therm
-Wl,--defsym=_ZNSt8__detail15_BracketMatcherINSt7__cxx1112regex_traitsIcEELb0ELb1EE13_M_make_rangeEcc=so_stub_for_libtelux_therm
-Wl,--defsym=_ZNSt8__detail15_BracketMatcherINSt7__cxx1112regex_traitsIcEELb0ELb1EE22_M_add_character_classERKNS1_12basic_stringIcSt11char_traitsIcESaIcEEEb=so_stub_for_libtelux_therm
-Wl,--defsym=_ZNSt8__detail15_BracketMatcherINSt7__cxx1112regex_traitsIcEELb0ELb1EE22_M_add_collate_elementERKNS1_12basic_stringIcSt11char_traitsIcESaIcEEE=so_stub_for_libtelux_therm
-Wl,--defsym=_ZNSt8__detail15_BracketMatcherINSt7__cxx1112regex_traitsIcEELb0ELb1EE24_M_add_equivalence_classERKNS1_12basic_stringIcSt11char_traitsIcESaIcEEE=so_stub_for_libtelux_therm
-Wl,--defsym=_ZNSt8__detail15_BracketMatcherINSt7__cxx1112regex_traitsIcEELb0ELb1EE8_M_readyEv=so_stub_for_libtelux_therm
-Wl,--defsym=_ZNSt8__detail15_BracketMatcherINSt7__cxx1112regex_traitsIcEELb0ELb1EEC1EOS4_=so_stub_for_libtelux_therm
-Wl,--defsym=_ZNSt8__detail15_BracketMatcherINSt7__cxx1112regex_traitsIcEELb0ELb1EEC1ERKS4_=so_stub_for_libtelux_therm
-Wl,--defsym=_ZNSt8__detail15_BracketMatcherINSt7__cxx1112regex_traitsIcEELb0ELb1EEC2EOS4_=so_stub_for_libtelux_therm
-Wl,--defsym=_ZNSt8__detail15_BracketMatcherINSt7__cxx1112regex_traitsIcEELb0ELb1EEC2ERKS4_=so_stub_for_libtelux_therm
-Wl,--defsym=_ZNSt8__detail15_BracketMatcherINSt7__cxx1112regex_traitsIcEELb0ELb1EED1Ev=so_stub_for_libtelux_therm
-Wl,--defsym=_ZNSt8__detail15_BracketMatcherINSt7__cxx1112regex_traitsIcEELb0ELb1EED2Ev=so_stub_for_libtelux_therm
-Wl,--defsym=_ZNSt8__detail15_BracketMatcherINSt7__cxx1112regex_traitsIcEELb1ELb0EE11_M_add_charEc=so_stub_for_libtelux_therm
-Wl,--defsym=_ZNSt8__detail15_BracketMatcherINSt7__cxx1112regex_traitsIcEELb1ELb0EE13_M_make_cacheESt17integral_constantIbLb1EE=so_stub_for_libtelux_therm
-Wl,--defsym=_ZNSt8__detail15_BracketMatcherINSt7__cxx1112regex_traitsIcEELb1ELb0EE13_M_make_rangeEcc=so_stub_for_libtelux_therm
-Wl,--defsym=_ZNSt8__detail15_BracketMatcherINSt7__cxx1112regex_traitsIcEELb1ELb0EE22_M_add_character_classERKNS1_12basic_stringIcSt11char_traitsIcESaIcEEEb=so_stub_for_libtelux_therm
-Wl,--defsym=_ZNSt8__detail15_BracketMatcherINSt7__cxx1112regex_traitsIcEELb1ELb0EE22_M_add_collate_elementERKNS1_12basic_stringIcSt11char_traitsIcESaIcEEE=so_stub_for_libtelux_therm
-Wl,--defsym=_ZNSt8__detail15_BracketMatcherINSt7__cxx1112regex_traitsIcEELb1ELb0EE24_M_add_equivalence_classERKNS1_12basic_stringIcSt11char_traitsIcESaIcEEE=so_stub_for_libtelux_therm
-Wl,--defsym=_ZNSt8__detail15_BracketMatcherINSt7__cxx1112regex_traitsIcEELb1ELb0EE8_M_readyEv=so_stub_for_libtelux_therm
-Wl,--defsym=_ZNSt8__detail15_BracketMatcherINSt7__cxx1112regex_traitsIcEELb1ELb0EEC1EOS4_=so_stub_for_libtelux_therm
-Wl,--defsym=_ZNSt8__detail15_BracketMatcherINSt7__cxx1112regex_traitsIcEELb1ELb0EEC1ERKS4_=so_stub_for_libtelux_therm
-Wl,--defsym=_ZNSt8__detail15_BracketMatcherINSt7__cxx1112regex_traitsIcEELb1ELb0EEC2EOS4_=so_stub_for_libtelux_therm
-Wl,--defsym=_ZNSt8__detail15_BracketMatcherINSt7__cxx1112regex_traitsIcEELb1ELb0EEC2ERKS4_=so_stub_for_libtelux_therm
-Wl,--defsym=_ZNSt8__detail15_BracketMatcherINSt7__cxx1112regex_traitsIcEELb1ELb0EED1Ev=so_stub_for_libtelux_therm
-Wl,--defsym=_ZNSt8__detail15_BracketMatcherINSt7__cxx1112regex_traitsIcEELb1ELb0EED2Ev=so_stub_for_libtelux_therm
-Wl,--defsym=_ZNSt8__detail15_BracketMatcherINSt7__cxx1112regex_traitsIcEELb1ELb1EE11_M_add_charEc=so_stub_for_libtelux_therm
-Wl,--defsym=_ZNSt8__detail15_BracketMatcherINSt7__cxx1112regex_traitsIcEELb1ELb1EE13_M_make_cacheESt17integral_constantIbLb1EE=so_stub_for_libtelux_therm
-Wl,--defsym=_ZNSt8__detail15_BracketMatcherINSt7__cxx1112regex_traitsIcEELb1ELb1EE13_M_make_rangeEcc=so_stub_for_libtelux_therm
-Wl,--defsym=_ZNSt8__detail15_BracketMatcherINSt7__cxx1112regex_traitsIcEELb1ELb1EE22_M_add_character_classERKNS1_12basic_stringIcSt11char_traitsIcESaIcEEEb=so_stub_for_libtelux_therm
-Wl,--defsym=_ZNSt8__detail15_BracketMatcherINSt7__cxx1112regex_traitsIcEELb1ELb1EE22_M_add_collate_elementERKNS1_12basic_stringIcSt11char_traitsIcESaIcEEE=so_stub_for_libtelux_therm
-Wl,--defsym=_ZNSt8__detail15_BracketMatcherINSt7__cxx1112regex_traitsIcEELb1ELb1EE24_M_add_equivalence_classERKNS1_12basic_stringIcSt11char_traitsIcESaIcEEE=so_stub_for_libtelux_therm
-Wl,--defsym=_ZNSt8__detail15_BracketMatcherINSt7__cxx1112regex_traitsIcEELb1ELb1EE8_M_readyEv=so_stub_for_libtelux_therm
-Wl,--defsym=_ZNSt8__detail15_BracketMatcherINSt7__cxx1112regex_traitsIcEELb1ELb1EEC1EOS4_=so_stub_for_libtelux_therm
-Wl,--defsym=_ZNSt8__detail15_BracketMatcherINSt7__cxx1112regex_traitsIcEELb1ELb1EEC1ERKS4_=so_stub_for_libtelux_therm
-Wl,--defsym=_ZNSt8__detail15_BracketMatcherINSt7__cxx1112regex_traitsIcEELb1ELb1EEC2EOS4_=so_stub_for_libtelux_therm
-Wl,--defsym=_ZNSt8__detail15_BracketMatcherINSt7__cxx1112regex_traitsIcEELb1ELb1EEC2ERKS4_=so_stub_for_libtelux_therm
-Wl,--defsym=_ZNSt8__detail15_BracketMatcherINSt7__cxx1112regex_traitsIcEELb1ELb1EED1Ev=so_stub_for_libtelux_therm
-Wl,--defsym=_ZNSt8__detail15_BracketMatcherINSt7__cxx1112regex_traitsIcEELb1ELb1EED2Ev=so_stub_for_libtelux_therm
-Wl,--defsym=_ZNSt8__detail16_Backref_matcherIN9__gnu_cxx17__normal_iteratorIPKcNSt7__cxx1112basic_stringIcSt11char_traitsIcESaIcEEEEENS5_12regex_traitsIcEEE8_M_applyESB_SB_SB_SB_=so_stub_for_libtelux_therm
-Wl,--defsym=_ZNSt8__detail17__regex_algo_implIN9__gnu_cxx17__normal_iteratorIPKcNSt7__cxx1112basic_stringIcSt11char_traitsIcESaIcEEEEESaINS5_9sub_matchISB_EEEcNS5_12regex_traitsIcEELNS_20_RegexExecutorPolicyE0ELb0EEEbT_SI_RNS5_13match_resultsISI_T0_EERKNS5_11basic_regexIT1_T2_EENSt15regex_constants15match_flag_typeE=so_stub_for_libtelux_therm
-Wl,--defsym=_ZNSt8__detail4_NFAINSt7__cxx1112regex_traitsIcEEE13_M_insert_altEllb=so_stub_for_libtelux_therm
-Wl,--defsym=_ZNSt8__detail4_NFAINSt7__cxx1112regex_traitsIcEEE15_M_insert_dummyEv=so_stub_for_libtelux_therm
-Wl,--defsym=_ZNSt8__detail4_NFAINSt7__cxx1112regex_traitsIcEEE16_M_insert_acceptEv=so_stub_for_libtelux_therm
-Wl,--defsym=_ZNSt8__detail4_NFAINSt7__cxx1112regex_traitsIcEEE16_M_insert_repeatEllb=so_stub_for_libtelux_therm
-Wl,--defsym=_ZNSt8__detail4_NFAINSt7__cxx1112regex_traitsIcEEE17_M_insert_backrefEj=so_stub_for_libtelux_therm
-Wl,--defsym=_ZNSt8__detail4_NFAINSt7__cxx1112regex_traitsIcEEE17_M_insert_matcherESt8functionIFbcEE=so_stub_for_libtelux_therm
-Wl,--defsym=_ZNSt8__detail4_NFAINSt7__cxx1112regex_traitsIcEEE18_M_eliminate_dummyEv=so_stub_for_libtelux_therm
-Wl,--defsym=_ZNSt8__detail4_NFAINSt7__cxx1112regex_traitsIcEEE18_M_insert_line_endEv=so_stub_for_libtelux_therm
-Wl,--defsym=_ZNSt8__detail4_NFAINSt7__cxx1112regex_traitsIcEEE19_M_insert_lookaheadElb=so_stub_for_libtelux_therm
-Wl,--defsym=_ZNSt8__detail4_NFAINSt7__cxx1112regex_traitsIcEEE20_M_insert_line_beginEv=so_stub_for_libtelux_therm
-Wl,--defsym=_ZNSt8__detail4_NFAINSt7__cxx1112regex_traitsIcEEE20_M_insert_word_boundEb=so_stub_for_libtelux_therm
-Wl,--defsym=_ZNSt8__detail4_NFAINSt7__cxx1112regex_traitsIcEEE21_M_insert_subexpr_endEv=so_stub_for_libtelux_therm
-Wl,--defsym=_ZNSt8__detail4_NFAINSt7__cxx1112regex_traitsIcEEE23_M_insert_subexpr_beginEv=so_stub_for_libtelux_therm
-Wl,--defsym=_ZNSt8__detail4_NFAINSt7__cxx1112regex_traitsIcEEEC1ERKSt6localeNSt15regex_constants18syntax_option_typeE=so_stub_for_libtelux_therm
-Wl,--defsym=_ZNSt8__detail4_NFAINSt7__cxx1112regex_traitsIcEEEC2ERKSt6localeNSt15regex_constants18syntax_option_typeE=so_stub_for_libtelux_therm
-Wl,--defsym=_ZNSt8__detail8_ScannerIcE10_M_advanceEv=so_stub_for_libtelux_therm
-Wl,--defsym=_ZNSt8__detail8_ScannerIcE12_M_eat_classEc=so_stub_for_libtelux_therm
-Wl,--defsym=_ZNSt8__detail8_ScannerIcE14_M_scan_normalEv=so_stub_for_libtelux_therm
-Wl,--defsym=_ZNSt8__detail8_ScannerIcE16_M_scan_in_braceEv=so_stub_for_libtelux_therm
-Wl,--defsym=_ZNSt8__detail8_ScannerIcE17_M_eat_escape_awkEv=so_stub_for_libtelux_therm
-Wl,--defsym=_ZNSt8__detail8_ScannerIcE18_M_eat_escape_ecmaEv=so_stub_for_libtelux_therm
-Wl,--defsym=_ZNSt8__detail8_ScannerIcE18_M_scan_in_bracketEv=so_stub_for_libtelux_therm
-Wl,--defsym=_ZNSt8__detail8_ScannerIcE19_M_eat_escape_posixEv=so_stub_for_libtelux_therm
-Wl,--defsym=_ZNSt8__detail8_ScannerIcEC1EPKcS3_NSt15regex_constants18syntax_option_typeESt6locale=so_stub_for_libtelux_therm
-Wl,--defsym=_ZNSt8__detail8_ScannerIcEC2EPKcS3_NSt15regex_constants18syntax_option_typeESt6locale=so_stub_for_libtelux_therm
-Wl,--defsym=_ZNSt8__detail9_CompilerINSt7__cxx1112regex_traitsIcEEE11_M_try_charEv=so_stub_for_libtelux_therm
-Wl,--defsym=_ZNSt8__detail9_CompilerINSt7__cxx1112regex_traitsIcEEE12_M_assertionEv=so_stub_for_libtelux_therm
-Wl,--defsym=_ZNSt8__detail9_CompilerINSt7__cxx1112regex_traitsIcEEE13_M_quantifierEv=so_stub_for_libtelux_therm
-Wl,--defsym=_ZNSt8__detail9_CompilerINSt7__cxx1112regex_traitsIcEEE14_M_alternativeEv=so_stub_for_libtelux_therm
-Wl,--defsym=_ZNSt8__detail9_CompilerINSt7__cxx1112regex_traitsIcEEE14_M_disjunctionEv=so_stub_for_libtelux_therm
-Wl,--defsym=_ZNSt8__detail9_CompilerINSt7__cxx1112regex_traitsIcEEE18_M_expression_termILb0ELb0EEEbRSt4pairIbcERNS_15_BracketMatcherIS3_XT_EXT0_EEE=so_stub_for_libtelux_therm
-Wl,--defsym=_ZNSt8__detail9_CompilerINSt7__cxx1112regex_traitsIcEEE18_M_expression_termILb0ELb1EEEbRSt4pairIbcERNS_15_BracketMatcherIS3_XT_EXT0_EEE=so_stub_for_libtelux_therm
-Wl,--defsym=_ZNSt8__detail9_CompilerINSt7__cxx1112regex_traitsIcEEE18_M_expression_termILb1ELb0EEEbRSt4pairIbcERNS_15_BracketMatcherIS3_XT_EXT0_EEE=so_stub_for_libtelux_therm
-Wl,--defsym=_ZNSt8__detail9_CompilerINSt7__cxx1112regex_traitsIcEEE18_M_expression_termILb1ELb1EEEbRSt4pairIbcERNS_15_BracketMatcherIS3_XT_EXT0_EEE=so_stub_for_libtelux_therm
-Wl,--defsym=_ZNSt8__detail9_CompilerINSt7__cxx1112regex_traitsIcEEE21_M_bracket_expressionEv=so_stub_for_libtelux_therm
-Wl,--defsym=_ZNSt8__detail9_CompilerINSt7__cxx1112regex_traitsIcEEE22_M_insert_char_matcherILb0ELb0EEEvv=so_stub_for_libtelux_therm
-Wl,--defsym=_ZNSt8__detail9_CompilerINSt7__cxx1112regex_traitsIcEEE22_M_insert_char_matcherILb0ELb1EEEvv=so_stub_for_libtelux_therm
-Wl,--defsym=_ZNSt8__detail9_CompilerINSt7__cxx1112regex_traitsIcEEE22_M_insert_char_matcherILb1ELb0EEEvv=so_stub_for_libtelux_therm
-Wl,--defsym=_ZNSt8__detail9_CompilerINSt7__cxx1112regex_traitsIcEEE22_M_insert_char_matcherILb1ELb1EEEvv=so_stub_for_libtelux_therm
-Wl,--defsym=_ZNSt8__detail9_CompilerINSt7__cxx1112regex_traitsIcEEE25_M_insert_bracket_matcherILb0ELb0EEEvb=so_stub_for_libtelux_therm
-Wl,--defsym=_ZNSt8__detail9_CompilerINSt7__cxx1112regex_traitsIcEEE25_M_insert_bracket_matcherILb0ELb1EEEvb=so_stub_for_libtelux_therm
-Wl,--defsym=_ZNSt8__detail9_CompilerINSt7__cxx1112regex_traitsIcEEE25_M_insert_bracket_matcherILb1ELb0EEEvb=so_stub_for_libtelux_therm
-Wl,--defsym=_ZNSt8__detail9_CompilerINSt7__cxx1112regex_traitsIcEEE25_M_insert_bracket_matcherILb1ELb1EEEvb=so_stub_for_libtelux_therm
-Wl,--defsym=_ZNSt8__detail9_CompilerINSt7__cxx1112regex_traitsIcEEE26_M_insert_any_matcher_ecmaILb0ELb0EEEvv=so_stub_for_libtelux_therm
-Wl,--defsym=_ZNSt8__detail9_CompilerINSt7__cxx1112regex_traitsIcEEE26_M_insert_any_matcher_ecmaILb0ELb1EEEvv=so_stub_for_libtelux_therm
-Wl,--defsym=_ZNSt8__detail9_CompilerINSt7__cxx1112regex_traitsIcEEE26_M_insert_any_matcher_ecmaILb1ELb0EEEvv=so_stub_for_libtelux_therm
-Wl,--defsym=_ZNSt8__detail9_CompilerINSt7__cxx1112regex_traitsIcEEE26_M_insert_any_matcher_ecmaILb1ELb1EEEvv=so_stub_for_libtelux_therm
-Wl,--defsym=_ZNSt8__detail9_CompilerINSt7__cxx1112regex_traitsIcEEE27_M_insert_any_matcher_posixILb0ELb0EEEvv=so_stub_for_libtelux_therm
-Wl,--defsym=_ZNSt8__detail9_CompilerINSt7__cxx1112regex_traitsIcEEE27_M_insert_any_matcher_posixILb0ELb1EEEvv=so_stub_for_libtelux_therm
-Wl,--defsym=_ZNSt8__detail9_CompilerINSt7__cxx1112regex_traitsIcEEE27_M_insert_any_matcher_posixILb1ELb0EEEvv=so_stub_for_libtelux_therm
-Wl,--defsym=_ZNSt8__detail9_CompilerINSt7__cxx1112regex_traitsIcEEE27_M_insert_any_matcher_posixILb1ELb1EEEvv=so_stub_for_libtelux_therm
-Wl,--defsym=_ZNSt8__detail9_CompilerINSt7__cxx1112regex_traitsIcEEE33_M_insert_character_class_matcherILb0ELb0EEEvv=so_stub_for_libtelux_therm
-Wl,--defsym=_ZNSt8__detail9_CompilerINSt7__cxx1112regex_traitsIcEEE33_M_insert_character_class_matcherILb0ELb1EEEvv=so_stub_for_libtelux_therm
-Wl,--defsym=_ZNSt8__detail9_CompilerINSt7__cxx1112regex_traitsIcEEE33_M_insert_character_class_matcherILb1ELb0EEEvv=so_stub_for_libtelux_therm
-Wl,--defsym=_ZNSt8__detail9_CompilerINSt7__cxx1112regex_traitsIcEEE33_M_insert_character_class_matcherILb1ELb1EEEvv=so_stub_for_libtelux_therm
-Wl,--defsym=_ZNSt8__detail9_CompilerINSt7__cxx1112regex_traitsIcEEE6_M_popEv=so_stub_for_libtelux_therm
-Wl,--defsym=_ZNSt8__detail9_CompilerINSt7__cxx1112regex_traitsIcEEE7_M_atomEv=so_stub_for_libtelux_therm
-Wl,--defsym=_ZNSt8__detail9_CompilerINSt7__cxx1112regex_traitsIcEEE7_M_termEv=so_stub_for_libtelux_therm
-Wl,--defsym=_ZNSt8__detail9_CompilerINSt7__cxx1112regex_traitsIcEEEC1EPKcS6_RKSt6localeNSt15regex_constants18syntax_option_typeE=so_stub_for_libtelux_therm
-Wl,--defsym=_ZNSt8__detail9_CompilerINSt7__cxx1112regex_traitsIcEEEC2EPKcS6_RKSt6localeNSt15regex_constants18syntax_option_typeE=so_stub_for_libtelux_therm
-Wl,--defsym=_ZNSt8__detail9_CompilerINSt7__cxx1112regex_traitsIcEEED1Ev=so_stub_for_libtelux_therm
-Wl,--defsym=_ZNSt8__detail9_CompilerINSt7__cxx1112regex_traitsIcEEED2Ev=so_stub_for_libtelux_therm
-Wl,--defsym=_ZNSt8__detail9_ExecutorIN9__gnu_cxx17__normal_iteratorIPKcNSt7__cxx1112basic_stringIcSt11char_traitsIcESaIcEEEEESaINS5_9sub_matchISB_EEENS5_12regex_traitsIcEELb0EE12_M_lookaheadEl=so_stub_for_libtelux_therm
-Wl,--defsym=_ZNSt8__detail9_ExecutorIN9__gnu_cxx17__normal_iteratorIPKcNSt7__cxx1112basic_stringIcSt11char_traitsIcESaIcEEEEESaINS5_9sub_matchISB_EEENS5_12regex_traitsIcEELb0EE16_M_handle_repeatENSH_11_Match_modeEl=so_stub_for_libtelux_therm
-Wl,--defsym=_ZNSt8__detail9_ExecutorIN9__gnu_cxx17__normal_iteratorIPKcNSt7__cxx1112basic_stringIcSt11char_traitsIcESaIcEEEEESaINS5_9sub_matchISB_EEENS5_12regex_traitsIcEELb0EE16_M_main_dispatchENSH_11_Match_modeESt17integral_constantIbLb0EE=so_stub_for_libtelux_therm
-Wl,--defsym=_ZNSt8__detail9_ExecutorIN9__gnu_cxx17__normal_iteratorIPKcNSt7__cxx1112basic_stringIcSt11char_traitsIcESaIcEEEEESaINS5_9sub_matchISB_EEENS5_12regex_traitsIcEELb0EE16_M_rep_once_moreENSH_11_Match_modeEl=so_stub_for_libtelux_therm
-Wl,--defsym=_ZNSt8__detail9_ExecutorIN9__gnu_cxx17__normal_iteratorIPKcNSt7__cxx1112basic_stringIcSt11char_traitsIcESaIcEEEEESaINS5_9sub_matchISB_EEENS5_12regex_traitsIcEELb0EE17_M_handle_backrefENSH_11_Match_modeEl=so_stub_for_libtelux_therm
-Wl,--defsym=_ZNSt8__detail9_ExecutorIN9__gnu_cxx17__normal_iteratorIPKcNSt7__cxx1112basic_stringIcSt11char_traitsIcESaIcEEEEESaINS5_9sub_matchISB_EEENS5_12regex_traitsIcEELb0EE21_M_handle_alternativeENSH_11_Match_modeEl=so_stub_for_libtelux_therm
-Wl,--defsym=_ZNSt8__detail9_ExecutorIN9__gnu_cxx17__normal_iteratorIPKcNSt7__cxx1112basic_stringIcSt11char_traitsIcESaIcEEEEESaINS5_9sub_matchISB_EEENS5_12regex_traitsIcEELb0EE23_M_handle_word_boundaryENSH_11_Match_modeEl=so_stub_for_libtelux_therm
-Wl,--defsym=_ZNSt8__detail9_ExecutorIN9__gnu_cxx17__normal_iteratorIPKcNSt7__cxx1112basic_stringIcSt11char_traitsIcESaIcEEEEESaINS5_9sub_matchISB_EEENS5_12regex_traitsIcEELb0EE27_M_handle_subexpr_lookaheadENSH_11_Match_modeEl=so_stub_for_libtelux_therm
-Wl,--defsym=_ZNSt8__detail9_ExecutorIN9__gnu_cxx17__normal_iteratorIPKcNSt7__cxx1112basic_stringIcSt11char_traitsIcESaIcEEEEESaINS5_9sub_matchISB_EEENS5_12regex_traitsIcEELb0EE6_M_dfsENSH_11_Match_modeEl=so_stub_for_libtelux_therm
-Wl,--defsym=_ZNSt8__detail9_ExecutorIN9__gnu_cxx17__normal_iteratorIPKcNSt7__cxx1112basic_stringIcSt11char_traitsIcESaIcEEEEESaINS5_9sub_matchISB_EEENS5_12regex_traitsIcEELb0EE9_M_searchEv=so_stub_for_libtelux_therm
-Wl,--defsym=_ZNSt8__detail9_ExecutorIN9__gnu_cxx17__normal_iteratorIPKcNSt7__cxx1112basic_stringIcSt11char_traitsIcESaIcEEEEESaINS5_9sub_matchISB_EEENS5_12regex_traitsIcEELb0EEC1ESB_SB_RSt6vectorISD_SE_ERKNS5_11basic_regexIcSG_EENSt15regex_constants15match_flag_typeE=so_stub_for_libtelux_therm
-Wl,--defsym=_ZNSt8__detail9_ExecutorIN9__gnu_cxx17__normal_iteratorIPKcNSt7__cxx1112basic_stringIcSt11char_traitsIcESaIcEEEEESaINS5_9sub_matchISB_EEENS5_12regex_traitsIcEELb0EEC2ESB_SB_RSt6vectorISD_SE_ERKNS5_11basic_regexIcSG_EENSt15regex_constants15match_flag_typeE=so_stub_for_libtelux_therm
-Wl,--defsym=_ZNSt8__detail9_ExecutorIN9__gnu_cxx17__normal_iteratorIPKcNSt7__cxx1112basic_stringIcSt11char_traitsIcESaIcEEEEESaINS5_9sub_matchISB_EEENS5_12regex_traitsIcEELb0EED1Ev=so_stub_for_libtelux_therm
-Wl,--defsym=_ZNSt8__detail9_ExecutorIN9__gnu_cxx17__normal_iteratorIPKcNSt7__cxx1112basic_stringIcSt11char_traitsIcESaIcEEEEESaINS5_9sub_matchISB_EEENS5_12regex_traitsIcEELb0EED2Ev=so_stub_for_libtelux_therm
-Wl,--defsym=_ZNSt8__detail9_ExecutorIN9__gnu_cxx17__normal_iteratorIPKcNSt7__cxx1112basic_stringIcSt11char_traitsIcESaIcEEEEESaINS5_9sub_matchISB_EEENS5_12regex_traitsIcEELb1EE12_M_lookaheadEl=so_stub_for_libtelux_therm
-Wl,--defsym=_ZNSt8__detail9_ExecutorIN9__gnu_cxx17__normal_iteratorIPKcNSt7__cxx1112basic_stringIcSt11char_traitsIcESaIcEEEEESaINS5_9sub_matchISB_EEENS5_12regex_traitsIcEELb1EE15_M_handle_matchENSH_11_Match_modeEl=so_stub_for_libtelux_therm
-Wl,--defsym=_ZNSt8__detail9_ExecutorIN9__gnu_cxx17__normal_iteratorIPKcNSt7__cxx1112basic_stringIcSt11char_traitsIcESaIcEEEEESaINS5_9sub_matchISB_EEENS5_12regex_traitsIcEELb1EE16_M_handle_acceptENSH_11_Match_modeEl=so_stub_for_libtelux_therm
-Wl,--defsym=_ZNSt8__detail9_ExecutorIN9__gnu_cxx17__normal_iteratorIPKcNSt7__cxx1112basic_stringIcSt11char_traitsIcESaIcEEEEESaINS5_9sub_matchISB_EEENS5_12regex_traitsIcEELb1EE16_M_handle_repeatENSH_11_Match_modeEl=so_stub_for_libtelux_therm
-Wl,--defsym=_ZNSt8__detail9_ExecutorIN9__gnu_cxx17__normal_iteratorIPKcNSt7__cxx1112basic_stringIcSt11char_traitsIcESaIcEEEEESaINS5_9sub_matchISB_EEENS5_12regex_traitsIcEELb1EE16_M_rep_once_moreENSH_11_Match_modeEl=so_stub_for_libtelux_therm
-Wl,--defsym=_ZNSt8__detail9_ExecutorIN9__gnu_cxx17__normal_iteratorIPKcNSt7__cxx1112basic_stringIcSt11char_traitsIcESaIcEEEEESaINS5_9sub_matchISB_EEENS5_12regex_traitsIcEELb1EE17_M_handle_backrefENSH_11_Match_modeEl=so_stub_for_libtelux_therm
-Wl,--defsym=_ZNSt8__detail9_ExecutorIN9__gnu_cxx17__normal_iteratorIPKcNSt7__cxx1112basic_stringIcSt11char_traitsIcESaIcEEEEESaINS5_9sub_matchISB_EEENS5_12regex_traitsIcEELb1EE21_M_handle_alternativeENSH_11_Match_modeEl=so_stub_for_libtelux_therm
-Wl,--defsym=_ZNSt8__detail9_ExecutorIN9__gnu_cxx17__normal_iteratorIPKcNSt7__cxx1112basic_stringIcSt11char_traitsIcESaIcEEEEESaINS5_9sub_matchISB_EEENS5_12regex_traitsIcEELb1EE23_M_handle_word_boundaryENSH_11_Match_modeEl=so_stub_for_libtelux_therm
-Wl,--defsym=_ZNSt8__detail9_ExecutorIN9__gnu_cxx17__normal_iteratorIPKcNSt7__cxx1112basic_stringIcSt11char_traitsIcESaIcEEEEESaINS5_9sub_matchISB_EEENS5_12regex_traitsIcEELb1EE27_M_handle_subexpr_lookaheadENSH_11_Match_modeEl=so_stub_for_libtelux_therm
-Wl,--defsym=_ZNSt8__detail9_ExecutorIN9__gnu_cxx17__normal_iteratorIPKcNSt7__cxx1112basic_stringIcSt11char_traitsIcESaIcEEEEESaINS5_9sub_matchISB_EEENS5_12regex_traitsIcEELb1EE6_M_dfsENSH_11_Match_modeEl=so_stub_for_libtelux_therm
-Wl,--defsym=_ZNSt8__detail9_ExecutorIN9__gnu_cxx17__normal_iteratorIPKcNSt7__cxx1112basic_stringIcSt11char_traitsIcESaIcEEEEESaINS5_9sub_matchISB_EEENS5_12regex_traitsIcEELb1EE9_M_searchEv=so_stub_for_libtelux_therm
-Wl,--defsym=_ZNSt8__detail9_ExecutorIN9__gnu_cxx17__normal_iteratorIPKcNSt7__cxx1112basic_stringIcSt11char_traitsIcESaIcEEEEESaINS5_9sub_matchISB_EEENS5_12regex_traitsIcEELb1EEC1ESB_SB_RSt6vectorISD_SE_ERKNS5_11basic_regexIcSG_EENSt15regex_constants15match_flag_typeE=so_stub_for_libtelux_therm
-Wl,--defsym=_ZNSt8__detail9_ExecutorIN9__gnu_cxx17__normal_iteratorIPKcNSt7__cxx1112basic_stringIcSt11char_traitsIcESaIcEEEEESaINS5_9sub_matchISB_EEENS5_12regex_traitsIcEELb1EEC2ESB_SB_RSt6vectorISD_SE_ERKNS5_11basic_regexIcSG_EENSt15regex_constants15match_flag_typeE=so_stub_for_libtelux_therm
-Wl,--defsym=_ZNSt8__detail9_ExecutorIN9__gnu_cxx17__normal_iteratorIPKcNSt7__cxx1112basic_stringIcSt11char_traitsIcESaIcEEEEESaINS5_9sub_matchISB_EEENS5_12regex_traitsIcEELb1EED1Ev=so_stub_for_libtelux_therm
-Wl,--defsym=_ZNSt8__detail9_ExecutorIN9__gnu_cxx17__normal_iteratorIPKcNSt7__cxx1112basic_stringIcSt11char_traitsIcESaIcEEEEESaINS5_9sub_matchISB_EEENS5_12regex_traitsIcEELb1EED2Ev=so_stub_for_libtelux_therm
-Wl,--defsym=_ZNSt8__detail9_Map_baseIiSt4pairIKiSt10shared_ptrIN5telux6common16ICommandCallbackEEESaIS8_ENS_10_Select1stESt8equal_toIiESt4hashIiENS_18_Mod_range_hashingENS_20_Default_ranged_hashENS_20_Prime_rehash_policyENS_17_Hashtable_traitsILb0ELb0ELb1EEELb1EEixERS2_=so_stub_for_libtelux_therm
-Wl,--defsym=_ZNSt8__detail9_StateSeqINSt7__cxx1112regex_traitsIcEEE8_M_cloneEv=so_stub_for_libtelux_therm
-Wl,--defsym=_ZNSt8functionIFbcEEaSEOS1_=so_stub_for_libtelux_therm
-Wl,--defsym=_ZNSt8functionIFbcEEC1ERKS1_=so_stub_for_libtelux_therm
-Wl,--defsym=_ZNSt8functionIFbcEEC1INSt8__detail15_BracketMatcherINSt7__cxx1112regex_traitsIcEELb0ELb0EEEvvEET_=so_stub_for_libtelux_therm
-Wl,--defsym=_ZNSt8functionIFbcEEC1INSt8__detail15_BracketMatcherINSt7__cxx1112regex_traitsIcEELb0ELb1EEEvvEET_=so_stub_for_libtelux_therm
-Wl,--defsym=_ZNSt8functionIFbcEEC1INSt8__detail15_BracketMatcherINSt7__cxx1112regex_traitsIcEELb1ELb0EEEvvEET_=so_stub_for_libtelux_therm
-Wl,--defsym=_ZNSt8functionIFbcEEC1INSt8__detail15_BracketMatcherINSt7__cxx1112regex_traitsIcEELb1ELb1EEEvvEET_=so_stub_for_libtelux_therm
-Wl,--defsym=_ZNSt8functionIFbcEEC2ERKS1_=so_stub_for_libtelux_therm
-Wl,--defsym=_ZNSt8functionIFbcEEC2INSt8__detail15_BracketMatcherINSt7__cxx1112regex_traitsIcEELb0ELb0EEEvvEET_=so_stub_for_libtelux_therm
-Wl,--defsym=_ZNSt8functionIFbcEEC2INSt8__detail15_BracketMatcherINSt7__cxx1112regex_traitsIcEELb0ELb1EEEvvEET_=so_stub_for_libtelux_therm
-Wl,--defsym=_ZNSt8functionIFbcEEC2INSt8__detail15_BracketMatcherINSt7__cxx1112regex_traitsIcEELb1ELb0EEEvvEET_=so_stub_for_libtelux_therm
-Wl,--defsym=_ZNSt8functionIFbcEEC2INSt8__detail15_BracketMatcherINSt7__cxx1112regex_traitsIcEELb1ELb1EEEvvEET_=so_stub_for_libtelux_therm
-Wl,--defsym=_ZNSt8functionIFvN5telux5therm16AutoShutdownModeEEEC1ERKS4_=so_stub_for_libtelux_therm
-Wl,--defsym=_ZNSt8functionIFvN5telux5therm16AutoShutdownModeEEEC2ERKS4_=so_stub_for_libtelux_therm
-Wl,--defsym=_ZNSt8functionIFvN5telux6common9ErrorCodeEEEC1ERKS4_=so_stub_for_libtelux_therm
-Wl,--defsym=_ZNSt8functionIFvN5telux6common9ErrorCodeEEEC2ERKS4_=so_stub_for_libtelux_therm
-Wl,--defsym=_ZNSt8_Rb_treeIlSt4pairIKllESt10_Select1stIS2_ESt4lessIlESaIS2_EE22_M_emplace_hint_uniqueIJRKSt21piecewise_construct_tSt5tupleIJRS1_EESD_IJEEEEESt17_Rb_tree_iteratorIS2_ESt23_Rb_tree_const_iteratorIS2_EDpOT_=so_stub_for_libtelux_therm
-Wl,--defsym=_ZNSt8_Rb_treeIlSt4pairIKllESt10_Select1stIS2_ESt4lessIlESaIS2_EE24_M_get_insert_unique_posERS1_=so_stub_for_libtelux_therm
-Wl,--defsym=_ZNSt8_Rb_treeIlSt4pairIKllESt10_Select1stIS2_ESt4lessIlESaIS2_EE29_M_get_insert_hint_unique_posESt23_Rb_tree_const_iteratorIS2_ERS1_=so_stub_for_libtelux_therm
-Wl,--defsym=_ZNSt8_Rb_treeIlSt4pairIKllESt10_Select1stIS2_ESt4lessIlESaIS2_EE8_M_eraseEPSt13_Rb_tree_nodeIS2_E=so_stub_for_libtelux_therm
-Wl,--defsym=_ZSt13__adjust_heapIN9__gnu_cxx17__normal_iteratorIPcSt6vectorIcSaIcEEEEicNS0_5__ops15_Iter_less_iterEEvT_T0_SA_T1_T2_=so_stub_for_libtelux_therm
-Wl,--defsym=_ZSt13binary_searchIN9__gnu_cxx17__normal_iteratorIPKcSt6vectorIcSaIcEEEEcEbT_S8_RKT0_=so_stub_for_libtelux_therm
-Wl,--defsym=_ZSt13move_backwardISt13shared_futureIvEESt15_Deque_iteratorIT_RS3_PS3_ES2_IS3_RKS3_PS7_ESA_S6_=so_stub_for_libtelux_therm
-Wl,--defsym=_ZSt16__insertion_sortIN9__gnu_cxx17__normal_iteratorIPcSt6vectorIcSaIcEEEENS0_5__ops15_Iter_less_iterEEvT_S9_T0_=so_stub_for_libtelux_therm
-Wl,--defsym=_ZSt18make_exception_ptrISt12future_errorENSt15__exception_ptr13exception_ptrET_=so_stub_for_libtelux_therm
-Wl,--defsym=_ZSt18uninitialized_copyINSt7__cxx1120regex_token_iteratorIN9__gnu_cxx17__normal_iteratorIPKcNS0_12basic_stringIcSt11char_traitsIcESaIcEEEEEcNS0_12regex_traitsIcEEEEPSA_ET0_T_SH_SG_=so_stub_for_libtelux_therm
-Wl,--defsym=_ZSt19__throw_regex_errorNSt15regex_constants10error_typeEPKc=so_stub_for_libtelux_therm
-Wl,--defsym=_ZSt20__throw_bad_weak_ptrv=so_stub_for_libtelux_therm
-Wl,--defsym=_ZSt22__final_insertion_sortIN9__gnu_cxx17__normal_iteratorIPcSt6vectorIcSaIcEEEENS0_5__ops15_Iter_less_iterEEvT_S9_T0_=so_stub_for_libtelux_therm
-Wl,--defsym=_ZSt4moveISt13shared_futureIvEESt15_Deque_iteratorIT_RS3_PS3_ES6_S6_S6_=so_stub_for_libtelux_therm
-Wl,--defsym=_ZSt4swapISt6localeENSt9enable_ifIXsrSt6__and_IJSt6__not_ISt15__is_tuple_likeIT_EESt21is_move_constructibleIS5_ESt18is_move_assignableIS5_EEE5valueEvE4typeERS5_SF_=so_stub_for_libtelux_therm
-Wl,--defsym=_ZSt7find_ifIN9__gnu_cxx17__normal_iteratorIPSt8weak_ptrIN5telux5therm24IThermalShutdownListenerEESt6vectorIS6_SaIS6_EEEEZNS3_6common15ListenerManagerIS5_E16registerListenerES6_EUlS6_E_ET_SG_SG_T0_=so_stub_for_libtelux_therm
-Wl,--defsym=_ZSt8distanceINSt7__cxx1120regex_token_iteratorIN9__gnu_cxx17__normal_iteratorIPKcNS0_12basic_stringIcSt11char_traitsIcESaIcEEEEEcNS0_12regex_traitsIcEEEEENSt15iterator_traitsIT_E15difference_typeESG_SG_=so_stub_for_libtelux_therm
-Wl,--defsym=_ZSt8__uniqueIN9__gnu_cxx17__normal_iteratorIPcSt6vectorIcSaIcEEEENS0_5__ops19_Iter_equal_to_iterEET_S9_S9_T0_=so_stub_for_libtelux_therm
-Wl,--defsym=_ZSt9__find_ifIN9__gnu_cxx17__normal_iteratorIPKNSt7__cxx1112basic_stringIcSt11char_traitsIcESaIcEEESt6vectorIS7_SaIS7_EEEENS0_5__ops16_Iter_equals_valIS8_EEET_SH_SH_T0_St26random_access_iterator_tag=so_stub_for_libtelux_therm
-Wl,--defsym=_ZSt9__find_ifIN9__gnu_cxx17__normal_iteratorIPN5telux5therm18BoundCoolingDeviceESt6vectorIS4_SaIS4_EEEENS0_5__ops10_Iter_predINS3_14ThermalManager10findCdevIdEEEET_SF_SF_T0_St26random_access_iterator_tag=so_stub_for_libtelux_therm
-Wl,--defsym=_ZSt9__find_ifIN9__gnu_cxx17__normal_iteratorIPSt8weak_ptrIN5telux5therm24IThermalShutdownListenerEESt6vectorIS6_SaIS6_EEEENS0_5__ops10_Iter_predIZNS3_6common15ListenerManagerIS5_E16registerListenerES6_EUlS6_E_EEET_SJ_SJ_T0_=so_stub_for_libtelux_therm
-Wl,--defsym=_ZSt9__find_ifIN9__gnu_cxx17__normal_iteratorIPSt8weak_ptrIN5telux5therm24IThermalShutdownListenerEESt6vectorIS6_SaIS6_EEEENS0_5__ops10_Iter_predIZNS3_6common15ListenerManagerIS5_E16registerListenerES6_EUlS6_E_EEET_SJ_SJ_T0_St26random_access_iterator_tag=so_stub_for_libtelux_therm
-Wl,--defsym=_ZSteqRKSt10error_codeRKSt15error_condition=so_stub_for_libtelux_therm
-Wl,--defsym=_ZStplIcSt11char_traitsIcESaIcEENSt7__cxx1112basic_stringIT_T0_T1_EEOS8_S9_=so_stub_for_libtelux_therm
-Wl,--defsym=_ZStplIcSt11char_traitsIcESaIcEENSt7__cxx1112basic_stringIT_T0_T1_EERKS8_PKS5_=so_stub_for_libtelux_therm
-Wl,--defsym=_ZThn12_N5telux5therm26ThermalShutdownManagerImpl24onSetModeCommandResponseEiPv=so_stub_for_libtelux_therm
-Wl,--defsym=_ZThn12_N5telux5therm26ThermalShutdownManagerImplD0Ev=so_stub_for_libtelux_therm
-Wl,--defsym=_ZThn12_N5telux5therm26ThermalShutdownManagerImplD1Ev=so_stub_for_libtelux_therm
-Wl,--defsym=_ZThn16_N5telux5therm26ThermalShutdownManagerImpl24onGetModeCommandResponseEiP28tsens_get_state_resp_msg_v01Pv=so_stub_for_libtelux_therm
-Wl,--defsym=_ZThn16_N5telux5therm26ThermalShutdownManagerImplD0Ev=so_stub_for_libtelux_therm
-Wl,--defsym=_ZThn16_N5telux5therm26ThermalShutdownManagerImplD1Ev=so_stub_for_libtelux_therm
-Wl,--defsym=_ZThn4_N5telux5therm26ThermalShutdownManagerImpl24onAutoShutdownModeUpdateEP34tsens_broadcast_indication_msg_v01=so_stub_for_libtelux_therm
-Wl,--defsym=_ZThn4_N5telux5therm26ThermalShutdownManagerImpl33onAutoShutdownServiceStatusChangeENS_6common13ServiceStatusE=so_stub_for_libtelux_therm
-Wl,--defsym=_ZThn4_N5telux5therm26ThermalShutdownManagerImplD0Ev=so_stub_for_libtelux_therm
-Wl,--defsym=_ZThn4_N5telux5therm26ThermalShutdownManagerImplD1Ev=so_stub_for_libtelux_therm
-Wl,--defsym=_ZThn8_N5telux5therm26ThermalShutdownManagerImpl22registerEventsResponseEijPv=so_stub_for_libtelux_therm
-Wl,--defsym=_ZThn8_N5telux5therm26ThermalShutdownManagerImplD0Ev=so_stub_for_libtelux_therm
-Wl,--defsym=_ZThn8_N5telux5therm26ThermalShutdownManagerImplD1Ev=so_stub_for_libtelux_therm
-Wl,--defsym=_ZTIN5telux3qmi12IQmiListenerE=so_stub_for_libtelux_therm
-Wl,--defsym=_ZTIN5telux3qmi27IQmiGetShutdownModeCallbackE=so_stub_for_libtelux_therm
-Wl,--defsym=_ZTIN5telux3qmi27IQmiSetShutdownModeCallbackE=so_stub_for_libtelux_therm
-Wl,--defsym=_ZTIN5telux3qmi28IQmiAutoShutdownModeListenerE=so_stub_for_libtelux_therm
-Wl,--defsym=_ZTIN5telux3qmi37IQmiRegisterAutoShutdownEventCallbackE=so_stub_for_libtelux_therm
-Wl,--defsym=_ZTIN5telux5therm10ITripPointE=so_stub_for_libtelux_therm
-Wl,--defsym=_ZTIN5telux5therm11ThermalZoneE=so_stub_for_libtelux_therm
-Wl,--defsym=_ZTIN5telux5therm12IThermalZoneE=so_stub_for_libtelux_therm
-Wl,--defsym=_ZTIN5telux5therm13CoolingDeviceE=so_stub_for_libtelux_therm
-Wl,--defsym=_ZTIN5telux5therm14ICoolingDeviceE=so_stub_for_libtelux_therm
-Wl,--defsym=_ZTIN5telux5therm14ThermalManagerE=so_stub_for_libtelux_therm
-Wl,--defsym=_ZTIN5telux5therm15IThermalManagerE=so_stub_for_libtelux_therm
-Wl,--defsym=_ZTIN5telux5therm23IThermalShutdownManagerE=so_stub_for_libtelux_therm
-Wl,--defsym=_ZTIN5telux5therm26ThermalShutdownManagerImplE=so_stub_for_libtelux_therm
-Wl,--defsym=_ZTIN5telux5therm9TripPointE=so_stub_for_libtelux_therm
-Wl,--defsym=_ZTIN5telux6common16ICommandCallbackE=so_stub_for_libtelux_therm
-Wl,--defsym=_ZTIN5telux6common18FunctionalCallbackIJNS0_9ErrorCodeEEEE=so_stub_for_libtelux_therm
-Wl,--defsym=_ZTIN5telux6common18FunctionalCallbackIJNS_5therm16AutoShutdownModeEEEE=so_stub_for_libtelux_therm
-Wl,--defsym=_ZTINSt13__future_base13_State_baseV2E=so_stub_for_libtelux_therm
-Wl,--defsym=_ZTINSt13__future_base21_Async_state_commonV2E=so_stub_for_libtelux_therm
-Wl,--defsym=_ZTINSt13__future_base7_ResultIbEE=so_stub_for_libtelux_therm
-Wl,--defsym=_ZTINSt13__future_base7_ResultIvEE=so_stub_for_libtelux_therm
-Wl,--defsym=_ZTINSt8__detail11_AnyMatcherINSt7__cxx1112regex_traitsIcEELb0ELb0ELb0EEE=so_stub_for_libtelux_therm
-Wl,--defsym=_ZTINSt8__detail11_AnyMatcherINSt7__cxx1112regex_traitsIcEELb0ELb0ELb1EEE=so_stub_for_libtelux_therm
-Wl,--defsym=_ZTINSt8__detail11_AnyMatcherINSt7__cxx1112regex_traitsIcEELb0ELb1ELb0EEE=so_stub_for_libtelux_therm
-Wl,--defsym=_ZTINSt8__detail11_AnyMatcherINSt7__cxx1112regex_traitsIcEELb0ELb1ELb1EEE=so_stub_for_libtelux_therm
-Wl,--defsym=_ZTINSt8__detail11_AnyMatcherINSt7__cxx1112regex_traitsIcEELb1ELb0ELb0EEE=so_stub_for_libtelux_therm
-Wl,--defsym=_ZTINSt8__detail11_AnyMatcherINSt7__cxx1112regex_traitsIcEELb1ELb0ELb1EEE=so_stub_for_libtelux_therm
-Wl,--defsym=_ZTINSt8__detail11_AnyMatcherINSt7__cxx1112regex_traitsIcEELb1ELb1ELb0EEE=so_stub_for_libtelux_therm
-Wl,--defsym=_ZTINSt8__detail11_AnyMatcherINSt7__cxx1112regex_traitsIcEELb1ELb1ELb1EEE=so_stub_for_libtelux_therm
-Wl,--defsym=_ZTINSt8__detail12_CharMatcherINSt7__cxx1112regex_traitsIcEELb0ELb0EEE=so_stub_for_libtelux_therm
-Wl,--defsym=_ZTINSt8__detail12_CharMatcherINSt7__cxx1112regex_traitsIcEELb0ELb1EEE=so_stub_for_libtelux_therm
-Wl,--defsym=_ZTINSt8__detail12_CharMatcherINSt7__cxx1112regex_traitsIcEELb1ELb0EEE=so_stub_for_libtelux_therm
-Wl,--defsym=_ZTINSt8__detail12_CharMatcherINSt7__cxx1112regex_traitsIcEELb1ELb1EEE=so_stub_for_libtelux_therm
-Wl,--defsym=_ZTINSt8__detail15_BracketMatcherINSt7__cxx1112regex_traitsIcEELb0ELb0EEE=so_stub_for_libtelux_therm
-Wl,--defsym=_ZTINSt8__detail15_BracketMatcherINSt7__cxx1112regex_traitsIcEELb0ELb1EEE=so_stub_for_libtelux_therm
-Wl,--defsym=_ZTINSt8__detail15_BracketMatcherINSt7__cxx1112regex_traitsIcEELb1ELb0EEE=so_stub_for_libtelux_therm
-Wl,--defsym=_ZTINSt8__detail15_BracketMatcherINSt7__cxx1112regex_traitsIcEELb1ELb1EEE=so_stub_for_libtelux_therm
-Wl,--defsym=_ZTISt11_Mutex_baseILN9__gnu_cxx12_Lock_policyE2EE=so_stub_for_libtelux_therm
-Wl,--defsym=_ZTISt16_Sp_counted_baseILN9__gnu_cxx12_Lock_policyE2EE=so_stub_for_libtelux_therm
-Wl,--defsym=_ZTISt19_Sp_make_shared_tag=so_stub_for_libtelux_therm
-Wl,--defsym=_ZTISt23enable_shared_from_thisIN5telux5therm26ThermalShutdownManagerImplEE=so_stub_for_libtelux_therm
-Wl,--defsym=_ZTISt23_Sp_counted_ptr_inplaceIN5telux5therm11ThermalZoneESaIS2_ELN9__gnu_cxx12_Lock_policyE2EE=so_stub_for_libtelux_therm
-Wl,--defsym=_ZTISt23_Sp_counted_ptr_inplaceIN5telux5therm13CoolingDeviceESaIS2_ELN9__gnu_cxx12_Lock_policyE2EE=so_stub_for_libtelux_therm
-Wl,--defsym=_ZTISt23_Sp_counted_ptr_inplaceIN5telux5therm14ThermalManagerESaIS2_ELN9__gnu_cxx12_Lock_policyE2EE=so_stub_for_libtelux_therm
-Wl,--defsym=_ZTISt23_Sp_counted_ptr_inplaceIN5telux5therm26ThermalShutdownManagerImplESaIS2_ELN9__gnu_cxx12_Lock_policyE2EE=so_stub_for_libtelux_therm
-Wl,--defsym=_ZTISt23_Sp_counted_ptr_inplaceIN5telux5therm9TripPointESaIS2_ELN9__gnu_cxx12_Lock_policyE2EE=so_stub_for_libtelux_therm
-Wl,--defsym=_ZTISt23_Sp_counted_ptr_inplaceIN5telux6common15ListenerManagerINS0_5therm24IThermalShutdownListenerEEESaIS5_ELN9__gnu_cxx12_Lock_policyE2EE=so_stub_for_libtelux_therm
-Wl,--defsym=_ZTISt23_Sp_counted_ptr_inplaceIN5telux6common18FunctionalCallbackIJNS0_5therm16AutoShutdownModeEEEESaIS5_ELN9__gnu_cxx12_Lock_policyE2EE=so_stub_for_libtelux_therm
-Wl,--defsym=_ZTISt23_Sp_counted_ptr_inplaceIN5telux6common18FunctionalCallbackIJNS1_9ErrorCodeEEEESaIS4_ELN9__gnu_cxx12_Lock_policyE2EE=so_stub_for_libtelux_therm
-Wl,--defsym=_ZTISt23_Sp_counted_ptr_inplaceINSt8__detail4_NFAINSt7__cxx1112regex_traitsIcEEEESaIS5_ELN9__gnu_cxx12_Lock_policyE2EE=so_stub_for_libtelux_therm
-Wl,--defsym=_ZTSN5telux3qmi12IQmiListenerE=so_stub_for_libtelux_therm
-Wl,--defsym=_ZTSN5telux3qmi27IQmiGetShutdownModeCallbackE=so_stub_for_libtelux_therm
-Wl,--defsym=_ZTSN5telux3qmi27IQmiSetShutdownModeCallbackE=so_stub_for_libtelux_therm
-Wl,--defsym=_ZTSN5telux3qmi28IQmiAutoShutdownModeListenerE=so_stub_for_libtelux_therm
-Wl,--defsym=_ZTSN5telux3qmi37IQmiRegisterAutoShutdownEventCallbackE=so_stub_for_libtelux_therm
-Wl,--defsym=_ZTSN5telux5therm10ITripPointE=so_stub_for_libtelux_therm
-Wl,--defsym=_ZTSN5telux5therm11ThermalZoneE=so_stub_for_libtelux_therm
-Wl,--defsym=_ZTSN5telux5therm12IThermalZoneE=so_stub_for_libtelux_therm
-Wl,--defsym=_ZTSN5telux5therm13CoolingDeviceE=so_stub_for_libtelux_therm
-Wl,--defsym=_ZTSN5telux5therm14ICoolingDeviceE=so_stub_for_libtelux_therm
-Wl,--defsym=_ZTSN5telux5therm14ThermalManagerE=so_stub_for_libtelux_therm
-Wl,--defsym=_ZTSN5telux5therm15IThermalManagerE=so_stub_for_libtelux_therm
-Wl,--defsym=_ZTSN5telux5therm23IThermalShutdownManagerE=so_stub_for_libtelux_therm
-Wl,--defsym=_ZTSN5telux5therm26ThermalShutdownManagerImplE=so_stub_for_libtelux_therm
-Wl,--defsym=_ZTSN5telux5therm9TripPointE=so_stub_for_libtelux_therm
-Wl,--defsym=_ZTSN5telux6common16ICommandCallbackE=so_stub_for_libtelux_therm
-Wl,--defsym=_ZTSN5telux6common18FunctionalCallbackIJNS0_9ErrorCodeEEEE=so_stub_for_libtelux_therm
-Wl,--defsym=_ZTSN5telux6common18FunctionalCallbackIJNS_5therm16AutoShutdownModeEEEE=so_stub_for_libtelux_therm
-Wl,--defsym=_ZTSNSt13__future_base13_State_baseV2E=so_stub_for_libtelux_therm
-Wl,--defsym=_ZTSNSt13__future_base21_Async_state_commonV2E=so_stub_for_libtelux_therm
-Wl,--defsym=_ZTSNSt13__future_base7_ResultIbEE=so_stub_for_libtelux_therm
-Wl,--defsym=_ZTSNSt13__future_base7_ResultIvEE=so_stub_for_libtelux_therm
-Wl,--defsym=_ZTSNSt8__detail11_AnyMatcherINSt7__cxx1112regex_traitsIcEELb0ELb0ELb0EEE=so_stub_for_libtelux_therm
-Wl,--defsym=_ZTSNSt8__detail11_AnyMatcherINSt7__cxx1112regex_traitsIcEELb0ELb0ELb1EEE=so_stub_for_libtelux_therm
-Wl,--defsym=_ZTSNSt8__detail11_AnyMatcherINSt7__cxx1112regex_traitsIcEELb0ELb1ELb0EEE=so_stub_for_libtelux_therm
-Wl,--defsym=_ZTSNSt8__detail11_AnyMatcherINSt7__cxx1112regex_traitsIcEELb0ELb1ELb1EEE=so_stub_for_libtelux_therm
-Wl,--defsym=_ZTSNSt8__detail11_AnyMatcherINSt7__cxx1112regex_traitsIcEELb1ELb0ELb0EEE=so_stub_for_libtelux_therm
-Wl,--defsym=_ZTSNSt8__detail11_AnyMatcherINSt7__cxx1112regex_traitsIcEELb1ELb0ELb1EEE=so_stub_for_libtelux_therm
-Wl,--defsym=_ZTSNSt8__detail11_AnyMatcherINSt7__cxx1112regex_traitsIcEELb1ELb1ELb0EEE=so_stub_for_libtelux_therm
-Wl,--defsym=_ZTSNSt8__detail11_AnyMatcherINSt7__cxx1112regex_traitsIcEELb1ELb1ELb1EEE=so_stub_for_libtelux_therm
-Wl,--defsym=_ZTSNSt8__detail12_CharMatcherINSt7__cxx1112regex_traitsIcEELb0ELb0EEE=so_stub_for_libtelux_therm
-Wl,--defsym=_ZTSNSt8__detail12_CharMatcherINSt7__cxx1112regex_traitsIcEELb0ELb1EEE=so_stub_for_libtelux_therm
-Wl,--defsym=_ZTSNSt8__detail12_CharMatcherINSt7__cxx1112regex_traitsIcEELb1ELb0EEE=so_stub_for_libtelux_therm
-Wl,--defsym=_ZTSNSt8__detail12_CharMatcherINSt7__cxx1112regex_traitsIcEELb1ELb1EEE=so_stub_for_libtelux_therm
-Wl,--defsym=_ZTSNSt8__detail15_BracketMatcherINSt7__cxx1112regex_traitsIcEELb0ELb0EEE=so_stub_for_libtelux_therm
-Wl,--defsym=_ZTSNSt8__detail15_BracketMatcherINSt7__cxx1112regex_traitsIcEELb0ELb1EEE=so_stub_for_libtelux_therm
-Wl,--defsym=_ZTSNSt8__detail15_BracketMatcherINSt7__cxx1112regex_traitsIcEELb1ELb0EEE=so_stub_for_libtelux_therm
-Wl,--defsym=_ZTSNSt8__detail15_BracketMatcherINSt7__cxx1112regex_traitsIcEELb1ELb1EEE=so_stub_for_libtelux_therm
-Wl,--defsym=_ZTSSt11_Mutex_baseILN9__gnu_cxx12_Lock_policyE2EE=so_stub_for_libtelux_therm
-Wl,--defsym=_ZTSSt16_Sp_counted_baseILN9__gnu_cxx12_Lock_policyE2EE=so_stub_for_libtelux_therm
-Wl,--defsym=_ZTSSt19_Sp_make_shared_tag=so_stub_for_libtelux_therm
-Wl,--defsym=_ZTSSt23enable_shared_from_thisIN5telux5therm26ThermalShutdownManagerImplEE=so_stub_for_libtelux_therm
-Wl,--defsym=_ZTSSt23_Sp_counted_ptr_inplaceIN5telux5therm11ThermalZoneESaIS2_ELN9__gnu_cxx12_Lock_policyE2EE=so_stub_for_libtelux_therm
-Wl,--defsym=_ZTSSt23_Sp_counted_ptr_inplaceIN5telux5therm13CoolingDeviceESaIS2_ELN9__gnu_cxx12_Lock_policyE2EE=so_stub_for_libtelux_therm
-Wl,--defsym=_ZTSSt23_Sp_counted_ptr_inplaceIN5telux5therm14ThermalManagerESaIS2_ELN9__gnu_cxx12_Lock_policyE2EE=so_stub_for_libtelux_therm
-Wl,--defsym=_ZTSSt23_Sp_counted_ptr_inplaceIN5telux5therm26ThermalShutdownManagerImplESaIS2_ELN9__gnu_cxx12_Lock_policyE2EE=so_stub_for_libtelux_therm
-Wl,--defsym=_ZTSSt23_Sp_counted_ptr_inplaceIN5telux5therm9TripPointESaIS2_ELN9__gnu_cxx12_Lock_policyE2EE=so_stub_for_libtelux_therm
-Wl,--defsym=_ZTSSt23_Sp_counted_ptr_inplaceIN5telux6common15ListenerManagerINS0_5therm24IThermalShutdownListenerEEESaIS5_ELN9__gnu_cxx12_Lock_policyE2EE=so_stub_for_libtelux_therm
-Wl,--defsym=_ZTSSt23_Sp_counted_ptr_inplaceIN5telux6common18FunctionalCallbackIJNS0_5therm16AutoShutdownModeEEEESaIS5_ELN9__gnu_cxx12_Lock_policyE2EE=so_stub_for_libtelux_therm
-Wl,--defsym=_ZTSSt23_Sp_counted_ptr_inplaceIN5telux6common18FunctionalCallbackIJNS1_9ErrorCodeEEEESaIS4_ELN9__gnu_cxx12_Lock_policyE2EE=so_stub_for_libtelux_therm
-Wl,--defsym=_ZTSSt23_Sp_counted_ptr_inplaceINSt8__detail4_NFAINSt7__cxx1112regex_traitsIcEEEESaIS5_ELN9__gnu_cxx12_Lock_policyE2EE=so_stub_for_libtelux_therm
-Wl,--defsym=_ZTVN5telux5therm11ThermalZoneE=so_stub_for_libtelux_therm
-Wl,--defsym=_ZTVN5telux5therm13CoolingDeviceE=so_stub_for_libtelux_therm
-Wl,--defsym=_ZTVN5telux5therm14ThermalManagerE=so_stub_for_libtelux_therm
-Wl,--defsym=_ZTVN5telux5therm26ThermalShutdownManagerImplE=so_stub_for_libtelux_therm
-Wl,--defsym=_ZTVN5telux5therm9TripPointE=so_stub_for_libtelux_therm
-Wl,--defsym=_ZTVN5telux6common18FunctionalCallbackIJNS0_9ErrorCodeEEEE=so_stub_for_libtelux_therm
-Wl,--defsym=_ZTVN5telux6common18FunctionalCallbackIJNS_5therm16AutoShutdownModeEEEE=so_stub_for_libtelux_therm
-Wl,--defsym=_ZTVNSt13__future_base13_State_baseV2E=so_stub_for_libtelux_therm
-Wl,--defsym=_ZTVNSt13__future_base21_Async_state_commonV2E=so_stub_for_libtelux_therm
-Wl,--defsym=_ZTVNSt13__future_base7_ResultIbEE=so_stub_for_libtelux_therm
-Wl,--defsym=_ZTVNSt13__future_base7_ResultIvEE=so_stub_for_libtelux_therm
-Wl,--defsym=_ZTVSt23_Sp_counted_ptr_inplaceIN5telux5therm11ThermalZoneESaIS2_ELN9__gnu_cxx12_Lock_policyE2EE=so_stub_for_libtelux_therm
-Wl,--defsym=_ZTVSt23_Sp_counted_ptr_inplaceIN5telux5therm13CoolingDeviceESaIS2_ELN9__gnu_cxx12_Lock_policyE2EE=so_stub_for_libtelux_therm
-Wl,--defsym=_ZTVSt23_Sp_counted_ptr_inplaceIN5telux5therm14ThermalManagerESaIS2_ELN9__gnu_cxx12_Lock_policyE2EE=so_stub_for_libtelux_therm
-Wl,--defsym=_ZTVSt23_Sp_counted_ptr_inplaceIN5telux5therm26ThermalShutdownManagerImplESaIS2_ELN9__gnu_cxx12_Lock_policyE2EE=so_stub_for_libtelux_therm
-Wl,--defsym=_ZTVSt23_Sp_counted_ptr_inplaceIN5telux5therm9TripPointESaIS2_ELN9__gnu_cxx12_Lock_policyE2EE=so_stub_for_libtelux_therm
-Wl,--defsym=_ZTVSt23_Sp_counted_ptr_inplaceIN5telux6common15ListenerManagerINS0_5therm24IThermalShutdownListenerEEESaIS5_ELN9__gnu_cxx12_Lock_policyE2EE=so_stub_for_libtelux_therm
-Wl,--defsym=_ZTVSt23_Sp_counted_ptr_inplaceIN5telux6common18FunctionalCallbackIJNS0_5therm16AutoShutdownModeEEEESaIS5_ELN9__gnu_cxx12_Lock_policyE2EE=so_stub_for_libtelux_therm
-Wl,--defsym=_ZTVSt23_Sp_counted_ptr_inplaceIN5telux6common18FunctionalCallbackIJNS1_9ErrorCodeEEEESaIS4_ELN9__gnu_cxx12_Lock_policyE2EE=so_stub_for_libtelux_therm
-Wl,--defsym=_ZTVSt23_Sp_counted_ptr_inplaceINSt8__detail4_NFAINSt7__cxx1112regex_traitsIcEEEESaIS5_ELN9__gnu_cxx12_Lock_policyE2EE=so_stub_for_libtelux_therm
-Wl,--defsym=_ZZNKSt7__cxx1112regex_traitsIcE16lookup_classnameIPKcEENS1_10_RegexMaskET_S6_bE12__classnames=so_stub_for_libtelux_therm
-Wl,--defsym=_ZZNKSt7__cxx1112regex_traitsIcE18lookup_collatenameIPKcEENS_12basic_stringIcSt11char_traitsIcESaIcEEET_SA_E14__collatenames=so_stub_for_libtelux_therm
-Wl,--defsym=_ZZNKSt8__detail11_AnyMatcherINSt7__cxx1112regex_traitsIcEELb0ELb0ELb0EEclEcE5__nul=so_stub_for_libtelux_therm
-Wl,--defsym=_ZZNKSt8__detail11_AnyMatcherINSt7__cxx1112regex_traitsIcEELb0ELb0ELb1EEclEcE5__nul=so_stub_for_libtelux_therm
-Wl,--defsym=_ZZNKSt8__detail11_AnyMatcherINSt7__cxx1112regex_traitsIcEELb0ELb1ELb0EEclEcE5__nul=so_stub_for_libtelux_therm
-Wl,--defsym=_ZZNKSt8__detail11_AnyMatcherINSt7__cxx1112regex_traitsIcEELb0ELb1ELb1EEclEcE5__nul=so_stub_for_libtelux_therm
-Wl,--defsym=_ZZNKSt8__detail15_BracketMatcherINSt7__cxx1112regex_traitsIcEELb0ELb0EE8_M_applyEcSt17integral_constantIbLb0EEENKUlvE_clEv=so_stub_for_libtelux_therm
-Wl,--defsym=_ZZNKSt8__detail15_BracketMatcherINSt7__cxx1112regex_traitsIcEELb0ELb1EE8_M_applyEcSt17integral_constantIbLb0EEENKUlvE_clEv=so_stub_for_libtelux_therm
-Wl,--defsym=_ZZNKSt8__detail15_BracketMatcherINSt7__cxx1112regex_traitsIcEELb1ELb0EE8_M_applyEcSt17integral_constantIbLb0EEENKUlvE_clEv=so_stub_for_libtelux_therm
-Wl,--defsym=_ZZNKSt8__detail15_BracketMatcherINSt7__cxx1112regex_traitsIcEELb1ELb1EE8_M_applyEcSt17integral_constantIbLb0EEENKUlvE_clEv=so_stub_for_libtelux_therm
-Wl,--defsym=_ZZNKSt8__detail9_ExecutorIN9__gnu_cxx17__normal_iteratorIPKcNSt7__cxx1112basic_stringIcSt11char_traitsIcESaIcEEEEESaINS5_9sub_matchISB_EEENS5_12regex_traitsIcEELb0EE10_M_is_wordEcE3__s=so_stub_for_libtelux_therm
-Wl,--defsym=_ZZNKSt8__detail9_ExecutorIN9__gnu_cxx17__normal_iteratorIPKcNSt7__cxx1112basic_stringIcSt11char_traitsIcESaIcEEEEESaINS5_9sub_matchISB_EEENS5_12regex_traitsIcEELb1EE10_M_is_wordEcE3__s=so_stub_for_libtelux_therm
-Wl,--defsym=_ZZSt9call_onceIMNSt13__future_base13_State_baseV2EFvPSt8functionIFSt10unique_ptrINS0_12_Result_baseENS4_8_DeleterEEvEEPbEJPS1_S9_SA_EEvRSt9once_flagOT_DpOT0_ENKUlvE0_clEv=so_stub_for_libtelux_therm
-Wl,--defsym=_ZZSt9call_onceIMNSt13__future_base13_State_baseV2EFvPSt8functionIFSt10unique_ptrINS0_12_Result_baseENS4_8_DeleterEEvEEPbEJPS1_S9_SA_EEvRSt9once_flagOT_DpOT0_ENUlvE0_4_FUNEv=so_stub_for_libtelux_therm
-Wl,--defsym=_ZZSt9call_onceIMSt6threadFvvEJPS0_EEvRSt9once_flagOT_DpOT0_ENKUlvE0_clEv=so_stub_for_libtelux_therm
-Wl,--defsym=_ZZSt9call_onceIMSt6threadFvvEJPS0_EEvRSt9once_flagOT_DpOT0_ENUlvE0_4_FUNEv=so_stub_for_libtelux_therm
