-Wl,--defsym=__gcov_error_file=so_stub_for_libtelux_loc
-Wl,--defsym=__gcov_master=so_stub_for_libtelux_loc
-Wl,--defsym=__gcov_sort_n_vals=so_stub_for_libtelux_loc
-Wl,--defsym=__gcov_var=so_stub_for_libtelux_loc
-Wl,--defsym=_ZN15location_client13GnssReportCbsD1Ev=so_stub_for_libtelux_loc
-Wl,--defsym=_ZN15location_client13GnssReportCbsD2Ev=so_stub_for_libtelux_loc
-Wl,--defsym=_ZN15location_client15EngineReportCbsD1Ev=so_stub_for_libtelux_loc
-Wl,--defsym=_ZN15location_client15EngineReportCbsD2Ev=so_stub_for_libtelux_loc
-Wl,--defsym=_ZN20location_integration17LocIntegrationCbsD1Ev=so_stub_for_libtelux_loc
-Wl,--defsym=_ZN20location_integration17LocIntegrationCbsD2Ev=so_stub_for_libtelux_loc
-Wl,--defsym=_ZN5telux3loc10SVInfoImpl10getAzimuthEv=so_stub_for_libtelux_loc
-Wl,--defsym=_ZN5telux3loc10SVInfoImpl10setAzimuthEf=so_stub_for_libtelux_loc
-Wl,--defsym=_ZN5telux3loc10SVInfoImpl11setGnssSVIdEt=so_stub_for_libtelux_loc
-Wl,--defsym=_ZN5telux3loc10SVInfoImpl11setSVStatusENS0_8SVStatusE=so_stub_for_libtelux_loc
-Wl,--defsym=_ZN5telux3loc10SVInfoImpl12getElevationEv=so_stub_for_libtelux_loc
-Wl,--defsym=_ZN5telux3loc10SVInfoImpl12setElevationEf=so_stub_for_libtelux_loc
-Wl,--defsym=_ZN5telux3loc10SVInfoImpl13getHasAlmanacEv=so_stub_for_libtelux_loc
-Wl,--defsym=_ZN5telux3loc10SVInfoImpl13getSignalTypeEv=so_stub_for_libtelux_loc
-Wl,--defsym=_ZN5telux3loc10SVInfoImpl13setHasAlmanacENS0_18SVInfoAvailabilityE=so_stub_for_libtelux_loc
-Wl,--defsym=_ZN5telux3loc10SVInfoImpl13setSignalTypeEj=so_stub_for_libtelux_loc
-Wl,--defsym=_ZN5telux3loc10SVInfoImpl15getHasEphemerisEv=so_stub_for_libtelux_loc
-Wl,--defsym=_ZN5telux3loc10SVInfoImpl15setHasEphemerisENS0_18SVInfoAvailabilityE=so_stub_for_libtelux_loc
-Wl,--defsym=_ZN5telux3loc10SVInfoImpl16getConstellationEv=so_stub_for_libtelux_loc
-Wl,--defsym=_ZN5telux3loc10SVInfoImpl16setConstellationENS0_21GnssConstellationTypeE=so_stub_for_libtelux_loc
-Wl,--defsym=_ZN5telux3loc10SVInfoImpl17getSVHealthStatusEv=so_stub_for_libtelux_loc
-Wl,--defsym=_ZN5telux3loc10SVInfoImpl17setSVHealthStatusENS0_14SVHealthStatusE=so_stub_for_libtelux_loc
-Wl,--defsym=_ZN5telux3loc10SVInfoImpl19getCarrierFrequencyEv=so_stub_for_libtelux_loc
-Wl,--defsym=_ZN5telux3loc10SVInfoImpl19setCarrierFrequencyEf=so_stub_for_libtelux_loc
-Wl,--defsym=_ZN5telux3loc10SVInfoImpl5getIdEv=so_stub_for_libtelux_loc
-Wl,--defsym=_ZN5telux3loc10SVInfoImpl6getSnrEv=so_stub_for_libtelux_loc
-Wl,--defsym=_ZN5telux3loc10SVInfoImpl6setSnrEf=so_stub_for_libtelux_loc
-Wl,--defsym=_ZN5telux3loc10SVInfoImpl9getHasFixEv=so_stub_for_libtelux_loc
-Wl,--defsym=_ZN5telux3loc10SVInfoImpl9getStatusEv=so_stub_for_libtelux_loc
-Wl,--defsym=_ZN5telux3loc10SVInfoImpl9setHasFixENS0_18SVInfoAvailabilityE=so_stub_for_libtelux_loc
-Wl,--defsym=_ZN5telux3loc10SVInfoImplC1Ev=so_stub_for_libtelux_loc
-Wl,--defsym=_ZN5telux3loc10SVInfoImplC2Ev=so_stub_for_libtelux_loc
-Wl,--defsym=_ZN5telux3loc14GnssSignalInfo11getGnssDataEv=so_stub_for_libtelux_loc
-Wl,--defsym=_ZN5telux3loc14GnssSignalInfoC1EN15location_client8GnssDataE=so_stub_for_libtelux_loc
-Wl,--defsym=_ZN5telux3loc14GnssSignalInfoC1Ev=so_stub_for_libtelux_loc
-Wl,--defsym=_ZN5telux3loc14GnssSignalInfoC2EN15location_client8GnssDataE=so_stub_for_libtelux_loc
-Wl,--defsym=_ZN5telux3loc14GnssSignalInfoC2Ev=so_stub_for_libtelux_loc
-Wl,--defsym=_ZN5telux3loc14GnssSVInfoImpl13getSVInfoListEv=so_stub_for_libtelux_loc
-Wl,--defsym=_ZN5telux3loc14GnssSVInfoImpl13setGnssSVListESt6vectorISt10shared_ptrINS0_7ISVInfoEESaIS5_EE=so_stub_for_libtelux_loc
-Wl,--defsym=_ZN5telux3loc14GnssSVInfoImpl15getAltitudeTypeEv=so_stub_for_libtelux_loc
-Wl,--defsym=_ZN5telux3loc14GnssSVInfoImpl15setAltitudeTypeENS0_12AltitudeTypeE=so_stub_for_libtelux_loc
-Wl,--defsym=_ZN5telux3loc14GnssSVInfoImplC1Ev=so_stub_for_libtelux_loc
-Wl,--defsym=_ZN5telux3loc14GnssSVInfoImplC2Ev=so_stub_for_libtelux_loc
-Wl,--defsym=_ZN5telux3loc14LocationHelper12convertSVIdsESt6vectorIN15location_client17GnssMeasUsageInfoESaIS4_EE=so_stub_for_libtelux_loc
-Wl,--defsym=_ZN5telux3loc14LocationHelper13convertGnssSvEN15location_client6GnssSvE=so_stub_for_libtelux_loc
-Wl,--defsym=_ZN5telux3loc14LocationHelper15convertGnssDataEN15location_client8GnssDataE=so_stub_for_libtelux_loc
-Wl,--defsym=_ZN5telux3loc14LocationHelper16convertFrameDataEN15location_client28GnssLocationPositionDynamicsE=so_stub_for_libtelux_loc
-Wl,--defsym=_ZN5telux3loc14LocationHelper19convertDeletionInfoEj=so_stub_for_libtelux_loc
-Wl,--defsym=_ZN5telux3loc14LocationHelper19convertLeverArmInfoERKSt13unordered_mapINS0_12LeverArmTypeENS0_14LeverArmParamsESt4hashIS3_ESt8equal_toIS3_ESaISt4pairIKS3_S4_EEE=so_stub_for_libtelux_loc
-Wl,--defsym=_ZN5telux3loc14LocationHelper20convertLocEngineTypeEt=so_stub_for_libtelux_loc
-Wl,--defsym=_ZN5telux3loc14LocationHelper20convertMeasUsageInfoESt6vectorIN15location_client17GnssMeasUsageInfoESaIS4_EE=so_stub_for_libtelux_loc
-Wl,--defsym=_ZN5telux3loc14LocationHelper21convertDREngineConfigERKNS0_21DREngineConfigurationE=so_stub_for_libtelux_loc
-Wl,--defsym=_ZN5telux3loc14LocationHelper21convertGnssSystemTimeEN15location_client14GnssSystemTimeE=so_stub_for_libtelux_loc
-Wl,--defsym=_ZN5telux3loc14LocationHelper21convertRobustLocationEN20location_integration20RobustLocationConfigE=so_stub_for_libtelux_loc
-Wl,--defsym=_ZN5telux3loc14LocationHelper21convertSbasCorrectionEN15location_client27GnssLocationNavSolutionMaskE=so_stub_for_libtelux_loc
-Wl,--defsym=_ZN5telux3loc14LocationHelper22convertLLAVRPBasedInfoEN15location_client7LLAInfoE=so_stub_for_libtelux_loc
-Wl,--defsym=_ZN5telux3loc14LocationHelper23convertGnssMeasurementsERKN15location_client16GnssMeasurementsERNS0_16GnssMeasurementsE=so_stub_for_libtelux_loc
-Wl,--defsym=_ZN5telux3loc14LocationHelper23convertLocOutputEngMaskEN15location_client21PositioningEngineMaskE=so_stub_for_libtelux_loc
-Wl,--defsym=_ZN5telux3loc14LocationHelper23convertLocOutputEngTypeEN15location_client19LocOutputEngineTypeE=so_stub_for_libtelux_loc
-Wl,--defsym=_ZN5telux3loc14LocationHelper24convertCalibrationStatusEN15location_client23DrCalibrationStatusMaskE=so_stub_for_libtelux_loc
-Wl,--defsym=_ZN5telux3loc14LocationHelper24convertConstellationTypeEN15location_client24Gnss_LocSvSystemEnumTypeE=so_stub_for_libtelux_loc
-Wl,--defsym=_ZN5telux3loc14LocationHelper24gnssConstellationMappingESt6vectorINS0_15SvBlackListInfoESaIS3_EEPS2_IN20location_integration12GnssSvIdInfoESaIS7_EE=so_stub_for_libtelux_loc
-Wl,--defsym=_ZN5telux3loc14LocationHelper25convertLocationSystemInfoEN15location_client18LocationSystemInfoE=so_stub_for_libtelux_loc
-Wl,--defsym=_ZN5telux3loc14LocationHelper26convertEastNorthUpVelocityERKN15location_client12GnssLocationE=so_stub_for_libtelux_loc
-Wl,--defsym=_ZN5telux3loc14LocationHelper26convertENUVelocityVRPBasedERKN15location_client12GnssLocationE=so_stub_for_libtelux_loc
-Wl,--defsym=_ZN5telux3loc14LocationHelper26convertLocationReliabilityEN15location_client19LocationReliabilityE=so_stub_for_libtelux_loc
-Wl,--defsym=_ZN5telux3loc14LocationHelper27convertConstellationSetTypeERKSt13unordered_setIN20location_integration21GnssConstellationTypeESt4hashIS4_ESt8equal_toIS4_ESaIS4_EE=so_stub_for_libtelux_loc
-Wl,--defsym=_ZN5telux3loc14LocationHelper27convertConstellationSetTypeESt13unordered_setINS0_21GnssConstellationTypeESt4hashIS3_ESt8equal_toIS3_ESaIS3_EE=so_stub_for_libtelux_loc
-Wl,--defsym=_ZN5telux3loc14LocationHelper28convertGnssConstellationTypeEN20location_integration21GnssConstellationTypeE=so_stub_for_libtelux_loc
-Wl,--defsym=_ZN5telux3loc14LocationHelper28convertGnssConstellationTypeENS0_21GnssConstellationTypeE=so_stub_for_libtelux_loc
-Wl,--defsym=_ZN5telux3loc14LocationHelper29convertGnssEnergyConsumedInfoEN15location_client22GnssEnergyConsumedInfoE=so_stub_for_libtelux_loc
-Wl,--defsym=_ZN5telux3loc14LocationHelper30convertLocResponseToTeluxErrorEN15location_client16LocationResponseE=so_stub_for_libtelux_loc
-Wl,--defsym=_ZN5telux3loc14LocationHelper31convertLocResponseToTeluxStatusEN15location_client16LocationResponseE=so_stub_for_libtelux_loc
-Wl,--defsym=_ZN5telux3loc14LocationHelper33convertLocIntegrationResponseTypeEN20location_integration22LocIntegrationResponseE=so_stub_for_libtelux_loc
-Wl,--defsym=_ZN5telux3loc14LocationHelper35convertGnssSvOptionsMaskToFixStatusEN15location_client17GnssSvOptionsMaskE=so_stub_for_libtelux_loc
-Wl,--defsym=_ZN5telux3loc14LocationHelper38convertEastNorthUpVelocityUncertainityERKN15location_client12GnssLocationE=so_stub_for_libtelux_loc
-Wl,--defsym=_ZN5telux3loc14LocationHelper38convertGnssTypeToGnssConstellationTypeEN15location_client10GnssSvTypeE=so_stub_for_libtelux_loc
-Wl,--defsym=_ZN5telux3loc14LocationHelper38convertLocationToLocationInfoImplBasicERKN15location_client8LocationE=so_stub_for_libtelux_loc
-Wl,--defsym=_ZN5telux3loc14LocationHelper39convertGnssLocationToLocationInfoImplExERKN15location_client12GnssLocationE=so_stub_for_libtelux_loc
-Wl,--defsym=_ZN5telux3loc14LocationHelper39convertGnssSvOptionsMaskToAlmanacStatusEN15location_client17GnssSvOptionsMaskE=so_stub_for_libtelux_loc
-Wl,--defsym=_ZN5telux3loc14LocationHelper41convertGnssSvOptionsMaskToEphemerisStatusEN15location_client17GnssSvOptionsMaskE=so_stub_for_libtelux_loc
-Wl,--defsym=_ZN5telux3loc15LocationFactory11getInstanceEv=so_stub_for_libtelux_loc
-Wl,--defsym=_ZN5telux3loc15LocationFactory15getDgnssManagerENS0_15DgnssDataFormatESt8functionIFvNS_6common13ServiceStatusEEE=so_stub_for_libtelux_loc
-Wl,--defsym=_ZN5telux3loc15LocationFactory18getLocationManagerESt8functionIFvNS_6common13ServiceStatusEEE=so_stub_for_libtelux_loc
-Wl,--defsym=_ZN5telux3loc15LocationFactory23getLocationConfiguratorESt8functionIFvNS_6common13ServiceStatusEEE=so_stub_for_libtelux_loc
-Wl,--defsym=_ZN5telux3loc15LocationFactory25onGetConfiguratorResponseENS_6common13ServiceStatusE=so_stub_for_libtelux_loc
-Wl,--defsym=_ZN5telux3loc15LocationFactory25onGetDgnssManagerResponseENS_6common13ServiceStatusE=so_stub_for_libtelux_loc
-Wl,--defsym=_ZN5telux3loc15LocationFactoryC1Ev=so_stub_for_libtelux_loc
-Wl,--defsym=_ZN5telux3loc15LocationFactoryC2Ev=so_stub_for_libtelux_loc
-Wl,--defsym=_ZN5telux3loc15LocationFactoryD1Ev=so_stub_for_libtelux_loc
-Wl,--defsym=_ZN5telux3loc15LocationFactoryD2Ev=so_stub_for_libtelux_loc
-Wl,--defsym=_ZN5telux3loc16DgnssManagerImpl12createSourceENS0_15DgnssDataFormatE=so_stub_for_libtelux_loc
-Wl,--defsym=_ZN5telux3loc16DgnssManagerImpl13releaseSourceEv=so_stub_for_libtelux_loc
-Wl,--defsym=_ZN5telux3loc16DgnssManagerImpl15onDgnssStatusCbE18QDgnssSourceStatus=so_stub_for_libtelux_loc
-Wl,--defsym=_ZN5telux3loc16DgnssManagerImpl16getServiceStatusEv=so_stub_for_libtelux_loc
-Wl,--defsym=_ZN5telux3loc16DgnssManagerImpl16isSubsystemReadyEv=so_stub_for_libtelux_loc
-Wl,--defsym=_ZN5telux3loc16DgnssManagerImpl16onSubsystemReadyEv=so_stub_for_libtelux_loc
-Wl,--defsym=_ZN5telux3loc16DgnssManagerImpl16registerListenerESt8weak_ptrINS0_20IDgnssStatusListenerEE=so_stub_for_libtelux_loc
-Wl,--defsym=_ZN5telux3loc16DgnssManagerImpl18deRegisterListenerEv=so_stub_for_libtelux_loc
-Wl,--defsym=_ZN5telux3loc16DgnssManagerImpl20injectCorrectionDataEPKhj=so_stub_for_libtelux_loc
-Wl,--defsym=_ZN5telux3loc16DgnssManagerImpl21waitForInitializationEv=so_stub_for_libtelux_loc
-Wl,--defsym=_ZN5telux3loc16DgnssManagerImpl4initESt8functionIFvNS_6common13ServiceStatusEEE=so_stub_for_libtelux_loc
-Wl,--defsym=_ZN5telux3loc16DgnssManagerImplC1ENS0_15DgnssDataFormatE=so_stub_for_libtelux_loc
-Wl,--defsym=_ZN5telux3loc16DgnssManagerImplC2ENS0_15DgnssDataFormatE=so_stub_for_libtelux_loc
-Wl,--defsym=_ZN5telux3loc16DgnssManagerImplD0Ev=so_stub_for_libtelux_loc
-Wl,--defsym=_ZN5telux3loc16DgnssManagerImplD1Ev=so_stub_for_libtelux_loc
-Wl,--defsym=_ZN5telux3loc16DgnssManagerImplD2Ev=so_stub_for_libtelux_loc
-Wl,--defsym=_ZN5telux3loc16LocationResponse12onResponseCbEN15location_client16LocationResponseE=so_stub_for_libtelux_loc
-Wl,--defsym=_ZN5telux3loc16LocationResponse12resetPromiseEv=so_stub_for_libtelux_loc
-Wl,--defsym=_ZN5telux3loc16LocationResponse9getFutureEv=so_stub_for_libtelux_loc
-Wl,--defsym=_ZN5telux3loc16LocationResponseC1Ev=so_stub_for_libtelux_loc
-Wl,--defsym=_ZN5telux3loc16LocationResponseC2Ev=so_stub_for_libtelux_loc
-Wl,--defsym=_ZN5telux3loc17ILocationListener12onGnssSVInfoERKSt10shared_ptrINS0_11IGnssSVInfoEE=so_stub_for_libtelux_loc
-Wl,--defsym=_ZN5telux3loc17ILocationListener14onGnssNmeaInfoEyRKNSt7__cxx1112basic_stringIcSt11char_traitsIcESaIcEEE=so_stub_for_libtelux_loc
-Wl,--defsym=_ZN5telux3loc17ILocationListener16onGnssSignalInfoERKSt10shared_ptrINS0_15IGnssSignalInfoEE=so_stub_for_libtelux_loc
-Wl,--defsym=_ZN5telux3loc17ILocationListener21onBasicLocationUpdateERKSt10shared_ptrINS0_17ILocationInfoBaseEE=so_stub_for_libtelux_loc
-Wl,--defsym=_ZN5telux3loc17ILocationListener22onGnssMeasurementsInfoERKNS0_16GnssMeasurementsE=so_stub_for_libtelux_loc
-Wl,--defsym=_ZN5telux3loc17ILocationListener24onDetailedLocationUpdateERKSt10shared_ptrINS0_15ILocationInfoExEE=so_stub_for_libtelux_loc
-Wl,--defsym=_ZN5telux3loc17ILocationListener30onDetailedEngineLocationUpdateERKSt6vectorISt10shared_ptrINS0_15ILocationInfoExEESaIS5_EE=so_stub_for_libtelux_loc
-Wl,--defsym=_ZN5telux3loc18LocationInfoImplEx10getHeadingEv=so_stub_for_libtelux_loc
-Wl,--defsym=_ZN5telux3loc18LocationInfoImplEx10getTimeDopEv=so_stub_for_libtelux_loc
-Wl,--defsym=_ZN5telux3loc18LocationInfoImplEx11getAltitudeEv=so_stub_for_libtelux_loc
-Wl,--defsym=_ZN5telux3loc18LocationInfoImplEx11getLatitudeEv=so_stub_for_libtelux_loc
-Wl,--defsym=_ZN5telux3loc18LocationInfoImplEx11getTechMaskEv=so_stub_for_libtelux_loc
-Wl,--defsym=_ZN5telux3loc18LocationInfoImplEx12getLongitudeEv=so_stub_for_libtelux_loc
-Wl,--defsym=_ZN5telux3loc18LocationInfoImplEx12getNumSvUsedEv=so_stub_for_libtelux_loc
-Wl,--defsym=_ZN5telux3loc18LocationInfoImplEx12getTimeStampEv=so_stub_for_libtelux_loc
-Wl,--defsym=_ZN5telux3loc18LocationInfoImplEx12getTimeUncMsEv=so_stub_for_libtelux_loc
-Wl,--defsym=_ZN5telux3loc18LocationInfoImplEx14getLeapSecondsERh=so_stub_for_libtelux_loc
-Wl,--defsym=_ZN5telux3loc18LocationInfoImplEx14getPositionDopEv=so_stub_for_libtelux_loc
-Wl,--defsym=_ZN5telux3loc18LocationInfoImplEx14getVerticalDopEv=so_stub_for_libtelux_loc
-Wl,--defsym=_ZN5telux3loc18LocationInfoImplEx14getVRPBasedLLAEv=so_stub_for_libtelux_loc
-Wl,--defsym=_ZN5telux3loc18LocationInfoImplEx15getGeometricDopEv=so_stub_for_libtelux_loc
-Wl,--defsym=_ZN5telux3loc18LocationInfoImplEx16getBodyFrameDataEv=so_stub_for_libtelux_loc
-Wl,--defsym=_ZN5telux3loc18LocationInfoImplEx16getHorizontalDopEv=so_stub_for_libtelux_loc
-Wl,--defsym=_ZN5telux3loc18LocationInfoImplEx16getmeasUsageInfoEv=so_stub_for_libtelux_loc
-Wl,--defsym=_ZN5telux3loc18LocationInfoImplEx17getGnssSystemTimeEv=so_stub_for_libtelux_loc
-Wl,--defsym=_ZN5telux3loc18LocationInfoImplEx17getSbasCorrectionEv=so_stub_for_libtelux_loc
-Wl,--defsym=_ZN5telux3loc18LocationInfoImplEx18getConformityIndexEv=so_stub_for_libtelux_loc
-Wl,--defsym=_ZN5telux3loc18LocationInfoImplEx19getLocOutputEngMaskEv=so_stub_for_libtelux_loc
-Wl,--defsym=_ZN5telux3loc18LocationInfoImplEx19getLocOutputEngTypeEv=so_stub_for_libtelux_loc
-Wl,--defsym=_ZN5telux3loc18LocationInfoImplEx19getSpeedUncertaintyEv=so_stub_for_libtelux_loc
-Wl,--defsym=_ZN5telux3loc18LocationInfoImplEx19getSvUsedInPositionEv=so_stub_for_libtelux_loc
-Wl,--defsym=_ZN5telux3loc18LocationInfoImplEx20getCalibrationStatusEv=so_stub_for_libtelux_loc
-Wl,--defsym=_ZN5telux3loc18LocationInfoImplEx20getMagneticDeviationEv=so_stub_for_libtelux_loc
-Wl,--defsym=_ZN5telux3loc18LocationInfoImplEx21getHeadingUncertaintyEv=so_stub_for_libtelux_loc
-Wl,--defsym=_ZN5telux3loc18LocationInfoImplEx21getPositionTechnologyEv=so_stub_for_libtelux_loc
-Wl,--defsym=_ZN5telux3loc18LocationInfoImplEx22getVelocityEastNorthUpERSt6vectorIfSaIfEE=so_stub_for_libtelux_loc
-Wl,--defsym=_ZN5telux3loc18LocationInfoImplEx22getVerticalReliabilityEv=so_stub_for_libtelux_loc
-Wl,--defsym=_ZN5telux3loc18LocationInfoImplEx22getVerticalUncertaintyEv=so_stub_for_libtelux_loc
-Wl,--defsym=_ZN5telux3loc18LocationInfoImplEx22getVRPBasedENUVelocityEv=so_stub_for_libtelux_loc
-Wl,--defsym=_ZN5telux3loc18LocationInfoImplEx23getAltitudeMeanSeaLevelEv=so_stub_for_libtelux_loc
-Wl,--defsym=_ZN5telux3loc18LocationInfoImplEx23getLocationInfoValidityEv=so_stub_for_libtelux_loc
-Wl,--defsym=_ZN5telux3loc18LocationInfoImplEx24getEastStandardDeviationEv=so_stub_for_libtelux_loc
-Wl,--defsym=_ZN5telux3loc18LocationInfoImplEx24getHorizontalReliabilityEv=so_stub_for_libtelux_loc
-Wl,--defsym=_ZN5telux3loc18LocationInfoImplEx24getHorizontalUncertaintyEv=so_stub_for_libtelux_loc
-Wl,--defsym=_ZN5telux3loc18LocationInfoImplEx25getLocationInfoExValidityEv=so_stub_for_libtelux_loc
-Wl,--defsym=_ZN5telux3loc18LocationInfoImplEx25getNorthStandardDeviationEv=so_stub_for_libtelux_loc
-Wl,--defsym=_ZN5telux3loc18LocationInfoImplEx31getCalibrationConfidencePercentEv=so_stub_for_libtelux_loc
-Wl,--defsym=_ZN5telux3loc18LocationInfoImplEx31getHorizontalUncertaintyAzimuthEv=so_stub_for_libtelux_loc
-Wl,--defsym=_ZN5telux3loc18LocationInfoImplEx33getHorizontalUncertaintySemiMajorEv=so_stub_for_libtelux_loc
-Wl,--defsym=_ZN5telux3loc18LocationInfoImplEx33getHorizontalUncertaintySemiMinorEv=so_stub_for_libtelux_loc
-Wl,--defsym=_ZN5telux3loc18LocationInfoImplEx33getVelocityUncertaintyEastNorthUpERSt6vectorIfSaIfEE=so_stub_for_libtelux_loc
-Wl,--defsym=_ZN5telux3loc18LocationInfoImplEx8getSpeedEv=so_stub_for_libtelux_loc
-Wl,--defsym=_ZN5telux3loc18LocationInfoImplEx8getSVIdsERSt6vectorItSaItEE=so_stub_for_libtelux_loc
-Wl,--defsym=_ZN5telux3loc18LocationInfoImplExC1Ev=so_stub_for_libtelux_loc
-Wl,--defsym=_ZN5telux3loc18LocationInfoImplExC2Ev=so_stub_for_libtelux_loc
-Wl,--defsym=_ZN5telux3loc18LocationInfoImplExD1Ev=so_stub_for_libtelux_loc
-Wl,--defsym=_ZN5telux3loc18LocationInfoImplExD2Ev=so_stub_for_libtelux_loc
-Wl,--defsym=_ZN5telux3loc19LocationManagerImpl10onGnssSvCbERKSt6vectorIN15location_client6GnssSvESaIS4_EE=so_stub_for_libtelux_loc
-Wl,--defsym=_ZN5telux3loc19LocationManagerImpl11getYearOfHwESt8functionIFvtNS_6common9ErrorCodeEEE=so_stub_for_libtelux_loc
-Wl,--defsym=_ZN5telux3loc19LocationManagerImpl11stopReportsESt8functionIFvNS_6common9ErrorCodeEEE=so_stub_for_libtelux_loc
-Wl,--defsym=_ZN5telux3loc19LocationManagerImpl12onGnssDataCbERKN15location_client8GnssDataE=so_stub_for_libtelux_loc
-Wl,--defsym=_ZN5telux3loc19LocationManagerImpl12onGnssNmeaCbEyRKNSt7__cxx1112basic_stringIcSt11char_traitsIcESaIcEEE=so_stub_for_libtelux_loc
-Wl,--defsym=_ZN5telux3loc19LocationManagerImpl12onLocationCbERKN15location_client8LocationE=so_stub_for_libtelux_loc
-Wl,--defsym=_ZN5telux3loc19LocationManagerImpl15getyearOfHwSyncEtSt8functionIFvtNS_6common9ErrorCodeEEE=so_stub_for_libtelux_loc
-Wl,--defsym=_ZN5telux3loc19LocationManagerImpl16getServiceStatusEv=so_stub_for_libtelux_loc
-Wl,--defsym=_ZN5telux3loc19LocationManagerImpl16isSubsystemReadyEv=so_stub_for_libtelux_loc
-Wl,--defsym=_ZN5telux3loc19LocationManagerImpl16onCapabilitiesCbEN15location_client24LocationCapabilitiesMaskE=so_stub_for_libtelux_loc
-Wl,--defsym=_ZN5telux3loc19LocationManagerImpl16onGnssLocationCbERKN15location_client12GnssLocationE=so_stub_for_libtelux_loc
-Wl,--defsym=_ZN5telux3loc19LocationManagerImpl16onSubsystemReadyEv=so_stub_for_libtelux_loc
-Wl,--defsym=_ZN5telux3loc19LocationManagerImpl17startBasicReportsEjjSt8functionIFvNS_6common9ErrorCodeEEE=so_stub_for_libtelux_loc
-Wl,--defsym=_ZN5telux3loc19LocationManagerImpl18registerListenerExESt8weak_ptrINS0_17ILocationListenerEE=so_stub_for_libtelux_loc
-Wl,--defsym=_ZN5telux3loc19LocationManagerImpl19onEngineLocationsCbERKSt6vectorIN15location_client12GnssLocationESaIS4_EE=so_stub_for_libtelux_loc
-Wl,--defsym=_ZN5telux3loc19LocationManagerImpl20deRegisterListenerExESt8weak_ptrINS0_17ILocationListenerEE=so_stub_for_libtelux_loc
-Wl,--defsym=_ZN5telux3loc19LocationManagerImpl20onGnssMeasurementsCbERKN15location_client16GnssMeasurementsE=so_stub_for_libtelux_loc
-Wl,--defsym=_ZN5telux3loc19LocationManagerImpl20startDetailedReportsEjSt8functionIFvNS_6common9ErrorCodeEEE=so_stub_for_libtelux_loc
-Wl,--defsym=_ZN5telux3loc19LocationManagerImpl21startBasicReportsSyncEjjSt8functionIFvNS_6common9ErrorCodeEEE=so_stub_for_libtelux_loc
-Wl,--defsym=_ZN5telux3loc19LocationManagerImpl21waitForInitializationEv=so_stub_for_libtelux_loc
-Wl,--defsym=_ZN5telux3loc19LocationManagerImpl22onLocationSystemInfoCbERKN15location_client18LocationSystemInfoE=so_stub_for_libtelux_loc
-Wl,--defsym=_ZN5telux3loc19LocationManagerImpl24getAvailableNewListenersERSt6vectorISt10shared_ptrINS0_17ILocationListenerEESaIS5_EE=so_stub_for_libtelux_loc
-Wl,--defsym=_ZN5telux3loc19LocationManagerImpl24startDetailedReportsSyncEjSt8functionIFvNS_6common9ErrorCodeEEE=so_stub_for_libtelux_loc
-Wl,--defsym=_ZN5telux3loc19LocationManagerImpl25requestEnergyConsumedInfoESt8functionIFvNS0_22GnssEnergyConsumedInfoENS_6common9ErrorCodeEEE=so_stub_for_libtelux_loc
-Wl,--defsym=_ZN5telux3loc19LocationManagerImpl26onGnssEnergyConsumedInfoCbERKN15location_client22GnssEnergyConsumedInfoE=so_stub_for_libtelux_loc
-Wl,--defsym=_ZN5telux3loc19LocationManagerImpl26startDetailedEngineReportsEjtSt8functionIFvNS_6common9ErrorCodeEEE=so_stub_for_libtelux_loc
-Wl,--defsym=_ZN5telux3loc19LocationManagerImpl28registerForSystemInfoUpdatesESt8weak_ptrINS0_27ILocationSystemInfoListenerEESt8functionIFvNS_6common9ErrorCodeEEE=so_stub_for_libtelux_loc
-Wl,--defsym=_ZN5telux3loc19LocationManagerImpl29requestEnergyConsumedInfoSyncESt8functionIFvNS0_22GnssEnergyConsumedInfoENS_6common9ErrorCodeEEE=so_stub_for_libtelux_loc
-Wl,--defsym=_ZN5telux3loc19LocationManagerImpl30deRegisterForSystemInfoUpdatesESt8weak_ptrINS0_27ILocationSystemInfoListenerEESt8functionIFvNS_6common9ErrorCodeEEE=so_stub_for_libtelux_loc
-Wl,--defsym=_ZN5telux3loc19LocationManagerImpl30startDetailedEngineReportsSyncEjtSt8functionIFvNS_6common9ErrorCodeEEE=so_stub_for_libtelux_loc
-Wl,--defsym=_ZN5telux3loc19LocationManagerImpl32registerForSystemInfoUpdatesSyncESt8weak_ptrINS0_27ILocationSystemInfoListenerEESt8functionIFvNS_6common9ErrorCodeEEE=so_stub_for_libtelux_loc
-Wl,--defsym=_ZN5telux3loc19LocationManagerImpl34deRegisterForSystemInfoUpdatesSyncESt8weak_ptrINS0_27ILocationSystemInfoListenerEESt8functionIFvNS_6common9ErrorCodeEEE=so_stub_for_libtelux_loc
-Wl,--defsym=_ZN5telux3loc19LocationManagerImpl4initESt8functionIFvNS_6common13ServiceStatusEEE=so_stub_for_libtelux_loc
-Wl,--defsym=_ZN5telux3loc19LocationManagerImpl7cleanupEv=so_stub_for_libtelux_loc
-Wl,--defsym=_ZN5telux3loc19LocationManagerImplC1Ev=so_stub_for_libtelux_loc
-Wl,--defsym=_ZN5telux3loc19LocationManagerImplC2Ev=so_stub_for_libtelux_loc
-Wl,--defsym=_ZN5telux3loc19LocationManagerImplD0Ev=so_stub_for_libtelux_loc
-Wl,--defsym=_ZN5telux3loc19LocationManagerImplD1Ev=so_stub_for_libtelux_loc
-Wl,--defsym=_ZN5telux3loc19LocationManagerImplD2Ev=so_stub_for_libtelux_loc
-Wl,--defsym=_ZN5telux3loc20IDgnssStatusListener19onDgnssStatusUpdateENS0_11DgnssStatusE=so_stub_for_libtelux_loc
-Wl,--defsym=_ZN5telux3loc21LocationInfoImplBasic10getHeadingEv=so_stub_for_libtelux_loc
-Wl,--defsym=_ZN5telux3loc21LocationInfoImplBasic11getAltitudeEv=so_stub_for_libtelux_loc
-Wl,--defsym=_ZN5telux3loc21LocationInfoImplBasic11getLatitudeEv=so_stub_for_libtelux_loc
-Wl,--defsym=_ZN5telux3loc21LocationInfoImplBasic11getTechMaskEv=so_stub_for_libtelux_loc
-Wl,--defsym=_ZN5telux3loc21LocationInfoImplBasic12getLongitudeEv=so_stub_for_libtelux_loc
-Wl,--defsym=_ZN5telux3loc21LocationInfoImplBasic12getTimeStampEv=so_stub_for_libtelux_loc
-Wl,--defsym=_ZN5telux3loc21LocationInfoImplBasic19getSpeedUncertaintyEv=so_stub_for_libtelux_loc
-Wl,--defsym=_ZN5telux3loc21LocationInfoImplBasic21getHeadingUncertaintyEv=so_stub_for_libtelux_loc
-Wl,--defsym=_ZN5telux3loc21LocationInfoImplBasic22getVerticalUncertaintyEv=so_stub_for_libtelux_loc
-Wl,--defsym=_ZN5telux3loc21LocationInfoImplBasic23getLocationInfoValidityEv=so_stub_for_libtelux_loc
-Wl,--defsym=_ZN5telux3loc21LocationInfoImplBasic24getHorizontalUncertaintyEv=so_stub_for_libtelux_loc
-Wl,--defsym=_ZN5telux3loc21LocationInfoImplBasic8getSpeedEv=so_stub_for_libtelux_loc
-Wl,--defsym=_ZN5telux3loc21LocationInfoImplBasicC1Ev=so_stub_for_libtelux_loc
-Wl,--defsym=_ZN5telux3loc21LocationInfoImplBasicC2Ev=so_stub_for_libtelux_loc
-Wl,--defsym=_ZN5telux3loc24LocationConfiguratorImpl11configureDRERKNS0_21DREngineConfigurationESt8functionIFvNS_6common9ErrorCodeEEE=so_stub_for_libtelux_loc
-Wl,--defsym=_ZN5telux3loc24LocationConfiguratorImpl13configurePACEEbSt8functionIFvNS_6common9ErrorCodeEEE=so_stub_for_libtelux_loc
-Wl,--defsym=_ZN5telux3loc24LocationConfiguratorImpl14configureCTuncEbSt8functionIFvNS_6common9ErrorCodeEEEfj=so_stub_for_libtelux_loc
-Wl,--defsym=_ZN5telux3loc24LocationConfiguratorImpl14onMinGpsWeekCbEt=so_stub_for_libtelux_loc
-Wl,--defsym=_ZN5telux3loc24LocationConfiguratorImpl16deleteAidingDataEjSt8functionIFvNS_6common9ErrorCodeEEE=so_stub_for_libtelux_loc
-Wl,--defsym=_ZN5telux3loc24LocationConfiguratorImpl16getServiceStatusEv=so_stub_for_libtelux_loc
-Wl,--defsym=_ZN5telux3loc24LocationConfiguratorImpl16isSubsystemReadyEv=so_stub_for_libtelux_loc
-Wl,--defsym=_ZN5telux3loc24LocationConfiguratorImpl16onSubsystemReadyEv=so_stub_for_libtelux_loc
-Wl,--defsym=_ZN5telux3loc24LocationConfiguratorImpl17configureLeverArmERKSt13unordered_mapINS0_12LeverArmTypeENS0_14LeverArmParamsESt4hashIS3_ESt8equal_toIS3_ESaISt4pairIKS3_S4_EEESt8functionIFvNS_6common9ErrorCodeEEE=so_stub_for_libtelux_loc
-Wl,--defsym=_ZN5telux3loc24LocationConfiguratorImpl17onSecondaryBandCbERKSt13unordered_setIN20location_integration21GnssConstellationTypeESt4hashIS4_ESt8equal_toIS4_ESaIS4_EE=so_stub_for_libtelux_loc
-Wl,--defsym=_ZN5telux3loc24LocationConfiguratorImpl17requestMinGpsWeekESt8functionIFvtNS_6common9ErrorCodeEEE=so_stub_for_libtelux_loc
-Wl,--defsym=_ZN5telux3loc24LocationConfiguratorImpl18onConfigResponseCbEN20location_integration17LocConfigTypeEnumENS2_22LocIntegrationResponseE=so_stub_for_libtelux_loc
-Wl,--defsym=_ZN5telux3loc24LocationConfiguratorImpl18onMinSVElevationCbEh=so_stub_for_libtelux_loc
-Wl,--defsym=_ZN5telux3loc24LocationConfiguratorImpl18onRobustLocationCbEN20location_integration20RobustLocationConfigE=so_stub_for_libtelux_loc
-Wl,--defsym=_ZN5telux3loc24LocationConfiguratorImpl19configureMinGpsWeekEtSt8functionIFvNS_6common9ErrorCodeEEE=so_stub_for_libtelux_loc
-Wl,--defsym=_ZN5telux3loc24LocationConfiguratorImpl19deleteAllAidingDataESt8functionIFvNS_6common9ErrorCodeEEE=so_stub_for_libtelux_loc
-Wl,--defsym=_ZN5telux3loc24LocationConfiguratorImpl21requestMinSVElevationESt8functionIFvhNS_6common9ErrorCodeEEE=so_stub_for_libtelux_loc
-Wl,--defsym=_ZN5telux3loc24LocationConfiguratorImpl21requestRobustLocationESt8functionIFvNS0_27RobustLocationConfigurationENS_6common9ErrorCodeEEE=so_stub_for_libtelux_loc
-Wl,--defsym=_ZN5telux3loc24LocationConfiguratorImpl21waitForInitializationEv=so_stub_for_libtelux_loc
-Wl,--defsym=_ZN5telux3loc24LocationConfiguratorImpl22configureSecondaryBandERKSt13unordered_setINS0_21GnssConstellationTypeESt4hashIS3_ESt8equal_toIS3_ESaIS3_EESt8functionIFvNS_6common9ErrorCodeEEE=so_stub_for_libtelux_loc
-Wl,--defsym=_ZN5telux3loc24LocationConfiguratorImpl23configureConstellationsERKSt6vectorINS0_15SvBlackListInfoESaIS3_EESt8functionIFvNS_6common9ErrorCodeEEEb=so_stub_for_libtelux_loc
-Wl,--defsym=_ZN5telux3loc24LocationConfiguratorImpl23configureMinSVElevationEhSt8functionIFvNS_6common9ErrorCodeEEE=so_stub_for_libtelux_loc
-Wl,--defsym=_ZN5telux3loc24LocationConfiguratorImpl23configureRobustLocationEbbSt8functionIFvNS_6common9ErrorCodeEEE=so_stub_for_libtelux_loc
-Wl,--defsym=_ZN5telux3loc24LocationConfiguratorImpl24onDREngineConfigResponseESt8functionIFvNS_6common9ErrorCodeEEE=so_stub_for_libtelux_loc
-Wl,--defsym=_ZN5telux3loc24LocationConfiguratorImpl26onConfigMinGpsWeekResponseESt8functionIFvNS_6common9ErrorCodeEEE=so_stub_for_libtelux_loc
-Wl,--defsym=_ZN5telux3loc24LocationConfiguratorImpl26onPACEConfiguratorResponseESt8functionIFvNS_6common9ErrorCodeEEE=so_stub_for_libtelux_loc
-Wl,--defsym=_ZN5telux3loc24LocationConfiguratorImpl26onTuncConfiguratorResponseESt8functionIFvNS_6common9ErrorCodeEEE=so_stub_for_libtelux_loc
-Wl,--defsym=_ZN5telux3loc24LocationConfiguratorImpl26requestSecondaryBandConfigESt8functionIFvSt13unordered_setINS0_21GnssConstellationTypeESt4hashIS4_ESt8equal_toIS4_ESaIS4_EENS_6common9ErrorCodeEEE=so_stub_for_libtelux_loc
-Wl,--defsym=_ZN5telux3loc24LocationConfiguratorImpl27onRequestMinGpsWeekResponseESt8functionIFvtNS_6common9ErrorCodeEEE=so_stub_for_libtelux_loc
-Wl,--defsym=_ZN5telux3loc24LocationConfiguratorImpl28onDeleteConfiguratorResponseESt8functionIFvNS_6common9ErrorCodeEEE=so_stub_for_libtelux_loc
-Wl,--defsym=_ZN5telux3loc24LocationConfiguratorImpl30onConfigMinSVElevationResponseESt8functionIFvNS_6common9ErrorCodeEEE=so_stub_for_libtelux_loc
-Wl,--defsym=_ZN5telux3loc24LocationConfiguratorImpl30onLeverArmConfiguratorResponseESt8functionIFvNS_6common9ErrorCodeEEE=so_stub_for_libtelux_loc
-Wl,--defsym=_ZN5telux3loc24LocationConfiguratorImpl30onRequestSecondaryBandResponseESt8functionIFvSt13unordered_setINS0_21GnssConstellationTypeESt4hashIS4_ESt8equal_toIS4_ESaIS4_EENS_6common9ErrorCodeEEE=so_stub_for_libtelux_loc
-Wl,--defsym=_ZN5telux3loc24LocationConfiguratorImpl31onRequestMinSVElevationResponseESt8functionIFvhNS_6common9ErrorCodeEEE=so_stub_for_libtelux_loc
-Wl,--defsym=_ZN5telux3loc24LocationConfiguratorImpl31onRequestRobustLocationResponseESt8functionIFvNS0_27RobustLocationConfigurationENS_6common9ErrorCodeEEE=so_stub_for_libtelux_loc
-Wl,--defsym=_ZN5telux3loc24LocationConfiguratorImpl31onRobustLocConfiguratorResponseESt8functionIFvNS_6common9ErrorCodeEEE=so_stub_for_libtelux_loc
-Wl,--defsym=_ZN5telux3loc24LocationConfiguratorImpl32onDeleteDataConfiguratorResponseESt8functionIFvNS_6common9ErrorCodeEEE=so_stub_for_libtelux_loc
-Wl,--defsym=_ZN5telux3loc24LocationConfiguratorImpl33onBlackListSvConfiguratorResponseESt8functionIFvNS_6common9ErrorCodeEEE=so_stub_for_libtelux_loc
-Wl,--defsym=_ZN5telux3loc24LocationConfiguratorImpl35onSecondaryBandConfiguratorResponseESt8functionIFvNS_6common9ErrorCodeEEE=so_stub_for_libtelux_loc
-Wl,--defsym=_ZN5telux3loc24LocationConfiguratorImpl4initESt8functionIFvNS_6common13ServiceStatusEEE=so_stub_for_libtelux_loc
-Wl,--defsym=_ZN5telux3loc24LocationConfiguratorImpl7cleanupEv=so_stub_for_libtelux_loc
-Wl,--defsym=_ZN5telux3loc24LocationConfiguratorImplC1Ev=so_stub_for_libtelux_loc
-Wl,--defsym=_ZN5telux3loc24LocationConfiguratorImplC2Ev=so_stub_for_libtelux_loc
-Wl,--defsym=_ZN5telux3loc24LocationConfiguratorImplD0Ev=so_stub_for_libtelux_loc
-Wl,--defsym=_ZN5telux3loc24LocationConfiguratorImplD1Ev=so_stub_for_libtelux_loc
-Wl,--defsym=_ZN5telux3loc24LocationConfiguratorImplD2Ev=so_stub_for_libtelux_loc
-Wl,--defsym=_ZN5telux3loc27ILocationSystemInfoListener20onLocationSystemInfoERKNS0_18LocationSystemInfoE=so_stub_for_libtelux_loc
-Wl,--defsym=_ZN5telux3loc33setRequiredPermToRunAsDgnssClientEv=so_stub_for_libtelux_loc
-Wl,--defsym=_ZN5telux3loc8USERNAMEE=so_stub_for_libtelux_loc
-Wl,--defsym=_ZN5telux6common14AsyncTaskQueueIvE14purgeCompletedEv=so_stub_for_libtelux_loc
-Wl,--defsym=_ZN5telux6common15ListenerManagerINS_3loc27ILocationSystemInfoListenerEE16registerListenerESt8weak_ptrIS3_E=so_stub_for_libtelux_loc
-Wl,--defsym=_ZN5telux6common15ListenerManagerINS_3loc27ILocationSystemInfoListenerEE18deRegisterListenerESt8weak_ptrIS3_E=so_stub_for_libtelux_loc
-Wl,--defsym=_ZN5telux6common15ListenerManagerINS_3loc27ILocationSystemInfoListenerEE21getAvailableListenersERSt6vectorISt8weak_ptrIS3_ESaIS7_EE=so_stub_for_libtelux_loc
-Wl,--defsym=_ZN5telux6common18FunctionalCallbackIJhNS0_9ErrorCodeEEED0Ev=so_stub_for_libtelux_loc
-Wl,--defsym=_ZN5telux6common18FunctionalCallbackIJhNS0_9ErrorCodeEEED1Ev=so_stub_for_libtelux_loc
-Wl,--defsym=_ZN5telux6common18FunctionalCallbackIJhNS0_9ErrorCodeEEED2Ev=so_stub_for_libtelux_loc
-Wl,--defsym=_ZN5telux6common18FunctionalCallbackIJNS0_13ServiceStatusEEED0Ev=so_stub_for_libtelux_loc
-Wl,--defsym=_ZN5telux6common18FunctionalCallbackIJNS0_13ServiceStatusEEED1Ev=so_stub_for_libtelux_loc
-Wl,--defsym=_ZN5telux6common18FunctionalCallbackIJNS0_13ServiceStatusEEED2Ev=so_stub_for_libtelux_loc
-Wl,--defsym=_ZN5telux6common18FunctionalCallbackIJNS_3loc22GnssEnergyConsumedInfoENS0_9ErrorCodeEEED0Ev=so_stub_for_libtelux_loc
-Wl,--defsym=_ZN5telux6common18FunctionalCallbackIJNS_3loc22GnssEnergyConsumedInfoENS0_9ErrorCodeEEED1Ev=so_stub_for_libtelux_loc
-Wl,--defsym=_ZN5telux6common18FunctionalCallbackIJNS_3loc22GnssEnergyConsumedInfoENS0_9ErrorCodeEEED2Ev=so_stub_for_libtelux_loc
-Wl,--defsym=_ZN5telux6common18FunctionalCallbackIJNS_3loc27RobustLocationConfigurationENS0_9ErrorCodeEEED0Ev=so_stub_for_libtelux_loc
-Wl,--defsym=_ZN5telux6common18FunctionalCallbackIJNS_3loc27RobustLocationConfigurationENS0_9ErrorCodeEEED1Ev=so_stub_for_libtelux_loc
-Wl,--defsym=_ZN5telux6common18FunctionalCallbackIJNS_3loc27RobustLocationConfigurationENS0_9ErrorCodeEEED2Ev=so_stub_for_libtelux_loc
-Wl,--defsym=_ZN5telux6common18FunctionalCallbackIJSt13unordered_setINS_3loc21GnssConstellationTypeESt4hashIS4_ESt8equal_toIS4_ESaIS4_EENS0_9ErrorCodeEEED0Ev=so_stub_for_libtelux_loc
-Wl,--defsym=_ZN5telux6common18FunctionalCallbackIJSt13unordered_setINS_3loc21GnssConstellationTypeESt4hashIS4_ESt8equal_toIS4_ESaIS4_EENS0_9ErrorCodeEEED1Ev=so_stub_for_libtelux_loc
-Wl,--defsym=_ZN5telux6common18FunctionalCallbackIJSt13unordered_setINS_3loc21GnssConstellationTypeESt4hashIS4_ESt8equal_toIS4_ESaIS4_EENS0_9ErrorCodeEEED2Ev=so_stub_for_libtelux_loc
-Wl,--defsym=_ZN5telux6common18FunctionalCallbackIJtNS0_9ErrorCodeEEED0Ev=so_stub_for_libtelux_loc
-Wl,--defsym=_ZN5telux6common18FunctionalCallbackIJtNS0_9ErrorCodeEEED1Ev=so_stub_for_libtelux_loc
-Wl,--defsym=_ZN5telux6common18FunctionalCallbackIJtNS0_9ErrorCodeEEED2Ev=so_stub_for_libtelux_loc
-Wl,--defsym=_ZN5telux6common22CommandCallbackManager11addCallbackIJhNS0_9ErrorCodeEEEEiSt8functionIFvDpT_EE=so_stub_for_libtelux_loc
-Wl,--defsym=_ZN5telux6common22CommandCallbackManager11addCallbackIJNS0_13ServiceStatusEEEEiSt8functionIFvDpT_EE=so_stub_for_libtelux_loc
-Wl,--defsym=_ZN5telux6common22CommandCallbackManager11addCallbackIJNS_3loc22GnssEnergyConsumedInfoENS0_9ErrorCodeEEEEiSt8functionIFvDpT_EE=so_stub_for_libtelux_loc
-Wl,--defsym=_ZN5telux6common22CommandCallbackManager11addCallbackIJNS_3loc27RobustLocationConfigurationENS0_9ErrorCodeEEEEiSt8functionIFvDpT_EE=so_stub_for_libtelux_loc
-Wl,--defsym=_ZN5telux6common22CommandCallbackManager11addCallbackIJSt13unordered_setINS_3loc21GnssConstellationTypeESt4hashIS5_ESt8equal_toIS5_ESaIS5_EENS0_9ErrorCodeEEEEiSt8functionIFvDpT_EE=so_stub_for_libtelux_loc
-Wl,--defsym=_ZN5telux6common22CommandCallbackManager11addCallbackIJtNS0_9ErrorCodeEEEEiSt8functionIFvDpT_EE=so_stub_for_libtelux_loc
-Wl,--defsym=_ZN5telux6common22CommandCallbackManager15executeCallbackIJNS0_13ServiceStatusEEEEvSt10shared_ptrINS0_16ICommandCallbackEEDpOT_=so_stub_for_libtelux_loc
-Wl,--defsym=_ZN5telux6common22CommandCallbackManager15executeCallbackIJRhNS0_9ErrorCodeEEEEvSt10shared_ptrINS0_16ICommandCallbackEEDpOT_=so_stub_for_libtelux_loc
-Wl,--defsym=_ZN5telux6common22CommandCallbackManager15executeCallbackIJRNS_3loc22GnssEnergyConsumedInfoENS0_9ErrorCodeEEEEvSt10shared_ptrINS0_16ICommandCallbackEEDpOT_=so_stub_for_libtelux_loc
-Wl,--defsym=_ZN5telux6common22CommandCallbackManager15executeCallbackIJRNS_3loc27RobustLocationConfigurationENS0_9ErrorCodeEEEEvSt10shared_ptrINS0_16ICommandCallbackEEDpOT_=so_stub_for_libtelux_loc
-Wl,--defsym=_ZN5telux6common22CommandCallbackManager15executeCallbackIJRSt13unordered_setINS_3loc21GnssConstellationTypeESt4hashIS5_ESt8equal_toIS5_ESaIS5_EENS0_9ErrorCodeEEEEvSt10shared_ptrINS0_16ICommandCallbackEEDpOT_=so_stub_for_libtelux_loc
-Wl,--defsym=_ZN5telux6common22CommandCallbackManager15executeCallbackIJRtNS0_9ErrorCodeEEEEvSt10shared_ptrINS0_16ICommandCallbackEEDpOT_=so_stub_for_libtelux_loc
-Wl,--defsym=_ZN5telux6common3Log10logMessageIJPKcEEEvNS0_8LogLevelERKNSt7__cxx1112basic_stringIcSt11char_traitsIcESaIcEEESD_RKiDpT_=so_stub_for_libtelux_loc
-Wl,--defsym=_ZN5telux6common3Log10logMessageIJPKcS4_18QDgnssSourceStatusEEEvNS0_8LogLevelERKNSt7__cxx1112basic_stringIcSt11char_traitsIcESaIcEEESE_RKiDpT_=so_stub_for_libtelux_loc
-Wl,--defsym=_ZN5telux6common3Log10logMessageIJPKcS4_EEEvNS0_8LogLevelERKNSt7__cxx1112basic_stringIcSt11char_traitsIcESaIcEEESD_RKiDpT_=so_stub_for_libtelux_loc
-Wl,--defsym=_ZN5telux6common3Log10logMessageIJPKcS4_iEEEvNS0_8LogLevelERKNSt7__cxx1112basic_stringIcSt11char_traitsIcESaIcEEESD_RKiDpT_=so_stub_for_libtelux_loc
-Wl,--defsym=_ZN5telux6common3Log10logMessageIJPKcS4_jEEEvNS0_8LogLevelERKNSt7__cxx1112basic_stringIcSt11char_traitsIcESaIcEEESD_RKiDpT_=so_stub_for_libtelux_loc
-Wl,--defsym=_ZN5telux6common3Log10logMessageIJPKcS4_jS4_jEEEvNS0_8LogLevelERKNSt7__cxx1112basic_stringIcSt11char_traitsIcESaIcEEESD_RKiDpT_=so_stub_for_libtelux_loc
-Wl,--defsym=_ZN5telux6common3Log10logMessageIJPKcS4_N15location_client24LocationCapabilitiesMaskEEEEvNS0_8LogLevelERKNSt7__cxx1112basic_stringIcSt11char_traitsIcESaIcEEESF_RKiDpT_=so_stub_for_libtelux_loc
-Wl,--defsym=_ZN5telux6common3Log10logMessageIJPKcS4_N20location_integration22LocIntegrationResponseEEEEvNS0_8LogLevelERKNSt7__cxx1112basic_stringIcSt11char_traitsIcESaIcEEESF_RKiDpT_=so_stub_for_libtelux_loc
-Wl,--defsym=_ZN5telux6common3Log10logMessageIJPKcS4_S4_EEEvNS0_8LogLevelERKNSt7__cxx1112basic_stringIcSt11char_traitsIcESaIcEEESD_RKiDpT_=so_stub_for_libtelux_loc
-Wl,--defsym=_ZN5telux6common3Log10logMessageIJPKcS4_S4_jEEEvNS0_8LogLevelERKNSt7__cxx1112basic_stringIcSt11char_traitsIcESaIcEEESD_RKiDpT_=so_stub_for_libtelux_loc
-Wl,--defsym=_ZN5telux6common3Log16constructMessageINSt7__cxx1119basic_ostringstreamIcSt11char_traitsIcESaIcEEEPKcJSA_jEEEvRT_T0_DpT1_=so_stub_for_libtelux_loc
-Wl,--defsym=_ZN5telux6common3Log16constructMessageINSt7__cxx1119basic_ostringstreamIcSt11char_traitsIcESaIcEEEPKcJSA_jSA_jEEEvRT_T0_DpT1_=so_stub_for_libtelux_loc
-Wl,--defsym=_ZN9__gnu_cxx5__ops10_Iter_predIZN5telux6common15ListenerManagerINS2_3loc27ILocationSystemInfoListenerEE16registerListenerESt8weak_ptrIS6_EEUlS9_E_EclINS_17__normal_iteratorIPS9_St6vectorIS9_SaIS9_EEEEEEbT_=so_stub_for_libtelux_loc
-Wl,--defsym=_ZNKSt13__future_base13_State_baseV221_M_is_deferred_futureEv=so_stub_for_libtelux_loc
-Wl,--defsym=_ZNKSt14__basic_futureIN15location_client16LocationResponseEE13_M_get_resultEv=so_stub_for_libtelux_loc
-Wl,--defsym=_ZNKSt6vectorISt8weak_ptrIN5telux3loc27ILocationSystemInfoListenerEESaIS4_EE12_M_check_lenEjPKc=so_stub_for_libtelux_loc
-Wl,--defsym=_ZNSt10_HashtableIiSt4pairIKiSt10shared_ptrIN5telux6common16ICommandCallbackEEESaIS7_ENSt8__detail10_Select1stESt8equal_toIiESt4hashIiENS9_18_Mod_range_hashingENS9_20_Default_ranged_hashENS9_20_Prime_rehash_policyENS9_17_Hashtable_traitsILb0ELb0ELb1EEEE13_M_rehash_auxEjSt17integral_constantIbLb1EE=so_stub_for_libtelux_loc
-Wl,--defsym=_ZNSt10_HashtableIiSt4pairIKiSt10shared_ptrIN5telux6common16ICommandCallbackEEESaIS7_ENSt8__detail10_Select1stESt8equal_toIiESt4hashIiENS9_18_Mod_range_hashingENS9_20_Default_ranged_hashENS9_20_Prime_rehash_policyENS9_17_Hashtable_traitsILb0ELb0ELb1EEEE21_M_insert_unique_nodeEjjPNS9_10_Hash_nodeIS7_Lb0EEEj=so_stub_for_libtelux_loc
-Wl,--defsym=_ZNSt10_HashtableIiSt4pairIKiSt10shared_ptrIN5telux6common16ICommandCallbackEEESaIS7_ENSt8__detail10_Select1stESt8equal_toIiESt4hashIiENS9_18_Mod_range_hashingENS9_20_Default_ranged_hashENS9_20_Prime_rehash_policyENS9_17_Hashtable_traitsILb0ELb0ELb1EEEE9_M_rehashEjRKj=so_stub_for_libtelux_loc
-Wl,--defsym=_ZNSt10_HashtableIN20location_integration12LeverArmTypeESt4pairIKS1_NS0_14LeverArmParamsEESaIS5_ENSt8__detail10_Select1stESt8equal_toIS1_ESt4hashIS1_ENS7_18_Mod_range_hashingENS7_20_Default_ranged_hashENS7_20_Prime_rehash_policyENS7_17_Hashtable_traitsILb0ELb0ELb1EEEE10_M_emplaceIJS2_IS1_S4_EEEES2_INS7_14_Node_iteratorIS5_Lb0ELb0EEEbESt17integral_constantIbLb1EEDpOT_=so_stub_for_libtelux_loc
-Wl,--defsym=_ZNSt10_HashtableIN20location_integration12LeverArmTypeESt4pairIKS1_NS0_14LeverArmParamsEESaIS5_ENSt8__detail10_Select1stESt8equal_toIS1_ESt4hashIS1_ENS7_18_Mod_range_hashingENS7_20_Default_ranged_hashENS7_20_Prime_rehash_policyENS7_17_Hashtable_traitsILb0ELb0ELb1EEEE13_M_rehash_auxEjSt17integral_constantIbLb1EE=so_stub_for_libtelux_loc
-Wl,--defsym=_ZNSt10_HashtableIN20location_integration12LeverArmTypeESt4pairIKS1_NS0_14LeverArmParamsEESaIS5_ENSt8__detail10_Select1stESt8equal_toIS1_ESt4hashIS1_ENS7_18_Mod_range_hashingENS7_20_Default_ranged_hashENS7_20_Prime_rehash_policyENS7_17_Hashtable_traitsILb0ELb0ELb1EEEE21_M_insert_unique_nodeEjjPNS7_10_Hash_nodeIS5_Lb0EEEj=so_stub_for_libtelux_loc
-Wl,--defsym=_ZNSt10_HashtableIN20location_integration12LeverArmTypeESt4pairIKS1_NS0_14LeverArmParamsEESaIS5_ENSt8__detail10_Select1stESt8equal_toIS1_ESt4hashIS1_ENS7_18_Mod_range_hashingENS7_20_Default_ranged_hashENS7_20_Prime_rehash_policyENS7_17_Hashtable_traitsILb0ELb0ELb1EEEE9_M_rehashEjRKj=so_stub_for_libtelux_loc
-Wl,--defsym=_ZNSt10_HashtableIN20location_integration12LeverArmTypeESt4pairIKS1_NS0_14LeverArmParamsEESaIS5_ENSt8__detail10_Select1stESt8equal_toIS1_ESt4hashIS1_ENS7_18_Mod_range_hashingENS7_20_Default_ranged_hashENS7_20_Prime_rehash_policyENS7_17_Hashtable_traitsILb0ELb0ELb1EEEED1Ev=so_stub_for_libtelux_loc
-Wl,--defsym=_ZNSt10_HashtableIN20location_integration12LeverArmTypeESt4pairIKS1_NS0_14LeverArmParamsEESaIS5_ENSt8__detail10_Select1stESt8equal_toIS1_ESt4hashIS1_ENS7_18_Mod_range_hashingENS7_20_Default_ranged_hashENS7_20_Prime_rehash_policyENS7_17_Hashtable_traitsILb0ELb0ELb1EEEED2Ev=so_stub_for_libtelux_loc
-Wl,--defsym=_ZNSt10_HashtableIN20location_integration17LocConfigTypeEnumESt4pairIKS1_jESaIS4_ENSt8__detail10_Select1stESt8equal_toIS1_ESt4hashIS1_ENS6_18_Mod_range_hashingENS6_20_Default_ranged_hashENS6_20_Prime_rehash_policyENS6_17_Hashtable_traitsILb0ELb0ELb1EEEED1Ev=so_stub_for_libtelux_loc
-Wl,--defsym=_ZNSt10_HashtableIN20location_integration17LocConfigTypeEnumESt4pairIKS1_jESaIS4_ENSt8__detail10_Select1stESt8equal_toIS1_ESt4hashIS1_ENS6_18_Mod_range_hashingENS6_20_Default_ranged_hashENS6_20_Prime_rehash_policyENS6_17_Hashtable_traitsILb0ELb0ELb1EEEED2Ev=so_stub_for_libtelux_loc
-Wl,--defsym=_ZNSt10_HashtableIN20location_integration21GnssConstellationTypeES1_SaIS1_ENSt8__detail9_IdentityESt8equal_toIS1_ESt4hashIS1_ENS3_18_Mod_range_hashingENS3_20_Default_ranged_hashENS3_20_Prime_rehash_policyENS3_17_Hashtable_traitsILb0ELb1ELb1EEEE13_M_rehash_auxEjSt17integral_constantIbLb1EE=so_stub_for_libtelux_loc
-Wl,--defsym=_ZNSt10_HashtableIN20location_integration21GnssConstellationTypeES1_SaIS1_ENSt8__detail9_IdentityESt8equal_toIS1_ESt4hashIS1_ENS3_18_Mod_range_hashingENS3_20_Default_ranged_hashENS3_20_Prime_rehash_policyENS3_17_Hashtable_traitsILb0ELb1ELb1EEEE21_M_insert_unique_nodeEjjPNS3_10_Hash_nodeIS1_Lb0EEEj=so_stub_for_libtelux_loc
-Wl,--defsym=_ZNSt10_HashtableIN20location_integration21GnssConstellationTypeES1_SaIS1_ENSt8__detail9_IdentityESt8equal_toIS1_ESt4hashIS1_ENS3_18_Mod_range_hashingENS3_20_Default_ranged_hashENS3_20_Prime_rehash_policyENS3_17_Hashtable_traitsILb0ELb1ELb1EEEE9_M_rehashEjRKj=so_stub_for_libtelux_loc
-Wl,--defsym=_ZNSt10_HashtableIN20location_integration21GnssConstellationTypeES1_SaIS1_ENSt8__detail9_IdentityESt8equal_toIS1_ESt4hashIS1_ENS3_18_Mod_range_hashingENS3_20_Default_ranged_hashENS3_20_Prime_rehash_policyENS3_17_Hashtable_traitsILb0ELb1ELb1EEEED1Ev=so_stub_for_libtelux_loc
-Wl,--defsym=_ZNSt10_HashtableIN20location_integration21GnssConstellationTypeES1_SaIS1_ENSt8__detail9_IdentityESt8equal_toIS1_ESt4hashIS1_ENS3_18_Mod_range_hashingENS3_20_Default_ranged_hashENS3_20_Prime_rehash_policyENS3_17_Hashtable_traitsILb0ELb1ELb1EEEED2Ev=so_stub_for_libtelux_loc
-Wl,--defsym=_ZNSt10_HashtableIN5telux3loc21GnssConstellationTypeES2_SaIS2_ENSt8__detail9_IdentityESt8equal_toIS2_ESt4hashIS2_ENS4_18_Mod_range_hashingENS4_20_Default_ranged_hashENS4_20_Prime_rehash_policyENS4_17_Hashtable_traitsILb0ELb1ELb1EEEE13_M_rehash_auxEjSt17integral_constantIbLb1EE=so_stub_for_libtelux_loc
-Wl,--defsym=_ZNSt10_HashtableIN5telux3loc21GnssConstellationTypeES2_SaIS2_ENSt8__detail9_IdentityESt8equal_toIS2_ESt4hashIS2_ENS4_18_Mod_range_hashingENS4_20_Default_ranged_hashENS4_20_Prime_rehash_policyENS4_17_Hashtable_traitsILb0ELb1ELb1EEEE21_M_insert_unique_nodeEjjPNS4_10_Hash_nodeIS2_Lb0EEEj=so_stub_for_libtelux_loc
-Wl,--defsym=_ZNSt10_HashtableIN5telux3loc21GnssConstellationTypeES2_SaIS2_ENSt8__detail9_IdentityESt8equal_toIS2_ESt4hashIS2_ENS4_18_Mod_range_hashingENS4_20_Default_ranged_hashENS4_20_Prime_rehash_policyENS4_17_Hashtable_traitsILb0ELb1ELb1EEEE9_M_assignIZNSF_C4ERKSF_EUlPKNS4_10_Hash_nodeIS2_Lb0EEEE_EEvSI_RKT_=so_stub_for_libtelux_loc
-Wl,--defsym=_ZNSt10_HashtableIN5telux3loc21GnssConstellationTypeES2_SaIS2_ENSt8__detail9_IdentityESt8equal_toIS2_ESt4hashIS2_ENS4_18_Mod_range_hashingENS4_20_Default_ranged_hashENS4_20_Prime_rehash_policyENS4_17_Hashtable_traitsILb0ELb1ELb1EEEE9_M_rehashEjRKj=so_stub_for_libtelux_loc
-Wl,--defsym=_ZNSt10_HashtableIN5telux3loc21GnssConstellationTypeES2_SaIS2_ENSt8__detail9_IdentityESt8equal_toIS2_ESt4hashIS2_ENS4_18_Mod_range_hashingENS4_20_Default_ranged_hashENS4_20_Prime_rehash_policyENS4_17_Hashtable_traitsILb0ELb1ELb1EEEED1Ev=so_stub_for_libtelux_loc
-Wl,--defsym=_ZNSt10_HashtableIN5telux3loc21GnssConstellationTypeES2_SaIS2_ENSt8__detail9_IdentityESt8equal_toIS2_ESt4hashIS2_ENS4_18_Mod_range_hashingENS4_20_Default_ranged_hashENS4_20_Prime_rehash_policyENS4_17_Hashtable_traitsILb0ELb1ELb1EEEED2Ev=so_stub_for_libtelux_loc
-Wl,--defsym=_ZNSt11__copy_moveILb1ELb0ESt26random_access_iterator_tagE8__copy_mIPSt13shared_futureIvES5_EET0_T_S7_S6_=so_stub_for_libtelux_loc
-Wl,--defsym=_ZNSt11__copy_moveILb1ELb0ESt26random_access_iterator_tagE8__copy_mIPSt8weak_ptrIN5telux3loc17ILocationListenerEES8_EET0_T_SA_S9_=so_stub_for_libtelux_loc
-Wl,--defsym=_ZNSt11__copy_moveILb1ELb0ESt26random_access_iterator_tagE8__copy_mIPSt8weak_ptrIN5telux3loc27ILocationSystemInfoListenerEES8_EET0_T_SA_S9_=so_stub_for_libtelux_loc
-Wl,--defsym=_ZNSt11_Deque_baseISt13shared_futureIvESaIS1_EE15_M_create_nodesEPPS1_S5_=so_stub_for_libtelux_loc
-Wl,--defsym=_ZNSt11_Deque_baseISt13shared_futureIvESaIS1_EE17_M_initialize_mapEj=so_stub_for_libtelux_loc
-Wl,--defsym=_ZNSt11_Deque_baseISt13shared_futureIvESaIS1_EED1Ev=so_stub_for_libtelux_loc
-Wl,--defsym=_ZNSt11_Deque_baseISt13shared_futureIvESaIS1_EED2Ev=so_stub_for_libtelux_loc
-Wl,--defsym=_ZNSt12future_errorC1ESt10error_code=so_stub_for_libtelux_loc
-Wl,--defsym=_ZNSt12future_errorC2ESt10error_code=so_stub_for_libtelux_loc
-Wl,--defsym=_ZNSt12__shared_ptrIN20location_integration22LocationIntegrationApiELN9__gnu_cxx12_Lock_policyE2EEC1ISaIS1_EJRSt13unordered_mapINS0_17LocConfigTypeEnumEjSt4hashIS8_ESt8equal_toIS8_ESaISt4pairIKS8_jEEERNS0_17LocIntegrationCbsEEEESt19_Sp_make_shared_tagRKT_DpOT0_=so_stub_for_libtelux_loc
-Wl,--defsym=_ZNSt12__shared_ptrIN20location_integration22LocationIntegrationApiELN9__gnu_cxx12_Lock_policyE2EEC2ISaIS1_EJRSt13unordered_mapINS0_17LocConfigTypeEnumEjSt4hashIS8_ESt8equal_toIS8_ESaISt4pairIKS8_jEEERNS0_17LocIntegrationCbsEEEESt19_Sp_make_shared_tagRKT_DpOT0_=so_stub_for_libtelux_loc
-Wl,--defsym=_ZNSt12__shared_ptrIN5telux3loc16DgnssManagerImplELN9__gnu_cxx12_Lock_policyE2EEC1ISaIS2_EJRNS1_15DgnssDataFormatEEEESt19_Sp_make_shared_tagRKT_DpOT0_=so_stub_for_libtelux_loc
-Wl,--defsym=_ZNSt12__shared_ptrIN5telux3loc16DgnssManagerImplELN9__gnu_cxx12_Lock_policyE2EEC2ISaIS2_EJRNS1_15DgnssDataFormatEEEESt19_Sp_make_shared_tagRKT_DpOT0_=so_stub_for_libtelux_loc
-Wl,--defsym=_ZNSt12__shared_ptrIN5telux3loc16LocationResponseELN9__gnu_cxx12_Lock_policyE2EEC1ISaIS2_EJEEESt19_Sp_make_shared_tagRKT_DpOT0_=so_stub_for_libtelux_loc
-Wl,--defsym=_ZNSt12__shared_ptrIN5telux3loc16LocationResponseELN9__gnu_cxx12_Lock_policyE2EEC2ISaIS2_EJEEESt19_Sp_make_shared_tagRKT_DpOT0_=so_stub_for_libtelux_loc
-Wl,--defsym=_ZNSt12__shared_ptrIN5telux3loc17ILocationListenerELN9__gnu_cxx12_Lock_policyE2EEC1ERKSt10__weak_ptrIS2_LS4_2EESt9nothrow_t=so_stub_for_libtelux_loc
-Wl,--defsym=_ZNSt12__shared_ptrIN5telux3loc17ILocationListenerELN9__gnu_cxx12_Lock_policyE2EEC2ERKSt10__weak_ptrIS2_LS4_2EESt9nothrow_t=so_stub_for_libtelux_loc
-Wl,--defsym=_ZNSt12__shared_ptrIN5telux3loc19LocationManagerImplELN9__gnu_cxx12_Lock_policyE2EEC1ISaIS2_EJEEESt19_Sp_make_shared_tagRKT_DpOT0_=so_stub_for_libtelux_loc
-Wl,--defsym=_ZNSt12__shared_ptrIN5telux3loc19LocationManagerImplELN9__gnu_cxx12_Lock_policyE2EEC2ISaIS2_EJEEESt19_Sp_make_shared_tagRKT_DpOT0_=so_stub_for_libtelux_loc
-Wl,--defsym=_ZNSt12__shared_ptrIN5telux3loc20IDgnssStatusListenerELN9__gnu_cxx12_Lock_policyE2EEC1ERKSt10__weak_ptrIS2_LS4_2EESt9nothrow_t=so_stub_for_libtelux_loc
-Wl,--defsym=_ZNSt12__shared_ptrIN5telux3loc20IDgnssStatusListenerELN9__gnu_cxx12_Lock_policyE2EEC2ERKSt10__weak_ptrIS2_LS4_2EESt9nothrow_t=so_stub_for_libtelux_loc
-Wl,--defsym=_ZNSt12__shared_ptrIN5telux3loc24LocationConfiguratorImplELN9__gnu_cxx12_Lock_policyE2EEC1ISaIS2_EJEEESt19_Sp_make_shared_tagRKT_DpOT0_=so_stub_for_libtelux_loc
-Wl,--defsym=_ZNSt12__shared_ptrIN5telux3loc24LocationConfiguratorImplELN9__gnu_cxx12_Lock_policyE2EEC2ISaIS2_EJEEESt19_Sp_make_shared_tagRKT_DpOT0_=so_stub_for_libtelux_loc
-Wl,--defsym=_ZNSt12__shared_ptrIN5telux3loc27ILocationSystemInfoListenerELN9__gnu_cxx12_Lock_policyE2EEC1ERKSt10__weak_ptrIS2_LS4_2EESt9nothrow_t=so_stub_for_libtelux_loc
-Wl,--defsym=_ZNSt12__shared_ptrIN5telux3loc27ILocationSystemInfoListenerELN9__gnu_cxx12_Lock_policyE2EEC2ERKSt10__weak_ptrIS2_LS4_2EESt9nothrow_t=so_stub_for_libtelux_loc
-Wl,--defsym=_ZNSt12__shared_ptrIN5telux6common15ListenerManagerINS0_3loc27ILocationSystemInfoListenerEEELN9__gnu_cxx12_Lock_policyE2EEC1ISaIS5_EJEEESt19_Sp_make_shared_tagRKT_DpOT0_=so_stub_for_libtelux_loc
-Wl,--defsym=_ZNSt12__shared_ptrIN5telux6common15ListenerManagerINS0_3loc27ILocationSystemInfoListenerEEELN9__gnu_cxx12_Lock_policyE2EEC2ISaIS5_EJEEESt19_Sp_make_shared_tagRKT_DpOT0_=so_stub_for_libtelux_loc
-Wl,--defsym=_ZNSt13__future_base13_State_baseV210wait_untilINSt6chrono3_V212system_clockENS2_8durationIxSt5ratioILx1ELx1000000000EEEEEESt13future_statusRKNS2_10time_pointIT_T0_EE=so_stub_for_libtelux_loc
-Wl,--defsym=_ZNSt13__future_base13_State_baseV213_M_set_resultESt8functionIFSt10unique_ptrINS_12_Result_baseENS3_8_DeleterEEvEEb=so_stub_for_libtelux_loc
-Wl,--defsym=_ZNSt13__future_base13_State_baseV216_M_break_promiseESt10unique_ptrINS_12_Result_baseENS2_8_DeleterEE=so_stub_for_libtelux_loc
-Wl,--defsym=_ZNSt13__future_base13_State_baseV217_M_complete_asyncEv=so_stub_for_libtelux_loc
-Wl,--defsym=_ZNSt13__future_base13_State_baseV24waitEv=so_stub_for_libtelux_loc
-Wl,--defsym=_ZNSt13__future_base13_State_baseV29_M_do_setEPSt8functionIFSt10unique_ptrINS_12_Result_baseENS3_8_DeleterEEvEEPb=so_stub_for_libtelux_loc
-Wl,--defsym=_ZNSt13__future_base13_State_baseV2D0Ev=so_stub_for_libtelux_loc
-Wl,--defsym=_ZNSt13__future_base13_State_baseV2D1Ev=so_stub_for_libtelux_loc
-Wl,--defsym=_ZNSt13__future_base13_State_baseV2D2Ev=so_stub_for_libtelux_loc
-Wl,--defsym=_ZNSt13__future_base21_Async_state_commonV217_M_complete_asyncEv=so_stub_for_libtelux_loc
-Wl,--defsym=_ZNSt13__future_base21_Async_state_commonV2D0Ev=so_stub_for_libtelux_loc
-Wl,--defsym=_ZNSt13__future_base21_Async_state_commonV2D1Ev=so_stub_for_libtelux_loc
-Wl,--defsym=_ZNSt13__future_base21_Async_state_commonV2D2Ev=so_stub_for_libtelux_loc
-Wl,--defsym=_ZNSt13__future_base7_ResultIbE10_M_destroyEv=so_stub_for_libtelux_loc
-Wl,--defsym=_ZNSt13__future_base7_ResultIbED0Ev=so_stub_for_libtelux_loc
-Wl,--defsym=_ZNSt13__future_base7_ResultIbED1Ev=so_stub_for_libtelux_loc
-Wl,--defsym=_ZNSt13__future_base7_ResultIbED2Ev=so_stub_for_libtelux_loc
-Wl,--defsym=_ZNSt13__future_base7_ResultIN15location_client16LocationResponseEE10_M_destroyEv=so_stub_for_libtelux_loc
-Wl,--defsym=_ZNSt13__future_base7_ResultIN15location_client16LocationResponseEED0Ev=so_stub_for_libtelux_loc
-Wl,--defsym=_ZNSt13__future_base7_ResultIN15location_client16LocationResponseEED1Ev=so_stub_for_libtelux_loc
-Wl,--defsym=_ZNSt13__future_base7_ResultIN15location_client16LocationResponseEED2Ev=so_stub_for_libtelux_loc
-Wl,--defsym=_ZNSt13__future_base7_ResultIvE10_M_destroyEv=so_stub_for_libtelux_loc
-Wl,--defsym=_ZNSt13__future_base7_ResultIvED0Ev=so_stub_for_libtelux_loc
-Wl,--defsym=_ZNSt13__future_base7_ResultIvED1Ev=so_stub_for_libtelux_loc
-Wl,--defsym=_ZNSt13__future_base7_ResultIvED2Ev=so_stub_for_libtelux_loc
-Wl,--defsym=_ZNSt14__basic_futureIbEC1ERKSt10shared_ptrINSt13__future_base13_State_baseV2EE=so_stub_for_libtelux_loc
-Wl,--defsym=_ZNSt14__basic_futureIbEC2ERKSt10shared_ptrINSt13__future_base13_State_baseV2EE=so_stub_for_libtelux_loc
-Wl,--defsym=_ZNSt14__basic_futureIN15location_client16LocationResponseEEC1ERKSt10shared_ptrINSt13__future_base13_State_baseV2EE=so_stub_for_libtelux_loc
-Wl,--defsym=_ZNSt14__basic_futureIN15location_client16LocationResponseEEC2ERKSt10shared_ptrINSt13__future_base13_State_baseV2EE=so_stub_for_libtelux_loc
-Wl,--defsym=_ZNSt14__basic_futureIvEC1ERKSt10shared_ptrINSt13__future_base13_State_baseV2EE=so_stub_for_libtelux_loc
-Wl,--defsym=_ZNSt14__basic_futureIvEC2ERKSt10shared_ptrINSt13__future_base13_State_baseV2EE=so_stub_for_libtelux_loc
-Wl,--defsym=_ZNSt14_Function_base13_Base_managerINSt13__future_base13_State_baseV27_SetterIN15location_client16LocationResponseERKS5_EEE10_M_managerERSt9_Any_dataRKSA_St18_Manager_operation=so_stub_for_libtelux_loc
-Wl,--defsym=_ZNSt14_Function_base13_Base_managerISt5_BindIFMN5telux3loc15LocationFactoryEFvNS2_6common13ServiceStatusEEPS4_St12_PlaceholderILi1EEEEE10_M_managerERSt9_Any_dataRKSF_St18_Manager_operation=so_stub_for_libtelux_loc
-Wl,--defsym=_ZNSt14_Function_base13_Base_managerISt5_BindIFMN5telux3loc16DgnssManagerImplEFv18QDgnssSourceStatusEPS4_St12_PlaceholderILi1EEEEE10_M_managerERSt9_Any_dataRKSE_St18_Manager_operation=so_stub_for_libtelux_loc
-Wl,--defsym=_ZNSt14_Function_base13_Base_managerISt5_BindIFMN5telux3loc16LocationResponseEFvN15location_client16LocationResponseEESt10shared_ptrIS4_ESt12_PlaceholderILi1EEEEE10_M_managerERSt9_Any_dataRKSG_St18_Manager_operation=so_stub_for_libtelux_loc
-Wl,--defsym=_ZNSt14_Function_base13_Base_managerISt5_BindIFMN5telux3loc19LocationManagerImplEFvN15location_client24LocationCapabilitiesMaskEEPS4_St12_PlaceholderILi1EEEEE10_M_managerERSt9_Any_dataRKSF_St18_Manager_operation=so_stub_for_libtelux_loc
-Wl,--defsym=_ZNSt14_Function_base13_Base_managerISt5_BindIFMN5telux3loc19LocationManagerImplEFvRKN15location_client12GnssLocationEEPS4_St12_PlaceholderILi1EEEEE10_M_managerERSt9_Any_dataRKSH_St18_Manager_operation=so_stub_for_libtelux_loc
-Wl,--defsym=_ZNSt14_Function_base13_Base_managerISt5_BindIFMN5telux3loc19LocationManagerImplEFvRKN15location_client16GnssMeasurementsEEPS4_St12_PlaceholderILi1EEEEE10_M_managerERSt9_Any_dataRKSH_St18_Manager_operation=so_stub_for_libtelux_loc
-Wl,--defsym=_ZNSt14_Function_base13_Base_managerISt5_BindIFMN5telux3loc19LocationManagerImplEFvRKN15location_client18LocationSystemInfoEEPS4_St12_PlaceholderILi1EEEEE10_M_managerERSt9_Any_dataRKSH_St18_Manager_operation=so_stub_for_libtelux_loc
-Wl,--defsym=_ZNSt14_Function_base13_Base_managerISt5_BindIFMN5telux3loc19LocationManagerImplEFvRKN15location_client22GnssEnergyConsumedInfoEEPS4_St12_PlaceholderILi1EEEEE10_M_managerERSt9_Any_dataRKSH_St18_Manager_operation=so_stub_for_libtelux_loc
-Wl,--defsym=_ZNSt14_Function_base13_Base_managerISt5_BindIFMN5telux3loc19LocationManagerImplEFvRKN15location_client8GnssDataEEPS4_St12_PlaceholderILi1EEEEE10_M_managerERSt9_Any_dataRKSH_St18_Manager_operation=so_stub_for_libtelux_loc
-Wl,--defsym=_ZNSt14_Function_base13_Base_managerISt5_BindIFMN5telux3loc19LocationManagerImplEFvRKN15location_client8LocationEEPS4_St12_PlaceholderILi1EEEEE10_M_managerERSt9_Any_dataRKSH_St18_Manager_operation=so_stub_for_libtelux_loc
-Wl,--defsym=_ZNSt14_Function_base13_Base_managerISt5_BindIFMN5telux3loc19LocationManagerImplEFvRKSt6vectorIN15location_client12GnssLocationESaIS7_EEEPS4_St12_PlaceholderILi1EEEEE10_M_managerERSt9_Any_dataRKSK_St18_Manager_operation=so_stub_for_libtelux_loc
-Wl,--defsym=_ZNSt14_Function_base13_Base_managerISt5_BindIFMN5telux3loc19LocationManagerImplEFvRKSt6vectorIN15location_client6GnssSvESaIS7_EEEPS4_St12_PlaceholderILi1EEEEE10_M_managerERSt9_Any_dataRKSK_St18_Manager_operation=so_stub_for_libtelux_loc
-Wl,--defsym=_ZNSt14_Function_base13_Base_managerISt5_BindIFMN5telux3loc19LocationManagerImplEFvyRKNSt7__cxx1112basic_stringIcSt11char_traitsIcESaIcEEEEPS4_St12_PlaceholderILi1EESG_ILi2EEEEE10_M_managerERSt9_Any_dataRKSM_St18_Manager_operation=so_stub_for_libtelux_loc
-Wl,--defsym=_ZNSt14_Function_base13_Base_managerISt5_BindIFMN5telux3loc24LocationConfiguratorImplEFvhEPS4_St12_PlaceholderILi1EEEEE10_M_managerERSt9_Any_dataRKSD_St18_Manager_operation=so_stub_for_libtelux_loc
-Wl,--defsym=_ZNSt14_Function_base13_Base_managerISt5_BindIFMN5telux3loc24LocationConfiguratorImplEFvN20location_integration17LocConfigTypeEnumENS5_22LocIntegrationResponseEEPS4_St12_PlaceholderILi1EESB_ILi2EEEEE10_M_managerERSt9_Any_dataRKSH_St18_Manager_operation=so_stub_for_libtelux_loc
-Wl,--defsym=_ZNSt14_Function_base13_Base_managerISt5_BindIFMN5telux3loc24LocationConfiguratorImplEFvN20location_integration20RobustLocationConfigEEPS4_St12_PlaceholderILi1EEEEE10_M_managerERSt9_Any_dataRKSF_St18_Manager_operation=so_stub_for_libtelux_loc
-Wl,--defsym=_ZNSt14_Function_base13_Base_managerISt5_BindIFMN5telux3loc24LocationConfiguratorImplEFvRKSt13unordered_setIN20location_integration21GnssConstellationTypeESt4hashIS7_ESt8equal_toIS7_ESaIS7_EEEPS4_St12_PlaceholderILi1EEEEE10_M_managerERSt9_Any_dataRKSO_St18_Manager_operation=so_stub_for_libtelux_loc
-Wl,--defsym=_ZNSt14_Function_base13_Base_managerISt5_BindIFMN5telux3loc24LocationConfiguratorImplEFvtEPS4_St12_PlaceholderILi1EEEEE10_M_managerERSt9_Any_dataRKSD_St18_Manager_operation=so_stub_for_libtelux_loc
-Wl,--defsym=_ZNSt14__shared_countILN9__gnu_cxx12_Lock_policyE2EEC1IN15location_client17LocationClientApiESaIS5_EJRSt8functionIFvNS4_24LocationCapabilitiesMaskEEEEEESt19_Sp_make_shared_tagPT_RKT0_DpOT1_=so_stub_for_libtelux_loc
-Wl,--defsym=_ZNSt14__shared_countILN9__gnu_cxx12_Lock_policyE2EEC1IN5telux3loc10SVInfoImplESaIS6_EJEEESt19_Sp_make_shared_tagPT_RKT0_DpOT1_=so_stub_for_libtelux_loc
-Wl,--defsym=_ZNSt14__shared_countILN9__gnu_cxx12_Lock_policyE2EEC1IN5telux3loc14GnssSignalInfoESaIS6_EJEEESt19_Sp_make_shared_tagPT_RKT0_DpOT1_=so_stub_for_libtelux_loc
-Wl,--defsym=_ZNSt14__shared_countILN9__gnu_cxx12_Lock_policyE2EEC1IN5telux3loc14GnssSVInfoImplESaIS6_EJEEESt19_Sp_make_shared_tagPT_RKT0_DpOT1_=so_stub_for_libtelux_loc
-Wl,--defsym=_ZNSt14__shared_countILN9__gnu_cxx12_Lock_policyE2EEC1IN5telux3loc16LocationResponseESaIS6_EJEEESt19_Sp_make_shared_tagPT_RKT0_DpOT1_=so_stub_for_libtelux_loc
-Wl,--defsym=_ZNSt14__shared_countILN9__gnu_cxx12_Lock_policyE2EEC1IN5telux3loc18LocationInfoImplExESaIS6_EJEEESt19_Sp_make_shared_tagPT_RKT0_DpOT1_=so_stub_for_libtelux_loc
-Wl,--defsym=_ZNSt14__shared_countILN9__gnu_cxx12_Lock_policyE2EEC1IN5telux3loc19LocationManagerImplESaIS6_EJEEESt19_Sp_make_shared_tagPT_RKT0_DpOT1_=so_stub_for_libtelux_loc
-Wl,--defsym=_ZNSt14__shared_countILN9__gnu_cxx12_Lock_policyE2EEC1IN5telux3loc21LocationInfoImplBasicESaIS6_EJEEESt19_Sp_make_shared_tagPT_RKT0_DpOT1_=so_stub_for_libtelux_loc
-Wl,--defsym=_ZNSt14__shared_countILN9__gnu_cxx12_Lock_policyE2EEC1IN5telux3loc24LocationConfiguratorImplESaIS6_EJEEESt19_Sp_make_shared_tagPT_RKT0_DpOT1_=so_stub_for_libtelux_loc
-Wl,--defsym=_ZNSt14__shared_countILN9__gnu_cxx12_Lock_policyE2EEC1IN5telux6common18FunctionalCallbackIJhNS5_9ErrorCodeEEEESaIS8_EJRSt8functionIFvhS7_EEEEESt19_Sp_make_shared_tagPT_RKT0_DpOT1_=so_stub_for_libtelux_loc
-Wl,--defsym=_ZNSt14__shared_countILN9__gnu_cxx12_Lock_policyE2EEC1IN5telux6common18FunctionalCallbackIJNS4_3loc22GnssEnergyConsumedInfoENS5_9ErrorCodeEEEESaISA_EJRSt8functionIFvS8_S9_EEEEESt19_Sp_make_shared_tagPT_RKT0_DpOT1_=so_stub_for_libtelux_loc
-Wl,--defsym=_ZNSt14__shared_countILN9__gnu_cxx12_Lock_policyE2EEC1IN5telux6common18FunctionalCallbackIJNS4_3loc27RobustLocationConfigurationENS5_9ErrorCodeEEEESaISA_EJRSt8functionIFvS8_S9_EEEEESt19_Sp_make_shared_tagPT_RKT0_DpOT1_=so_stub_for_libtelux_loc
-Wl,--defsym=_ZNSt14__shared_countILN9__gnu_cxx12_Lock_policyE2EEC1IN5telux6common18FunctionalCallbackIJNS5_13ServiceStatusEEEESaIS8_EJRSt8functionIFvS7_EEEEESt19_Sp_make_shared_tagPT_RKT0_DpOT1_=so_stub_for_libtelux_loc
-Wl,--defsym=_ZNSt14__shared_countILN9__gnu_cxx12_Lock_policyE2EEC1IN5telux6common18FunctionalCallbackIJSt13unordered_setINS4_3loc21GnssConstellationTypeESt4hashIS9_ESt8equal_toIS9_ESaIS9_EENS5_9ErrorCodeEEEESaISH_EJRSt8functionIFvSF_SG_EEEEESt19_Sp_make_shared_tagPT_RKT0_DpOT1_=so_stub_for_libtelux_loc
-Wl,--defsym=_ZNSt14__shared_countILN9__gnu_cxx12_Lock_policyE2EEC1IN5telux6common18FunctionalCallbackIJtNS5_9ErrorCodeEEEESaIS8_EJRSt8functionIFvtS7_EEEEESt19_Sp_make_shared_tagPT_RKT0_DpOT1_=so_stub_for_libtelux_loc
-Wl,--defsym=_ZNSt14__shared_countILN9__gnu_cxx12_Lock_policyE2EEC2IN15location_client17LocationClientApiESaIS5_EJRSt8functionIFvNS4_24LocationCapabilitiesMaskEEEEEESt19_Sp_make_shared_tagPT_RKT0_DpOT1_=so_stub_for_libtelux_loc
-Wl,--defsym=_ZNSt14__shared_countILN9__gnu_cxx12_Lock_policyE2EEC2IN5telux3loc10SVInfoImplESaIS6_EJEEESt19_Sp_make_shared_tagPT_RKT0_DpOT1_=so_stub_for_libtelux_loc
-Wl,--defsym=_ZNSt14__shared_countILN9__gnu_cxx12_Lock_policyE2EEC2IN5telux3loc14GnssSignalInfoESaIS6_EJEEESt19_Sp_make_shared_tagPT_RKT0_DpOT1_=so_stub_for_libtelux_loc
-Wl,--defsym=_ZNSt14__shared_countILN9__gnu_cxx12_Lock_policyE2EEC2IN5telux3loc14GnssSVInfoImplESaIS6_EJEEESt19_Sp_make_shared_tagPT_RKT0_DpOT1_=so_stub_for_libtelux_loc
-Wl,--defsym=_ZNSt14__shared_countILN9__gnu_cxx12_Lock_policyE2EEC2IN5telux3loc16LocationResponseESaIS6_EJEEESt19_Sp_make_shared_tagPT_RKT0_DpOT1_=so_stub_for_libtelux_loc
-Wl,--defsym=_ZNSt14__shared_countILN9__gnu_cxx12_Lock_policyE2EEC2IN5telux3loc18LocationInfoImplExESaIS6_EJEEESt19_Sp_make_shared_tagPT_RKT0_DpOT1_=so_stub_for_libtelux_loc
-Wl,--defsym=_ZNSt14__shared_countILN9__gnu_cxx12_Lock_policyE2EEC2IN5telux3loc19LocationManagerImplESaIS6_EJEEESt19_Sp_make_shared_tagPT_RKT0_DpOT1_=so_stub_for_libtelux_loc
-Wl,--defsym=_ZNSt14__shared_countILN9__gnu_cxx12_Lock_policyE2EEC2IN5telux3loc21LocationInfoImplBasicESaIS6_EJEEESt19_Sp_make_shared_tagPT_RKT0_DpOT1_=so_stub_for_libtelux_loc
-Wl,--defsym=_ZNSt14__shared_countILN9__gnu_cxx12_Lock_policyE2EEC2IN5telux3loc24LocationConfiguratorImplESaIS6_EJEEESt19_Sp_make_shared_tagPT_RKT0_DpOT1_=so_stub_for_libtelux_loc
-Wl,--defsym=_ZNSt14__shared_countILN9__gnu_cxx12_Lock_policyE2EEC2IN5telux6common18FunctionalCallbackIJhNS5_9ErrorCodeEEEESaIS8_EJRSt8functionIFvhS7_EEEEESt19_Sp_make_shared_tagPT_RKT0_DpOT1_=so_stub_for_libtelux_loc
-Wl,--defsym=_ZNSt14__shared_countILN9__gnu_cxx12_Lock_policyE2EEC2IN5telux6common18FunctionalCallbackIJNS4_3loc22GnssEnergyConsumedInfoENS5_9ErrorCodeEEEESaISA_EJRSt8functionIFvS8_S9_EEEEESt19_Sp_make_shared_tagPT_RKT0_DpOT1_=so_stub_for_libtelux_loc
-Wl,--defsym=_ZNSt14__shared_countILN9__gnu_cxx12_Lock_policyE2EEC2IN5telux6common18FunctionalCallbackIJNS4_3loc27RobustLocationConfigurationENS5_9ErrorCodeEEEESaISA_EJRSt8functionIFvS8_S9_EEEEESt19_Sp_make_shared_tagPT_RKT0_DpOT1_=so_stub_for_libtelux_loc
-Wl,--defsym=_ZNSt14__shared_countILN9__gnu_cxx12_Lock_policyE2EEC2IN5telux6common18FunctionalCallbackIJNS5_13ServiceStatusEEEESaIS8_EJRSt8functionIFvS7_EEEEESt19_Sp_make_shared_tagPT_RKT0_DpOT1_=so_stub_for_libtelux_loc
-Wl,--defsym=_ZNSt14__shared_countILN9__gnu_cxx12_Lock_policyE2EEC2IN5telux6common18FunctionalCallbackIJSt13unordered_setINS4_3loc21GnssConstellationTypeESt4hashIS9_ESt8equal_toIS9_ESaIS9_EENS5_9ErrorCodeEEEESaISH_EJRSt8functionIFvSF_SG_EEEEESt19_Sp_make_shared_tagPT_RKT0_DpOT1_=so_stub_for_libtelux_loc
-Wl,--defsym=_ZNSt14__shared_countILN9__gnu_cxx12_Lock_policyE2EEC2IN5telux6common18FunctionalCallbackIJtNS5_9ErrorCodeEEEESaIS8_EJRSt8functionIFvtS7_EEEEESt19_Sp_make_shared_tagPT_RKT0_DpOT1_=so_stub_for_libtelux_loc
-Wl,--defsym=_ZNSt15_Deque_iteratorISt13shared_futureIvERS1_PS1_EpLEi=so_stub_for_libtelux_loc
-Wl,--defsym=_ZNSt15__exception_ptr12__dest_thunkISt12future_errorEEvPv=so_stub_for_libtelux_loc
-Wl,--defsym=_ZNSt15_Sp_counted_ptrIDnLN9__gnu_cxx12_Lock_policyE2EE10_M_disposeEv=so_stub_for_libtelux_loc
-Wl,--defsym=_ZNSt16_Sp_counted_baseILN9__gnu_cxx12_Lock_policyE2EE10_M_destroyEv=so_stub_for_libtelux_loc
-Wl,--defsym=_ZNSt16_Sp_counted_baseILN9__gnu_cxx12_Lock_policyE2EE10_M_releaseEv=so_stub_for_libtelux_loc
-Wl,--defsym=_ZNSt16_Sp_counted_baseILN9__gnu_cxx12_Lock_policyE2EE15_M_weak_releaseEv=so_stub_for_libtelux_loc
-Wl,--defsym=_ZNSt17_Function_handlerIFSt10unique_ptrINSt13__future_base12_Result_baseENS2_8_DeleterEEvENS1_13_State_baseV27_SetterIN15location_client16LocationResponseERKS9_EEE9_M_invokeERKSt9_Any_data=so_stub_for_libtelux_loc
-Wl,--defsym=_ZNSt17_Function_handlerIFv18QDgnssSourceStatusESt5_BindIFMN5telux3loc16DgnssManagerImplEFvS0_EPS5_St12_PlaceholderILi1EEEEE9_M_invokeERKSt9_Any_dataOS0_=so_stub_for_libtelux_loc
-Wl,--defsym=_ZNSt17_Function_handlerIFvhESt5_BindIFMN5telux3loc24LocationConfiguratorImplEFvhEPS4_St12_PlaceholderILi1EEEEE9_M_invokeERKSt9_Any_dataOh=so_stub_for_libtelux_loc
-Wl,--defsym=_ZNSt17_Function_handlerIFvN15location_client16LocationResponseEESt5_BindIFMN5telux3loc16LocationResponseEFvS1_ESt10shared_ptrIS6_ESt12_PlaceholderILi1EEEEE9_M_invokeERKSt9_Any_dataOS1_=so_stub_for_libtelux_loc
-Wl,--defsym=_ZNSt17_Function_handlerIFvN15location_client24LocationCapabilitiesMaskEESt5_BindIFMN5telux3loc19LocationManagerImplEFvS1_EPS6_St12_PlaceholderILi1EEEEE9_M_invokeERKSt9_Any_dataOS1_=so_stub_for_libtelux_loc
-Wl,--defsym=_ZNSt17_Function_handlerIFvN20location_integration17LocConfigTypeEnumENS0_22LocIntegrationResponseEESt5_BindIFMN5telux3loc24LocationConfiguratorImplEFvS1_S2_EPS7_St12_PlaceholderILi1EESB_ILi2EEEEE9_M_invokeERKSt9_Any_dataOS1_OS2_=so_stub_for_libtelux_loc
-Wl,--defsym=_ZNSt17_Function_handlerIFvN20location_integration20RobustLocationConfigEESt5_BindIFMN5telux3loc24LocationConfiguratorImplEFvS1_EPS6_St12_PlaceholderILi1EEEEE9_M_invokeERKSt9_Any_dataOS1_=so_stub_for_libtelux_loc
-Wl,--defsym=_ZNSt17_Function_handlerIFvN5telux6common13ServiceStatusEESt5_BindIFMNS0_3loc15LocationFactoryEFvS2_EPS6_St12_PlaceholderILi1EEEEE9_M_invokeERKSt9_Any_dataOS2_=so_stub_for_libtelux_loc
-Wl,--defsym=_ZNSt17_Function_handlerIFvRKN15location_client12GnssLocationEESt5_BindIFMN5telux3loc19LocationManagerImplEFvS3_EPS8_St12_PlaceholderILi1EEEEE9_M_invokeERKSt9_Any_dataS3_=so_stub_for_libtelux_loc
-Wl,--defsym=_ZNSt17_Function_handlerIFvRKN15location_client16GnssMeasurementsEESt5_BindIFMN5telux3loc19LocationManagerImplEFvS3_EPS8_St12_PlaceholderILi1EEEEE9_M_invokeERKSt9_Any_dataS3_=so_stub_for_libtelux_loc
-Wl,--defsym=_ZNSt17_Function_handlerIFvRKN15location_client18LocationSystemInfoEESt5_BindIFMN5telux3loc19LocationManagerImplEFvS3_EPS8_St12_PlaceholderILi1EEEEE9_M_invokeERKSt9_Any_dataS3_=so_stub_for_libtelux_loc
-Wl,--defsym=_ZNSt17_Function_handlerIFvRKN15location_client22GnssEnergyConsumedInfoEESt5_BindIFMN5telux3loc19LocationManagerImplEFvS3_EPS8_St12_PlaceholderILi1EEEEE9_M_invokeERKSt9_Any_dataS3_=so_stub_for_libtelux_loc
-Wl,--defsym=_ZNSt17_Function_handlerIFvRKN15location_client8GnssDataEESt5_BindIFMN5telux3loc19LocationManagerImplEFvS3_EPS8_St12_PlaceholderILi1EEEEE9_M_invokeERKSt9_Any_dataS3_=so_stub_for_libtelux_loc
-Wl,--defsym=_ZNSt17_Function_handlerIFvRKN15location_client8LocationEESt5_BindIFMN5telux3loc19LocationManagerImplEFvS3_EPS8_St12_PlaceholderILi1EEEEE9_M_invokeERKSt9_Any_dataS3_=so_stub_for_libtelux_loc
-Wl,--defsym=_ZNSt17_Function_handlerIFvRKSt13unordered_setIN20location_integration21GnssConstellationTypeESt4hashIS2_ESt8equal_toIS2_ESaIS2_EEESt5_BindIFMN5telux3loc24LocationConfiguratorImplEFvSA_EPSF_St12_PlaceholderILi1EEEEE9_M_invokeERKSt9_Any_dataSA_=so_stub_for_libtelux_loc
-Wl,--defsym=_ZNSt17_Function_handlerIFvRKSt6vectorIN15location_client12GnssLocationESaIS2_EEESt5_BindIFMN5telux3loc19LocationManagerImplEFvS6_EPSB_St12_PlaceholderILi1EEEEE9_M_invokeERKSt9_Any_dataS6_=so_stub_for_libtelux_loc
-Wl,--defsym=_ZNSt17_Function_handlerIFvRKSt6vectorIN15location_client6GnssSvESaIS2_EEESt5_BindIFMN5telux3loc19LocationManagerImplEFvS6_EPSB_St12_PlaceholderILi1EEEEE9_M_invokeERKSt9_Any_dataS6_=so_stub_for_libtelux_loc
-Wl,--defsym=_ZNSt17_Function_handlerIFvtESt5_BindIFMN5telux3loc24LocationConfiguratorImplEFvtEPS4_St12_PlaceholderILi1EEEEE9_M_invokeERKSt9_Any_dataOt=so_stub_for_libtelux_loc
-Wl,--defsym=_ZNSt17_Function_handlerIFvyRKNSt7__cxx1112basic_stringIcSt11char_traitsIcESaIcEEEESt5_BindIFMN5telux3loc19LocationManagerImplEFvyS7_EPSC_St12_PlaceholderILi1EESG_ILi2EEEEE9_M_invokeERKSt9_Any_dataOyS7_=so_stub_for_libtelux_loc
-Wl,--defsym=_ZNSt20__copy_move_backwardILb1ELb0ESt26random_access_iterator_tagE13__copy_move_bIPSt13shared_futureIvES5_EET0_T_S7_S6_=so_stub_for_libtelux_loc
-Wl,--defsym=_ZNSt20__uninitialized_copyILb0EE13__uninit_copyIN9__gnu_cxx17__normal_iteratorIPKSt8functionIFvN5telux6common13ServiceStatusEEESt6vectorIS9_SaIS9_EEEEPS9_EET0_T_SI_SH_=so_stub_for_libtelux_loc
-Wl,--defsym=_ZNSt20__uninitialized_copyILb0EE13__uninit_copyIPSt8functionIFvN5telux6common13ServiceStatusEEES8_EET0_T_SA_S9_=so_stub_for_libtelux_loc
-Wl,--defsym=_ZNSt23__atomic_futex_unsignedILj2147483648EE22_M_load_and_test_untilEjjbSt12memory_orderbNSt6chrono8durationIxSt5ratioILx1ELx1EEEENS3_IxS4_ILx1ELx1000000000EEEE=so_stub_for_libtelux_loc
-Wl,--defsym=_ZNSt23_Sp_counted_ptr_inplaceIN15location_client17LocationClientApiESaIS1_ELN9__gnu_cxx12_Lock_policyE2EE10_M_destroyEv=so_stub_for_libtelux_loc
-Wl,--defsym=_ZNSt23_Sp_counted_ptr_inplaceIN15location_client17LocationClientApiESaIS1_ELN9__gnu_cxx12_Lock_policyE2EE10_M_disposeEv=so_stub_for_libtelux_loc
-Wl,--defsym=_ZNSt23_Sp_counted_ptr_inplaceIN15location_client17LocationClientApiESaIS1_ELN9__gnu_cxx12_Lock_policyE2EE14_M_get_deleterERKSt9type_info=so_stub_for_libtelux_loc
-Wl,--defsym=_ZNSt23_Sp_counted_ptr_inplaceIN15location_client17LocationClientApiESaIS1_ELN9__gnu_cxx12_Lock_policyE2EED0Ev=so_stub_for_libtelux_loc
-Wl,--defsym=_ZNSt23_Sp_counted_ptr_inplaceIN15location_client17LocationClientApiESaIS1_ELN9__gnu_cxx12_Lock_policyE2EED1Ev=so_stub_for_libtelux_loc
-Wl,--defsym=_ZNSt23_Sp_counted_ptr_inplaceIN15location_client17LocationClientApiESaIS1_ELN9__gnu_cxx12_Lock_policyE2EED2Ev=so_stub_for_libtelux_loc
-Wl,--defsym=_ZNSt23_Sp_counted_ptr_inplaceIN20location_integration22LocationIntegrationApiESaIS1_ELN9__gnu_cxx12_Lock_policyE2EE10_M_destroyEv=so_stub_for_libtelux_loc
-Wl,--defsym=_ZNSt23_Sp_counted_ptr_inplaceIN20location_integration22LocationIntegrationApiESaIS1_ELN9__gnu_cxx12_Lock_policyE2EE10_M_disposeEv=so_stub_for_libtelux_loc
-Wl,--defsym=_ZNSt23_Sp_counted_ptr_inplaceIN20location_integration22LocationIntegrationApiESaIS1_ELN9__gnu_cxx12_Lock_policyE2EE14_M_get_deleterERKSt9type_info=so_stub_for_libtelux_loc
-Wl,--defsym=_ZNSt23_Sp_counted_ptr_inplaceIN20location_integration22LocationIntegrationApiESaIS1_ELN9__gnu_cxx12_Lock_policyE2EED0Ev=so_stub_for_libtelux_loc
-Wl,--defsym=_ZNSt23_Sp_counted_ptr_inplaceIN20location_integration22LocationIntegrationApiESaIS1_ELN9__gnu_cxx12_Lock_policyE2EED1Ev=so_stub_for_libtelux_loc
-Wl,--defsym=_ZNSt23_Sp_counted_ptr_inplaceIN20location_integration22LocationIntegrationApiESaIS1_ELN9__gnu_cxx12_Lock_policyE2EED2Ev=so_stub_for_libtelux_loc
-Wl,--defsym=_ZNSt23_Sp_counted_ptr_inplaceIN5telux3loc10SVInfoImplESaIS2_ELN9__gnu_cxx12_Lock_policyE2EE10_M_destroyEv=so_stub_for_libtelux_loc
-Wl,--defsym=_ZNSt23_Sp_counted_ptr_inplaceIN5telux3loc10SVInfoImplESaIS2_ELN9__gnu_cxx12_Lock_policyE2EE10_M_disposeEv=so_stub_for_libtelux_loc
-Wl,--defsym=_ZNSt23_Sp_counted_ptr_inplaceIN5telux3loc10SVInfoImplESaIS2_ELN9__gnu_cxx12_Lock_policyE2EE14_M_get_deleterERKSt9type_info=so_stub_for_libtelux_loc
-Wl,--defsym=_ZNSt23_Sp_counted_ptr_inplaceIN5telux3loc10SVInfoImplESaIS2_ELN9__gnu_cxx12_Lock_policyE2EED0Ev=so_stub_for_libtelux_loc
-Wl,--defsym=_ZNSt23_Sp_counted_ptr_inplaceIN5telux3loc10SVInfoImplESaIS2_ELN9__gnu_cxx12_Lock_policyE2EED1Ev=so_stub_for_libtelux_loc
-Wl,--defsym=_ZNSt23_Sp_counted_ptr_inplaceIN5telux3loc10SVInfoImplESaIS2_ELN9__gnu_cxx12_Lock_policyE2EED2Ev=so_stub_for_libtelux_loc
-Wl,--defsym=_ZNSt23_Sp_counted_ptr_inplaceIN5telux3loc14GnssSignalInfoESaIS2_ELN9__gnu_cxx12_Lock_policyE2EE10_M_destroyEv=so_stub_for_libtelux_loc
-Wl,--defsym=_ZNSt23_Sp_counted_ptr_inplaceIN5telux3loc14GnssSignalInfoESaIS2_ELN9__gnu_cxx12_Lock_policyE2EE10_M_disposeEv=so_stub_for_libtelux_loc
-Wl,--defsym=_ZNSt23_Sp_counted_ptr_inplaceIN5telux3loc14GnssSignalInfoESaIS2_ELN9__gnu_cxx12_Lock_policyE2EE14_M_get_deleterERKSt9type_info=so_stub_for_libtelux_loc
-Wl,--defsym=_ZNSt23_Sp_counted_ptr_inplaceIN5telux3loc14GnssSignalInfoESaIS2_ELN9__gnu_cxx12_Lock_policyE2EED0Ev=so_stub_for_libtelux_loc
-Wl,--defsym=_ZNSt23_Sp_counted_ptr_inplaceIN5telux3loc14GnssSignalInfoESaIS2_ELN9__gnu_cxx12_Lock_policyE2EED1Ev=so_stub_for_libtelux_loc
-Wl,--defsym=_ZNSt23_Sp_counted_ptr_inplaceIN5telux3loc14GnssSignalInfoESaIS2_ELN9__gnu_cxx12_Lock_policyE2EED2Ev=so_stub_for_libtelux_loc
-Wl,--defsym=_ZNSt23_Sp_counted_ptr_inplaceIN5telux3loc14GnssSVInfoImplESaIS2_ELN9__gnu_cxx12_Lock_policyE2EE10_M_destroyEv=so_stub_for_libtelux_loc
-Wl,--defsym=_ZNSt23_Sp_counted_ptr_inplaceIN5telux3loc14GnssSVInfoImplESaIS2_ELN9__gnu_cxx12_Lock_policyE2EE10_M_disposeEv=so_stub_for_libtelux_loc
-Wl,--defsym=_ZNSt23_Sp_counted_ptr_inplaceIN5telux3loc14GnssSVInfoImplESaIS2_ELN9__gnu_cxx12_Lock_policyE2EE14_M_get_deleterERKSt9type_info=so_stub_for_libtelux_loc
-Wl,--defsym=_ZNSt23_Sp_counted_ptr_inplaceIN5telux3loc14GnssSVInfoImplESaIS2_ELN9__gnu_cxx12_Lock_policyE2EED0Ev=so_stub_for_libtelux_loc
-Wl,--defsym=_ZNSt23_Sp_counted_ptr_inplaceIN5telux3loc14GnssSVInfoImplESaIS2_ELN9__gnu_cxx12_Lock_policyE2EED1Ev=so_stub_for_libtelux_loc
-Wl,--defsym=_ZNSt23_Sp_counted_ptr_inplaceIN5telux3loc14GnssSVInfoImplESaIS2_ELN9__gnu_cxx12_Lock_policyE2EED2Ev=so_stub_for_libtelux_loc
-Wl,--defsym=_ZNSt23_Sp_counted_ptr_inplaceIN5telux3loc16DgnssManagerImplESaIS2_ELN9__gnu_cxx12_Lock_policyE2EE10_M_destroyEv=so_stub_for_libtelux_loc
-Wl,--defsym=_ZNSt23_Sp_counted_ptr_inplaceIN5telux3loc16DgnssManagerImplESaIS2_ELN9__gnu_cxx12_Lock_policyE2EE10_M_disposeEv=so_stub_for_libtelux_loc
-Wl,--defsym=_ZNSt23_Sp_counted_ptr_inplaceIN5telux3loc16DgnssManagerImplESaIS2_ELN9__gnu_cxx12_Lock_policyE2EE14_M_get_deleterERKSt9type_info=so_stub_for_libtelux_loc
-Wl,--defsym=_ZNSt23_Sp_counted_ptr_inplaceIN5telux3loc16DgnssManagerImplESaIS2_ELN9__gnu_cxx12_Lock_policyE2EED0Ev=so_stub_for_libtelux_loc
-Wl,--defsym=_ZNSt23_Sp_counted_ptr_inplaceIN5telux3loc16DgnssManagerImplESaIS2_ELN9__gnu_cxx12_Lock_policyE2EED1Ev=so_stub_for_libtelux_loc
-Wl,--defsym=_ZNSt23_Sp_counted_ptr_inplaceIN5telux3loc16DgnssManagerImplESaIS2_ELN9__gnu_cxx12_Lock_policyE2EED2Ev=so_stub_for_libtelux_loc
-Wl,--defsym=_ZNSt23_Sp_counted_ptr_inplaceIN5telux3loc16LocationResponseESaIS2_ELN9__gnu_cxx12_Lock_policyE2EE10_M_destroyEv=so_stub_for_libtelux_loc
-Wl,--defsym=_ZNSt23_Sp_counted_ptr_inplaceIN5telux3loc16LocationResponseESaIS2_ELN9__gnu_cxx12_Lock_policyE2EE10_M_disposeEv=so_stub_for_libtelux_loc
-Wl,--defsym=_ZNSt23_Sp_counted_ptr_inplaceIN5telux3loc16LocationResponseESaIS2_ELN9__gnu_cxx12_Lock_policyE2EE14_M_get_deleterERKSt9type_info=so_stub_for_libtelux_loc
-Wl,--defsym=_ZNSt23_Sp_counted_ptr_inplaceIN5telux3loc16LocationResponseESaIS2_ELN9__gnu_cxx12_Lock_policyE2EED0Ev=so_stub_for_libtelux_loc
-Wl,--defsym=_ZNSt23_Sp_counted_ptr_inplaceIN5telux3loc16LocationResponseESaIS2_ELN9__gnu_cxx12_Lock_policyE2EED1Ev=so_stub_for_libtelux_loc
-Wl,--defsym=_ZNSt23_Sp_counted_ptr_inplaceIN5telux3loc16LocationResponseESaIS2_ELN9__gnu_cxx12_Lock_policyE2EED2Ev=so_stub_for_libtelux_loc
-Wl,--defsym=_ZNSt23_Sp_counted_ptr_inplaceIN5telux3loc18LocationInfoImplExESaIS2_ELN9__gnu_cxx12_Lock_policyE2EE10_M_destroyEv=so_stub_for_libtelux_loc
-Wl,--defsym=_ZNSt23_Sp_counted_ptr_inplaceIN5telux3loc18LocationInfoImplExESaIS2_ELN9__gnu_cxx12_Lock_policyE2EE10_M_disposeEv=so_stub_for_libtelux_loc
-Wl,--defsym=_ZNSt23_Sp_counted_ptr_inplaceIN5telux3loc18LocationInfoImplExESaIS2_ELN9__gnu_cxx12_Lock_policyE2EE14_M_get_deleterERKSt9type_info=so_stub_for_libtelux_loc
-Wl,--defsym=_ZNSt23_Sp_counted_ptr_inplaceIN5telux3loc18LocationInfoImplExESaIS2_ELN9__gnu_cxx12_Lock_policyE2EED0Ev=so_stub_for_libtelux_loc
-Wl,--defsym=_ZNSt23_Sp_counted_ptr_inplaceIN5telux3loc18LocationInfoImplExESaIS2_ELN9__gnu_cxx12_Lock_policyE2EED1Ev=so_stub_for_libtelux_loc
-Wl,--defsym=_ZNSt23_Sp_counted_ptr_inplaceIN5telux3loc18LocationInfoImplExESaIS2_ELN9__gnu_cxx12_Lock_policyE2EED2Ev=so_stub_for_libtelux_loc
-Wl,--defsym=_ZNSt23_Sp_counted_ptr_inplaceIN5telux3loc19LocationManagerImplESaIS2_ELN9__gnu_cxx12_Lock_policyE2EE10_M_destroyEv=so_stub_for_libtelux_loc
-Wl,--defsym=_ZNSt23_Sp_counted_ptr_inplaceIN5telux3loc19LocationManagerImplESaIS2_ELN9__gnu_cxx12_Lock_policyE2EE10_M_disposeEv=so_stub_for_libtelux_loc
-Wl,--defsym=_ZNSt23_Sp_counted_ptr_inplaceIN5telux3loc19LocationManagerImplESaIS2_ELN9__gnu_cxx12_Lock_policyE2EE14_M_get_deleterERKSt9type_info=so_stub_for_libtelux_loc
-Wl,--defsym=_ZNSt23_Sp_counted_ptr_inplaceIN5telux3loc19LocationManagerImplESaIS2_ELN9__gnu_cxx12_Lock_policyE2EED0Ev=so_stub_for_libtelux_loc
-Wl,--defsym=_ZNSt23_Sp_counted_ptr_inplaceIN5telux3loc19LocationManagerImplESaIS2_ELN9__gnu_cxx12_Lock_policyE2EED1Ev=so_stub_for_libtelux_loc
-Wl,--defsym=_ZNSt23_Sp_counted_ptr_inplaceIN5telux3loc19LocationManagerImplESaIS2_ELN9__gnu_cxx12_Lock_policyE2EED2Ev=so_stub_for_libtelux_loc
-Wl,--defsym=_ZNSt23_Sp_counted_ptr_inplaceIN5telux3loc21LocationInfoImplBasicESaIS2_ELN9__gnu_cxx12_Lock_policyE2EE10_M_destroyEv=so_stub_for_libtelux_loc
-Wl,--defsym=_ZNSt23_Sp_counted_ptr_inplaceIN5telux3loc21LocationInfoImplBasicESaIS2_ELN9__gnu_cxx12_Lock_policyE2EE10_M_disposeEv=so_stub_for_libtelux_loc
-Wl,--defsym=_ZNSt23_Sp_counted_ptr_inplaceIN5telux3loc21LocationInfoImplBasicESaIS2_ELN9__gnu_cxx12_Lock_policyE2EE14_M_get_deleterERKSt9type_info=so_stub_for_libtelux_loc
-Wl,--defsym=_ZNSt23_Sp_counted_ptr_inplaceIN5telux3loc21LocationInfoImplBasicESaIS2_ELN9__gnu_cxx12_Lock_policyE2EED0Ev=so_stub_for_libtelux_loc
-Wl,--defsym=_ZNSt23_Sp_counted_ptr_inplaceIN5telux3loc21LocationInfoImplBasicESaIS2_ELN9__gnu_cxx12_Lock_policyE2EED1Ev=so_stub_for_libtelux_loc
-Wl,--defsym=_ZNSt23_Sp_counted_ptr_inplaceIN5telux3loc21LocationInfoImplBasicESaIS2_ELN9__gnu_cxx12_Lock_policyE2EED2Ev=so_stub_for_libtelux_loc
-Wl,--defsym=_ZNSt23_Sp_counted_ptr_inplaceIN5telux3loc24LocationConfiguratorImplESaIS2_ELN9__gnu_cxx12_Lock_policyE2EE10_M_destroyEv=so_stub_for_libtelux_loc
-Wl,--defsym=_ZNSt23_Sp_counted_ptr_inplaceIN5telux3loc24LocationConfiguratorImplESaIS2_ELN9__gnu_cxx12_Lock_policyE2EE10_M_disposeEv=so_stub_for_libtelux_loc
-Wl,--defsym=_ZNSt23_Sp_counted_ptr_inplaceIN5telux3loc24LocationConfiguratorImplESaIS2_ELN9__gnu_cxx12_Lock_policyE2EE14_M_get_deleterERKSt9type_info=so_stub_for_libtelux_loc
-Wl,--defsym=_ZNSt23_Sp_counted_ptr_inplaceIN5telux3loc24LocationConfiguratorImplESaIS2_ELN9__gnu_cxx12_Lock_policyE2EED0Ev=so_stub_for_libtelux_loc
-Wl,--defsym=_ZNSt23_Sp_counted_ptr_inplaceIN5telux3loc24LocationConfiguratorImplESaIS2_ELN9__gnu_cxx12_Lock_policyE2EED1Ev=so_stub_for_libtelux_loc
-Wl,--defsym=_ZNSt23_Sp_counted_ptr_inplaceIN5telux3loc24LocationConfiguratorImplESaIS2_ELN9__gnu_cxx12_Lock_policyE2EED2Ev=so_stub_for_libtelux_loc
-Wl,--defsym=_ZNSt23_Sp_counted_ptr_inplaceIN5telux6common15ListenerManagerINS0_3loc27ILocationSystemInfoListenerEEESaIS5_ELN9__gnu_cxx12_Lock_policyE2EE10_M_destroyEv=so_stub_for_libtelux_loc
-Wl,--defsym=_ZNSt23_Sp_counted_ptr_inplaceIN5telux6common15ListenerManagerINS0_3loc27ILocationSystemInfoListenerEEESaIS5_ELN9__gnu_cxx12_Lock_policyE2EE10_M_disposeEv=so_stub_for_libtelux_loc
-Wl,--defsym=_ZNSt23_Sp_counted_ptr_inplaceIN5telux6common15ListenerManagerINS0_3loc27ILocationSystemInfoListenerEEESaIS5_ELN9__gnu_cxx12_Lock_policyE2EE14_M_get_deleterERKSt9type_info=so_stub_for_libtelux_loc
-Wl,--defsym=_ZNSt23_Sp_counted_ptr_inplaceIN5telux6common15ListenerManagerINS0_3loc27ILocationSystemInfoListenerEEESaIS5_ELN9__gnu_cxx12_Lock_policyE2EED0Ev=so_stub_for_libtelux_loc
-Wl,--defsym=_ZNSt23_Sp_counted_ptr_inplaceIN5telux6common15ListenerManagerINS0_3loc27ILocationSystemInfoListenerEEESaIS5_ELN9__gnu_cxx12_Lock_policyE2EED1Ev=so_stub_for_libtelux_loc
-Wl,--defsym=_ZNSt23_Sp_counted_ptr_inplaceIN5telux6common15ListenerManagerINS0_3loc27ILocationSystemInfoListenerEEESaIS5_ELN9__gnu_cxx12_Lock_policyE2EED2Ev=so_stub_for_libtelux_loc
-Wl,--defsym=_ZNSt23_Sp_counted_ptr_inplaceIN5telux6common18FunctionalCallbackIJhNS1_9ErrorCodeEEEESaIS4_ELN9__gnu_cxx12_Lock_policyE2EE10_M_destroyEv=so_stub_for_libtelux_loc
-Wl,--defsym=_ZNSt23_Sp_counted_ptr_inplaceIN5telux6common18FunctionalCallbackIJhNS1_9ErrorCodeEEEESaIS4_ELN9__gnu_cxx12_Lock_policyE2EE10_M_disposeEv=so_stub_for_libtelux_loc
-Wl,--defsym=_ZNSt23_Sp_counted_ptr_inplaceIN5telux6common18FunctionalCallbackIJhNS1_9ErrorCodeEEEESaIS4_ELN9__gnu_cxx12_Lock_policyE2EE14_M_get_deleterERKSt9type_info=so_stub_for_libtelux_loc
-Wl,--defsym=_ZNSt23_Sp_counted_ptr_inplaceIN5telux6common18FunctionalCallbackIJhNS1_9ErrorCodeEEEESaIS4_ELN9__gnu_cxx12_Lock_policyE2EED0Ev=so_stub_for_libtelux_loc
-Wl,--defsym=_ZNSt23_Sp_counted_ptr_inplaceIN5telux6common18FunctionalCallbackIJhNS1_9ErrorCodeEEEESaIS4_ELN9__gnu_cxx12_Lock_policyE2EED1Ev=so_stub_for_libtelux_loc
-Wl,--defsym=_ZNSt23_Sp_counted_ptr_inplaceIN5telux6common18FunctionalCallbackIJhNS1_9ErrorCodeEEEESaIS4_ELN9__gnu_cxx12_Lock_policyE2EED2Ev=so_stub_for_libtelux_loc
-Wl,--defsym=_ZNSt23_Sp_counted_ptr_inplaceIN5telux6common18FunctionalCallbackIJNS0_3loc22GnssEnergyConsumedInfoENS1_9ErrorCodeEEEESaIS6_ELN9__gnu_cxx12_Lock_policyE2EE10_M_destroyEv=so_stub_for_libtelux_loc
-Wl,--defsym=_ZNSt23_Sp_counted_ptr_inplaceIN5telux6common18FunctionalCallbackIJNS0_3loc22GnssEnergyConsumedInfoENS1_9ErrorCodeEEEESaIS6_ELN9__gnu_cxx12_Lock_policyE2EE10_M_disposeEv=so_stub_for_libtelux_loc
-Wl,--defsym=_ZNSt23_Sp_counted_ptr_inplaceIN5telux6common18FunctionalCallbackIJNS0_3loc22GnssEnergyConsumedInfoENS1_9ErrorCodeEEEESaIS6_ELN9__gnu_cxx12_Lock_policyE2EE14_M_get_deleterERKSt9type_info=so_stub_for_libtelux_loc
-Wl,--defsym=_ZNSt23_Sp_counted_ptr_inplaceIN5telux6common18FunctionalCallbackIJNS0_3loc22GnssEnergyConsumedInfoENS1_9ErrorCodeEEEESaIS6_ELN9__gnu_cxx12_Lock_policyE2EED0Ev=so_stub_for_libtelux_loc
-Wl,--defsym=_ZNSt23_Sp_counted_ptr_inplaceIN5telux6common18FunctionalCallbackIJNS0_3loc22GnssEnergyConsumedInfoENS1_9ErrorCodeEEEESaIS6_ELN9__gnu_cxx12_Lock_policyE2EED1Ev=so_stub_for_libtelux_loc
-Wl,--defsym=_ZNSt23_Sp_counted_ptr_inplaceIN5telux6common18FunctionalCallbackIJNS0_3loc22GnssEnergyConsumedInfoENS1_9ErrorCodeEEEESaIS6_ELN9__gnu_cxx12_Lock_policyE2EED2Ev=so_stub_for_libtelux_loc
-Wl,--defsym=_ZNSt23_Sp_counted_ptr_inplaceIN5telux6common18FunctionalCallbackIJNS0_3loc27RobustLocationConfigurationENS1_9ErrorCodeEEEESaIS6_ELN9__gnu_cxx12_Lock_policyE2EE10_M_destroyEv=so_stub_for_libtelux_loc
-Wl,--defsym=_ZNSt23_Sp_counted_ptr_inplaceIN5telux6common18FunctionalCallbackIJNS0_3loc27RobustLocationConfigurationENS1_9ErrorCodeEEEESaIS6_ELN9__gnu_cxx12_Lock_policyE2EE10_M_disposeEv=so_stub_for_libtelux_loc
-Wl,--defsym=_ZNSt23_Sp_counted_ptr_inplaceIN5telux6common18FunctionalCallbackIJNS0_3loc27RobustLocationConfigurationENS1_9ErrorCodeEEEESaIS6_ELN9__gnu_cxx12_Lock_policyE2EE14_M_get_deleterERKSt9type_info=so_stub_for_libtelux_loc
-Wl,--defsym=_ZNSt23_Sp_counted_ptr_inplaceIN5telux6common18FunctionalCallbackIJNS0_3loc27RobustLocationConfigurationENS1_9ErrorCodeEEEESaIS6_ELN9__gnu_cxx12_Lock_policyE2EED0Ev=so_stub_for_libtelux_loc
-Wl,--defsym=_ZNSt23_Sp_counted_ptr_inplaceIN5telux6common18FunctionalCallbackIJNS0_3loc27RobustLocationConfigurationENS1_9ErrorCodeEEEESaIS6_ELN9__gnu_cxx12_Lock_policyE2EED1Ev=so_stub_for_libtelux_loc
-Wl,--defsym=_ZNSt23_Sp_counted_ptr_inplaceIN5telux6common18FunctionalCallbackIJNS0_3loc27RobustLocationConfigurationENS1_9ErrorCodeEEEESaIS6_ELN9__gnu_cxx12_Lock_policyE2EED2Ev=so_stub_for_libtelux_loc
-Wl,--defsym=_ZNSt23_Sp_counted_ptr_inplaceIN5telux6common18FunctionalCallbackIJNS1_13ServiceStatusEEEESaIS4_ELN9__gnu_cxx12_Lock_policyE2EE10_M_destroyEv=so_stub_for_libtelux_loc
-Wl,--defsym=_ZNSt23_Sp_counted_ptr_inplaceIN5telux6common18FunctionalCallbackIJNS1_13ServiceStatusEEEESaIS4_ELN9__gnu_cxx12_Lock_policyE2EE10_M_disposeEv=so_stub_for_libtelux_loc
-Wl,--defsym=_ZNSt23_Sp_counted_ptr_inplaceIN5telux6common18FunctionalCallbackIJNS1_13ServiceStatusEEEESaIS4_ELN9__gnu_cxx12_Lock_policyE2EE14_M_get_deleterERKSt9type_info=so_stub_for_libtelux_loc
-Wl,--defsym=_ZNSt23_Sp_counted_ptr_inplaceIN5telux6common18FunctionalCallbackIJNS1_13ServiceStatusEEEESaIS4_ELN9__gnu_cxx12_Lock_policyE2EED0Ev=so_stub_for_libtelux_loc
-Wl,--defsym=_ZNSt23_Sp_counted_ptr_inplaceIN5telux6common18FunctionalCallbackIJNS1_13ServiceStatusEEEESaIS4_ELN9__gnu_cxx12_Lock_policyE2EED1Ev=so_stub_for_libtelux_loc
-Wl,--defsym=_ZNSt23_Sp_counted_ptr_inplaceIN5telux6common18FunctionalCallbackIJNS1_13ServiceStatusEEEESaIS4_ELN9__gnu_cxx12_Lock_policyE2EED2Ev=so_stub_for_libtelux_loc
-Wl,--defsym=_ZNSt23_Sp_counted_ptr_inplaceIN5telux6common18FunctionalCallbackIJSt13unordered_setINS0_3loc21GnssConstellationTypeESt4hashIS5_ESt8equal_toIS5_ESaIS5_EENS1_9ErrorCodeEEEESaISD_ELN9__gnu_cxx12_Lock_policyE2EE10_M_destroyEv=so_stub_for_libtelux_loc
-Wl,--defsym=_ZNSt23_Sp_counted_ptr_inplaceIN5telux6common18FunctionalCallbackIJSt13unordered_setINS0_3loc21GnssConstellationTypeESt4hashIS5_ESt8equal_toIS5_ESaIS5_EENS1_9ErrorCodeEEEESaISD_ELN9__gnu_cxx12_Lock_policyE2EE10_M_disposeEv=so_stub_for_libtelux_loc
-Wl,--defsym=_ZNSt23_Sp_counted_ptr_inplaceIN5telux6common18FunctionalCallbackIJSt13unordered_setINS0_3loc21GnssConstellationTypeESt4hashIS5_ESt8equal_toIS5_ESaIS5_EENS1_9ErrorCodeEEEESaISD_ELN9__gnu_cxx12_Lock_policyE2EE14_M_get_deleterERKSt9type_info=so_stub_for_libtelux_loc
-Wl,--defsym=_ZNSt23_Sp_counted_ptr_inplaceIN5telux6common18FunctionalCallbackIJSt13unordered_setINS0_3loc21GnssConstellationTypeESt4hashIS5_ESt8equal_toIS5_ESaIS5_EENS1_9ErrorCodeEEEESaISD_ELN9__gnu_cxx12_Lock_policyE2EED0Ev=so_stub_for_libtelux_loc
-Wl,--defsym=_ZNSt23_Sp_counted_ptr_inplaceIN5telux6common18FunctionalCallbackIJSt13unordered_setINS0_3loc21GnssConstellationTypeESt4hashIS5_ESt8equal_toIS5_ESaIS5_EENS1_9ErrorCodeEEEESaISD_ELN9__gnu_cxx12_Lock_policyE2EED1Ev=so_stub_for_libtelux_loc
-Wl,--defsym=_ZNSt23_Sp_counted_ptr_inplaceIN5telux6common18FunctionalCallbackIJSt13unordered_setINS0_3loc21GnssConstellationTypeESt4hashIS5_ESt8equal_toIS5_ESaIS5_EENS1_9ErrorCodeEEEESaISD_ELN9__gnu_cxx12_Lock_policyE2EED2Ev=so_stub_for_libtelux_loc
-Wl,--defsym=_ZNSt23_Sp_counted_ptr_inplaceIN5telux6common18FunctionalCallbackIJtNS1_9ErrorCodeEEEESaIS4_ELN9__gnu_cxx12_Lock_policyE2EE10_M_destroyEv=so_stub_for_libtelux_loc
-Wl,--defsym=_ZNSt23_Sp_counted_ptr_inplaceIN5telux6common18FunctionalCallbackIJtNS1_9ErrorCodeEEEESaIS4_ELN9__gnu_cxx12_Lock_policyE2EE10_M_disposeEv=so_stub_for_libtelux_loc
-Wl,--defsym=_ZNSt23_Sp_counted_ptr_inplaceIN5telux6common18FunctionalCallbackIJtNS1_9ErrorCodeEEEESaIS4_ELN9__gnu_cxx12_Lock_policyE2EE14_M_get_deleterERKSt9type_info=so_stub_for_libtelux_loc
-Wl,--defsym=_ZNSt23_Sp_counted_ptr_inplaceIN5telux6common18FunctionalCallbackIJtNS1_9ErrorCodeEEEESaIS4_ELN9__gnu_cxx12_Lock_policyE2EED0Ev=so_stub_for_libtelux_loc
-Wl,--defsym=_ZNSt23_Sp_counted_ptr_inplaceIN5telux6common18FunctionalCallbackIJtNS1_9ErrorCodeEEEESaIS4_ELN9__gnu_cxx12_Lock_policyE2EED1Ev=so_stub_for_libtelux_loc
-Wl,--defsym=_ZNSt23_Sp_counted_ptr_inplaceIN5telux6common18FunctionalCallbackIJtNS1_9ErrorCodeEEEESaIS4_ELN9__gnu_cxx12_Lock_policyE2EED2Ev=so_stub_for_libtelux_loc
-Wl,--defsym=_ZNSt23_Sp_counted_ptr_inplaceINSt13__future_base13_State_baseV2ESaIS1_ELN9__gnu_cxx12_Lock_policyE2EE10_M_destroyEv=so_stub_for_libtelux_loc
-Wl,--defsym=_ZNSt23_Sp_counted_ptr_inplaceINSt13__future_base13_State_baseV2ESaIS1_ELN9__gnu_cxx12_Lock_policyE2EE10_M_disposeEv=so_stub_for_libtelux_loc
-Wl,--defsym=_ZNSt23_Sp_counted_ptr_inplaceINSt13__future_base13_State_baseV2ESaIS1_ELN9__gnu_cxx12_Lock_policyE2EE14_M_get_deleterERKSt9type_info=so_stub_for_libtelux_loc
-Wl,--defsym=_ZNSt23_Sp_counted_ptr_inplaceINSt13__future_base13_State_baseV2ESaIS1_ELN9__gnu_cxx12_Lock_policyE2EED0Ev=so_stub_for_libtelux_loc
-Wl,--defsym=_ZNSt23_Sp_counted_ptr_inplaceINSt13__future_base13_State_baseV2ESaIS1_ELN9__gnu_cxx12_Lock_policyE2EED1Ev=so_stub_for_libtelux_loc
-Wl,--defsym=_ZNSt23_Sp_counted_ptr_inplaceINSt13__future_base13_State_baseV2ESaIS1_ELN9__gnu_cxx12_Lock_policyE2EED2Ev=so_stub_for_libtelux_loc
-Wl,--defsym=_ZNSt3mapIN20location_integration17LocConfigTypeEnumE11RequestInfoSt4lessIS1_ESaISt4pairIKS1_S2_EEEixERS6_=so_stub_for_libtelux_loc
-Wl,--defsym=_ZNSt5dequeISt13shared_futureIvESaIS1_EE16_M_push_back_auxIJRKS1_EEEvDpOT_=so_stub_for_libtelux_loc
-Wl,--defsym=_ZNSt5dequeISt13shared_futureIvESaIS1_EE19_M_destroy_data_auxESt15_Deque_iteratorIS1_RS1_PS1_ES7_=so_stub_for_libtelux_loc
-Wl,--defsym=_ZNSt5dequeISt13shared_futureIvESaIS1_EE8_M_eraseESt15_Deque_iteratorIS1_RS1_PS1_E=so_stub_for_libtelux_loc
-Wl,--defsym=_ZNSt5dequeISt13shared_futureIvESaIS1_EE8pop_backEv=so_stub_for_libtelux_loc
-Wl,--defsym=_ZNSt5dequeISt13shared_futureIvESaIS1_EE9pop_frontEv=so_stub_for_libtelux_loc
-Wl,--defsym=_ZNSt5dequeISt13shared_futureIvESaIS1_EE9push_backERKS1_=so_stub_for_libtelux_loc
-Wl,--defsym=_ZNSt5dequeISt13shared_futureIvESaIS1_EED1Ev=so_stub_for_libtelux_loc
-Wl,--defsym=_ZNSt5dequeISt13shared_futureIvESaIS1_EED2Ev=so_stub_for_libtelux_loc
-Wl,--defsym=_ZNSt6futureIN15location_client16LocationResponseEE3getEv=so_stub_for_libtelux_loc
-Wl,--defsym=_ZNSt6thread11_State_implINS_8_InvokerISt5tupleIJSt8functionIFvN5telux6common13ServiceStatusEEES6_EEEEE6_M_runEv=so_stub_for_libtelux_loc
-Wl,--defsym=_ZNSt6thread11_State_implINS_8_InvokerISt5tupleIJSt8functionIFvN5telux6common13ServiceStatusEEES6_EEEEED0Ev=so_stub_for_libtelux_loc
-Wl,--defsym=_ZNSt6thread11_State_implINS_8_InvokerISt5tupleIJSt8functionIFvN5telux6common13ServiceStatusEEES6_EEEEED1Ev=so_stub_for_libtelux_loc
-Wl,--defsym=_ZNSt6thread11_State_implINS_8_InvokerISt5tupleIJSt8functionIFvN5telux6common13ServiceStatusEEES6_EEEEED2Ev=so_stub_for_libtelux_loc
-Wl,--defsym=_ZNSt6threadC1IRSt8functionIFvN5telux6common13ServiceStatusEEEJRS4_EEEOT_DpOT0_=so_stub_for_libtelux_loc
-Wl,--defsym=_ZNSt6threadC2IRSt8functionIFvN5telux6common13ServiceStatusEEEJRS4_EEEOT_DpOT0_=so_stub_for_libtelux_loc
-Wl,--defsym=_ZNSt6vectorIfSaIfEE17_M_realloc_insertIJRKfEEEvN9__gnu_cxx17__normal_iteratorIPfS1_EEDpOT_=so_stub_for_libtelux_loc
-Wl,--defsym=_ZNSt6vectorIfSaIfEEaSERKS1_=so_stub_for_libtelux_loc
-Wl,--defsym=_ZNSt6vectorIN15location_client17GnssMeasUsageInfoESaIS1_EEC1ERKS3_=so_stub_for_libtelux_loc
-Wl,--defsym=_ZNSt6vectorIN15location_client17GnssMeasUsageInfoESaIS1_EEC2ERKS3_=so_stub_for_libtelux_loc
-Wl,--defsym=_ZNSt6vectorIN20location_integration12GnssSvIdInfoESaIS1_EE17_M_realloc_insertIJRKS1_EEEvN9__gnu_cxx17__normal_iteratorIPS1_S3_EEDpOT_=so_stub_for_libtelux_loc
-Wl,--defsym=_ZNSt6vectorIN5telux3loc15SvBlackListInfoESaIS2_EEC1ERKS4_=so_stub_for_libtelux_loc
-Wl,--defsym=_ZNSt6vectorIN5telux3loc15SvBlackListInfoESaIS2_EEC2ERKS4_=so_stub_for_libtelux_loc
-Wl,--defsym=_ZNSt6vectorIN5telux3loc19GnssMeasurementInfoESaIS2_EE17_M_realloc_insertIJRKS2_EEEvN9__gnu_cxx17__normal_iteratorIPS2_S4_EEDpOT_=so_stub_for_libtelux_loc
-Wl,--defsym=_ZNSt6vectorIN5telux3loc19GnssMeasurementInfoESaIS2_EEaSERKS4_=so_stub_for_libtelux_loc
-Wl,--defsym=_ZNSt6vectorIN5telux3loc19GnssMeasurementInfoESaIS2_EEC1ERKS4_=so_stub_for_libtelux_loc
-Wl,--defsym=_ZNSt6vectorIN5telux3loc19GnssMeasurementInfoESaIS2_EEC2ERKS4_=so_stub_for_libtelux_loc
-Wl,--defsym=_ZNSt6vectorIN5telux3loc20GnssMeasurementsDataESaIS2_EE17_M_realloc_insertIJRKS2_EEEvN9__gnu_cxx17__normal_iteratorIPS2_S4_EEDpOT_=so_stub_for_libtelux_loc
-Wl,--defsym=_ZNSt6vectorISt10shared_ptrIN5telux3loc15ILocationInfoExEESaIS4_EE17_M_realloc_insertIJS4_EEEvN9__gnu_cxx17__normal_iteratorIPS4_S6_EEDpOT_=so_stub_for_libtelux_loc
-Wl,--defsym=_ZNSt6vectorISt10shared_ptrIN5telux3loc15ILocationInfoExEESaIS4_EED1Ev=so_stub_for_libtelux_loc
-Wl,--defsym=_ZNSt6vectorISt10shared_ptrIN5telux3loc15ILocationInfoExEESaIS4_EED2Ev=so_stub_for_libtelux_loc
-Wl,--defsym=_ZNSt6vectorISt10shared_ptrIN5telux3loc17ILocationListenerEESaIS4_EE17_M_realloc_insertIJRS4_EEEvN9__gnu_cxx17__normal_iteratorIPS4_S6_EEDpOT_=so_stub_for_libtelux_loc
-Wl,--defsym=_ZNSt6vectorISt10shared_ptrIN5telux3loc17ILocationListenerEESaIS4_EED1Ev=so_stub_for_libtelux_loc
-Wl,--defsym=_ZNSt6vectorISt10shared_ptrIN5telux3loc17ILocationListenerEESaIS4_EED2Ev=so_stub_for_libtelux_loc
-Wl,--defsym=_ZNSt6vectorISt10shared_ptrIN5telux3loc7ISVInfoEESaIS4_EE17_M_realloc_insertIJS4_EEEvN9__gnu_cxx17__normal_iteratorIPS4_S6_EEDpOT_=so_stub_for_libtelux_loc
-Wl,--defsym=_ZNSt6vectorISt10shared_ptrIN5telux3loc7ISVInfoEESaIS4_EEaSERKS6_=so_stub_for_libtelux_loc
-Wl,--defsym=_ZNSt6vectorISt10shared_ptrIN5telux3loc7ISVInfoEESaIS4_EEC1ERKS6_=so_stub_for_libtelux_loc
-Wl,--defsym=_ZNSt6vectorISt10shared_ptrIN5telux3loc7ISVInfoEESaIS4_EEC2ERKS6_=so_stub_for_libtelux_loc
-Wl,--defsym=_ZNSt6vectorISt10shared_ptrIN5telux3loc7ISVInfoEESaIS4_EED1Ev=so_stub_for_libtelux_loc
-Wl,--defsym=_ZNSt6vectorISt10shared_ptrIN5telux3loc7ISVInfoEESaIS4_EED2Ev=so_stub_for_libtelux_loc
-Wl,--defsym=_ZNSt6vectorISt8functionIFvN5telux6common13ServiceStatusEEESaIS5_EE17_M_realloc_insertIJRKS5_EEEvN9__gnu_cxx17__normal_iteratorIPS5_S7_EEDpOT_=so_stub_for_libtelux_loc
-Wl,--defsym=_ZNSt6vectorISt8functionIFvN5telux6common13ServiceStatusEEESaIS5_EE20_M_allocate_and_copyIN9__gnu_cxx17__normal_iteratorIPKS5_S7_EEEEPS5_jT_SF_=so_stub_for_libtelux_loc
-Wl,--defsym=_ZNSt6vectorISt8functionIFvN5telux6common13ServiceStatusEEESaIS5_EEaSERKS7_=so_stub_for_libtelux_loc
-Wl,--defsym=_ZNSt6vectorISt8functionIFvN5telux6common13ServiceStatusEEESaIS5_EED1Ev=so_stub_for_libtelux_loc
-Wl,--defsym=_ZNSt6vectorISt8functionIFvN5telux6common13ServiceStatusEEESaIS5_EED2Ev=so_stub_for_libtelux_loc
-Wl,--defsym=_ZNSt6vectorISt8weak_ptrIN5telux3loc17ILocationListenerEESaIS4_EE17_M_realloc_insertIJRS4_EEEvN9__gnu_cxx17__normal_iteratorIPS4_S6_EEDpOT_=so_stub_for_libtelux_loc
-Wl,--defsym=_ZNSt6vectorISt8weak_ptrIN5telux3loc17ILocationListenerEESaIS4_EE8_M_eraseEN9__gnu_cxx17__normal_iteratorIPS4_S6_EE=so_stub_for_libtelux_loc
-Wl,--defsym=_ZNSt6vectorISt8weak_ptrIN5telux3loc17ILocationListenerEESaIS4_EED1Ev=so_stub_for_libtelux_loc
-Wl,--defsym=_ZNSt6vectorISt8weak_ptrIN5telux3loc17ILocationListenerEESaIS4_EED2Ev=so_stub_for_libtelux_loc
-Wl,--defsym=_ZNSt6vectorISt8weak_ptrIN5telux3loc27ILocationSystemInfoListenerEESaIS4_EE17_M_realloc_insertIJRS4_EEEvN9__gnu_cxx17__normal_iteratorIPS4_S6_EEDpOT_=so_stub_for_libtelux_loc
-Wl,--defsym=_ZNSt6vectorISt8weak_ptrIN5telux3loc27ILocationSystemInfoListenerEESaIS4_EE17_M_realloc_insertIJRSt10shared_ptrIS3_EEEEvN9__gnu_cxx17__normal_iteratorIPS4_S6_EEDpOT_=so_stub_for_libtelux_loc
-Wl,--defsym=_ZNSt6vectorISt8weak_ptrIN5telux3loc27ILocationSystemInfoListenerEESaIS4_EE8_M_eraseEN9__gnu_cxx17__normal_iteratorIPS4_S6_EE=so_stub_for_libtelux_loc
-Wl,--defsym=_ZNSt6vectorISt8weak_ptrIN5telux3loc27ILocationSystemInfoListenerEESaIS4_EED1Ev=so_stub_for_libtelux_loc
-Wl,--defsym=_ZNSt6vectorISt8weak_ptrIN5telux3loc27ILocationSystemInfoListenerEESaIS4_EED2Ev=so_stub_for_libtelux_loc
-Wl,--defsym=_ZNSt6vectorItSaItEE17_M_realloc_insertIJRtEEEvN9__gnu_cxx17__normal_iteratorIPtS1_EEDpOT_=so_stub_for_libtelux_loc
-Wl,--defsym=_ZNSt6vectorItSaItEEaSERKS1_=so_stub_for_libtelux_loc
-Wl,--defsym=_ZNSt7__cxx1112basic_stringIcSt11char_traitsIcESaIcEE12_M_constructIPKcEEvT_S8_St20forward_iterator_tag=so_stub_for_libtelux_loc
-Wl,--defsym=_ZNSt7promiseIN15location_client16LocationResponseEE9set_valueERKS1_=so_stub_for_libtelux_loc
-Wl,--defsym=_ZNSt7promiseIN15location_client16LocationResponseEEC1Ev=so_stub_for_libtelux_loc
-Wl,--defsym=_ZNSt7promiseIN15location_client16LocationResponseEEC2Ev=so_stub_for_libtelux_loc
-Wl,--defsym=_ZNSt7promiseIN15location_client16LocationResponseEED1Ev=so_stub_for_libtelux_loc
-Wl,--defsym=_ZNSt7promiseIN15location_client16LocationResponseEED2Ev=so_stub_for_libtelux_loc
-Wl,--defsym=_ZNSt8__detail9_Map_baseIiSt4pairIKiSt10shared_ptrIN5telux6common16ICommandCallbackEEESaIS8_ENS_10_Select1stESt8equal_toIiESt4hashIiENS_18_Mod_range_hashingENS_20_Default_ranged_hashENS_20_Prime_rehash_policyENS_17_Hashtable_traitsILb0ELb0ELb1EEELb1EEixERS2_=so_stub_for_libtelux_loc
-Wl,--defsym=_ZNSt8functionIFv18QDgnssSourceStatusEEC1ISt5_BindIFMN5telux3loc16DgnssManagerImplEFvS0_EPS7_St12_PlaceholderILi1EEEEvvEET_=so_stub_for_libtelux_loc
-Wl,--defsym=_ZNSt8functionIFv18QDgnssSourceStatusEEC2ISt5_BindIFMN5telux3loc16DgnssManagerImplEFvS0_EPS7_St12_PlaceholderILi1EEEEvvEET_=so_stub_for_libtelux_loc
-Wl,--defsym=_ZNSt8functionIFvhEEaSISt5_BindIFMN5telux3loc24LocationConfiguratorImplEFvhEPS6_St12_PlaceholderILi1EEEEEENSt9enable_ifIXsrNS1_9_CallableINSt5decayIT_E4typeENSt9result_ofIFRSJ_hEE4typeEEE5valueERS1_E4typeEOSH_=so_stub_for_libtelux_loc
-Wl,--defsym=_ZNSt8functionIFvhEEC1ISt5_BindIFMN5telux3loc24LocationConfiguratorImplEFvhEPS6_St12_PlaceholderILi1EEEEvvEET_=so_stub_for_libtelux_loc
-Wl,--defsym=_ZNSt8functionIFvhEEC2ISt5_BindIFMN5telux3loc24LocationConfiguratorImplEFvhEPS6_St12_PlaceholderILi1EEEEvvEET_=so_stub_for_libtelux_loc
-Wl,--defsym=_ZNSt8functionIFvhN5telux6common9ErrorCodeEEEC1ERKS4_=so_stub_for_libtelux_loc
-Wl,--defsym=_ZNSt8functionIFvhN5telux6common9ErrorCodeEEEC2ERKS4_=so_stub_for_libtelux_loc
-Wl,--defsym=_ZNSt8functionIFvN15location_client16LocationResponseEEEC1ISt5_BindIFMN5telux3loc16LocationResponseEFvS1_ESt10shared_ptrIS8_ESt12_PlaceholderILi1EEEEvvEET_=so_stub_for_libtelux_loc
-Wl,--defsym=_ZNSt8functionIFvN15location_client16LocationResponseEEEC2ISt5_BindIFMN5telux3loc16LocationResponseEFvS1_ESt10shared_ptrIS8_ESt12_PlaceholderILi1EEEEvvEET_=so_stub_for_libtelux_loc
-Wl,--defsym=_ZNSt8functionIFvN15location_client24LocationCapabilitiesMaskEEEC1ERKS3_=so_stub_for_libtelux_loc
-Wl,--defsym=_ZNSt8functionIFvN15location_client24LocationCapabilitiesMaskEEEC1ISt5_BindIFMN5telux3loc19LocationManagerImplEFvS1_EPS8_St12_PlaceholderILi1EEEEvvEET_=so_stub_for_libtelux_loc
-Wl,--defsym=_ZNSt8functionIFvN15location_client24LocationCapabilitiesMaskEEEC2ERKS3_=so_stub_for_libtelux_loc
-Wl,--defsym=_ZNSt8functionIFvN15location_client24LocationCapabilitiesMaskEEEC2ISt5_BindIFMN5telux3loc19LocationManagerImplEFvS1_EPS8_St12_PlaceholderILi1EEEEvvEET_=so_stub_for_libtelux_loc
-Wl,--defsym=_ZNSt8functionIFvN20location_integration17LocConfigTypeEnumENS0_22LocIntegrationResponseEEEaSISt5_BindIFMN5telux3loc24LocationConfiguratorImplEFvS1_S2_EPS9_St12_PlaceholderILi1EESD_ILi2EEEEEENSt9enable_ifIXsrNS4_9_CallableINSt5decayIT_E4typeENSt9result_ofIFRSN_S1_S2_EE4typeEEE5valueERS4_E4typeEOSL_=so_stub_for_libtelux_loc
-Wl,--defsym=_ZNSt8functionIFvN20location_integration17LocConfigTypeEnumENS0_22LocIntegrationResponseEEEC1ISt5_BindIFMN5telux3loc24LocationConfiguratorImplEFvS1_S2_EPS9_St12_PlaceholderILi1EESD_ILi2EEEEvvEET_=so_stub_for_libtelux_loc
-Wl,--defsym=_ZNSt8functionIFvN20location_integration17LocConfigTypeEnumENS0_22LocIntegrationResponseEEEC2ISt5_BindIFMN5telux3loc24LocationConfiguratorImplEFvS1_S2_EPS9_St12_PlaceholderILi1EESD_ILi2EEEEvvEET_=so_stub_for_libtelux_loc
-Wl,--defsym=_ZNSt8functionIFvN20location_integration20RobustLocationConfigEEEaSISt5_BindIFMN5telux3loc24LocationConfiguratorImplEFvS1_EPS8_St12_PlaceholderILi1EEEEEENSt9enable_ifIXsrNS3_9_CallableINSt5decayIT_E4typeENSt9result_ofIFRSL_S1_EE4typeEEE5valueERS3_E4typeEOSJ_=so_stub_for_libtelux_loc
-Wl,--defsym=_ZNSt8functionIFvN20location_integration20RobustLocationConfigEEEC1ISt5_BindIFMN5telux3loc24LocationConfiguratorImplEFvS1_EPS8_St12_PlaceholderILi1EEEEvvEET_=so_stub_for_libtelux_loc
-Wl,--defsym=_ZNSt8functionIFvN20location_integration20RobustLocationConfigEEEC2ISt5_BindIFMN5telux3loc24LocationConfiguratorImplEFvS1_EPS8_St12_PlaceholderILi1EEEEvvEET_=so_stub_for_libtelux_loc
-Wl,--defsym=_ZNSt8functionIFvN5telux3loc22GnssEnergyConsumedInfoENS0_6common9ErrorCodeEEEC1ERKS6_=so_stub_for_libtelux_loc
-Wl,--defsym=_ZNSt8functionIFvN5telux3loc22GnssEnergyConsumedInfoENS0_6common9ErrorCodeEEEC2ERKS6_=so_stub_for_libtelux_loc
-Wl,--defsym=_ZNSt8functionIFvN5telux3loc27RobustLocationConfigurationENS0_6common9ErrorCodeEEEC1ERKS6_=so_stub_for_libtelux_loc
-Wl,--defsym=_ZNSt8functionIFvN5telux3loc27RobustLocationConfigurationENS0_6common9ErrorCodeEEEC2ERKS6_=so_stub_for_libtelux_loc
-Wl,--defsym=_ZNSt8functionIFvN5telux6common13ServiceStatusEEEaSERKS4_=so_stub_for_libtelux_loc
-Wl,--defsym=_ZNSt8functionIFvN5telux6common13ServiceStatusEEEC1ERKS4_=so_stub_for_libtelux_loc
-Wl,--defsym=_ZNSt8functionIFvN5telux6common13ServiceStatusEEEC1ISt5_BindIFMNS0_3loc15LocationFactoryEFvS2_EPS8_St12_PlaceholderILi1EEEEvvEET_=so_stub_for_libtelux_loc
-Wl,--defsym=_ZNSt8functionIFvN5telux6common13ServiceStatusEEEC2ERKS4_=so_stub_for_libtelux_loc
-Wl,--defsym=_ZNSt8functionIFvN5telux6common13ServiceStatusEEEC2ISt5_BindIFMNS0_3loc15LocationFactoryEFvS2_EPS8_St12_PlaceholderILi1EEEEvvEET_=so_stub_for_libtelux_loc
-Wl,--defsym=_ZNSt8functionIFvN5telux6common9ErrorCodeEEEC1ERKS4_=so_stub_for_libtelux_loc
-Wl,--defsym=_ZNSt8functionIFvN5telux6common9ErrorCodeEEEC2ERKS4_=so_stub_for_libtelux_loc
-Wl,--defsym=_ZNSt8functionIFvRKN15location_client12GnssLocationEEEaSEOS5_=so_stub_for_libtelux_loc
-Wl,--defsym=_ZNSt8functionIFvRKN15location_client12GnssLocationEEEaSISt5_BindIFMN5telux3loc19LocationManagerImplEFvS3_EPSA_St12_PlaceholderILi1EEEEEENSt9enable_ifIXsrNS5_9_CallableINSt5decayIT_E4typeENSt9result_ofIFRSN_S3_EE4typeEEE5valueERS5_E4typeEOSL_=so_stub_for_libtelux_loc
-Wl,--defsym=_ZNSt8functionIFvRKN15location_client12GnssLocationEEEC1ERKS5_=so_stub_for_libtelux_loc
-Wl,--defsym=_ZNSt8functionIFvRKN15location_client12GnssLocationEEEC1ISt5_BindIFMN5telux3loc19LocationManagerImplEFvS3_EPSA_St12_PlaceholderILi1EEEEvvEET_=so_stub_for_libtelux_loc
-Wl,--defsym=_ZNSt8functionIFvRKN15location_client12GnssLocationEEEC2ERKS5_=so_stub_for_libtelux_loc
-Wl,--defsym=_ZNSt8functionIFvRKN15location_client12GnssLocationEEEC2ISt5_BindIFMN5telux3loc19LocationManagerImplEFvS3_EPSA_St12_PlaceholderILi1EEEEvvEET_=so_stub_for_libtelux_loc
-Wl,--defsym=_ZNSt8functionIFvRKN15location_client16GnssMeasurementsEEEaSEOS5_=so_stub_for_libtelux_loc
-Wl,--defsym=_ZNSt8functionIFvRKN15location_client16GnssMeasurementsEEEaSISt5_BindIFMN5telux3loc19LocationManagerImplEFvS3_EPSA_St12_PlaceholderILi1EEEEEENSt9enable_ifIXsrNS5_9_CallableINSt5decayIT_E4typeENSt9result_ofIFRSN_S3_EE4typeEEE5valueERS5_E4typeEOSL_=so_stub_for_libtelux_loc
-Wl,--defsym=_ZNSt8functionIFvRKN15location_client16GnssMeasurementsEEEC1ERKS5_=so_stub_for_libtelux_loc
-Wl,--defsym=_ZNSt8functionIFvRKN15location_client16GnssMeasurementsEEEC1ISt5_BindIFMN5telux3loc19LocationManagerImplEFvS3_EPSA_St12_PlaceholderILi1EEEEvvEET_=so_stub_for_libtelux_loc
-Wl,--defsym=_ZNSt8functionIFvRKN15location_client16GnssMeasurementsEEEC2ERKS5_=so_stub_for_libtelux_loc
-Wl,--defsym=_ZNSt8functionIFvRKN15location_client16GnssMeasurementsEEEC2ISt5_BindIFMN5telux3loc19LocationManagerImplEFvS3_EPSA_St12_PlaceholderILi1EEEEvvEET_=so_stub_for_libtelux_loc
-Wl,--defsym=_ZNSt8functionIFvRKN15location_client18LocationSystemInfoEEEaSISt5_BindIFMN5telux3loc19LocationManagerImplEFvS3_EPSA_St12_PlaceholderILi1EEEEEENSt9enable_ifIXsrNS5_9_CallableINSt5decayIT_E4typeENSt9result_ofIFRSN_S3_EE4typeEEE5valueERS5_E4typeEOSL_=so_stub_for_libtelux_loc
-Wl,--defsym=_ZNSt8functionIFvRKN15location_client18LocationSystemInfoEEEC1ERKS5_=so_stub_for_libtelux_loc
-Wl,--defsym=_ZNSt8functionIFvRKN15location_client18LocationSystemInfoEEEC1ISt5_BindIFMN5telux3loc19LocationManagerImplEFvS3_EPSA_St12_PlaceholderILi1EEEEvvEET_=so_stub_for_libtelux_loc
-Wl,--defsym=_ZNSt8functionIFvRKN15location_client18LocationSystemInfoEEEC2ERKS5_=so_stub_for_libtelux_loc
-Wl,--defsym=_ZNSt8functionIFvRKN15location_client18LocationSystemInfoEEEC2ISt5_BindIFMN5telux3loc19LocationManagerImplEFvS3_EPSA_St12_PlaceholderILi1EEEEvvEET_=so_stub_for_libtelux_loc
-Wl,--defsym=_ZNSt8functionIFvRKN15location_client22GnssEnergyConsumedInfoEEEaSISt5_BindIFMN5telux3loc19LocationManagerImplEFvS3_EPSA_St12_PlaceholderILi1EEEEEENSt9enable_ifIXsrNS5_9_CallableINSt5decayIT_E4typeENSt9result_ofIFRSN_S3_EE4typeEEE5valueERS5_E4typeEOSL_=so_stub_for_libtelux_loc
-Wl,--defsym=_ZNSt8functionIFvRKN15location_client22GnssEnergyConsumedInfoEEEC1ERKS5_=so_stub_for_libtelux_loc
-Wl,--defsym=_ZNSt8functionIFvRKN15location_client22GnssEnergyConsumedInfoEEEC1ISt5_BindIFMN5telux3loc19LocationManagerImplEFvS3_EPSA_St12_PlaceholderILi1EEEEvvEET_=so_stub_for_libtelux_loc
-Wl,--defsym=_ZNSt8functionIFvRKN15location_client22GnssEnergyConsumedInfoEEEC2ERKS5_=so_stub_for_libtelux_loc
-Wl,--defsym=_ZNSt8functionIFvRKN15location_client22GnssEnergyConsumedInfoEEEC2ISt5_BindIFMN5telux3loc19LocationManagerImplEFvS3_EPSA_St12_PlaceholderILi1EEEEvvEET_=so_stub_for_libtelux_loc
-Wl,--defsym=_ZNSt8functionIFvRKN15location_client8GnssDataEEEaSEOS5_=so_stub_for_libtelux_loc
-Wl,--defsym=_ZNSt8functionIFvRKN15location_client8GnssDataEEEaSISt5_BindIFMN5telux3loc19LocationManagerImplEFvS3_EPSA_St12_PlaceholderILi1EEEEEENSt9enable_ifIXsrNS5_9_CallableINSt5decayIT_E4typeENSt9result_ofIFRSN_S3_EE4typeEEE5valueERS5_E4typeEOSL_=so_stub_for_libtelux_loc
-Wl,--defsym=_ZNSt8functionIFvRKN15location_client8GnssDataEEEC1ERKS5_=so_stub_for_libtelux_loc
-Wl,--defsym=_ZNSt8functionIFvRKN15location_client8GnssDataEEEC1ISt5_BindIFMN5telux3loc19LocationManagerImplEFvS3_EPSA_St12_PlaceholderILi1EEEEvvEET_=so_stub_for_libtelux_loc
-Wl,--defsym=_ZNSt8functionIFvRKN15location_client8GnssDataEEEC2ERKS5_=so_stub_for_libtelux_loc
-Wl,--defsym=_ZNSt8functionIFvRKN15location_client8GnssDataEEEC2ISt5_BindIFMN5telux3loc19LocationManagerImplEFvS3_EPSA_St12_PlaceholderILi1EEEEvvEET_=so_stub_for_libtelux_loc
-Wl,--defsym=_ZNSt8functionIFvRKN15location_client8LocationEEEaSISt5_BindIFMN5telux3loc19LocationManagerImplEFvS3_EPSA_St12_PlaceholderILi1EEEEEENSt9enable_ifIXsrNS5_9_CallableINSt5decayIT_E4typeENSt9result_ofIFRSN_S3_EE4typeEEE5valueERS5_E4typeEOSL_=so_stub_for_libtelux_loc
-Wl,--defsym=_ZNSt8functionIFvRKN15location_client8LocationEEEC1ERKS5_=so_stub_for_libtelux_loc
-Wl,--defsym=_ZNSt8functionIFvRKN15location_client8LocationEEEC1ISt5_BindIFMN5telux3loc19LocationManagerImplEFvS3_EPSA_St12_PlaceholderILi1EEEEvvEET_=so_stub_for_libtelux_loc
-Wl,--defsym=_ZNSt8functionIFvRKN15location_client8LocationEEEC2ERKS5_=so_stub_for_libtelux_loc
-Wl,--defsym=_ZNSt8functionIFvRKN15location_client8LocationEEEC2ISt5_BindIFMN5telux3loc19LocationManagerImplEFvS3_EPSA_St12_PlaceholderILi1EEEEvvEET_=so_stub_for_libtelux_loc
-Wl,--defsym=_ZNSt8functionIFvRKSt13unordered_setIN20location_integration21GnssConstellationTypeESt4hashIS2_ESt8equal_toIS2_ESaIS2_EEEEaSISt5_BindIFMN5telux3loc24LocationConfiguratorImplEFvSA_EPSH_St12_PlaceholderILi1EEEEEENSt9enable_ifIXsrNSC_9_CallableINSt5decayIT_E4typeENSt9result_ofIFRSU_SA_EE4typeEEE5valueERSC_E4typeEOSS_=so_stub_for_libtelux_loc
-Wl,--defsym=_ZNSt8functionIFvRKSt13unordered_setIN20location_integration21GnssConstellationTypeESt4hashIS2_ESt8equal_toIS2_ESaIS2_EEEEC1ISt5_BindIFMN5telux3loc24LocationConfiguratorImplEFvSA_EPSH_St12_PlaceholderILi1EEEEvvEET_=so_stub_for_libtelux_loc
-Wl,--defsym=_ZNSt8functionIFvRKSt13unordered_setIN20location_integration21GnssConstellationTypeESt4hashIS2_ESt8equal_toIS2_ESaIS2_EEEEC2ISt5_BindIFMN5telux3loc24LocationConfiguratorImplEFvSA_EPSH_St12_PlaceholderILi1EEEEvvEET_=so_stub_for_libtelux_loc
-Wl,--defsym=_ZNSt8functionIFvRKSt6vectorIN15location_client12GnssLocationESaIS2_EEEEaSEOS8_=so_stub_for_libtelux_loc
-Wl,--defsym=_ZNSt8functionIFvRKSt6vectorIN15location_client12GnssLocationESaIS2_EEEEaSISt5_BindIFMN5telux3loc19LocationManagerImplEFvS6_EPSD_St12_PlaceholderILi1EEEEEENSt9enable_ifIXsrNS8_9_CallableINSt5decayIT_E4typeENSt9result_ofIFRSQ_S6_EE4typeEEE5valueERS8_E4typeEOSO_=so_stub_for_libtelux_loc
-Wl,--defsym=_ZNSt8functionIFvRKSt6vectorIN15location_client12GnssLocationESaIS2_EEEEC1ERKS8_=so_stub_for_libtelux_loc
-Wl,--defsym=_ZNSt8functionIFvRKSt6vectorIN15location_client12GnssLocationESaIS2_EEEEC1ISt5_BindIFMN5telux3loc19LocationManagerImplEFvS6_EPSD_St12_PlaceholderILi1EEEEvvEET_=so_stub_for_libtelux_loc
-Wl,--defsym=_ZNSt8functionIFvRKSt6vectorIN15location_client12GnssLocationESaIS2_EEEEC2ERKS8_=so_stub_for_libtelux_loc
-Wl,--defsym=_ZNSt8functionIFvRKSt6vectorIN15location_client12GnssLocationESaIS2_EEEEC2ISt5_BindIFMN5telux3loc19LocationManagerImplEFvS6_EPSD_St12_PlaceholderILi1EEEEvvEET_=so_stub_for_libtelux_loc
-Wl,--defsym=_ZNSt8functionIFvRKSt6vectorIN15location_client6GnssSvESaIS2_EEEEaSEOS8_=so_stub_for_libtelux_loc
-Wl,--defsym=_ZNSt8functionIFvRKSt6vectorIN15location_client6GnssSvESaIS2_EEEEaSISt5_BindIFMN5telux3loc19LocationManagerImplEFvS6_EPSD_St12_PlaceholderILi1EEEEEENSt9enable_ifIXsrNS8_9_CallableINSt5decayIT_E4typeENSt9result_ofIFRSQ_S6_EE4typeEEE5valueERS8_E4typeEOSO_=so_stub_for_libtelux_loc
-Wl,--defsym=_ZNSt8functionIFvRKSt6vectorIN15location_client6GnssSvESaIS2_EEEEC1ERKS8_=so_stub_for_libtelux_loc
-Wl,--defsym=_ZNSt8functionIFvRKSt6vectorIN15location_client6GnssSvESaIS2_EEEEC1ISt5_BindIFMN5telux3loc19LocationManagerImplEFvS6_EPSD_St12_PlaceholderILi1EEEEvvEET_=so_stub_for_libtelux_loc
-Wl,--defsym=_ZNSt8functionIFvRKSt6vectorIN15location_client6GnssSvESaIS2_EEEEC2ERKS8_=so_stub_for_libtelux_loc
-Wl,--defsym=_ZNSt8functionIFvRKSt6vectorIN15location_client6GnssSvESaIS2_EEEEC2ISt5_BindIFMN5telux3loc19LocationManagerImplEFvS6_EPSD_St12_PlaceholderILi1EEEEvvEET_=so_stub_for_libtelux_loc
-Wl,--defsym=_ZNSt8functionIFvSt13unordered_setIN5telux3loc21GnssConstellationTypeESt4hashIS3_ESt8equal_toIS3_ESaIS3_EENS1_6common9ErrorCodeEEEC1ERKSD_=so_stub_for_libtelux_loc
-Wl,--defsym=_ZNSt8functionIFvSt13unordered_setIN5telux3loc21GnssConstellationTypeESt4hashIS3_ESt8equal_toIS3_ESaIS3_EENS1_6common9ErrorCodeEEEC2ERKSD_=so_stub_for_libtelux_loc
-Wl,--defsym=_ZNSt8functionIFvtEEaSISt5_BindIFMN5telux3loc24LocationConfiguratorImplEFvtEPS6_St12_PlaceholderILi1EEEEEENSt9enable_ifIXsrNS1_9_CallableINSt5decayIT_E4typeENSt9result_ofIFRSJ_tEE4typeEEE5valueERS1_E4typeEOSH_=so_stub_for_libtelux_loc
-Wl,--defsym=_ZNSt8functionIFvtEEC1ISt5_BindIFMN5telux3loc24LocationConfiguratorImplEFvtEPS6_St12_PlaceholderILi1EEEEvvEET_=so_stub_for_libtelux_loc
-Wl,--defsym=_ZNSt8functionIFvtEEC2ISt5_BindIFMN5telux3loc24LocationConfiguratorImplEFvtEPS6_St12_PlaceholderILi1EEEEvvEET_=so_stub_for_libtelux_loc
-Wl,--defsym=_ZNSt8functionIFvtN5telux6common9ErrorCodeEEEC1ERKS4_=so_stub_for_libtelux_loc
-Wl,--defsym=_ZNSt8functionIFvtN5telux6common9ErrorCodeEEEC2ERKS4_=so_stub_for_libtelux_loc
-Wl,--defsym=_ZNSt8functionIFvyRKNSt7__cxx1112basic_stringIcSt11char_traitsIcESaIcEEEEEaSEOS9_=so_stub_for_libtelux_loc
-Wl,--defsym=_ZNSt8functionIFvyRKNSt7__cxx1112basic_stringIcSt11char_traitsIcESaIcEEEEEaSISt5_BindIFMN5telux3loc19LocationManagerImplEFvyS7_EPSE_St12_PlaceholderILi1EESI_ILi2EEEEEENSt9enable_ifIXsrNS9_9_CallableINSt5decayIT_E4typeENSt9result_ofIFRSS_yS7_EE4typeEEE5valueERS9_E4typeEOSQ_=so_stub_for_libtelux_loc
-Wl,--defsym=_ZNSt8functionIFvyRKNSt7__cxx1112basic_stringIcSt11char_traitsIcESaIcEEEEEC1ERKS9_=so_stub_for_libtelux_loc
-Wl,--defsym=_ZNSt8functionIFvyRKNSt7__cxx1112basic_stringIcSt11char_traitsIcESaIcEEEEEC1ISt5_BindIFMN5telux3loc19LocationManagerImplEFvyS7_EPSE_St12_PlaceholderILi1EESI_ILi2EEEEvvEET_=so_stub_for_libtelux_loc
-Wl,--defsym=_ZNSt8functionIFvyRKNSt7__cxx1112basic_stringIcSt11char_traitsIcESaIcEEEEEC2ERKS9_=so_stub_for_libtelux_loc
-Wl,--defsym=_ZNSt8functionIFvyRKNSt7__cxx1112basic_stringIcSt11char_traitsIcESaIcEEEEEC2ISt5_BindIFMN5telux3loc19LocationManagerImplEFvyS7_EPSE_St12_PlaceholderILi1EESI_ILi2EEEEvvEET_=so_stub_for_libtelux_loc
-Wl,--defsym=_ZNSt8_Rb_treeIN20location_integration17LocConfigTypeEnumESt4pairIKS1_11RequestInfoESt10_Select1stIS5_ESt4lessIS1_ESaIS5_EE11equal_rangeERS3_=so_stub_for_libtelux_loc
-Wl,--defsym=_ZNSt8_Rb_treeIN20location_integration17LocConfigTypeEnumESt4pairIKS1_11RequestInfoESt10_Select1stIS5_ESt4lessIS1_ESaIS5_EE12_M_erase_auxESt23_Rb_tree_const_iteratorIS5_ESD_=so_stub_for_libtelux_loc
-Wl,--defsym=_ZNSt8_Rb_treeIN20location_integration17LocConfigTypeEnumESt4pairIKS1_11RequestInfoESt10_Select1stIS5_ESt4lessIS1_ESaIS5_EE16_M_insert_uniqueIS2_IS1_S4_EEES2_ISt17_Rb_tree_iteratorIS5_EbEOT_=so_stub_for_libtelux_loc
-Wl,--defsym=_ZNSt8_Rb_treeIN20location_integration17LocConfigTypeEnumESt4pairIKS1_11RequestInfoESt10_Select1stIS5_ESt4lessIS1_ESaIS5_EE22_M_emplace_hint_uniqueIJRKSt21piecewise_construct_tSt5tupleIJRS3_EESG_IJEEEEESt17_Rb_tree_iteratorIS5_ESt23_Rb_tree_const_iteratorIS5_EDpOT_=so_stub_for_libtelux_loc
-Wl,--defsym=_ZNSt8_Rb_treeIN20location_integration17LocConfigTypeEnumESt4pairIKS1_11RequestInfoESt10_Select1stIS5_ESt4lessIS1_ESaIS5_EE24_M_get_insert_unique_posERS3_=so_stub_for_libtelux_loc
-Wl,--defsym=_ZNSt8_Rb_treeIN20location_integration17LocConfigTypeEnumESt4pairIKS1_11RequestInfoESt10_Select1stIS5_ESt4lessIS1_ESaIS5_EE29_M_get_insert_hint_unique_posESt23_Rb_tree_const_iteratorIS5_ERS3_=so_stub_for_libtelux_loc
-Wl,--defsym=_ZNSt8_Rb_treeIN20location_integration17LocConfigTypeEnumESt4pairIKS1_11RequestInfoESt10_Select1stIS5_ESt4lessIS1_ESaIS5_EE8_M_eraseEPSt13_Rb_tree_nodeIS5_E=so_stub_for_libtelux_loc
-Wl,--defsym=_ZSt13move_backwardISt13shared_futureIvEESt15_Deque_iteratorIT_RS3_PS3_ES2_IS3_RKS3_PS7_ESA_S6_=so_stub_for_libtelux_loc
-Wl,--defsym=_ZSt18make_exception_ptrISt12future_errorENSt15__exception_ptr13exception_ptrET_=so_stub_for_libtelux_loc
-Wl,--defsym=_ZSt4moveISt13shared_futureIvEESt15_Deque_iteratorIT_RS3_PS3_ES6_S6_S6_=so_stub_for_libtelux_loc
-Wl,--defsym=_ZSt7find_ifIN9__gnu_cxx17__normal_iteratorIPSt8weak_ptrIN5telux3loc27ILocationSystemInfoListenerEESt6vectorIS6_SaIS6_EEEEZNS3_6common15ListenerManagerIS5_E16registerListenerES6_EUlS6_E_ET_SG_SG_T0_=so_stub_for_libtelux_loc
-Wl,--defsym=_ZSt9__find_ifIN9__gnu_cxx17__normal_iteratorIPSt8weak_ptrIN5telux3loc27ILocationSystemInfoListenerEESt6vectorIS6_SaIS6_EEEENS0_5__ops10_Iter_predIZNS3_6common15ListenerManagerIS5_E16registerListenerES6_EUlS6_E_EEET_SJ_SJ_T0_=so_stub_for_libtelux_loc
-Wl,--defsym=_ZSt9__find_ifIN9__gnu_cxx17__normal_iteratorIPSt8weak_ptrIN5telux3loc27ILocationSystemInfoListenerEESt6vectorIS6_SaIS6_EEEENS0_5__ops10_Iter_predIZNS3_6common15ListenerManagerIS5_E16registerListenerES6_EUlS6_E_EEET_SJ_SJ_T0_St26random_access_iterator_tag=so_stub_for_libtelux_loc
-Wl,--defsym=_ZSteqRKSt10error_codeRKSt15error_condition=so_stub_for_libtelux_loc
-Wl,--defsym=_ZTIN5telux3loc10SVInfoImplE=so_stub_for_libtelux_loc
-Wl,--defsym=_ZTIN5telux3loc11IGnssSVInfoE=so_stub_for_libtelux_loc
-Wl,--defsym=_ZTIN5telux3loc13IDgnssManagerE=so_stub_for_libtelux_loc
-Wl,--defsym=_ZTIN5telux3loc14GnssSignalInfoE=so_stub_for_libtelux_loc
-Wl,--defsym=_ZTIN5telux3loc14GnssSVInfoImplE=so_stub_for_libtelux_loc
-Wl,--defsym=_ZTIN5telux3loc15IGnssSignalInfoE=so_stub_for_libtelux_loc
-Wl,--defsym=_ZTIN5telux3loc15ILocationInfoExE=so_stub_for_libtelux_loc
-Wl,--defsym=_ZTIN5telux3loc16DgnssManagerImplE=so_stub_for_libtelux_loc
-Wl,--defsym=_ZTIN5telux3loc16ILocationManagerE=so_stub_for_libtelux_loc
-Wl,--defsym=_ZTIN5telux3loc17ILocationInfoBaseE=so_stub_for_libtelux_loc
-Wl,--defsym=_ZTIN5telux3loc18LocationInfoImplExE=so_stub_for_libtelux_loc
-Wl,--defsym=_ZTIN5telux3loc19LocationManagerImplE=so_stub_for_libtelux_loc
-Wl,--defsym=_ZTIN5telux3loc21ILocationConfiguratorE=so_stub_for_libtelux_loc
-Wl,--defsym=_ZTIN5telux3loc21LocationInfoImplBasicE=so_stub_for_libtelux_loc
-Wl,--defsym=_ZTIN5telux3loc24LocationConfiguratorImplE=so_stub_for_libtelux_loc
-Wl,--defsym=_ZTIN5telux3loc7ISVInfoE=so_stub_for_libtelux_loc
-Wl,--defsym=_ZTIN5telux6common16ICommandCallbackE=so_stub_for_libtelux_loc
-Wl,--defsym=_ZTIN5telux6common18FunctionalCallbackIJhNS0_9ErrorCodeEEEE=so_stub_for_libtelux_loc
-Wl,--defsym=_ZTIN5telux6common18FunctionalCallbackIJNS0_13ServiceStatusEEEE=so_stub_for_libtelux_loc
-Wl,--defsym=_ZTIN5telux6common18FunctionalCallbackIJNS_3loc22GnssEnergyConsumedInfoENS0_9ErrorCodeEEEE=so_stub_for_libtelux_loc
-Wl,--defsym=_ZTIN5telux6common18FunctionalCallbackIJNS_3loc27RobustLocationConfigurationENS0_9ErrorCodeEEEE=so_stub_for_libtelux_loc
-Wl,--defsym=_ZTIN5telux6common18FunctionalCallbackIJSt13unordered_setINS_3loc21GnssConstellationTypeESt4hashIS4_ESt8equal_toIS4_ESaIS4_EENS0_9ErrorCodeEEEE=so_stub_for_libtelux_loc
-Wl,--defsym=_ZTIN5telux6common18FunctionalCallbackIJtNS0_9ErrorCodeEEEE=so_stub_for_libtelux_loc
-Wl,--defsym=_ZTINSt13__future_base13_State_baseV27_SetterIN15location_client16LocationResponseERKS3_EE=so_stub_for_libtelux_loc
-Wl,--defsym=_ZTINSt13__future_base13_State_baseV2E=so_stub_for_libtelux_loc
-Wl,--defsym=_ZTINSt13__future_base21_Async_state_commonV2E=so_stub_for_libtelux_loc
-Wl,--defsym=_ZTINSt13__future_base7_ResultIbEE=so_stub_for_libtelux_loc
-Wl,--defsym=_ZTINSt13__future_base7_ResultIN15location_client16LocationResponseEEE=so_stub_for_libtelux_loc
-Wl,--defsym=_ZTINSt13__future_base7_ResultIvEE=so_stub_for_libtelux_loc
-Wl,--defsym=_ZTINSt6thread11_State_implINS_8_InvokerISt5tupleIJSt8functionIFvN5telux6common13ServiceStatusEEES6_EEEEEE=so_stub_for_libtelux_loc
-Wl,--defsym=_ZTISt11_Mutex_baseILN9__gnu_cxx12_Lock_policyE2EE=so_stub_for_libtelux_loc
-Wl,--defsym=_ZTISt16_Sp_counted_baseILN9__gnu_cxx12_Lock_policyE2EE=so_stub_for_libtelux_loc
-Wl,--defsym=_ZTISt17_Weak_result_typeIMN5telux3loc15LocationFactoryEFvNS0_6common13ServiceStatusEEE=so_stub_for_libtelux_loc
-Wl,--defsym=_ZTISt17_Weak_result_typeIMN5telux3loc16DgnssManagerImplEFv18QDgnssSourceStatusEE=so_stub_for_libtelux_loc
-Wl,--defsym=_ZTISt17_Weak_result_typeIMN5telux3loc16LocationResponseEFvN15location_client16LocationResponseEEE=so_stub_for_libtelux_loc
-Wl,--defsym=_ZTISt17_Weak_result_typeIMN5telux3loc19LocationManagerImplEFvN15location_client24LocationCapabilitiesMaskEEE=so_stub_for_libtelux_loc
-Wl,--defsym=_ZTISt17_Weak_result_typeIMN5telux3loc19LocationManagerImplEFvRKN15location_client12GnssLocationEEE=so_stub_for_libtelux_loc
-Wl,--defsym=_ZTISt17_Weak_result_typeIMN5telux3loc19LocationManagerImplEFvRKN15location_client16GnssMeasurementsEEE=so_stub_for_libtelux_loc
-Wl,--defsym=_ZTISt17_Weak_result_typeIMN5telux3loc19LocationManagerImplEFvRKN15location_client18LocationSystemInfoEEE=so_stub_for_libtelux_loc
-Wl,--defsym=_ZTISt17_Weak_result_typeIMN5telux3loc19LocationManagerImplEFvRKN15location_client22GnssEnergyConsumedInfoEEE=so_stub_for_libtelux_loc
-Wl,--defsym=_ZTISt17_Weak_result_typeIMN5telux3loc19LocationManagerImplEFvRKN15location_client8GnssDataEEE=so_stub_for_libtelux_loc
-Wl,--defsym=_ZTISt17_Weak_result_typeIMN5telux3loc19LocationManagerImplEFvRKN15location_client8LocationEEE=so_stub_for_libtelux_loc
-Wl,--defsym=_ZTISt17_Weak_result_typeIMN5telux3loc19LocationManagerImplEFvRKSt6vectorIN15location_client12GnssLocationESaIS5_EEEE=so_stub_for_libtelux_loc
-Wl,--defsym=_ZTISt17_Weak_result_typeIMN5telux3loc19LocationManagerImplEFvRKSt6vectorIN15location_client6GnssSvESaIS5_EEEE=so_stub_for_libtelux_loc
-Wl,--defsym=_ZTISt17_Weak_result_typeIMN5telux3loc19LocationManagerImplEFvyRKNSt7__cxx1112basic_stringIcSt11char_traitsIcESaIcEEEEE=so_stub_for_libtelux_loc
-Wl,--defsym=_ZTISt17_Weak_result_typeIMN5telux3loc24LocationConfiguratorImplEFvhEE=so_stub_for_libtelux_loc
-Wl,--defsym=_ZTISt17_Weak_result_typeIMN5telux3loc24LocationConfiguratorImplEFvN20location_integration17LocConfigTypeEnumENS3_22LocIntegrationResponseEEE=so_stub_for_libtelux_loc
-Wl,--defsym=_ZTISt17_Weak_result_typeIMN5telux3loc24LocationConfiguratorImplEFvN20location_integration20RobustLocationConfigEEE=so_stub_for_libtelux_loc
-Wl,--defsym=_ZTISt17_Weak_result_typeIMN5telux3loc24LocationConfiguratorImplEFvRKSt13unordered_setIN20location_integration21GnssConstellationTypeESt4hashIS5_ESt8equal_toIS5_ESaIS5_EEEE=so_stub_for_libtelux_loc
-Wl,--defsym=_ZTISt17_Weak_result_typeIMN5telux3loc24LocationConfiguratorImplEFvtEE=so_stub_for_libtelux_loc
-Wl,--defsym=_ZTISt19_Sp_make_shared_tag=so_stub_for_libtelux_loc
-Wl,--defsym=_ZTISt23enable_shared_from_thisIN5telux3loc16DgnssManagerImplEE=so_stub_for_libtelux_loc
-Wl,--defsym=_ZTISt23enable_shared_from_thisIN5telux3loc19LocationManagerImplEE=so_stub_for_libtelux_loc
-Wl,--defsym=_ZTISt23enable_shared_from_thisIN5telux3loc24LocationConfiguratorImplEE=so_stub_for_libtelux_loc
-Wl,--defsym=_ZTISt23_Sp_counted_ptr_inplaceIN15location_client17LocationClientApiESaIS1_ELN9__gnu_cxx12_Lock_policyE2EE=so_stub_for_libtelux_loc
-Wl,--defsym=_ZTISt23_Sp_counted_ptr_inplaceIN20location_integration22LocationIntegrationApiESaIS1_ELN9__gnu_cxx12_Lock_policyE2EE=so_stub_for_libtelux_loc
-Wl,--defsym=_ZTISt23_Sp_counted_ptr_inplaceIN5telux3loc10SVInfoImplESaIS2_ELN9__gnu_cxx12_Lock_policyE2EE=so_stub_for_libtelux_loc
-Wl,--defsym=_ZTISt23_Sp_counted_ptr_inplaceIN5telux3loc14GnssSignalInfoESaIS2_ELN9__gnu_cxx12_Lock_policyE2EE=so_stub_for_libtelux_loc
-Wl,--defsym=_ZTISt23_Sp_counted_ptr_inplaceIN5telux3loc14GnssSVInfoImplESaIS2_ELN9__gnu_cxx12_Lock_policyE2EE=so_stub_for_libtelux_loc
-Wl,--defsym=_ZTISt23_Sp_counted_ptr_inplaceIN5telux3loc16DgnssManagerImplESaIS2_ELN9__gnu_cxx12_Lock_policyE2EE=so_stub_for_libtelux_loc
-Wl,--defsym=_ZTISt23_Sp_counted_ptr_inplaceIN5telux3loc16LocationResponseESaIS2_ELN9__gnu_cxx12_Lock_policyE2EE=so_stub_for_libtelux_loc
-Wl,--defsym=_ZTISt23_Sp_counted_ptr_inplaceIN5telux3loc18LocationInfoImplExESaIS2_ELN9__gnu_cxx12_Lock_policyE2EE=so_stub_for_libtelux_loc
-Wl,--defsym=_ZTISt23_Sp_counted_ptr_inplaceIN5telux3loc19LocationManagerImplESaIS2_ELN9__gnu_cxx12_Lock_policyE2EE=so_stub_for_libtelux_loc
-Wl,--defsym=_ZTISt23_Sp_counted_ptr_inplaceIN5telux3loc21LocationInfoImplBasicESaIS2_ELN9__gnu_cxx12_Lock_policyE2EE=so_stub_for_libtelux_loc
-Wl,--defsym=_ZTISt23_Sp_counted_ptr_inplaceIN5telux3loc24LocationConfiguratorImplESaIS2_ELN9__gnu_cxx12_Lock_policyE2EE=so_stub_for_libtelux_loc
-Wl,--defsym=_ZTISt23_Sp_counted_ptr_inplaceIN5telux6common15ListenerManagerINS0_3loc27ILocationSystemInfoListenerEEESaIS5_ELN9__gnu_cxx12_Lock_policyE2EE=so_stub_for_libtelux_loc
-Wl,--defsym=_ZTISt23_Sp_counted_ptr_inplaceIN5telux6common18FunctionalCallbackIJhNS1_9ErrorCodeEEEESaIS4_ELN9__gnu_cxx12_Lock_policyE2EE=so_stub_for_libtelux_loc
-Wl,--defsym=_ZTISt23_Sp_counted_ptr_inplaceIN5telux6common18FunctionalCallbackIJNS0_3loc22GnssEnergyConsumedInfoENS1_9ErrorCodeEEEESaIS6_ELN9__gnu_cxx12_Lock_policyE2EE=so_stub_for_libtelux_loc
-Wl,--defsym=_ZTISt23_Sp_counted_ptr_inplaceIN5telux6common18FunctionalCallbackIJNS0_3loc27RobustLocationConfigurationENS1_9ErrorCodeEEEESaIS6_ELN9__gnu_cxx12_Lock_policyE2EE=so_stub_for_libtelux_loc
-Wl,--defsym=_ZTISt23_Sp_counted_ptr_inplaceIN5telux6common18FunctionalCallbackIJNS1_13ServiceStatusEEEESaIS4_ELN9__gnu_cxx12_Lock_policyE2EE=so_stub_for_libtelux_loc
-Wl,--defsym=_ZTISt23_Sp_counted_ptr_inplaceIN5telux6common18FunctionalCallbackIJSt13unordered_setINS0_3loc21GnssConstellationTypeESt4hashIS5_ESt8equal_toIS5_ESaIS5_EENS1_9ErrorCodeEEEESaISD_ELN9__gnu_cxx12_Lock_policyE2EE=so_stub_for_libtelux_loc
-Wl,--defsym=_ZTISt23_Sp_counted_ptr_inplaceIN5telux6common18FunctionalCallbackIJtNS1_9ErrorCodeEEEESaIS4_ELN9__gnu_cxx12_Lock_policyE2EE=so_stub_for_libtelux_loc
-Wl,--defsym=_ZTISt23_Sp_counted_ptr_inplaceINSt13__future_base13_State_baseV2ESaIS1_ELN9__gnu_cxx12_Lock_policyE2EE=so_stub_for_libtelux_loc
-Wl,--defsym=_ZTISt24_Weak_result_type_memfunIMN5telux3loc15LocationFactoryEFvNS0_6common13ServiceStatusEELb1EE=so_stub_for_libtelux_loc
-Wl,--defsym=_ZTISt24_Weak_result_type_memfunIMN5telux3loc16DgnssManagerImplEFv18QDgnssSourceStatusELb1EE=so_stub_for_libtelux_loc
-Wl,--defsym=_ZTISt24_Weak_result_type_memfunIMN5telux3loc16LocationResponseEFvN15location_client16LocationResponseEELb1EE=so_stub_for_libtelux_loc
-Wl,--defsym=_ZTISt24_Weak_result_type_memfunIMN5telux3loc19LocationManagerImplEFvN15location_client24LocationCapabilitiesMaskEELb1EE=so_stub_for_libtelux_loc
-Wl,--defsym=_ZTISt24_Weak_result_type_memfunIMN5telux3loc19LocationManagerImplEFvRKN15location_client12GnssLocationEELb1EE=so_stub_for_libtelux_loc
-Wl,--defsym=_ZTISt24_Weak_result_type_memfunIMN5telux3loc19LocationManagerImplEFvRKN15location_client16GnssMeasurementsEELb1EE=so_stub_for_libtelux_loc
-Wl,--defsym=_ZTISt24_Weak_result_type_memfunIMN5telux3loc19LocationManagerImplEFvRKN15location_client18LocationSystemInfoEELb1EE=so_stub_for_libtelux_loc
-Wl,--defsym=_ZTISt24_Weak_result_type_memfunIMN5telux3loc19LocationManagerImplEFvRKN15location_client22GnssEnergyConsumedInfoEELb1EE=so_stub_for_libtelux_loc
-Wl,--defsym=_ZTISt24_Weak_result_type_memfunIMN5telux3loc19LocationManagerImplEFvRKN15location_client8GnssDataEELb1EE=so_stub_for_libtelux_loc
-Wl,--defsym=_ZTISt24_Weak_result_type_memfunIMN5telux3loc19LocationManagerImplEFvRKN15location_client8LocationEELb1EE=so_stub_for_libtelux_loc
-Wl,--defsym=_ZTISt24_Weak_result_type_memfunIMN5telux3loc19LocationManagerImplEFvRKSt6vectorIN15location_client12GnssLocationESaIS5_EEELb1EE=so_stub_for_libtelux_loc
-Wl,--defsym=_ZTISt24_Weak_result_type_memfunIMN5telux3loc19LocationManagerImplEFvRKSt6vectorIN15location_client6GnssSvESaIS5_EEELb1EE=so_stub_for_libtelux_loc
-Wl,--defsym=_ZTISt24_Weak_result_type_memfunIMN5telux3loc19LocationManagerImplEFvyRKNSt7__cxx1112basic_stringIcSt11char_traitsIcESaIcEEEELb1EE=so_stub_for_libtelux_loc
-Wl,--defsym=_ZTISt24_Weak_result_type_memfunIMN5telux3loc24LocationConfiguratorImplEFvhELb1EE=so_stub_for_libtelux_loc
-Wl,--defsym=_ZTISt24_Weak_result_type_memfunIMN5telux3loc24LocationConfiguratorImplEFvN20location_integration17LocConfigTypeEnumENS3_22LocIntegrationResponseEELb1EE=so_stub_for_libtelux_loc
-Wl,--defsym=_ZTISt24_Weak_result_type_memfunIMN5telux3loc24LocationConfiguratorImplEFvN20location_integration20RobustLocationConfigEELb1EE=so_stub_for_libtelux_loc
-Wl,--defsym=_ZTISt24_Weak_result_type_memfunIMN5telux3loc24LocationConfiguratorImplEFvRKSt13unordered_setIN20location_integration21GnssConstellationTypeESt4hashIS5_ESt8equal_toIS5_ESaIS5_EEELb1EE=so_stub_for_libtelux_loc
-Wl,--defsym=_ZTISt24_Weak_result_type_memfunIMN5telux3loc24LocationConfiguratorImplEFvtELb1EE=so_stub_for_libtelux_loc
-Wl,--defsym=_ZTISt5_BindIFMN5telux3loc15LocationFactoryEFvNS0_6common13ServiceStatusEEPS2_St12_PlaceholderILi1EEEE=so_stub_for_libtelux_loc
-Wl,--defsym=_ZTISt5_BindIFMN5telux3loc16DgnssManagerImplEFv18QDgnssSourceStatusEPS2_St12_PlaceholderILi1EEEE=so_stub_for_libtelux_loc
-Wl,--defsym=_ZTISt5_BindIFMN5telux3loc16LocationResponseEFvN15location_client16LocationResponseEESt10shared_ptrIS2_ESt12_PlaceholderILi1EEEE=so_stub_for_libtelux_loc
-Wl,--defsym=_ZTISt5_BindIFMN5telux3loc19LocationManagerImplEFvN15location_client24LocationCapabilitiesMaskEEPS2_St12_PlaceholderILi1EEEE=so_stub_for_libtelux_loc
-Wl,--defsym=_ZTISt5_BindIFMN5telux3loc19LocationManagerImplEFvRKN15location_client12GnssLocationEEPS2_St12_PlaceholderILi1EEEE=so_stub_for_libtelux_loc
-Wl,--defsym=_ZTISt5_BindIFMN5telux3loc19LocationManagerImplEFvRKN15location_client16GnssMeasurementsEEPS2_St12_PlaceholderILi1EEEE=so_stub_for_libtelux_loc
-Wl,--defsym=_ZTISt5_BindIFMN5telux3loc19LocationManagerImplEFvRKN15location_client18LocationSystemInfoEEPS2_St12_PlaceholderILi1EEEE=so_stub_for_libtelux_loc
-Wl,--defsym=_ZTISt5_BindIFMN5telux3loc19LocationManagerImplEFvRKN15location_client22GnssEnergyConsumedInfoEEPS2_St12_PlaceholderILi1EEEE=so_stub_for_libtelux_loc
-Wl,--defsym=_ZTISt5_BindIFMN5telux3loc19LocationManagerImplEFvRKN15location_client8GnssDataEEPS2_St12_PlaceholderILi1EEEE=so_stub_for_libtelux_loc
-Wl,--defsym=_ZTISt5_BindIFMN5telux3loc19LocationManagerImplEFvRKN15location_client8LocationEEPS2_St12_PlaceholderILi1EEEE=so_stub_for_libtelux_loc
-Wl,--defsym=_ZTISt5_BindIFMN5telux3loc19LocationManagerImplEFvRKSt6vectorIN15location_client12GnssLocationESaIS5_EEEPS2_St12_PlaceholderILi1EEEE=so_stub_for_libtelux_loc
-Wl,--defsym=_ZTISt5_BindIFMN5telux3loc19LocationManagerImplEFvRKSt6vectorIN15location_client6GnssSvESaIS5_EEEPS2_St12_PlaceholderILi1EEEE=so_stub_for_libtelux_loc
-Wl,--defsym=_ZTISt5_BindIFMN5telux3loc19LocationManagerImplEFvyRKNSt7__cxx1112basic_stringIcSt11char_traitsIcESaIcEEEEPS2_St12_PlaceholderILi1EESE_ILi2EEEE=so_stub_for_libtelux_loc
-Wl,--defsym=_ZTISt5_BindIFMN5telux3loc24LocationConfiguratorImplEFvhEPS2_St12_PlaceholderILi1EEEE=so_stub_for_libtelux_loc
-Wl,--defsym=_ZTISt5_BindIFMN5telux3loc24LocationConfiguratorImplEFvN20location_integration17LocConfigTypeEnumENS3_22LocIntegrationResponseEEPS2_St12_PlaceholderILi1EES9_ILi2EEEE=so_stub_for_libtelux_loc
-Wl,--defsym=_ZTISt5_BindIFMN5telux3loc24LocationConfiguratorImplEFvN20location_integration20RobustLocationConfigEEPS2_St12_PlaceholderILi1EEEE=so_stub_for_libtelux_loc
-Wl,--defsym=_ZTISt5_BindIFMN5telux3loc24LocationConfiguratorImplEFvRKSt13unordered_setIN20location_integration21GnssConstellationTypeESt4hashIS5_ESt8equal_toIS5_ESaIS5_EEEPS2_St12_PlaceholderILi1EEEE=so_stub_for_libtelux_loc
-Wl,--defsym=_ZTISt5_BindIFMN5telux3loc24LocationConfiguratorImplEFvtEPS2_St12_PlaceholderILi1EEEE=so_stub_for_libtelux_loc
-Wl,--defsym=_ZTSN5telux3loc10SVInfoImplE=so_stub_for_libtelux_loc
-Wl,--defsym=_ZTSN5telux3loc11IGnssSVInfoE=so_stub_for_libtelux_loc
-Wl,--defsym=_ZTSN5telux3loc13IDgnssManagerE=so_stub_for_libtelux_loc
-Wl,--defsym=_ZTSN5telux3loc14GnssSignalInfoE=so_stub_for_libtelux_loc
-Wl,--defsym=_ZTSN5telux3loc14GnssSVInfoImplE=so_stub_for_libtelux_loc
-Wl,--defsym=_ZTSN5telux3loc15IGnssSignalInfoE=so_stub_for_libtelux_loc
-Wl,--defsym=_ZTSN5telux3loc15ILocationInfoExE=so_stub_for_libtelux_loc
-Wl,--defsym=_ZTSN5telux3loc16DgnssManagerImplE=so_stub_for_libtelux_loc
-Wl,--defsym=_ZTSN5telux3loc16ILocationManagerE=so_stub_for_libtelux_loc
-Wl,--defsym=_ZTSN5telux3loc17ILocationInfoBaseE=so_stub_for_libtelux_loc
-Wl,--defsym=_ZTSN5telux3loc18LocationInfoImplExE=so_stub_for_libtelux_loc
-Wl,--defsym=_ZTSN5telux3loc19LocationManagerImplE=so_stub_for_libtelux_loc
-Wl,--defsym=_ZTSN5telux3loc21ILocationConfiguratorE=so_stub_for_libtelux_loc
-Wl,--defsym=_ZTSN5telux3loc21LocationInfoImplBasicE=so_stub_for_libtelux_loc
-Wl,--defsym=_ZTSN5telux3loc24LocationConfiguratorImplE=so_stub_for_libtelux_loc
-Wl,--defsym=_ZTSN5telux3loc7ISVInfoE=so_stub_for_libtelux_loc
-Wl,--defsym=_ZTSN5telux6common16ICommandCallbackE=so_stub_for_libtelux_loc
-Wl,--defsym=_ZTSN5telux6common18FunctionalCallbackIJhNS0_9ErrorCodeEEEE=so_stub_for_libtelux_loc
-Wl,--defsym=_ZTSN5telux6common18FunctionalCallbackIJNS0_13ServiceStatusEEEE=so_stub_for_libtelux_loc
-Wl,--defsym=_ZTSN5telux6common18FunctionalCallbackIJNS_3loc22GnssEnergyConsumedInfoENS0_9ErrorCodeEEEE=so_stub_for_libtelux_loc
-Wl,--defsym=_ZTSN5telux6common18FunctionalCallbackIJNS_3loc27RobustLocationConfigurationENS0_9ErrorCodeEEEE=so_stub_for_libtelux_loc
-Wl,--defsym=_ZTSN5telux6common18FunctionalCallbackIJSt13unordered_setINS_3loc21GnssConstellationTypeESt4hashIS4_ESt8equal_toIS4_ESaIS4_EENS0_9ErrorCodeEEEE=so_stub_for_libtelux_loc
-Wl,--defsym=_ZTSN5telux6common18FunctionalCallbackIJtNS0_9ErrorCodeEEEE=so_stub_for_libtelux_loc
-Wl,--defsym=_ZTSNSt13__future_base13_State_baseV27_SetterIN15location_client16LocationResponseERKS3_EE=so_stub_for_libtelux_loc
-Wl,--defsym=_ZTSNSt13__future_base13_State_baseV2E=so_stub_for_libtelux_loc
-Wl,--defsym=_ZTSNSt13__future_base21_Async_state_commonV2E=so_stub_for_libtelux_loc
-Wl,--defsym=_ZTSNSt13__future_base7_ResultIbEE=so_stub_for_libtelux_loc
-Wl,--defsym=_ZTSNSt13__future_base7_ResultIN15location_client16LocationResponseEEE=so_stub_for_libtelux_loc
-Wl,--defsym=_ZTSNSt13__future_base7_ResultIvEE=so_stub_for_libtelux_loc
-Wl,--defsym=_ZTSNSt6thread11_State_implINS_8_InvokerISt5tupleIJSt8functionIFvN5telux6common13ServiceStatusEEES6_EEEEEE=so_stub_for_libtelux_loc
-Wl,--defsym=_ZTSSt11_Mutex_baseILN9__gnu_cxx12_Lock_policyE2EE=so_stub_for_libtelux_loc
-Wl,--defsym=_ZTSSt16_Sp_counted_baseILN9__gnu_cxx12_Lock_policyE2EE=so_stub_for_libtelux_loc
-Wl,--defsym=_ZTSSt17_Weak_result_typeIMN5telux3loc15LocationFactoryEFvNS0_6common13ServiceStatusEEE=so_stub_for_libtelux_loc
-Wl,--defsym=_ZTSSt17_Weak_result_typeIMN5telux3loc16DgnssManagerImplEFv18QDgnssSourceStatusEE=so_stub_for_libtelux_loc
-Wl,--defsym=_ZTSSt17_Weak_result_typeIMN5telux3loc16LocationResponseEFvN15location_client16LocationResponseEEE=so_stub_for_libtelux_loc
-Wl,--defsym=_ZTSSt17_Weak_result_typeIMN5telux3loc19LocationManagerImplEFvN15location_client24LocationCapabilitiesMaskEEE=so_stub_for_libtelux_loc
-Wl,--defsym=_ZTSSt17_Weak_result_typeIMN5telux3loc19LocationManagerImplEFvRKN15location_client12GnssLocationEEE=so_stub_for_libtelux_loc
-Wl,--defsym=_ZTSSt17_Weak_result_typeIMN5telux3loc19LocationManagerImplEFvRKN15location_client16GnssMeasurementsEEE=so_stub_for_libtelux_loc
-Wl,--defsym=_ZTSSt17_Weak_result_typeIMN5telux3loc19LocationManagerImplEFvRKN15location_client18LocationSystemInfoEEE=so_stub_for_libtelux_loc
-Wl,--defsym=_ZTSSt17_Weak_result_typeIMN5telux3loc19LocationManagerImplEFvRKN15location_client22GnssEnergyConsumedInfoEEE=so_stub_for_libtelux_loc
-Wl,--defsym=_ZTSSt17_Weak_result_typeIMN5telux3loc19LocationManagerImplEFvRKN15location_client8GnssDataEEE=so_stub_for_libtelux_loc
-Wl,--defsym=_ZTSSt17_Weak_result_typeIMN5telux3loc19LocationManagerImplEFvRKN15location_client8LocationEEE=so_stub_for_libtelux_loc
-Wl,--defsym=_ZTSSt17_Weak_result_typeIMN5telux3loc19LocationManagerImplEFvRKSt6vectorIN15location_client12GnssLocationESaIS5_EEEE=so_stub_for_libtelux_loc
-Wl,--defsym=_ZTSSt17_Weak_result_typeIMN5telux3loc19LocationManagerImplEFvRKSt6vectorIN15location_client6GnssSvESaIS5_EEEE=so_stub_for_libtelux_loc
-Wl,--defsym=_ZTSSt17_Weak_result_typeIMN5telux3loc19LocationManagerImplEFvyRKNSt7__cxx1112basic_stringIcSt11char_traitsIcESaIcEEEEE=so_stub_for_libtelux_loc
-Wl,--defsym=_ZTSSt17_Weak_result_typeIMN5telux3loc24LocationConfiguratorImplEFvhEE=so_stub_for_libtelux_loc
-Wl,--defsym=_ZTSSt17_Weak_result_typeIMN5telux3loc24LocationConfiguratorImplEFvN20location_integration17LocConfigTypeEnumENS3_22LocIntegrationResponseEEE=so_stub_for_libtelux_loc
-Wl,--defsym=_ZTSSt17_Weak_result_typeIMN5telux3loc24LocationConfiguratorImplEFvN20location_integration20RobustLocationConfigEEE=so_stub_for_libtelux_loc
-Wl,--defsym=_ZTSSt17_Weak_result_typeIMN5telux3loc24LocationConfiguratorImplEFvRKSt13unordered_setIN20location_integration21GnssConstellationTypeESt4hashIS5_ESt8equal_toIS5_ESaIS5_EEEE=so_stub_for_libtelux_loc
-Wl,--defsym=_ZTSSt17_Weak_result_typeIMN5telux3loc24LocationConfiguratorImplEFvtEE=so_stub_for_libtelux_loc
-Wl,--defsym=_ZTSSt19_Sp_make_shared_tag=so_stub_for_libtelux_loc
-Wl,--defsym=_ZTSSt23enable_shared_from_thisIN5telux3loc16DgnssManagerImplEE=so_stub_for_libtelux_loc
-Wl,--defsym=_ZTSSt23enable_shared_from_thisIN5telux3loc19LocationManagerImplEE=so_stub_for_libtelux_loc
-Wl,--defsym=_ZTSSt23enable_shared_from_thisIN5telux3loc24LocationConfiguratorImplEE=so_stub_for_libtelux_loc
-Wl,--defsym=_ZTSSt23_Sp_counted_ptr_inplaceIN15location_client17LocationClientApiESaIS1_ELN9__gnu_cxx12_Lock_policyE2EE=so_stub_for_libtelux_loc
-Wl,--defsym=_ZTSSt23_Sp_counted_ptr_inplaceIN20location_integration22LocationIntegrationApiESaIS1_ELN9__gnu_cxx12_Lock_policyE2EE=so_stub_for_libtelux_loc
-Wl,--defsym=_ZTSSt23_Sp_counted_ptr_inplaceIN5telux3loc10SVInfoImplESaIS2_ELN9__gnu_cxx12_Lock_policyE2EE=so_stub_for_libtelux_loc
-Wl,--defsym=_ZTSSt23_Sp_counted_ptr_inplaceIN5telux3loc14GnssSignalInfoESaIS2_ELN9__gnu_cxx12_Lock_policyE2EE=so_stub_for_libtelux_loc
-Wl,--defsym=_ZTSSt23_Sp_counted_ptr_inplaceIN5telux3loc14GnssSVInfoImplESaIS2_ELN9__gnu_cxx12_Lock_policyE2EE=so_stub_for_libtelux_loc
-Wl,--defsym=_ZTSSt23_Sp_counted_ptr_inplaceIN5telux3loc16DgnssManagerImplESaIS2_ELN9__gnu_cxx12_Lock_policyE2EE=so_stub_for_libtelux_loc
-Wl,--defsym=_ZTSSt23_Sp_counted_ptr_inplaceIN5telux3loc16LocationResponseESaIS2_ELN9__gnu_cxx12_Lock_policyE2EE=so_stub_for_libtelux_loc
-Wl,--defsym=_ZTSSt23_Sp_counted_ptr_inplaceIN5telux3loc18LocationInfoImplExESaIS2_ELN9__gnu_cxx12_Lock_policyE2EE=so_stub_for_libtelux_loc
-Wl,--defsym=_ZTSSt23_Sp_counted_ptr_inplaceIN5telux3loc19LocationManagerImplESaIS2_ELN9__gnu_cxx12_Lock_policyE2EE=so_stub_for_libtelux_loc
-Wl,--defsym=_ZTSSt23_Sp_counted_ptr_inplaceIN5telux3loc21LocationInfoImplBasicESaIS2_ELN9__gnu_cxx12_Lock_policyE2EE=so_stub_for_libtelux_loc
-Wl,--defsym=_ZTSSt23_Sp_counted_ptr_inplaceIN5telux3loc24LocationConfiguratorImplESaIS2_ELN9__gnu_cxx12_Lock_policyE2EE=so_stub_for_libtelux_loc
-Wl,--defsym=_ZTSSt23_Sp_counted_ptr_inplaceIN5telux6common15ListenerManagerINS0_3loc27ILocationSystemInfoListenerEEESaIS5_ELN9__gnu_cxx12_Lock_policyE2EE=so_stub_for_libtelux_loc
-Wl,--defsym=_ZTSSt23_Sp_counted_ptr_inplaceIN5telux6common18FunctionalCallbackIJhNS1_9ErrorCodeEEEESaIS4_ELN9__gnu_cxx12_Lock_policyE2EE=so_stub_for_libtelux_loc
-Wl,--defsym=_ZTSSt23_Sp_counted_ptr_inplaceIN5telux6common18FunctionalCallbackIJNS0_3loc22GnssEnergyConsumedInfoENS1_9ErrorCodeEEEESaIS6_ELN9__gnu_cxx12_Lock_policyE2EE=so_stub_for_libtelux_loc
-Wl,--defsym=_ZTSSt23_Sp_counted_ptr_inplaceIN5telux6common18FunctionalCallbackIJNS0_3loc27RobustLocationConfigurationENS1_9ErrorCodeEEEESaIS6_ELN9__gnu_cxx12_Lock_policyE2EE=so_stub_for_libtelux_loc
-Wl,--defsym=_ZTSSt23_Sp_counted_ptr_inplaceIN5telux6common18FunctionalCallbackIJNS1_13ServiceStatusEEEESaIS4_ELN9__gnu_cxx12_Lock_policyE2EE=so_stub_for_libtelux_loc
-Wl,--defsym=_ZTSSt23_Sp_counted_ptr_inplaceIN5telux6common18FunctionalCallbackIJSt13unordered_setINS0_3loc21GnssConstellationTypeESt4hashIS5_ESt8equal_toIS5_ESaIS5_EENS1_9ErrorCodeEEEESaISD_ELN9__gnu_cxx12_Lock_policyE2EE=so_stub_for_libtelux_loc
-Wl,--defsym=_ZTSSt23_Sp_counted_ptr_inplaceIN5telux6common18FunctionalCallbackIJtNS1_9ErrorCodeEEEESaIS4_ELN9__gnu_cxx12_Lock_policyE2EE=so_stub_for_libtelux_loc
-Wl,--defsym=_ZTSSt23_Sp_counted_ptr_inplaceINSt13__future_base13_State_baseV2ESaIS1_ELN9__gnu_cxx12_Lock_policyE2EE=so_stub_for_libtelux_loc
-Wl,--defsym=_ZTSSt24_Weak_result_type_memfunIMN5telux3loc15LocationFactoryEFvNS0_6common13ServiceStatusEELb1EE=so_stub_for_libtelux_loc
-Wl,--defsym=_ZTSSt24_Weak_result_type_memfunIMN5telux3loc16DgnssManagerImplEFv18QDgnssSourceStatusELb1EE=so_stub_for_libtelux_loc
-Wl,--defsym=_ZTSSt24_Weak_result_type_memfunIMN5telux3loc16LocationResponseEFvN15location_client16LocationResponseEELb1EE=so_stub_for_libtelux_loc
-Wl,--defsym=_ZTSSt24_Weak_result_type_memfunIMN5telux3loc19LocationManagerImplEFvN15location_client24LocationCapabilitiesMaskEELb1EE=so_stub_for_libtelux_loc
-Wl,--defsym=_ZTSSt24_Weak_result_type_memfunIMN5telux3loc19LocationManagerImplEFvRKN15location_client12GnssLocationEELb1EE=so_stub_for_libtelux_loc
-Wl,--defsym=_ZTSSt24_Weak_result_type_memfunIMN5telux3loc19LocationManagerImplEFvRKN15location_client16GnssMeasurementsEELb1EE=so_stub_for_libtelux_loc
-Wl,--defsym=_ZTSSt24_Weak_result_type_memfunIMN5telux3loc19LocationManagerImplEFvRKN15location_client18LocationSystemInfoEELb1EE=so_stub_for_libtelux_loc
-Wl,--defsym=_ZTSSt24_Weak_result_type_memfunIMN5telux3loc19LocationManagerImplEFvRKN15location_client22GnssEnergyConsumedInfoEELb1EE=so_stub_for_libtelux_loc
-Wl,--defsym=_ZTSSt24_Weak_result_type_memfunIMN5telux3loc19LocationManagerImplEFvRKN15location_client8GnssDataEELb1EE=so_stub_for_libtelux_loc
-Wl,--defsym=_ZTSSt24_Weak_result_type_memfunIMN5telux3loc19LocationManagerImplEFvRKN15location_client8LocationEELb1EE=so_stub_for_libtelux_loc
-Wl,--defsym=_ZTSSt24_Weak_result_type_memfunIMN5telux3loc19LocationManagerImplEFvRKSt6vectorIN15location_client12GnssLocationESaIS5_EEELb1EE=so_stub_for_libtelux_loc
-Wl,--defsym=_ZTSSt24_Weak_result_type_memfunIMN5telux3loc19LocationManagerImplEFvRKSt6vectorIN15location_client6GnssSvESaIS5_EEELb1EE=so_stub_for_libtelux_loc
-Wl,--defsym=_ZTSSt24_Weak_result_type_memfunIMN5telux3loc19LocationManagerImplEFvyRKNSt7__cxx1112basic_stringIcSt11char_traitsIcESaIcEEEELb1EE=so_stub_for_libtelux_loc
-Wl,--defsym=_ZTSSt24_Weak_result_type_memfunIMN5telux3loc24LocationConfiguratorImplEFvhELb1EE=so_stub_for_libtelux_loc
-Wl,--defsym=_ZTSSt24_Weak_result_type_memfunIMN5telux3loc24LocationConfiguratorImplEFvN20location_integration17LocConfigTypeEnumENS3_22LocIntegrationResponseEELb1EE=so_stub_for_libtelux_loc
-Wl,--defsym=_ZTSSt24_Weak_result_type_memfunIMN5telux3loc24LocationConfiguratorImplEFvN20location_integration20RobustLocationConfigEELb1EE=so_stub_for_libtelux_loc
-Wl,--defsym=_ZTSSt24_Weak_result_type_memfunIMN5telux3loc24LocationConfiguratorImplEFvRKSt13unordered_setIN20location_integration21GnssConstellationTypeESt4hashIS5_ESt8equal_toIS5_ESaIS5_EEELb1EE=so_stub_for_libtelux_loc
-Wl,--defsym=_ZTSSt24_Weak_result_type_memfunIMN5telux3loc24LocationConfiguratorImplEFvtELb1EE=so_stub_for_libtelux_loc
-Wl,--defsym=_ZTSSt5_BindIFMN5telux3loc15LocationFactoryEFvNS0_6common13ServiceStatusEEPS2_St12_PlaceholderILi1EEEE=so_stub_for_libtelux_loc
-Wl,--defsym=_ZTSSt5_BindIFMN5telux3loc16DgnssManagerImplEFv18QDgnssSourceStatusEPS2_St12_PlaceholderILi1EEEE=so_stub_for_libtelux_loc
-Wl,--defsym=_ZTSSt5_BindIFMN5telux3loc16LocationResponseEFvN15location_client16LocationResponseEESt10shared_ptrIS2_ESt12_PlaceholderILi1EEEE=so_stub_for_libtelux_loc
-Wl,--defsym=_ZTSSt5_BindIFMN5telux3loc19LocationManagerImplEFvN15location_client24LocationCapabilitiesMaskEEPS2_St12_PlaceholderILi1EEEE=so_stub_for_libtelux_loc
-Wl,--defsym=_ZTSSt5_BindIFMN5telux3loc19LocationManagerImplEFvRKN15location_client12GnssLocationEEPS2_St12_PlaceholderILi1EEEE=so_stub_for_libtelux_loc
-Wl,--defsym=_ZTSSt5_BindIFMN5telux3loc19LocationManagerImplEFvRKN15location_client16GnssMeasurementsEEPS2_St12_PlaceholderILi1EEEE=so_stub_for_libtelux_loc
-Wl,--defsym=_ZTSSt5_BindIFMN5telux3loc19LocationManagerImplEFvRKN15location_client18LocationSystemInfoEEPS2_St12_PlaceholderILi1EEEE=so_stub_for_libtelux_loc
-Wl,--defsym=_ZTSSt5_BindIFMN5telux3loc19LocationManagerImplEFvRKN15location_client22GnssEnergyConsumedInfoEEPS2_St12_PlaceholderILi1EEEE=so_stub_for_libtelux_loc
-Wl,--defsym=_ZTSSt5_BindIFMN5telux3loc19LocationManagerImplEFvRKN15location_client8GnssDataEEPS2_St12_PlaceholderILi1EEEE=so_stub_for_libtelux_loc
-Wl,--defsym=_ZTSSt5_BindIFMN5telux3loc19LocationManagerImplEFvRKN15location_client8LocationEEPS2_St12_PlaceholderILi1EEEE=so_stub_for_libtelux_loc
-Wl,--defsym=_ZTSSt5_BindIFMN5telux3loc19LocationManagerImplEFvRKSt6vectorIN15location_client12GnssLocationESaIS5_EEEPS2_St12_PlaceholderILi1EEEE=so_stub_for_libtelux_loc
-Wl,--defsym=_ZTSSt5_BindIFMN5telux3loc19LocationManagerImplEFvRKSt6vectorIN15location_client6GnssSvESaIS5_EEEPS2_St12_PlaceholderILi1EEEE=so_stub_for_libtelux_loc
-Wl,--defsym=_ZTSSt5_BindIFMN5telux3loc19LocationManagerImplEFvyRKNSt7__cxx1112basic_stringIcSt11char_traitsIcESaIcEEEEPS2_St12_PlaceholderILi1EESE_ILi2EEEE=so_stub_for_libtelux_loc
-Wl,--defsym=_ZTSSt5_BindIFMN5telux3loc24LocationConfiguratorImplEFvhEPS2_St12_PlaceholderILi1EEEE=so_stub_for_libtelux_loc
-Wl,--defsym=_ZTSSt5_BindIFMN5telux3loc24LocationConfiguratorImplEFvN20location_integration17LocConfigTypeEnumENS3_22LocIntegrationResponseEEPS2_St12_PlaceholderILi1EES9_ILi2EEEE=so_stub_for_libtelux_loc
-Wl,--defsym=_ZTSSt5_BindIFMN5telux3loc24LocationConfiguratorImplEFvN20location_integration20RobustLocationConfigEEPS2_St12_PlaceholderILi1EEEE=so_stub_for_libtelux_loc
-Wl,--defsym=_ZTSSt5_BindIFMN5telux3loc24LocationConfiguratorImplEFvRKSt13unordered_setIN20location_integration21GnssConstellationTypeESt4hashIS5_ESt8equal_toIS5_ESaIS5_EEEPS2_St12_PlaceholderILi1EEEE=so_stub_for_libtelux_loc
-Wl,--defsym=_ZTSSt5_BindIFMN5telux3loc24LocationConfiguratorImplEFvtEPS2_St12_PlaceholderILi1EEEE=so_stub_for_libtelux_loc
-Wl,--defsym=_ZTVN5telux3loc10SVInfoImplE=so_stub_for_libtelux_loc
-Wl,--defsym=_ZTVN5telux3loc14GnssSignalInfoE=so_stub_for_libtelux_loc
-Wl,--defsym=_ZTVN5telux3loc14GnssSVInfoImplE=so_stub_for_libtelux_loc
-Wl,--defsym=_ZTVN5telux3loc16DgnssManagerImplE=so_stub_for_libtelux_loc
-Wl,--defsym=_ZTVN5telux3loc18LocationInfoImplExE=so_stub_for_libtelux_loc
-Wl,--defsym=_ZTVN5telux3loc19LocationManagerImplE=so_stub_for_libtelux_loc
-Wl,--defsym=_ZTVN5telux3loc21LocationInfoImplBasicE=so_stub_for_libtelux_loc
-Wl,--defsym=_ZTVN5telux3loc24LocationConfiguratorImplE=so_stub_for_libtelux_loc
-Wl,--defsym=_ZTVN5telux6common18FunctionalCallbackIJhNS0_9ErrorCodeEEEE=so_stub_for_libtelux_loc
-Wl,--defsym=_ZTVN5telux6common18FunctionalCallbackIJNS0_13ServiceStatusEEEE=so_stub_for_libtelux_loc
-Wl,--defsym=_ZTVN5telux6common18FunctionalCallbackIJNS_3loc22GnssEnergyConsumedInfoENS0_9ErrorCodeEEEE=so_stub_for_libtelux_loc
-Wl,--defsym=_ZTVN5telux6common18FunctionalCallbackIJNS_3loc27RobustLocationConfigurationENS0_9ErrorCodeEEEE=so_stub_for_libtelux_loc
-Wl,--defsym=_ZTVN5telux6common18FunctionalCallbackIJSt13unordered_setINS_3loc21GnssConstellationTypeESt4hashIS4_ESt8equal_toIS4_ESaIS4_EENS0_9ErrorCodeEEEE=so_stub_for_libtelux_loc
-Wl,--defsym=_ZTVN5telux6common18FunctionalCallbackIJtNS0_9ErrorCodeEEEE=so_stub_for_libtelux_loc
-Wl,--defsym=_ZTVNSt13__future_base13_State_baseV2E=so_stub_for_libtelux_loc
-Wl,--defsym=_ZTVNSt13__future_base21_Async_state_commonV2E=so_stub_for_libtelux_loc
-Wl,--defsym=_ZTVNSt13__future_base7_ResultIbEE=so_stub_for_libtelux_loc
-Wl,--defsym=_ZTVNSt13__future_base7_ResultIN15location_client16LocationResponseEEE=so_stub_for_libtelux_loc
-Wl,--defsym=_ZTVNSt13__future_base7_ResultIvEE=so_stub_for_libtelux_loc
-Wl,--defsym=_ZTVNSt6thread11_State_implINS_8_InvokerISt5tupleIJSt8functionIFvN5telux6common13ServiceStatusEEES6_EEEEEE=so_stub_for_libtelux_loc
-Wl,--defsym=_ZTVSt23_Sp_counted_ptr_inplaceIN15location_client17LocationClientApiESaIS1_ELN9__gnu_cxx12_Lock_policyE2EE=so_stub_for_libtelux_loc
-Wl,--defsym=_ZTVSt23_Sp_counted_ptr_inplaceIN20location_integration22LocationIntegrationApiESaIS1_ELN9__gnu_cxx12_Lock_policyE2EE=so_stub_for_libtelux_loc
-Wl,--defsym=_ZTVSt23_Sp_counted_ptr_inplaceIN5telux3loc10SVInfoImplESaIS2_ELN9__gnu_cxx12_Lock_policyE2EE=so_stub_for_libtelux_loc
-Wl,--defsym=_ZTVSt23_Sp_counted_ptr_inplaceIN5telux3loc14GnssSignalInfoESaIS2_ELN9__gnu_cxx12_Lock_policyE2EE=so_stub_for_libtelux_loc
-Wl,--defsym=_ZTVSt23_Sp_counted_ptr_inplaceIN5telux3loc14GnssSVInfoImplESaIS2_ELN9__gnu_cxx12_Lock_policyE2EE=so_stub_for_libtelux_loc
-Wl,--defsym=_ZTVSt23_Sp_counted_ptr_inplaceIN5telux3loc16DgnssManagerImplESaIS2_ELN9__gnu_cxx12_Lock_policyE2EE=so_stub_for_libtelux_loc
-Wl,--defsym=_ZTVSt23_Sp_counted_ptr_inplaceIN5telux3loc16LocationResponseESaIS2_ELN9__gnu_cxx12_Lock_policyE2EE=so_stub_for_libtelux_loc
-Wl,--defsym=_ZTVSt23_Sp_counted_ptr_inplaceIN5telux3loc18LocationInfoImplExESaIS2_ELN9__gnu_cxx12_Lock_policyE2EE=so_stub_for_libtelux_loc
-Wl,--defsym=_ZTVSt23_Sp_counted_ptr_inplaceIN5telux3loc19LocationManagerImplESaIS2_ELN9__gnu_cxx12_Lock_policyE2EE=so_stub_for_libtelux_loc
-Wl,--defsym=_ZTVSt23_Sp_counted_ptr_inplaceIN5telux3loc21LocationInfoImplBasicESaIS2_ELN9__gnu_cxx12_Lock_policyE2EE=so_stub_for_libtelux_loc
-Wl,--defsym=_ZTVSt23_Sp_counted_ptr_inplaceIN5telux3loc24LocationConfiguratorImplESaIS2_ELN9__gnu_cxx12_Lock_policyE2EE=so_stub_for_libtelux_loc
-Wl,--defsym=_ZTVSt23_Sp_counted_ptr_inplaceIN5telux6common15ListenerManagerINS0_3loc27ILocationSystemInfoListenerEEESaIS5_ELN9__gnu_cxx12_Lock_policyE2EE=so_stub_for_libtelux_loc
-Wl,--defsym=_ZTVSt23_Sp_counted_ptr_inplaceIN5telux6common18FunctionalCallbackIJhNS1_9ErrorCodeEEEESaIS4_ELN9__gnu_cxx12_Lock_policyE2EE=so_stub_for_libtelux_loc
-Wl,--defsym=_ZTVSt23_Sp_counted_ptr_inplaceIN5telux6common18FunctionalCallbackIJNS0_3loc22GnssEnergyConsumedInfoENS1_9ErrorCodeEEEESaIS6_ELN9__gnu_cxx12_Lock_policyE2EE=so_stub_for_libtelux_loc
-Wl,--defsym=_ZTVSt23_Sp_counted_ptr_inplaceIN5telux6common18FunctionalCallbackIJNS0_3loc27RobustLocationConfigurationENS1_9ErrorCodeEEEESaIS6_ELN9__gnu_cxx12_Lock_policyE2EE=so_stub_for_libtelux_loc
-Wl,--defsym=_ZTVSt23_Sp_counted_ptr_inplaceIN5telux6common18FunctionalCallbackIJNS1_13ServiceStatusEEEESaIS4_ELN9__gnu_cxx12_Lock_policyE2EE=so_stub_for_libtelux_loc
-Wl,--defsym=_ZTVSt23_Sp_counted_ptr_inplaceIN5telux6common18FunctionalCallbackIJSt13unordered_setINS0_3loc21GnssConstellationTypeESt4hashIS5_ESt8equal_toIS5_ESaIS5_EENS1_9ErrorCodeEEEESaISD_ELN9__gnu_cxx12_Lock_policyE2EE=so_stub_for_libtelux_loc
-Wl,--defsym=_ZTVSt23_Sp_counted_ptr_inplaceIN5telux6common18FunctionalCallbackIJtNS1_9ErrorCodeEEEESaIS4_ELN9__gnu_cxx12_Lock_policyE2EE=so_stub_for_libtelux_loc
-Wl,--defsym=_ZTVSt23_Sp_counted_ptr_inplaceINSt13__future_base13_State_baseV2ESaIS1_ELN9__gnu_cxx12_Lock_policyE2EE=so_stub_for_libtelux_loc
-Wl,--defsym=_ZZSt9call_onceIMNSt13__future_base13_State_baseV2EFvPSt8functionIFSt10unique_ptrINS0_12_Result_baseENS4_8_DeleterEEvEEPbEJPS1_S9_SA_EEvRSt9once_flagOT_DpOT0_ENKUlvE0_clEv=so_stub_for_libtelux_loc
-Wl,--defsym=_ZZSt9call_onceIMNSt13__future_base13_State_baseV2EFvPSt8functionIFSt10unique_ptrINS0_12_Result_baseENS4_8_DeleterEEvEEPbEJPS1_S9_SA_EEvRSt9once_flagOT_DpOT0_ENUlvE0_4_FUNEv=so_stub_for_libtelux_loc
-Wl,--defsym=_ZZSt9call_onceIMSt6threadFvvEJPS0_EEvRSt9once_flagOT_DpOT0_ENKUlvE0_clEv=so_stub_for_libtelux_loc
-Wl,--defsym=_ZZSt9call_onceIMSt6threadFvvEJPS0_EEvRSt9once_flagOT_DpOT0_ENUlvE0_4_FUNEv=so_stub_for_libtelux_loc
