-Wl,--defsym=config_override_event_as_sps=so_stub_for_libv2x_radio
-Wl,--defsym=config_override_event_flow_prio=so_stub_for_libv2x_radio
-Wl,--defsym=cv2x_status_poll=so_stub_for_libv2x_radio
-Wl,--defsym=get_iface_name=so_stub_for_libv2x_radio
-Wl,--defsym=start_v2x_mode=so_stub_for_libv2x_radio
-Wl,--defsym=stop_v2x_mode=so_stub_for_libv2x_radio
-Wl,--defsym=v2x_convert_priority_to_traffic_class=so_stub_for_libv2x_radio
-Wl,--defsym=v2x_convert_traffic_class_to_priority=so_stub_for_libv2x_radio
-Wl,--defsym=v2x_disable_socket_connect=so_stub_for_libv2x_radio
-Wl,--defsym=v2x_log_level=so_stub_for_libv2x_radio
-Wl,--defsym=v2x_log_level_set=so_stub_for_libv2x_radio
-Wl,--defsym=v2x_log_to_syslog=so_stub_for_libv2x_radio
-Wl,--defsym=v2x_radio_api_version=so_stub_for_libv2x_radio
-Wl,--defsym=v2x_radio_deinit=so_stub_for_libv2x_radio
-Wl,--defsym=v2x_radio_get_status=so_stub_for_libv2x_radio
-Wl,--defsym=v2x_radio_init=so_stub_for_libv2x_radio
-Wl,--defsym=v2x_radio_init_v2=so_stub_for_libv2x_radio
-Wl,--defsym=v2x_radio_query_parameters=so_stub_for_libv2x_radio
-Wl,--defsym=v2x_radio_rx_sock_create_and_bind=so_stub_for_libv2x_radio
-Wl,--defsym=v2x_radio_rx_sock_create_and_bind_v2=so_stub_for_libv2x_radio
-Wl,--defsym=v2x_radio_rx_sock_create_and_bind_v3=so_stub_for_libv2x_radio
-Wl,--defsym=v2x_radio_set_log_level=so_stub_for_libv2x_radio
-Wl,--defsym=v2x_radio_set_macphy=so_stub_for_libv2x_radio
-Wl,--defsym=v2x_radio_sock_close=so_stub_for_libv2x_radio
-Wl,--defsym=v2x_radio_sock_create_and_bind=so_stub_for_libv2x_radio
-Wl,--defsym=v2x_radio_start_measurements=so_stub_for_libv2x_radio
-Wl,--defsym=v2x_radio_stop_measurements=so_stub_for_libv2x_radio
-Wl,--defsym=v2x_radio_tcp_sock_create_and_bind=so_stub_for_libv2x_radio
-Wl,--defsym=v2x_radio_trigger_l2_update=so_stub_for_libv2x_radio
-Wl,--defsym=v2x_radio_tx_event_flow_info_change=so_stub_for_libv2x_radio
-Wl,--defsym=v2x_radio_tx_event_sock_create_and_bind=so_stub_for_libv2x_radio
-Wl,--defsym=v2x_radio_tx_event_sock_create_and_bind_v2=so_stub_for_libv2x_radio
-Wl,--defsym=v2x_radio_tx_event_sock_create_and_bind_v3=so_stub_for_libv2x_radio
-Wl,--defsym=v2x_radio_tx_flush=so_stub_for_libv2x_radio
-Wl,--defsym=v2x_radio_tx_reservation_change=so_stub_for_libv2x_radio
-Wl,--defsym=v2x_radio_tx_reservation_change_v2=so_stub_for_libv2x_radio
-Wl,--defsym=v2x_radio_tx_sps_only_create=so_stub_for_libv2x_radio
-Wl,--defsym=v2x_radio_tx_sps_only_create_v2=so_stub_for_libv2x_radio
-Wl,--defsym=v2x_radio_tx_sps_sock_create_and_bind=so_stub_for_libv2x_radio
-Wl,--defsym=v2x_radio_tx_sps_sock_create_and_bind_v2=so_stub_for_libv2x_radio
-Wl,--defsym=v2x_radio_update_trusted_ue_list=so_stub_for_libv2x_radio
-Wl,--defsym=v2x_register_for_config_change_ind=so_stub_for_libv2x_radio
-Wl,--defsym=v2x_retrieve_configuration=so_stub_for_libv2x_radio
-Wl,--defsym=v2x_set_dest_ipv6_addr=so_stub_for_libv2x_radio
-Wl,--defsym=v2x_set_dest_port=so_stub_for_libv2x_radio
-Wl,--defsym=v2x_set_peak_tx_power=so_stub_for_libv2x_radio
-Wl,--defsym=v2x_set_rx_port=so_stub_for_libv2x_radio
-Wl,--defsym=v2x_update_configuration=so_stub_for_libv2x_radio
-Wl,--defsym=v2x_use_syslog=so_stub_for_libv2x_radio
-Wl,--defsym=_Z14set_radio_infoN5telux4cv2x13TrafficIpTypeE21v2x_concurrency_sel_t=so_stub_for_libv2x_radio
-Wl,--defsym=_Z18set_and_init_radioN5telux4cv2x15TrafficCategoryE=so_stub_for_libv2x_radio
-Wl,--defsym=_Z18v2x_show_all_flowsP19cv2x_config_state_t=so_stub_for_libv2x_radio
-Wl,--defsym=_Z21v2x_show_all_sessionsP8_IO_FILE=so_stub_for_libv2x_radio
-Wl,--defsym=_Z23set_and_init_radio_syncN5telux4cv2x15TrafficCategoryE=so_stub_for_libv2x_radio
-Wl,--defsym=_Z24tx_reservation_change_cbSt10shared_ptrIN5telux4cv2x11ICv2xTxFlowEENS0_6common9ErrorCodeE=so_stub_for_libv2x_radio
-Wl,--defsym=_Z28convert_status_to_v2x_statusN5telux6common6StatusE=so_stub_for_libv2x_radio
-Wl,--defsym=_ZdlPvS_=so_stub_for_libv2x_radio
-Wl,--defsym=_ZN12Cv2xListener15onStatusChangedEN5telux4cv2x12Cv2xStatusExE=so_stub_for_libv2x_radio
-Wl,--defsym=_ZN12Cv2xListener21onServiceStatusChangeEN5telux6common13ServiceStatusE=so_stub_for_libv2x_radio
-Wl,--defsym=_ZN12Cv2xListenerC1Ev=so_stub_for_libv2x_radio
-Wl,--defsym=_ZN12Cv2xListenerC2Ev=so_stub_for_libv2x_radio
-Wl,--defsym=_ZN12Cv2xListenerD0Ev=so_stub_for_libv2x_radio
-Wl,--defsym=_ZN12Cv2xListenerD1Ev=so_stub_for_libv2x_radio
-Wl,--defsym=_ZN12Cv2xListenerD2Ev=so_stub_for_libv2x_radio
-Wl,--defsym=_ZN13RadioListener15onL2AddrChangedEj=so_stub_for_libv2x_radio
-Wl,--defsym=_ZN13RadioListener21onCapabilitiesChangedERKN5telux4cv2x21Cv2xRadioCapabilitiesE=so_stub_for_libv2x_radio
-Wl,--defsym=_ZN13RadioListener22onSpsSchedulingChangedERKN5telux4cv2x17SpsSchedulingInfoE=so_stub_for_libv2x_radio
-Wl,--defsym=_ZN13RadioListenerC1Ev=so_stub_for_libv2x_radio
-Wl,--defsym=_ZN13RadioListenerC2Ev=so_stub_for_libv2x_radio
-Wl,--defsym=_ZN13RadioListenerD0Ev=so_stub_for_libv2x_radio
-Wl,--defsym=_ZN13RadioListenerD1Ev=so_stub_for_libv2x_radio
-Wl,--defsym=_ZN13RadioListenerD2Ev=so_stub_for_libv2x_radio
-Wl,--defsym=_ZN14ConfigListener15onConfigChangedERKN5telux4cv2x15ConfigEventInfoE=so_stub_for_libv2x_radio
-Wl,--defsym=_ZN14ConfigListenerC1Ev=so_stub_for_libv2x_radio
-Wl,--defsym=_ZN14ConfigListenerC2Ev=so_stub_for_libv2x_radio
-Wl,--defsym=_ZN14ConfigListenerD0Ev=so_stub_for_libv2x_radio
-Wl,--defsym=_ZN14ConfigListenerD1Ev=so_stub_for_libv2x_radio
-Wl,--defsym=_ZN14ConfigListenerD2Ev=so_stub_for_libv2x_radio
-Wl,--defsym=_ZN19cv2x_config_state_tC1Ev=so_stub_for_libv2x_radio
-Wl,--defsym=_ZN19cv2x_config_state_tC2Ev=so_stub_for_libv2x_radio
-Wl,--defsym=_ZN19cv2x_config_state_tD1Ev=so_stub_for_libv2x_radio
-Wl,--defsym=_ZN19cv2x_config_state_tD2Ev=so_stub_for_libv2x_radio
-Wl,--defsym=_ZN5telux4cv2x10Cv2xStatusC1Ev=so_stub_for_libv2x_radio
-Wl,--defsym=_ZN5telux4cv2x10Cv2xStatusC2Ev=so_stub_for_libv2x_radio
-Wl,--defsym=_ZN5telux4cv2x11SpsFlowInfoC1Ev=so_stub_for_libv2x_radio
-Wl,--defsym=_ZN5telux4cv2x11SpsFlowInfoC2Ev=so_stub_for_libv2x_radio
-Wl,--defsym=_ZN5telux4cv2x12Cv2xStatusExaSERKS1_=so_stub_for_libv2x_radio
-Wl,--defsym=_ZN5telux4cv2x12Cv2xStatusExC1EOS1_=so_stub_for_libv2x_radio
-Wl,--defsym=_ZN5telux4cv2x12Cv2xStatusExC1Ev=so_stub_for_libv2x_radio
-Wl,--defsym=_ZN5telux4cv2x12Cv2xStatusExC2EOS1_=so_stub_for_libv2x_radio
-Wl,--defsym=_ZN5telux4cv2x12Cv2xStatusExC2Ev=so_stub_for_libv2x_radio
-Wl,--defsym=_ZN5telux4cv2x12Cv2xStatusExD1Ev=so_stub_for_libv2x_radio
-Wl,--defsym=_ZN5telux4cv2x12Cv2xStatusExD2Ev=so_stub_for_libv2x_radio
-Wl,--defsym=_ZN5telux4cv2x13EventFlowInfoC1Ev=so_stub_for_libv2x_radio
-Wl,--defsym=_ZN5telux4cv2x13EventFlowInfoC2Ev=so_stub_for_libv2x_radio
-Wl,--defsym=_ZN5telux4cv2x13ICv2xListener15onStatusChangedENS0_10Cv2xStatusE=so_stub_for_libv2x_radio
-Wl,--defsym=_ZN5telux4cv2x13ICv2xListener15onStatusChangedENS0_12Cv2xStatusExE=so_stub_for_libv2x_radio
-Wl,--defsym=_ZN5telux4cv2x13ICv2xListenerC1Ev=so_stub_for_libv2x_radio
-Wl,--defsym=_ZN5telux4cv2x13ICv2xListenerC2Ev=so_stub_for_libv2x_radio
-Wl,--defsym=_ZN5telux4cv2x13ICv2xListenerD0Ev=so_stub_for_libv2x_radio
-Wl,--defsym=_ZN5telux4cv2x13ICv2xListenerD1Ev=so_stub_for_libv2x_radio
-Wl,--defsym=_ZN5telux4cv2x13ICv2xListenerD2Ev=so_stub_for_libv2x_radio
-Wl,--defsym=_ZN5telux4cv2x17TrustedUEInfoListC1Ev=so_stub_for_libv2x_radio
-Wl,--defsym=_ZN5telux4cv2x17TrustedUEInfoListC2Ev=so_stub_for_libv2x_radio
-Wl,--defsym=_ZN5telux4cv2x17TrustedUEInfoListD1Ev=so_stub_for_libv2x_radio
-Wl,--defsym=_ZN5telux4cv2x17TrustedUEInfoListD2Ev=so_stub_for_libv2x_radio
-Wl,--defsym=_ZN5telux4cv2x18ICv2xRadioListener15onL2AddrChangedEj=so_stub_for_libv2x_radio
-Wl,--defsym=_ZN5telux4cv2x18ICv2xRadioListener15onStatusChangedENS0_10Cv2xStatusE=so_stub_for_libv2x_radio
-Wl,--defsym=_ZN5telux4cv2x18ICv2xRadioListener15onStatusChangedENS0_12Cv2xStatusExE=so_stub_for_libv2x_radio
-Wl,--defsym=_ZN5telux4cv2x18ICv2xRadioListener18onSpsOffsetChangedEiNS0_10MacDetailsE=so_stub_for_libv2x_radio
-Wl,--defsym=_ZN5telux4cv2x18ICv2xRadioListener21onCapabilitiesChangedERKNS0_21Cv2xRadioCapabilitiesE=so_stub_for_libv2x_radio
-Wl,--defsym=_ZN5telux4cv2x18ICv2xRadioListener22onSpsSchedulingChangedERKNS0_17SpsSchedulingInfoE=so_stub_for_libv2x_radio
-Wl,--defsym=_ZN5telux4cv2x18ICv2xRadioListenerC1Ev=so_stub_for_libv2x_radio
-Wl,--defsym=_ZN5telux4cv2x18ICv2xRadioListenerC2Ev=so_stub_for_libv2x_radio
-Wl,--defsym=_ZN5telux4cv2x18ICv2xRadioListenerD0Ev=so_stub_for_libv2x_radio
-Wl,--defsym=_ZN5telux4cv2x18ICv2xRadioListenerD1Ev=so_stub_for_libv2x_radio
-Wl,--defsym=_ZN5telux4cv2x18ICv2xRadioListenerD2Ev=so_stub_for_libv2x_radio
-Wl,--defsym=_ZN5telux4cv2x19ICv2xConfigListener15onConfigChangedERKNS0_15ConfigEventInfoE=so_stub_for_libv2x_radio
-Wl,--defsym=_ZN5telux4cv2x19ICv2xConfigListenerC1Ev=so_stub_for_libv2x_radio
-Wl,--defsym=_ZN5telux4cv2x19ICv2xConfigListenerC2Ev=so_stub_for_libv2x_radio
-Wl,--defsym=_ZN5telux4cv2x19ICv2xConfigListenerD0Ev=so_stub_for_libv2x_radio
-Wl,--defsym=_ZN5telux4cv2x19ICv2xConfigListenerD1Ev=so_stub_for_libv2x_radio
-Wl,--defsym=_ZN5telux4cv2x19ICv2xConfigListenerD2Ev=so_stub_for_libv2x_radio
-Wl,--defsym=_ZN5telux4cv2x21Cv2xRadioCapabilitiesaSERKS1_=so_stub_for_libv2x_radio
-Wl,--defsym=_ZN5telux4cv2x21Cv2xRadioCapabilitiesC1ERKS1_=so_stub_for_libv2x_radio
-Wl,--defsym=_ZN5telux4cv2x21Cv2xRadioCapabilitiesC1Ev=so_stub_for_libv2x_radio
-Wl,--defsym=_ZN5telux4cv2x21Cv2xRadioCapabilitiesC2ERKS1_=so_stub_for_libv2x_radio
-Wl,--defsym=_ZN5telux4cv2x21Cv2xRadioCapabilitiesC2Ev=so_stub_for_libv2x_radio
-Wl,--defsym=_ZN5telux4cv2x21Cv2xRadioCapabilitiesD1Ev=so_stub_for_libv2x_radio
-Wl,--defsym=_ZN5telux4cv2x21Cv2xRadioCapabilitiesD2Ev=so_stub_for_libv2x_radio
-Wl,--defsym=_ZN5telux6common22IServiceStatusListener21onServiceStatusChangeENS0_13ServiceStatusE=so_stub_for_libv2x_radio
-Wl,--defsym=_ZN5telux6common22IServiceStatusListenerC1Ev=so_stub_for_libv2x_radio
-Wl,--defsym=_ZN5telux6common22IServiceStatusListenerC2Ev=so_stub_for_libv2x_radio
-Wl,--defsym=_ZN5telux6common22IServiceStatusListenerD0Ev=so_stub_for_libv2x_radio
-Wl,--defsym=_ZN5telux6common22IServiceStatusListenerD1Ev=so_stub_for_libv2x_radio
-Wl,--defsym=_ZN5telux6common22IServiceStatusListenerD2Ev=so_stub_for_libv2x_radio
-Wl,--defsym=_ZN9__gnu_cxx13new_allocatorI12Cv2xListenerE7destroyIS1_EEvPT_=so_stub_for_libv2x_radio
-Wl,--defsym=_ZN9__gnu_cxx13new_allocatorI12Cv2xListenerE9constructIS1_JEEEvPT_DpOT0_=so_stub_for_libv2x_radio
-Wl,--defsym=_ZN9__gnu_cxx13new_allocatorI12Cv2xListenerEC1ERKS2_=so_stub_for_libv2x_radio
-Wl,--defsym=_ZN9__gnu_cxx13new_allocatorI12Cv2xListenerEC1Ev=so_stub_for_libv2x_radio
-Wl,--defsym=_ZN9__gnu_cxx13new_allocatorI12Cv2xListenerEC2ERKS2_=so_stub_for_libv2x_radio
-Wl,--defsym=_ZN9__gnu_cxx13new_allocatorI12Cv2xListenerEC2Ev=so_stub_for_libv2x_radio
-Wl,--defsym=_ZN9__gnu_cxx13new_allocatorI12Cv2xListenerED1Ev=so_stub_for_libv2x_radio
-Wl,--defsym=_ZN9__gnu_cxx13new_allocatorI12Cv2xListenerED2Ev=so_stub_for_libv2x_radio
-Wl,--defsym=_ZN9__gnu_cxx13new_allocatorI13RadioListenerE7destroyIS1_EEvPT_=so_stub_for_libv2x_radio
-Wl,--defsym=_ZN9__gnu_cxx13new_allocatorI13RadioListenerE9constructIS1_JEEEvPT_DpOT0_=so_stub_for_libv2x_radio
-Wl,--defsym=_ZN9__gnu_cxx13new_allocatorI13RadioListenerEC1ERKS2_=so_stub_for_libv2x_radio
-Wl,--defsym=_ZN9__gnu_cxx13new_allocatorI13RadioListenerEC1Ev=so_stub_for_libv2x_radio
-Wl,--defsym=_ZN9__gnu_cxx13new_allocatorI13RadioListenerEC2ERKS2_=so_stub_for_libv2x_radio
-Wl,--defsym=_ZN9__gnu_cxx13new_allocatorI13RadioListenerEC2Ev=so_stub_for_libv2x_radio
-Wl,--defsym=_ZN9__gnu_cxx13new_allocatorI13RadioListenerED1Ev=so_stub_for_libv2x_radio
-Wl,--defsym=_ZN9__gnu_cxx13new_allocatorI13RadioListenerED2Ev=so_stub_for_libv2x_radio
-Wl,--defsym=_ZN9__gnu_cxx13new_allocatorI14ConfigListenerE7destroyIS1_EEvPT_=so_stub_for_libv2x_radio
-Wl,--defsym=_ZN9__gnu_cxx13new_allocatorI14ConfigListenerE9constructIS1_JEEEvPT_DpOT0_=so_stub_for_libv2x_radio
-Wl,--defsym=_ZN9__gnu_cxx13new_allocatorI14ConfigListenerEC1ERKS2_=so_stub_for_libv2x_radio
-Wl,--defsym=_ZN9__gnu_cxx13new_allocatorI14ConfigListenerEC1Ev=so_stub_for_libv2x_radio
-Wl,--defsym=_ZN9__gnu_cxx13new_allocatorI14ConfigListenerEC2ERKS2_=so_stub_for_libv2x_radio
-Wl,--defsym=_ZN9__gnu_cxx13new_allocatorI14ConfigListenerEC2Ev=so_stub_for_libv2x_radio
-Wl,--defsym=_ZN9__gnu_cxx13new_allocatorI14ConfigListenerED1Ev=so_stub_for_libv2x_radio
-Wl,--defsym=_ZN9__gnu_cxx13new_allocatorI14ConfigListenerED2Ev=so_stub_for_libv2x_radio
-Wl,--defsym=_ZN9__gnu_cxx13new_allocatorIjE10deallocateEPjj=so_stub_for_libv2x_radio
-Wl,--defsym=_ZN9__gnu_cxx13new_allocatorIjE7destroyIjEEvPT_=so_stub_for_libv2x_radio
-Wl,--defsym=_ZN9__gnu_cxx13new_allocatorIjE8allocateEjPKv=so_stub_for_libv2x_radio
-Wl,--defsym=_ZN9__gnu_cxx13new_allocatorIjE9constructIjJRKjEEEvPT_DpOT0_=so_stub_for_libv2x_radio
-Wl,--defsym=_ZN9__gnu_cxx13new_allocatorIjEC1ERKS1_=so_stub_for_libv2x_radio
-Wl,--defsym=_ZN9__gnu_cxx13new_allocatorIjEC1Ev=so_stub_for_libv2x_radio
-Wl,--defsym=_ZN9__gnu_cxx13new_allocatorIjEC2ERKS1_=so_stub_for_libv2x_radio
-Wl,--defsym=_ZN9__gnu_cxx13new_allocatorIjEC2Ev=so_stub_for_libv2x_radio
-Wl,--defsym=_ZN9__gnu_cxx13new_allocatorIjED1Ev=so_stub_for_libv2x_radio
-Wl,--defsym=_ZN9__gnu_cxx13new_allocatorIjED2Ev=so_stub_for_libv2x_radio
-Wl,--defsym=_ZN9__gnu_cxx13new_allocatorIN5telux4cv2x12TxPoolIdInfoEE10deallocateEPS3_j=so_stub_for_libv2x_radio
-Wl,--defsym=_ZN9__gnu_cxx13new_allocatorIN5telux4cv2x12TxPoolIdInfoEE8allocateEjPKv=so_stub_for_libv2x_radio
-Wl,--defsym=_ZN9__gnu_cxx13new_allocatorIN5telux4cv2x12TxPoolIdInfoEEC1ERKS4_=so_stub_for_libv2x_radio
-Wl,--defsym=_ZN9__gnu_cxx13new_allocatorIN5telux4cv2x12TxPoolIdInfoEEC1Ev=so_stub_for_libv2x_radio
-Wl,--defsym=_ZN9__gnu_cxx13new_allocatorIN5telux4cv2x12TxPoolIdInfoEEC2ERKS4_=so_stub_for_libv2x_radio
-Wl,--defsym=_ZN9__gnu_cxx13new_allocatorIN5telux4cv2x12TxPoolIdInfoEEC2Ev=so_stub_for_libv2x_radio
-Wl,--defsym=_ZN9__gnu_cxx13new_allocatorIN5telux4cv2x12TxPoolIdInfoEED1Ev=so_stub_for_libv2x_radio
-Wl,--defsym=_ZN9__gnu_cxx13new_allocatorIN5telux4cv2x12TxPoolIdInfoEED2Ev=so_stub_for_libv2x_radio
-Wl,--defsym=_ZN9__gnu_cxx13new_allocatorIN5telux4cv2x13TrustedUEInfoEE10deallocateEPS3_j=so_stub_for_libv2x_radio
-Wl,--defsym=_ZN9__gnu_cxx13new_allocatorIN5telux4cv2x13TrustedUEInfoEE7destroyIS3_EEvPT_=so_stub_for_libv2x_radio
-Wl,--defsym=_ZN9__gnu_cxx13new_allocatorIN5telux4cv2x13TrustedUEInfoEE8allocateEjPKv=so_stub_for_libv2x_radio
-Wl,--defsym=_ZN9__gnu_cxx13new_allocatorIN5telux4cv2x13TrustedUEInfoEE9constructIS3_JRKS3_EEEvPT_DpOT0_=so_stub_for_libv2x_radio
-Wl,--defsym=_ZN9__gnu_cxx13new_allocatorIN5telux4cv2x13TrustedUEInfoEEC1Ev=so_stub_for_libv2x_radio
-Wl,--defsym=_ZN9__gnu_cxx13new_allocatorIN5telux4cv2x13TrustedUEInfoEEC2Ev=so_stub_for_libv2x_radio
-Wl,--defsym=_ZN9__gnu_cxx13new_allocatorIN5telux4cv2x13TrustedUEInfoEED1Ev=so_stub_for_libv2x_radio
-Wl,--defsym=_ZN9__gnu_cxx13new_allocatorIN5telux4cv2x13TrustedUEInfoEED2Ev=so_stub_for_libv2x_radio
-Wl,--defsym=_ZN9__gnu_cxx13new_allocatorIN5telux4cv2x14Cv2xPoolStatusEE10deallocateEPS3_j=so_stub_for_libv2x_radio
-Wl,--defsym=_ZN9__gnu_cxx13new_allocatorIN5telux4cv2x14Cv2xPoolStatusEE8allocateEjPKv=so_stub_for_libv2x_radio
-Wl,--defsym=_ZN9__gnu_cxx13new_allocatorIN5telux4cv2x14Cv2xPoolStatusEEC1ERKS4_=so_stub_for_libv2x_radio
-Wl,--defsym=_ZN9__gnu_cxx13new_allocatorIN5telux4cv2x14Cv2xPoolStatusEEC1Ev=so_stub_for_libv2x_radio
-Wl,--defsym=_ZN9__gnu_cxx13new_allocatorIN5telux4cv2x14Cv2xPoolStatusEEC2ERKS4_=so_stub_for_libv2x_radio
-Wl,--defsym=_ZN9__gnu_cxx13new_allocatorIN5telux4cv2x14Cv2xPoolStatusEEC2Ev=so_stub_for_libv2x_radio
-Wl,--defsym=_ZN9__gnu_cxx13new_allocatorIN5telux4cv2x14Cv2xPoolStatusEED1Ev=so_stub_for_libv2x_radio
-Wl,--defsym=_ZN9__gnu_cxx13new_allocatorIN5telux4cv2x14Cv2xPoolStatusEED2Ev=so_stub_for_libv2x_radio
-Wl,--defsym=_ZN9__gnu_cxx13new_allocatorINSt13__future_base13_State_baseV2EE7destroyIS2_EEvPT_=so_stub_for_libv2x_radio
-Wl,--defsym=_ZN9__gnu_cxx13new_allocatorINSt13__future_base13_State_baseV2EE9constructIS2_JEEEvPT_DpOT0_=so_stub_for_libv2x_radio
-Wl,--defsym=_ZN9__gnu_cxx13new_allocatorINSt13__future_base13_State_baseV2EEC1ERKS3_=so_stub_for_libv2x_radio
-Wl,--defsym=_ZN9__gnu_cxx13new_allocatorINSt13__future_base13_State_baseV2EEC1Ev=so_stub_for_libv2x_radio
-Wl,--defsym=_ZN9__gnu_cxx13new_allocatorINSt13__future_base13_State_baseV2EEC2ERKS3_=so_stub_for_libv2x_radio
-Wl,--defsym=_ZN9__gnu_cxx13new_allocatorINSt13__future_base13_State_baseV2EEC2Ev=so_stub_for_libv2x_radio
-Wl,--defsym=_ZN9__gnu_cxx13new_allocatorINSt13__future_base13_State_baseV2EED1Ev=so_stub_for_libv2x_radio
-Wl,--defsym=_ZN9__gnu_cxx13new_allocatorINSt13__future_base13_State_baseV2EED2Ev=so_stub_for_libv2x_radio
-Wl,--defsym=_ZN9__gnu_cxx13new_allocatorISt13_Rb_tree_nodeISt4pairIK11v2x_event_tNSt7__cxx1112basic_stringIcSt11char_traitsIcESaIcEEEEEE10deallocateEPSC_j=so_stub_for_libv2x_radio
-Wl,--defsym=_ZN9__gnu_cxx13new_allocatorISt13_Rb_tree_nodeISt4pairIK11v2x_event_tNSt7__cxx1112basic_stringIcSt11char_traitsIcESaIcEEEEEE7destroyISB_EEvPT_=so_stub_for_libv2x_radio
-Wl,--defsym=_ZN9__gnu_cxx13new_allocatorISt13_Rb_tree_nodeISt4pairIK11v2x_event_tNSt7__cxx1112basic_stringIcSt11char_traitsIcESaIcEEEEEE8allocateEjPKv=so_stub_for_libv2x_radio
-Wl,--defsym=_ZN9__gnu_cxx13new_allocatorISt13_Rb_tree_nodeISt4pairIK11v2x_event_tNSt7__cxx1112basic_stringIcSt11char_traitsIcESaIcEEEEEE9constructISB_JRKSB_EEEvPT_DpOT0_=so_stub_for_libv2x_radio
-Wl,--defsym=_ZN9__gnu_cxx13new_allocatorISt13_Rb_tree_nodeISt4pairIK11v2x_event_tNSt7__cxx1112basic_stringIcSt11char_traitsIcESaIcEEEEEE9constructISB_JRKSt21piecewise_construct_tSt5tupleIJRS4_EESI_IJEEEEEvPT_DpOT0_=so_stub_for_libv2x_radio
-Wl,--defsym=_ZN9__gnu_cxx13new_allocatorISt13_Rb_tree_nodeISt4pairIK11v2x_event_tNSt7__cxx1112basic_stringIcSt11char_traitsIcESaIcEEEEEEC1ERKSD_=so_stub_for_libv2x_radio
-Wl,--defsym=_ZN9__gnu_cxx13new_allocatorISt13_Rb_tree_nodeISt4pairIK11v2x_event_tNSt7__cxx1112basic_stringIcSt11char_traitsIcESaIcEEEEEEC1Ev=so_stub_for_libv2x_radio
-Wl,--defsym=_ZN9__gnu_cxx13new_allocatorISt13_Rb_tree_nodeISt4pairIK11v2x_event_tNSt7__cxx1112basic_stringIcSt11char_traitsIcESaIcEEEEEEC2ERKSD_=so_stub_for_libv2x_radio
-Wl,--defsym=_ZN9__gnu_cxx13new_allocatorISt13_Rb_tree_nodeISt4pairIK11v2x_event_tNSt7__cxx1112basic_stringIcSt11char_traitsIcESaIcEEEEEEC2Ev=so_stub_for_libv2x_radio
-Wl,--defsym=_ZN9__gnu_cxx13new_allocatorISt13_Rb_tree_nodeISt4pairIK11v2x_event_tNSt7__cxx1112basic_stringIcSt11char_traitsIcESaIcEEEEEED1Ev=so_stub_for_libv2x_radio
-Wl,--defsym=_ZN9__gnu_cxx13new_allocatorISt13_Rb_tree_nodeISt4pairIK11v2x_event_tNSt7__cxx1112basic_stringIcSt11char_traitsIcESaIcEEEEEED2Ev=so_stub_for_libv2x_radio
-Wl,--defsym=_ZN9__gnu_cxx13new_allocatorISt13_Rb_tree_nodeISt4pairIKiSt10shared_ptrIN5telux4cv2x11ICv2xTxFlowEEEEE10deallocateEPSA_j=so_stub_for_libv2x_radio
-Wl,--defsym=_ZN9__gnu_cxx13new_allocatorISt13_Rb_tree_nodeISt4pairIKiSt10shared_ptrIN5telux4cv2x11ICv2xTxFlowEEEEE7destroyIS9_EEvPT_=so_stub_for_libv2x_radio
-Wl,--defsym=_ZN9__gnu_cxx13new_allocatorISt13_Rb_tree_nodeISt4pairIKiSt10shared_ptrIN5telux4cv2x11ICv2xTxFlowEEEEE8allocateEjPKv=so_stub_for_libv2x_radio
-Wl,--defsym=_ZN9__gnu_cxx13new_allocatorISt13_Rb_tree_nodeISt4pairIKiSt10shared_ptrIN5telux4cv2x11ICv2xTxFlowEEEEE9constructIS9_JRKSt21piecewise_construct_tSt5tupleIJRS3_EESG_IJEEEEEvPT_DpOT0_=so_stub_for_libv2x_radio
-Wl,--defsym=_ZN9__gnu_cxx13new_allocatorISt13_Rb_tree_nodeISt4pairIKiSt10shared_ptrIN5telux4cv2x11ICv2xTxFlowEEEEEC1Ev=so_stub_for_libv2x_radio
-Wl,--defsym=_ZN9__gnu_cxx13new_allocatorISt13_Rb_tree_nodeISt4pairIKiSt10shared_ptrIN5telux4cv2x11ICv2xTxFlowEEEEEC2Ev=so_stub_for_libv2x_radio
-Wl,--defsym=_ZN9__gnu_cxx13new_allocatorISt13_Rb_tree_nodeISt4pairIKiSt10shared_ptrIN5telux4cv2x11ICv2xTxFlowEEEEED1Ev=so_stub_for_libv2x_radio
-Wl,--defsym=_ZN9__gnu_cxx13new_allocatorISt13_Rb_tree_nodeISt4pairIKiSt10shared_ptrIN5telux4cv2x11ICv2xTxFlowEEEEED2Ev=so_stub_for_libv2x_radio
-Wl,--defsym=_ZN9__gnu_cxx13new_allocatorISt13_Rb_tree_nodeISt4pairIKiSt10shared_ptrIN5telux4cv2x15ICv2xTxRxSocketEEEEE10deallocateEPSA_j=so_stub_for_libv2x_radio
-Wl,--defsym=_ZN9__gnu_cxx13new_allocatorISt13_Rb_tree_nodeISt4pairIKiSt10shared_ptrIN5telux4cv2x15ICv2xTxRxSocketEEEEE7destroyIS9_EEvPT_=so_stub_for_libv2x_radio
-Wl,--defsym=_ZN9__gnu_cxx13new_allocatorISt13_Rb_tree_nodeISt4pairIKiSt10shared_ptrIN5telux4cv2x15ICv2xTxRxSocketEEEEE8allocateEjPKv=so_stub_for_libv2x_radio
-Wl,--defsym=_ZN9__gnu_cxx13new_allocatorISt13_Rb_tree_nodeISt4pairIKiSt10shared_ptrIN5telux4cv2x15ICv2xTxRxSocketEEEEE9constructIS9_JRKSt21piecewise_construct_tSt5tupleIJRS3_EESG_IJEEEEEvPT_DpOT0_=so_stub_for_libv2x_radio
-Wl,--defsym=_ZN9__gnu_cxx13new_allocatorISt13_Rb_tree_nodeISt4pairIKiSt10shared_ptrIN5telux4cv2x15ICv2xTxRxSocketEEEEEC1Ev=so_stub_for_libv2x_radio
-Wl,--defsym=_ZN9__gnu_cxx13new_allocatorISt13_Rb_tree_nodeISt4pairIKiSt10shared_ptrIN5telux4cv2x15ICv2xTxRxSocketEEEEEC2Ev=so_stub_for_libv2x_radio
-Wl,--defsym=_ZN9__gnu_cxx13new_allocatorISt13_Rb_tree_nodeISt4pairIKiSt10shared_ptrIN5telux4cv2x15ICv2xTxRxSocketEEEEED1Ev=so_stub_for_libv2x_radio
-Wl,--defsym=_ZN9__gnu_cxx13new_allocatorISt13_Rb_tree_nodeISt4pairIKiSt10shared_ptrIN5telux4cv2x15ICv2xTxRxSocketEEEEED2Ev=so_stub_for_libv2x_radio
-Wl,--defsym=_ZN9__gnu_cxx13new_allocatorISt13_Rb_tree_nodeISt4pairIKiSt10shared_ptrIN5telux4cv2x19ICv2xRxSubscriptionEEEEE10deallocateEPSA_j=so_stub_for_libv2x_radio
-Wl,--defsym=_ZN9__gnu_cxx13new_allocatorISt13_Rb_tree_nodeISt4pairIKiSt10shared_ptrIN5telux4cv2x19ICv2xRxSubscriptionEEEEE7destroyIS9_EEvPT_=so_stub_for_libv2x_radio
-Wl,--defsym=_ZN9__gnu_cxx13new_allocatorISt13_Rb_tree_nodeISt4pairIKiSt10shared_ptrIN5telux4cv2x19ICv2xRxSubscriptionEEEEE8allocateEjPKv=so_stub_for_libv2x_radio
-Wl,--defsym=_ZN9__gnu_cxx13new_allocatorISt13_Rb_tree_nodeISt4pairIKiSt10shared_ptrIN5telux4cv2x19ICv2xRxSubscriptionEEEEE9constructIS9_JRKSt21piecewise_construct_tSt5tupleIJRS3_EESG_IJEEEEEvPT_DpOT0_=so_stub_for_libv2x_radio
-Wl,--defsym=_ZN9__gnu_cxx13new_allocatorISt13_Rb_tree_nodeISt4pairIKiSt10shared_ptrIN5telux4cv2x19ICv2xRxSubscriptionEEEEEC1Ev=so_stub_for_libv2x_radio
-Wl,--defsym=_ZN9__gnu_cxx13new_allocatorISt13_Rb_tree_nodeISt4pairIKiSt10shared_ptrIN5telux4cv2x19ICv2xRxSubscriptionEEEEEC2Ev=so_stub_for_libv2x_radio
-Wl,--defsym=_ZN9__gnu_cxx13new_allocatorISt13_Rb_tree_nodeISt4pairIKiSt10shared_ptrIN5telux4cv2x19ICv2xRxSubscriptionEEEEED1Ev=so_stub_for_libv2x_radio
-Wl,--defsym=_ZN9__gnu_cxx13new_allocatorISt13_Rb_tree_nodeISt4pairIKiSt10shared_ptrIN5telux4cv2x19ICv2xRxSubscriptionEEEEED2Ev=so_stub_for_libv2x_radio
-Wl,--defsym=_ZN9__gnu_cxx13new_allocatorISt13_Rb_tree_nodeISt4pairIKjP31v2x_per_sps_reservation_calls_tEEE10deallocateEPS7_j=so_stub_for_libv2x_radio
-Wl,--defsym=_ZN9__gnu_cxx13new_allocatorISt13_Rb_tree_nodeISt4pairIKjP31v2x_per_sps_reservation_calls_tEEE7destroyIS6_EEvPT_=so_stub_for_libv2x_radio
-Wl,--defsym=_ZN9__gnu_cxx13new_allocatorISt13_Rb_tree_nodeISt4pairIKjP31v2x_per_sps_reservation_calls_tEEE8allocateEjPKv=so_stub_for_libv2x_radio
-Wl,--defsym=_ZN9__gnu_cxx13new_allocatorISt13_Rb_tree_nodeISt4pairIKjP31v2x_per_sps_reservation_calls_tEEE9constructIS6_JRKSt21piecewise_construct_tSt5tupleIJRS3_EESD_IJEEEEEvPT_DpOT0_=so_stub_for_libv2x_radio
-Wl,--defsym=_ZN9__gnu_cxx13new_allocatorISt13_Rb_tree_nodeISt4pairIKjP31v2x_per_sps_reservation_calls_tEEEC1Ev=so_stub_for_libv2x_radio
-Wl,--defsym=_ZN9__gnu_cxx13new_allocatorISt13_Rb_tree_nodeISt4pairIKjP31v2x_per_sps_reservation_calls_tEEEC2Ev=so_stub_for_libv2x_radio
-Wl,--defsym=_ZN9__gnu_cxx13new_allocatorISt13_Rb_tree_nodeISt4pairIKjP31v2x_per_sps_reservation_calls_tEEED1Ev=so_stub_for_libv2x_radio
-Wl,--defsym=_ZN9__gnu_cxx13new_allocatorISt13_Rb_tree_nodeISt4pairIKjP31v2x_per_sps_reservation_calls_tEEED2Ev=so_stub_for_libv2x_radio
-Wl,--defsym=_ZN9__gnu_cxx13new_allocatorISt13_Rb_tree_nodeISt4pairIKN5telux4cv2x14Cv2xStatusTypeENSt7__cxx1112basic_stringIcSt11char_traitsIcESaIcEEEEEE10deallocateEPSE_j=so_stub_for_libv2x_radio
-Wl,--defsym=_ZN9__gnu_cxx13new_allocatorISt13_Rb_tree_nodeISt4pairIKN5telux4cv2x14Cv2xStatusTypeENSt7__cxx1112basic_stringIcSt11char_traitsIcESaIcEEEEEE7destroyISD_EEvPT_=so_stub_for_libv2x_radio
-Wl,--defsym=_ZN9__gnu_cxx13new_allocatorISt13_Rb_tree_nodeISt4pairIKN5telux4cv2x14Cv2xStatusTypeENSt7__cxx1112basic_stringIcSt11char_traitsIcESaIcEEEEEE8allocateEjPKv=so_stub_for_libv2x_radio
-Wl,--defsym=_ZN9__gnu_cxx13new_allocatorISt13_Rb_tree_nodeISt4pairIKN5telux4cv2x14Cv2xStatusTypeENSt7__cxx1112basic_stringIcSt11char_traitsIcESaIcEEEEEE9constructISD_JRKSD_EEEvPT_DpOT0_=so_stub_for_libv2x_radio
-Wl,--defsym=_ZN9__gnu_cxx13new_allocatorISt13_Rb_tree_nodeISt4pairIKN5telux4cv2x14Cv2xStatusTypeENSt7__cxx1112basic_stringIcSt11char_traitsIcESaIcEEEEEE9constructISD_JRKSt21piecewise_construct_tSt5tupleIJRS6_EESK_IJEEEEEvPT_DpOT0_=so_stub_for_libv2x_radio
-Wl,--defsym=_ZN9__gnu_cxx13new_allocatorISt13_Rb_tree_nodeISt4pairIKN5telux4cv2x14Cv2xStatusTypeENSt7__cxx1112basic_stringIcSt11char_traitsIcESaIcEEEEEEC1ERKSF_=so_stub_for_libv2x_radio
-Wl,--defsym=_ZN9__gnu_cxx13new_allocatorISt13_Rb_tree_nodeISt4pairIKN5telux4cv2x14Cv2xStatusTypeENSt7__cxx1112basic_stringIcSt11char_traitsIcESaIcEEEEEEC1Ev=so_stub_for_libv2x_radio
-Wl,--defsym=_ZN9__gnu_cxx13new_allocatorISt13_Rb_tree_nodeISt4pairIKN5telux4cv2x14Cv2xStatusTypeENSt7__cxx1112basic_stringIcSt11char_traitsIcESaIcEEEEEEC2ERKSF_=so_stub_for_libv2x_radio
-Wl,--defsym=_ZN9__gnu_cxx13new_allocatorISt13_Rb_tree_nodeISt4pairIKN5telux4cv2x14Cv2xStatusTypeENSt7__cxx1112basic_stringIcSt11char_traitsIcESaIcEEEEEEC2Ev=so_stub_for_libv2x_radio
-Wl,--defsym=_ZN9__gnu_cxx13new_allocatorISt13_Rb_tree_nodeISt4pairIKN5telux4cv2x14Cv2xStatusTypeENSt7__cxx1112basic_stringIcSt11char_traitsIcESaIcEEEEEED1Ev=so_stub_for_libv2x_radio
-Wl,--defsym=_ZN9__gnu_cxx13new_allocatorISt13_Rb_tree_nodeISt4pairIKN5telux4cv2x14Cv2xStatusTypeENSt7__cxx1112basic_stringIcSt11char_traitsIcESaIcEEEEEED2Ev=so_stub_for_libv2x_radio
-Wl,--defsym=_ZN9__gnu_cxx13new_allocatorISt23_Sp_counted_ptr_inplaceI12Cv2xListenerSaIS2_ELNS_12_Lock_policyE2EEE10deallocateEPS5_j=so_stub_for_libv2x_radio
-Wl,--defsym=_ZN9__gnu_cxx13new_allocatorISt23_Sp_counted_ptr_inplaceI12Cv2xListenerSaIS2_ELNS_12_Lock_policyE2EEE8allocateEjPKv=so_stub_for_libv2x_radio
-Wl,--defsym=_ZN9__gnu_cxx13new_allocatorISt23_Sp_counted_ptr_inplaceI12Cv2xListenerSaIS2_ELNS_12_Lock_policyE2EEEC1Ev=so_stub_for_libv2x_radio
-Wl,--defsym=_ZN9__gnu_cxx13new_allocatorISt23_Sp_counted_ptr_inplaceI12Cv2xListenerSaIS2_ELNS_12_Lock_policyE2EEEC2Ev=so_stub_for_libv2x_radio
-Wl,--defsym=_ZN9__gnu_cxx13new_allocatorISt23_Sp_counted_ptr_inplaceI12Cv2xListenerSaIS2_ELNS_12_Lock_policyE2EEED1Ev=so_stub_for_libv2x_radio
-Wl,--defsym=_ZN9__gnu_cxx13new_allocatorISt23_Sp_counted_ptr_inplaceI12Cv2xListenerSaIS2_ELNS_12_Lock_policyE2EEED2Ev=so_stub_for_libv2x_radio
-Wl,--defsym=_ZN9__gnu_cxx13new_allocatorISt23_Sp_counted_ptr_inplaceI13RadioListenerSaIS2_ELNS_12_Lock_policyE2EEE10deallocateEPS5_j=so_stub_for_libv2x_radio
-Wl,--defsym=_ZN9__gnu_cxx13new_allocatorISt23_Sp_counted_ptr_inplaceI13RadioListenerSaIS2_ELNS_12_Lock_policyE2EEE8allocateEjPKv=so_stub_for_libv2x_radio
-Wl,--defsym=_ZN9__gnu_cxx13new_allocatorISt23_Sp_counted_ptr_inplaceI13RadioListenerSaIS2_ELNS_12_Lock_policyE2EEEC1Ev=so_stub_for_libv2x_radio
-Wl,--defsym=_ZN9__gnu_cxx13new_allocatorISt23_Sp_counted_ptr_inplaceI13RadioListenerSaIS2_ELNS_12_Lock_policyE2EEEC2Ev=so_stub_for_libv2x_radio
-Wl,--defsym=_ZN9__gnu_cxx13new_allocatorISt23_Sp_counted_ptr_inplaceI13RadioListenerSaIS2_ELNS_12_Lock_policyE2EEED1Ev=so_stub_for_libv2x_radio
-Wl,--defsym=_ZN9__gnu_cxx13new_allocatorISt23_Sp_counted_ptr_inplaceI13RadioListenerSaIS2_ELNS_12_Lock_policyE2EEED2Ev=so_stub_for_libv2x_radio
-Wl,--defsym=_ZN9__gnu_cxx13new_allocatorISt23_Sp_counted_ptr_inplaceI14ConfigListenerSaIS2_ELNS_12_Lock_policyE2EEE10deallocateEPS5_j=so_stub_for_libv2x_radio
-Wl,--defsym=_ZN9__gnu_cxx13new_allocatorISt23_Sp_counted_ptr_inplaceI14ConfigListenerSaIS2_ELNS_12_Lock_policyE2EEE8allocateEjPKv=so_stub_for_libv2x_radio
-Wl,--defsym=_ZN9__gnu_cxx13new_allocatorISt23_Sp_counted_ptr_inplaceI14ConfigListenerSaIS2_ELNS_12_Lock_policyE2EEEC1Ev=so_stub_for_libv2x_radio
-Wl,--defsym=_ZN9__gnu_cxx13new_allocatorISt23_Sp_counted_ptr_inplaceI14ConfigListenerSaIS2_ELNS_12_Lock_policyE2EEEC2Ev=so_stub_for_libv2x_radio
-Wl,--defsym=_ZN9__gnu_cxx13new_allocatorISt23_Sp_counted_ptr_inplaceI14ConfigListenerSaIS2_ELNS_12_Lock_policyE2EEED1Ev=so_stub_for_libv2x_radio
-Wl,--defsym=_ZN9__gnu_cxx13new_allocatorISt23_Sp_counted_ptr_inplaceI14ConfigListenerSaIS2_ELNS_12_Lock_policyE2EEED2Ev=so_stub_for_libv2x_radio
-Wl,--defsym=_ZN9__gnu_cxx13new_allocatorISt23_Sp_counted_ptr_inplaceINSt13__future_base13_State_baseV2ESaIS3_ELNS_12_Lock_policyE2EEE10deallocateEPS6_j=so_stub_for_libv2x_radio
-Wl,--defsym=_ZN9__gnu_cxx13new_allocatorISt23_Sp_counted_ptr_inplaceINSt13__future_base13_State_baseV2ESaIS3_ELNS_12_Lock_policyE2EEE8allocateEjPKv=so_stub_for_libv2x_radio
-Wl,--defsym=_ZN9__gnu_cxx13new_allocatorISt23_Sp_counted_ptr_inplaceINSt13__future_base13_State_baseV2ESaIS3_ELNS_12_Lock_policyE2EEEC1Ev=so_stub_for_libv2x_radio
-Wl,--defsym=_ZN9__gnu_cxx13new_allocatorISt23_Sp_counted_ptr_inplaceINSt13__future_base13_State_baseV2ESaIS3_ELNS_12_Lock_policyE2EEEC2Ev=so_stub_for_libv2x_radio
-Wl,--defsym=_ZN9__gnu_cxx13new_allocatorISt23_Sp_counted_ptr_inplaceINSt13__future_base13_State_baseV2ESaIS3_ELNS_12_Lock_policyE2EEED1Ev=so_stub_for_libv2x_radio
-Wl,--defsym=_ZN9__gnu_cxx13new_allocatorISt23_Sp_counted_ptr_inplaceINSt13__future_base13_State_baseV2ESaIS3_ELNS_12_Lock_policyE2EEED2Ev=so_stub_for_libv2x_radio
-Wl,--defsym=_ZN9__gnu_cxx13new_allocatorISt23_Sp_counted_ptr_inplaceISt6vectorIjSaIjEESaIS4_ELNS_12_Lock_policyE2EEE10deallocateEPS7_j=so_stub_for_libv2x_radio
-Wl,--defsym=_ZN9__gnu_cxx13new_allocatorISt23_Sp_counted_ptr_inplaceISt6vectorIjSaIjEESaIS4_ELNS_12_Lock_policyE2EEE8allocateEjPKv=so_stub_for_libv2x_radio
-Wl,--defsym=_ZN9__gnu_cxx13new_allocatorISt23_Sp_counted_ptr_inplaceISt6vectorIjSaIjEESaIS4_ELNS_12_Lock_policyE2EEEC1Ev=so_stub_for_libv2x_radio
-Wl,--defsym=_ZN9__gnu_cxx13new_allocatorISt23_Sp_counted_ptr_inplaceISt6vectorIjSaIjEESaIS4_ELNS_12_Lock_policyE2EEEC2Ev=so_stub_for_libv2x_radio
-Wl,--defsym=_ZN9__gnu_cxx13new_allocatorISt23_Sp_counted_ptr_inplaceISt6vectorIjSaIjEESaIS4_ELNS_12_Lock_policyE2EEED1Ev=so_stub_for_libv2x_radio
-Wl,--defsym=_ZN9__gnu_cxx13new_allocatorISt23_Sp_counted_ptr_inplaceISt6vectorIjSaIjEESaIS4_ELNS_12_Lock_policyE2EEED2Ev=so_stub_for_libv2x_radio
-Wl,--defsym=_ZN9__gnu_cxx13new_allocatorISt4pairIK11v2x_event_tNSt7__cxx1112basic_stringIcSt11char_traitsIcESaIcEEEEEC1ERKSB_=so_stub_for_libv2x_radio
-Wl,--defsym=_ZN9__gnu_cxx13new_allocatorISt4pairIK11v2x_event_tNSt7__cxx1112basic_stringIcSt11char_traitsIcESaIcEEEEEC1Ev=so_stub_for_libv2x_radio
-Wl,--defsym=_ZN9__gnu_cxx13new_allocatorISt4pairIK11v2x_event_tNSt7__cxx1112basic_stringIcSt11char_traitsIcESaIcEEEEEC2ERKSB_=so_stub_for_libv2x_radio
-Wl,--defsym=_ZN9__gnu_cxx13new_allocatorISt4pairIK11v2x_event_tNSt7__cxx1112basic_stringIcSt11char_traitsIcESaIcEEEEEC2Ev=so_stub_for_libv2x_radio
-Wl,--defsym=_ZN9__gnu_cxx13new_allocatorISt4pairIK11v2x_event_tNSt7__cxx1112basic_stringIcSt11char_traitsIcESaIcEEEEED1Ev=so_stub_for_libv2x_radio
-Wl,--defsym=_ZN9__gnu_cxx13new_allocatorISt4pairIK11v2x_event_tNSt7__cxx1112basic_stringIcSt11char_traitsIcESaIcEEEEED2Ev=so_stub_for_libv2x_radio
-Wl,--defsym=_ZN9__gnu_cxx13new_allocatorISt4pairIKN5telux4cv2x14Cv2xStatusTypeENSt7__cxx1112basic_stringIcSt11char_traitsIcESaIcEEEEEC1ERKSD_=so_stub_for_libv2x_radio
-Wl,--defsym=_ZN9__gnu_cxx13new_allocatorISt4pairIKN5telux4cv2x14Cv2xStatusTypeENSt7__cxx1112basic_stringIcSt11char_traitsIcESaIcEEEEEC1Ev=so_stub_for_libv2x_radio
-Wl,--defsym=_ZN9__gnu_cxx13new_allocatorISt4pairIKN5telux4cv2x14Cv2xStatusTypeENSt7__cxx1112basic_stringIcSt11char_traitsIcESaIcEEEEEC2ERKSD_=so_stub_for_libv2x_radio
-Wl,--defsym=_ZN9__gnu_cxx13new_allocatorISt4pairIKN5telux4cv2x14Cv2xStatusTypeENSt7__cxx1112basic_stringIcSt11char_traitsIcESaIcEEEEEC2Ev=so_stub_for_libv2x_radio
-Wl,--defsym=_ZN9__gnu_cxx13new_allocatorISt4pairIKN5telux4cv2x14Cv2xStatusTypeENSt7__cxx1112basic_stringIcSt11char_traitsIcESaIcEEEEED1Ev=so_stub_for_libv2x_radio
-Wl,--defsym=_ZN9__gnu_cxx13new_allocatorISt4pairIKN5telux4cv2x14Cv2xStatusTypeENSt7__cxx1112basic_stringIcSt11char_traitsIcESaIcEEEEED2Ev=so_stub_for_libv2x_radio
-Wl,--defsym=_ZN9__gnu_cxx13new_allocatorISt6vectorIjSaIjEEE7destroyIS3_EEvPT_=so_stub_for_libv2x_radio
-Wl,--defsym=_ZN9__gnu_cxx13new_allocatorISt6vectorIjSaIjEEE9constructIS3_JRS3_EEEvPT_DpOT0_=so_stub_for_libv2x_radio
-Wl,--defsym=_ZN9__gnu_cxx13new_allocatorISt6vectorIjSaIjEEEC1ERKS4_=so_stub_for_libv2x_radio
-Wl,--defsym=_ZN9__gnu_cxx13new_allocatorISt6vectorIjSaIjEEEC1Ev=so_stub_for_libv2x_radio
-Wl,--defsym=_ZN9__gnu_cxx13new_allocatorISt6vectorIjSaIjEEEC2ERKS4_=so_stub_for_libv2x_radio
-Wl,--defsym=_ZN9__gnu_cxx13new_allocatorISt6vectorIjSaIjEEEC2Ev=so_stub_for_libv2x_radio
-Wl,--defsym=_ZN9__gnu_cxx13new_allocatorISt6vectorIjSaIjEEED1Ev=so_stub_for_libv2x_radio
-Wl,--defsym=_ZN9__gnu_cxx13new_allocatorISt6vectorIjSaIjEEED2Ev=so_stub_for_libv2x_radio
-Wl,--defsym=_ZN9__gnu_cxx13new_allocatorIyE10deallocateEPyj=so_stub_for_libv2x_radio
-Wl,--defsym=_ZN9__gnu_cxx13new_allocatorIyE8allocateEjPKv=so_stub_for_libv2x_radio
-Wl,--defsym=_ZN9__gnu_cxx13new_allocatorIyEC1ERKS1_=so_stub_for_libv2x_radio
-Wl,--defsym=_ZN9__gnu_cxx13new_allocatorIyEC1Ev=so_stub_for_libv2x_radio
-Wl,--defsym=_ZN9__gnu_cxx13new_allocatorIyEC2ERKS1_=so_stub_for_libv2x_radio
-Wl,--defsym=_ZN9__gnu_cxx13new_allocatorIyEC2Ev=so_stub_for_libv2x_radio
-Wl,--defsym=_ZN9__gnu_cxx13new_allocatorIyED1Ev=so_stub_for_libv2x_radio
-Wl,--defsym=_ZN9__gnu_cxx13new_allocatorIyED2Ev=so_stub_for_libv2x_radio
-Wl,--defsym=_ZN9__gnu_cxx14__alloc_traitsISaIjEjE17_S_select_on_copyERKS1_=so_stub_for_libv2x_radio
-Wl,--defsym=_ZN9__gnu_cxx14__alloc_traitsISaIN5telux4cv2x12TxPoolIdInfoEES3_E15_S_always_equalEv=so_stub_for_libv2x_radio
-Wl,--defsym=_ZN9__gnu_cxx14__alloc_traitsISaIN5telux4cv2x12TxPoolIdInfoEES3_E17_S_select_on_copyERKS4_=so_stub_for_libv2x_radio
-Wl,--defsym=_ZN9__gnu_cxx14__alloc_traitsISaIN5telux4cv2x12TxPoolIdInfoEES3_E27_S_propagate_on_copy_assignEv=so_stub_for_libv2x_radio
-Wl,--defsym=_ZN9__gnu_cxx14__alloc_traitsISaIN5telux4cv2x14Cv2xPoolStatusEES3_E15_S_always_equalEv=so_stub_for_libv2x_radio
-Wl,--defsym=_ZN9__gnu_cxx14__alloc_traitsISaIN5telux4cv2x14Cv2xPoolStatusEES3_E27_S_propagate_on_copy_assignEv=so_stub_for_libv2x_radio
-Wl,--defsym=_ZN9__gnu_cxx14__alloc_traitsISaIyEyE15_S_always_equalEv=so_stub_for_libv2x_radio
-Wl,--defsym=_ZN9__gnu_cxx14__alloc_traitsISaIyEyE17_S_select_on_copyERKS1_=so_stub_for_libv2x_radio
-Wl,--defsym=_ZN9__gnu_cxx14__alloc_traitsISaIyEyE27_S_propagate_on_copy_assignEv=so_stub_for_libv2x_radio
-Wl,--defsym=_ZN9__gnu_cxx16__aligned_bufferI12Cv2xListenerE6_M_ptrEv=so_stub_for_libv2x_radio
-Wl,--defsym=_ZN9__gnu_cxx16__aligned_bufferI12Cv2xListenerE7_M_addrEv=so_stub_for_libv2x_radio
-Wl,--defsym=_ZN9__gnu_cxx16__aligned_bufferI13RadioListenerE6_M_ptrEv=so_stub_for_libv2x_radio
-Wl,--defsym=_ZN9__gnu_cxx16__aligned_bufferI13RadioListenerE7_M_addrEv=so_stub_for_libv2x_radio
-Wl,--defsym=_ZN9__gnu_cxx16__aligned_bufferI14ConfigListenerE6_M_ptrEv=so_stub_for_libv2x_radio
-Wl,--defsym=_ZN9__gnu_cxx16__aligned_bufferI14ConfigListenerE7_M_addrEv=so_stub_for_libv2x_radio
-Wl,--defsym=_ZN9__gnu_cxx16__aligned_bufferI21_v2x_status_enum_typeE6_M_ptrEv=so_stub_for_libv2x_radio
-Wl,--defsym=_ZN9__gnu_cxx16__aligned_bufferI21_v2x_status_enum_typeE7_M_addrEv=so_stub_for_libv2x_radio
-Wl,--defsym=_ZN9__gnu_cxx16__aligned_bufferIbE6_M_ptrEv=so_stub_for_libv2x_radio
-Wl,--defsym=_ZN9__gnu_cxx16__aligned_bufferIbE7_M_addrEv=so_stub_for_libv2x_radio
-Wl,--defsym=_ZN9__gnu_cxx16__aligned_bufferIiE6_M_ptrEv=so_stub_for_libv2x_radio
-Wl,--defsym=_ZN9__gnu_cxx16__aligned_bufferIiE7_M_addrEv=so_stub_for_libv2x_radio
-Wl,--defsym=_ZN9__gnu_cxx16__aligned_bufferIN5telux6common6StatusEE6_M_ptrEv=so_stub_for_libv2x_radio
-Wl,--defsym=_ZN9__gnu_cxx16__aligned_bufferIN5telux6common6StatusEE7_M_addrEv=so_stub_for_libv2x_radio
-Wl,--defsym=_ZN9__gnu_cxx16__aligned_bufferIN5telux6common9ErrorCodeEE6_M_ptrEv=so_stub_for_libv2x_radio
-Wl,--defsym=_ZN9__gnu_cxx16__aligned_bufferIN5telux6common9ErrorCodeEE7_M_addrEv=so_stub_for_libv2x_radio
-Wl,--defsym=_ZN9__gnu_cxx16__aligned_bufferINSt13__future_base13_State_baseV2EE6_M_ptrEv=so_stub_for_libv2x_radio
-Wl,--defsym=_ZN9__gnu_cxx16__aligned_bufferINSt13__future_base13_State_baseV2EE7_M_addrEv=so_stub_for_libv2x_radio
-Wl,--defsym=_ZN9__gnu_cxx16__aligned_bufferISt4pairIN5telux6common9ErrorCodeES4_EE6_M_ptrEv=so_stub_for_libv2x_radio
-Wl,--defsym=_ZN9__gnu_cxx16__aligned_bufferISt4pairIN5telux6common9ErrorCodeES4_EE7_M_addrEv=so_stub_for_libv2x_radio
-Wl,--defsym=_ZN9__gnu_cxx16__aligned_bufferISt6vectorIjSaIjEEE6_M_ptrEv=so_stub_for_libv2x_radio
-Wl,--defsym=_ZN9__gnu_cxx16__aligned_bufferISt6vectorIjSaIjEEE7_M_addrEv=so_stub_for_libv2x_radio
-Wl,--defsym=_ZN9__gnu_cxx16__aligned_membufISt4pairIK11v2x_event_tNSt7__cxx1112basic_stringIcSt11char_traitsIcESaIcEEEEE6_M_ptrEv=so_stub_for_libv2x_radio
-Wl,--defsym=_ZN9__gnu_cxx16__aligned_membufISt4pairIK11v2x_event_tNSt7__cxx1112basic_stringIcSt11char_traitsIcESaIcEEEEE7_M_addrEv=so_stub_for_libv2x_radio
-Wl,--defsym=_ZN9__gnu_cxx16__aligned_membufISt4pairIKiSt10shared_ptrIN5telux4cv2x11ICv2xTxFlowEEEE6_M_ptrEv=so_stub_for_libv2x_radio
-Wl,--defsym=_ZN9__gnu_cxx16__aligned_membufISt4pairIKiSt10shared_ptrIN5telux4cv2x11ICv2xTxFlowEEEE7_M_addrEv=so_stub_for_libv2x_radio
-Wl,--defsym=_ZN9__gnu_cxx16__aligned_membufISt4pairIKiSt10shared_ptrIN5telux4cv2x15ICv2xTxRxSocketEEEE6_M_ptrEv=so_stub_for_libv2x_radio
-Wl,--defsym=_ZN9__gnu_cxx16__aligned_membufISt4pairIKiSt10shared_ptrIN5telux4cv2x15ICv2xTxRxSocketEEEE7_M_addrEv=so_stub_for_libv2x_radio
-Wl,--defsym=_ZN9__gnu_cxx16__aligned_membufISt4pairIKiSt10shared_ptrIN5telux4cv2x19ICv2xRxSubscriptionEEEE6_M_ptrEv=so_stub_for_libv2x_radio
-Wl,--defsym=_ZN9__gnu_cxx16__aligned_membufISt4pairIKiSt10shared_ptrIN5telux4cv2x19ICv2xRxSubscriptionEEEE7_M_addrEv=so_stub_for_libv2x_radio
-Wl,--defsym=_ZN9__gnu_cxx16__aligned_membufISt4pairIKjP31v2x_per_sps_reservation_calls_tEE6_M_ptrEv=so_stub_for_libv2x_radio
-Wl,--defsym=_ZN9__gnu_cxx16__aligned_membufISt4pairIKjP31v2x_per_sps_reservation_calls_tEE7_M_addrEv=so_stub_for_libv2x_radio
-Wl,--defsym=_ZN9__gnu_cxx16__aligned_membufISt4pairIKN5telux4cv2x14Cv2xStatusTypeENSt7__cxx1112basic_stringIcSt11char_traitsIcESaIcEEEEE6_M_ptrEv=so_stub_for_libv2x_radio
-Wl,--defsym=_ZN9__gnu_cxx16__aligned_membufISt4pairIKN5telux4cv2x14Cv2xStatusTypeENSt7__cxx1112basic_stringIcSt11char_traitsIcESaIcEEEEE7_M_addrEv=so_stub_for_libv2x_radio
-Wl,--defsym=_ZN9__gnu_cxx17__normal_iteratorIPjSt6vectorIjSaIjEEEC1ERKS1_=so_stub_for_libv2x_radio
-Wl,--defsym=_ZN9__gnu_cxx17__normal_iteratorIPjSt6vectorIjSaIjEEEC2ERKS1_=so_stub_for_libv2x_radio
-Wl,--defsym=_ZN9__gnu_cxx17__normal_iteratorIPKjSt6vectorIjSaIjEEEC1ERKS2_=so_stub_for_libv2x_radio
-Wl,--defsym=_ZN9__gnu_cxx17__normal_iteratorIPKjSt6vectorIjSaIjEEEC2ERKS2_=so_stub_for_libv2x_radio
-Wl,--defsym=_ZN9__gnu_cxx17__normal_iteratorIPKN5telux4cv2x12TxPoolIdInfoESt6vectorIS3_SaIS3_EEEC1ERKS5_=so_stub_for_libv2x_radio
-Wl,--defsym=_ZN9__gnu_cxx17__normal_iteratorIPKN5telux4cv2x12TxPoolIdInfoESt6vectorIS3_SaIS3_EEEC2ERKS5_=so_stub_for_libv2x_radio
-Wl,--defsym=_ZN9__gnu_cxx17__normal_iteratorIPKN5telux4cv2x14Cv2xPoolStatusESt6vectorIS3_SaIS3_EEEC1ERKS5_=so_stub_for_libv2x_radio
-Wl,--defsym=_ZN9__gnu_cxx17__normal_iteratorIPKN5telux4cv2x14Cv2xPoolStatusESt6vectorIS3_SaIS3_EEEC2ERKS5_=so_stub_for_libv2x_radio
-Wl,--defsym=_ZN9__gnu_cxx17__normal_iteratorIPKN5telux4cv2x14Cv2xPoolStatusESt6vectorIS3_SaIS3_EEEppEv=so_stub_for_libv2x_radio
-Wl,--defsym=_ZN9__gnu_cxx17__normal_iteratorIPKySt6vectorIySaIyEEEC1ERKS2_=so_stub_for_libv2x_radio
-Wl,--defsym=_ZN9__gnu_cxx17__normal_iteratorIPKySt6vectorIySaIyEEEC2ERKS2_=so_stub_for_libv2x_radio
-Wl,--defsym=_ZN9__gnu_cxx17__normal_iteratorIPN5telux4cv2x12TxPoolIdInfoESt6vectorIS3_SaIS3_EEEC1ERKS4_=so_stub_for_libv2x_radio
-Wl,--defsym=_ZN9__gnu_cxx17__normal_iteratorIPN5telux4cv2x12TxPoolIdInfoESt6vectorIS3_SaIS3_EEEC2ERKS4_=so_stub_for_libv2x_radio
-Wl,--defsym=_ZN9__gnu_cxx17__normal_iteratorIPN5telux4cv2x12TxPoolIdInfoESt6vectorIS3_SaIS3_EEEppEv=so_stub_for_libv2x_radio
-Wl,--defsym=_ZN9__gnu_cxx17__normal_iteratorIPN5telux4cv2x13TrustedUEInfoESt6vectorIS3_SaIS3_EEEC1ERKS4_=so_stub_for_libv2x_radio
-Wl,--defsym=_ZN9__gnu_cxx17__normal_iteratorIPN5telux4cv2x13TrustedUEInfoESt6vectorIS3_SaIS3_EEEC2ERKS4_=so_stub_for_libv2x_radio
-Wl,--defsym=_ZN9__gnu_cxx17__normal_iteratorIPN5telux4cv2x14Cv2xPoolStatusESt6vectorIS3_SaIS3_EEEC1ERKS4_=so_stub_for_libv2x_radio
-Wl,--defsym=_ZN9__gnu_cxx17__normal_iteratorIPN5telux4cv2x14Cv2xPoolStatusESt6vectorIS3_SaIS3_EEEC2ERKS4_=so_stub_for_libv2x_radio
-Wl,--defsym=_ZN9__gnu_cxx17__normal_iteratorIPySt6vectorIySaIyEEEC1ERKS1_=so_stub_for_libv2x_radio
-Wl,--defsym=_ZN9__gnu_cxx17__normal_iteratorIPySt6vectorIySaIyEEEC2ERKS1_=so_stub_for_libv2x_radio
-Wl,--defsym=_ZN9__gnu_cxx17__normal_iteratorIPySt6vectorIySaIyEEEppEv=so_stub_for_libv2x_radio
-Wl,--defsym=_ZN9__gnu_cxxmiIPjSt6vectorIjSaIjEEEENS_17__normal_iteratorIT_T0_E15difference_typeERKS8_SB_=so_stub_for_libv2x_radio
-Wl,--defsym=_ZN9__gnu_cxxmiIPN5telux4cv2x13TrustedUEInfoESt6vectorIS3_SaIS3_EEEENS_17__normal_iteratorIT_T0_E15difference_typeERKSB_SE_=so_stub_for_libv2x_radio
-Wl,--defsym=_ZN9__gnu_cxxneIPKN5telux4cv2x14Cv2xPoolStatusESt6vectorIS3_SaIS3_EEEEbRKNS_17__normal_iteratorIT_T0_EESE_=so_stub_for_libv2x_radio
-Wl,--defsym=_ZN9__gnu_cxxneIPN5telux4cv2x12TxPoolIdInfoESt6vectorIS3_SaIS3_EEEEbRKNS_17__normal_iteratorIT_T0_EESD_=so_stub_for_libv2x_radio
-Wl,--defsym=_ZN9__gnu_cxxneIPySt6vectorIySaIyEEEEbRKNS_17__normal_iteratorIT_T0_EESA_=so_stub_for_libv2x_radio
-Wl,--defsym=_ZNK9__gnu_cxx13new_allocatorIjE8max_sizeEv=so_stub_for_libv2x_radio
-Wl,--defsym=_ZNK9__gnu_cxx13new_allocatorIN5telux4cv2x12TxPoolIdInfoEE8max_sizeEv=so_stub_for_libv2x_radio
-Wl,--defsym=_ZNK9__gnu_cxx13new_allocatorIN5telux4cv2x13TrustedUEInfoEE8max_sizeEv=so_stub_for_libv2x_radio
-Wl,--defsym=_ZNK9__gnu_cxx13new_allocatorIN5telux4cv2x14Cv2xPoolStatusEE8max_sizeEv=so_stub_for_libv2x_radio
-Wl,--defsym=_ZNK9__gnu_cxx13new_allocatorISt13_Rb_tree_nodeISt4pairIK11v2x_event_tNSt7__cxx1112basic_stringIcSt11char_traitsIcESaIcEEEEEE8max_sizeEv=so_stub_for_libv2x_radio
-Wl,--defsym=_ZNK9__gnu_cxx13new_allocatorISt13_Rb_tree_nodeISt4pairIKiSt10shared_ptrIN5telux4cv2x11ICv2xTxFlowEEEEE8max_sizeEv=so_stub_for_libv2x_radio
-Wl,--defsym=_ZNK9__gnu_cxx13new_allocatorISt13_Rb_tree_nodeISt4pairIKiSt10shared_ptrIN5telux4cv2x15ICv2xTxRxSocketEEEEE8max_sizeEv=so_stub_for_libv2x_radio
-Wl,--defsym=_ZNK9__gnu_cxx13new_allocatorISt13_Rb_tree_nodeISt4pairIKiSt10shared_ptrIN5telux4cv2x19ICv2xRxSubscriptionEEEEE8max_sizeEv=so_stub_for_libv2x_radio
-Wl,--defsym=_ZNK9__gnu_cxx13new_allocatorISt13_Rb_tree_nodeISt4pairIKjP31v2x_per_sps_reservation_calls_tEEE8max_sizeEv=so_stub_for_libv2x_radio
-Wl,--defsym=_ZNK9__gnu_cxx13new_allocatorISt13_Rb_tree_nodeISt4pairIKN5telux4cv2x14Cv2xStatusTypeENSt7__cxx1112basic_stringIcSt11char_traitsIcESaIcEEEEEE8max_sizeEv=so_stub_for_libv2x_radio
-Wl,--defsym=_ZNK9__gnu_cxx13new_allocatorISt23_Sp_counted_ptr_inplaceI12Cv2xListenerSaIS2_ELNS_12_Lock_policyE2EEE8max_sizeEv=so_stub_for_libv2x_radio
-Wl,--defsym=_ZNK9__gnu_cxx13new_allocatorISt23_Sp_counted_ptr_inplaceI13RadioListenerSaIS2_ELNS_12_Lock_policyE2EEE8max_sizeEv=so_stub_for_libv2x_radio
-Wl,--defsym=_ZNK9__gnu_cxx13new_allocatorISt23_Sp_counted_ptr_inplaceI14ConfigListenerSaIS2_ELNS_12_Lock_policyE2EEE8max_sizeEv=so_stub_for_libv2x_radio
-Wl,--defsym=_ZNK9__gnu_cxx13new_allocatorISt23_Sp_counted_ptr_inplaceINSt13__future_base13_State_baseV2ESaIS3_ELNS_12_Lock_policyE2EEE8max_sizeEv=so_stub_for_libv2x_radio
-Wl,--defsym=_ZNK9__gnu_cxx13new_allocatorISt23_Sp_counted_ptr_inplaceISt6vectorIjSaIjEESaIS4_ELNS_12_Lock_policyE2EEE8max_sizeEv=so_stub_for_libv2x_radio
-Wl,--defsym=_ZNK9__gnu_cxx13new_allocatorIyE8max_sizeEv=so_stub_for_libv2x_radio
-Wl,--defsym=_ZNK9__gnu_cxx16__aligned_membufISt4pairIK11v2x_event_tNSt7__cxx1112basic_stringIcSt11char_traitsIcESaIcEEEEE6_M_ptrEv=so_stub_for_libv2x_radio
-Wl,--defsym=_ZNK9__gnu_cxx16__aligned_membufISt4pairIK11v2x_event_tNSt7__cxx1112basic_stringIcSt11char_traitsIcESaIcEEEEE7_M_addrEv=so_stub_for_libv2x_radio
-Wl,--defsym=_ZNK9__gnu_cxx16__aligned_membufISt4pairIKiSt10shared_ptrIN5telux4cv2x11ICv2xTxFlowEEEE6_M_ptrEv=so_stub_for_libv2x_radio
-Wl,--defsym=_ZNK9__gnu_cxx16__aligned_membufISt4pairIKiSt10shared_ptrIN5telux4cv2x11ICv2xTxFlowEEEE7_M_addrEv=so_stub_for_libv2x_radio
-Wl,--defsym=_ZNK9__gnu_cxx16__aligned_membufISt4pairIKiSt10shared_ptrIN5telux4cv2x15ICv2xTxRxSocketEEEE6_M_ptrEv=so_stub_for_libv2x_radio
-Wl,--defsym=_ZNK9__gnu_cxx16__aligned_membufISt4pairIKiSt10shared_ptrIN5telux4cv2x15ICv2xTxRxSocketEEEE7_M_addrEv=so_stub_for_libv2x_radio
-Wl,--defsym=_ZNK9__gnu_cxx16__aligned_membufISt4pairIKiSt10shared_ptrIN5telux4cv2x19ICv2xRxSubscriptionEEEE6_M_ptrEv=so_stub_for_libv2x_radio
-Wl,--defsym=_ZNK9__gnu_cxx16__aligned_membufISt4pairIKiSt10shared_ptrIN5telux4cv2x19ICv2xRxSubscriptionEEEE7_M_addrEv=so_stub_for_libv2x_radio
-Wl,--defsym=_ZNK9__gnu_cxx16__aligned_membufISt4pairIKjP31v2x_per_sps_reservation_calls_tEE6_M_ptrEv=so_stub_for_libv2x_radio
-Wl,--defsym=_ZNK9__gnu_cxx16__aligned_membufISt4pairIKjP31v2x_per_sps_reservation_calls_tEE7_M_addrEv=so_stub_for_libv2x_radio
-Wl,--defsym=_ZNK9__gnu_cxx16__aligned_membufISt4pairIKN5telux4cv2x14Cv2xStatusTypeENSt7__cxx1112basic_stringIcSt11char_traitsIcESaIcEEEEE6_M_ptrEv=so_stub_for_libv2x_radio
-Wl,--defsym=_ZNK9__gnu_cxx16__aligned_membufISt4pairIKN5telux4cv2x14Cv2xStatusTypeENSt7__cxx1112basic_stringIcSt11char_traitsIcESaIcEEEEE7_M_addrEv=so_stub_for_libv2x_radio
-Wl,--defsym=_ZNK9__gnu_cxx17__normal_iteratorIPjSt6vectorIjSaIjEEE4baseEv=so_stub_for_libv2x_radio
-Wl,--defsym=_ZNK9__gnu_cxx17__normal_iteratorIPKjSt6vectorIjSaIjEEE4baseEv=so_stub_for_libv2x_radio
-Wl,--defsym=_ZNK9__gnu_cxx17__normal_iteratorIPKN5telux4cv2x12TxPoolIdInfoESt6vectorIS3_SaIS3_EEE4baseEv=so_stub_for_libv2x_radio
-Wl,--defsym=_ZNK9__gnu_cxx17__normal_iteratorIPKN5telux4cv2x14Cv2xPoolStatusESt6vectorIS3_SaIS3_EEE4baseEv=so_stub_for_libv2x_radio
-Wl,--defsym=_ZNK9__gnu_cxx17__normal_iteratorIPKN5telux4cv2x14Cv2xPoolStatusESt6vectorIS3_SaIS3_EEEdeEv=so_stub_for_libv2x_radio
-Wl,--defsym=_ZNK9__gnu_cxx17__normal_iteratorIPKySt6vectorIySaIyEEE4baseEv=so_stub_for_libv2x_radio
-Wl,--defsym=_ZNK9__gnu_cxx17__normal_iteratorIPN5telux4cv2x12TxPoolIdInfoESt6vectorIS3_SaIS3_EEE4baseEv=so_stub_for_libv2x_radio
-Wl,--defsym=_ZNK9__gnu_cxx17__normal_iteratorIPN5telux4cv2x12TxPoolIdInfoESt6vectorIS3_SaIS3_EEEdeEv=so_stub_for_libv2x_radio
-Wl,--defsym=_ZNK9__gnu_cxx17__normal_iteratorIPN5telux4cv2x13TrustedUEInfoESt6vectorIS3_SaIS3_EEE4baseEv=so_stub_for_libv2x_radio
-Wl,--defsym=_ZNK9__gnu_cxx17__normal_iteratorIPN5telux4cv2x14Cv2xPoolStatusESt6vectorIS3_SaIS3_EEE4baseEv=so_stub_for_libv2x_radio
-Wl,--defsym=_ZNK9__gnu_cxx17__normal_iteratorIPySt6vectorIySaIyEEE4baseEv=so_stub_for_libv2x_radio
-Wl,--defsym=_ZNK9__gnu_cxx17__normal_iteratorIPySt6vectorIySaIyEEEdeEv=so_stub_for_libv2x_radio
-Wl,--defsym=_ZNKSt10error_code5valueEv=so_stub_for_libv2x_radio
-Wl,--defsym=_ZNKSt10error_code7messageB5cxx11Ev=so_stub_for_libv2x_radio
-Wl,--defsym=_ZNKSt10error_code8categoryEv=so_stub_for_libv2x_radio
-Wl,--defsym=_ZNKSt10_Select1stISt4pairIK11v2x_event_tNSt7__cxx1112basic_stringIcSt11char_traitsIcESaIcEEEEEclERKS9_=so_stub_for_libv2x_radio
-Wl,--defsym=_ZNKSt10_Select1stISt4pairIKiSt10shared_ptrIN5telux4cv2x11ICv2xTxFlowEEEEclERKS7_=so_stub_for_libv2x_radio
-Wl,--defsym=_ZNKSt10_Select1stISt4pairIKiSt10shared_ptrIN5telux4cv2x15ICv2xTxRxSocketEEEEclERKS7_=so_stub_for_libv2x_radio
-Wl,--defsym=_ZNKSt10_Select1stISt4pairIKiSt10shared_ptrIN5telux4cv2x19ICv2xRxSubscriptionEEEEclERKS7_=so_stub_for_libv2x_radio
-Wl,--defsym=_ZNKSt10_Select1stISt4pairIKjP31v2x_per_sps_reservation_calls_tEEclERKS4_=so_stub_for_libv2x_radio
-Wl,--defsym=_ZNKSt10_Select1stISt4pairIKN5telux4cv2x14Cv2xStatusTypeENSt7__cxx1112basic_stringIcSt11char_traitsIcESaIcEEEEEclERKSB_=so_stub_for_libv2x_radio
-Wl,--defsym=_ZNKSt10unique_ptrINSt13__future_base12_Result_baseENS1_8_DeleterEE3getEv=so_stub_for_libv2x_radio
-Wl,--defsym=_ZNKSt10unique_ptrINSt13__future_base12_Result_baseENS1_8_DeleterEEcvbEv=so_stub_for_libv2x_radio
-Wl,--defsym=_ZNKSt10unique_ptrINSt13__future_base12_Result_baseENS1_8_DeleterEEdeEv=so_stub_for_libv2x_radio
-Wl,--defsym=_ZNKSt10unique_ptrINSt13__future_base12_Result_baseENS1_8_DeleterEEptEv=so_stub_for_libv2x_radio
-Wl,--defsym=_ZNKSt10unique_ptrINSt13__future_base7_ResultI21_v2x_status_enum_typeEENS0_12_Result_base8_DeleterEE3getEv=so_stub_for_libv2x_radio
-Wl,--defsym=_ZNKSt10unique_ptrINSt13__future_base7_ResultI21_v2x_status_enum_typeEENS0_12_Result_base8_DeleterEEcvbEv=so_stub_for_libv2x_radio
-Wl,--defsym=_ZNKSt10unique_ptrINSt13__future_base7_ResultI21_v2x_status_enum_typeEENS0_12_Result_base8_DeleterEEptEv=so_stub_for_libv2x_radio
-Wl,--defsym=_ZNKSt10unique_ptrINSt13__future_base7_ResultIiEENS0_12_Result_base8_DeleterEE3getEv=so_stub_for_libv2x_radio
-Wl,--defsym=_ZNKSt10unique_ptrINSt13__future_base7_ResultIiEENS0_12_Result_base8_DeleterEEptEv=so_stub_for_libv2x_radio
-Wl,--defsym=_ZNKSt10unique_ptrINSt13__future_base7_ResultIN5telux6common9ErrorCodeEEENS0_12_Result_base8_DeleterEE3getEv=so_stub_for_libv2x_radio
-Wl,--defsym=_ZNKSt10unique_ptrINSt13__future_base7_ResultIN5telux6common9ErrorCodeEEENS0_12_Result_base8_DeleterEEptEv=so_stub_for_libv2x_radio
-Wl,--defsym=_ZNKSt10unique_ptrINSt13__future_base7_ResultISt4pairIN5telux6common9ErrorCodeES5_EEENS0_12_Result_base8_DeleterEE3getEv=so_stub_for_libv2x_radio
-Wl,--defsym=_ZNKSt10unique_ptrINSt13__future_base7_ResultISt4pairIN5telux6common9ErrorCodeES5_EEENS0_12_Result_base8_DeleterEEptEv=so_stub_for_libv2x_radio
-Wl,--defsym=_ZNKSt12_Base_bitsetILj1EE10_M_getwordEj=so_stub_for_libv2x_radio
-Wl,--defsym=_ZNKSt12__shared_ptrIN5telux4cv2x10ICv2xRadioELN9__gnu_cxx12_Lock_policyE2EE3getEv=so_stub_for_libv2x_radio
-Wl,--defsym=_ZNKSt12__shared_ptrIN5telux4cv2x10ICv2xRadioELN9__gnu_cxx12_Lock_policyE2EEcvbEv=so_stub_for_libv2x_radio
-Wl,--defsym=_ZNKSt12__shared_ptrIN5telux4cv2x11ICv2xConfigELN9__gnu_cxx12_Lock_policyE2EE3getEv=so_stub_for_libv2x_radio
-Wl,--defsym=_ZNKSt12__shared_ptrIN5telux4cv2x11ICv2xConfigELN9__gnu_cxx12_Lock_policyE2EEcvbEv=so_stub_for_libv2x_radio
-Wl,--defsym=_ZNKSt12__shared_ptrIN5telux4cv2x11ICv2xTxFlowELN9__gnu_cxx12_Lock_policyE2EE3getEv=so_stub_for_libv2x_radio
-Wl,--defsym=_ZNKSt12__shared_ptrIN5telux4cv2x11ICv2xTxFlowELN9__gnu_cxx12_Lock_policyE2EEcvbEv=so_stub_for_libv2x_radio
-Wl,--defsym=_ZNKSt12__shared_ptrIN5telux4cv2x13ICv2xListenerELN9__gnu_cxx12_Lock_policyE2EEcvbEv=so_stub_for_libv2x_radio
-Wl,--defsym=_ZNKSt12__shared_ptrIN5telux4cv2x15ICv2xTxRxSocketELN9__gnu_cxx12_Lock_policyE2EE3getEv=so_stub_for_libv2x_radio
-Wl,--defsym=_ZNKSt12__shared_ptrIN5telux4cv2x15ICv2xTxRxSocketELN9__gnu_cxx12_Lock_policyE2EEcvbEv=so_stub_for_libv2x_radio
-Wl,--defsym=_ZNKSt12__shared_ptrIN5telux4cv2x17ICv2xRadioManagerELN9__gnu_cxx12_Lock_policyE2EE3getEv=so_stub_for_libv2x_radio
-Wl,--defsym=_ZNKSt12__shared_ptrIN5telux4cv2x17ICv2xRadioManagerELN9__gnu_cxx12_Lock_policyE2EEcvbEv=so_stub_for_libv2x_radio
-Wl,--defsym=_ZNKSt12__shared_ptrIN5telux4cv2x18ICv2xRadioListenerELN9__gnu_cxx12_Lock_policyE2EEcvbEv=so_stub_for_libv2x_radio
-Wl,--defsym=_ZNKSt12__shared_ptrIN5telux4cv2x19ICv2xConfigListenerELN9__gnu_cxx12_Lock_policyE2EEcvbEv=so_stub_for_libv2x_radio
-Wl,--defsym=_ZNKSt12__shared_ptrIN5telux4cv2x19ICv2xRxSubscriptionELN9__gnu_cxx12_Lock_policyE2EE3getEv=so_stub_for_libv2x_radio
-Wl,--defsym=_ZNKSt12__shared_ptrIN5telux4cv2x19ICv2xRxSubscriptionELN9__gnu_cxx12_Lock_policyE2EEcvbEv=so_stub_for_libv2x_radio
-Wl,--defsym=_ZNKSt12__shared_ptrINSt13__future_base13_State_baseV2ELN9__gnu_cxx12_Lock_policyE2EE3getEv=so_stub_for_libv2x_radio
-Wl,--defsym=_ZNKSt12__shared_ptrINSt13__future_base13_State_baseV2ELN9__gnu_cxx12_Lock_policyE2EE6uniqueEv=so_stub_for_libv2x_radio
-Wl,--defsym=_ZNKSt12__shared_ptrINSt13__future_base13_State_baseV2ELN9__gnu_cxx12_Lock_policyE2EEcvbEv=so_stub_for_libv2x_radio
-Wl,--defsym=_ZNKSt12system_error4codeEv=so_stub_for_libv2x_radio
-Wl,--defsym=_ZNKSt12_Vector_baseIjSaIjEE19_M_get_Tp_allocatorEv=so_stub_for_libv2x_radio
-Wl,--defsym=_ZNKSt12_Vector_baseIN5telux4cv2x12TxPoolIdInfoESaIS2_EE19_M_get_Tp_allocatorEv=so_stub_for_libv2x_radio
-Wl,--defsym=_ZNKSt12_Vector_baseIN5telux4cv2x13TrustedUEInfoESaIS2_EE19_M_get_Tp_allocatorEv=so_stub_for_libv2x_radio
-Wl,--defsym=_ZNKSt12_Vector_baseIN5telux4cv2x14Cv2xPoolStatusESaIS2_EE19_M_get_Tp_allocatorEv=so_stub_for_libv2x_radio
-Wl,--defsym=_ZNKSt12_Vector_baseIySaIyEE19_M_get_Tp_allocatorEv=so_stub_for_libv2x_radio
-Wl,--defsym=_ZNKSt13__future_base12_Result_base8_DeleterclEPS0_=so_stub_for_libv2x_radio
-Wl,--defsym=_ZNKSt13__future_base13_State_baseV221_M_is_deferred_futureEv=so_stub_for_libv2x_radio
-Wl,--defsym=_ZNKSt13__future_base13_State_baseV27_SetterIiOiEclEv=so_stub_for_libv2x_radio
-Wl,--defsym=_ZNKSt13__future_base13_State_baseV27_SetterIN5telux6common9ErrorCodeERKS4_EclEv=so_stub_for_libv2x_radio
-Wl,--defsym=_ZNKSt13__future_base13_State_baseV27_SetterISt4pairIN5telux6common9ErrorCodeES5_EOS6_EclEv=so_stub_for_libv2x_radio
-Wl,--defsym=_ZNKSt13move_iteratorIPjE4baseEv=so_stub_for_libv2x_radio
-Wl,--defsym=_ZNKSt13move_iteratorIPN5telux4cv2x13TrustedUEInfoEE4baseEv=so_stub_for_libv2x_radio
-Wl,--defsym=_ZNKSt13_Rb_tree_nodeISt4pairIK11v2x_event_tNSt7__cxx1112basic_stringIcSt11char_traitsIcESaIcEEEEE9_M_valptrEv=so_stub_for_libv2x_radio
-Wl,--defsym=_ZNKSt13_Rb_tree_nodeISt4pairIKiSt10shared_ptrIN5telux4cv2x11ICv2xTxFlowEEEE9_M_valptrEv=so_stub_for_libv2x_radio
-Wl,--defsym=_ZNKSt13_Rb_tree_nodeISt4pairIKiSt10shared_ptrIN5telux4cv2x15ICv2xTxRxSocketEEEE9_M_valptrEv=so_stub_for_libv2x_radio
-Wl,--defsym=_ZNKSt13_Rb_tree_nodeISt4pairIKiSt10shared_ptrIN5telux4cv2x19ICv2xRxSubscriptionEEEE9_M_valptrEv=so_stub_for_libv2x_radio
-Wl,--defsym=_ZNKSt13_Rb_tree_nodeISt4pairIKjP31v2x_per_sps_reservation_calls_tEE9_M_valptrEv=so_stub_for_libv2x_radio
-Wl,--defsym=_ZNKSt13_Rb_tree_nodeISt4pairIKN5telux4cv2x14Cv2xStatusTypeENSt7__cxx1112basic_stringIcSt11char_traitsIcESaIcEEEEE9_M_valptrEv=so_stub_for_libv2x_radio
-Wl,--defsym=_ZNKSt14__basic_futureI21_v2x_status_enum_typeE13_M_get_resultEv=so_stub_for_libv2x_radio
-Wl,--defsym=_ZNKSt14__basic_futureIbE13_M_get_resultEv=so_stub_for_libv2x_radio
-Wl,--defsym=_ZNKSt14__basic_futureIiE13_M_get_resultEv=so_stub_for_libv2x_radio
-Wl,--defsym=_ZNKSt14__basic_futureIN5telux6common6StatusEE13_M_get_resultEv=so_stub_for_libv2x_radio
-Wl,--defsym=_ZNKSt14__basic_futureIN5telux6common9ErrorCodeEE13_M_get_resultEv=so_stub_for_libv2x_radio
-Wl,--defsym=_ZNKSt14__basic_futureISt4pairIN5telux6common9ErrorCodeES3_EE13_M_get_resultEv=so_stub_for_libv2x_radio
-Wl,--defsym=_ZNKSt14default_deleteINSt6thread6_StateEEclEPS1_=so_stub_for_libv2x_radio
-Wl,--defsym=_ZNKSt14_Function_base8_M_emptyEv=so_stub_for_libv2x_radio
-Wl,--defsym=_ZNKSt14__shared_countILN9__gnu_cxx12_Lock_policyE2EE14_M_get_deleterERKSt9type_info=so_stub_for_libv2x_radio
-Wl,--defsym=_ZNKSt14__shared_countILN9__gnu_cxx12_Lock_policyE2EE16_M_get_use_countEv=so_stub_for_libv2x_radio
-Wl,--defsym=_ZNKSt14__shared_countILN9__gnu_cxx12_Lock_policyE2EE9_M_uniqueEv=so_stub_for_libv2x_radio
-Wl,--defsym=_ZNKSt15error_condition5valueEv=so_stub_for_libv2x_radio
-Wl,--defsym=_ZNKSt15error_condition8categoryEv=so_stub_for_libv2x_radio
-Wl,--defsym=_ZNKSt15__uniq_ptr_implINSt13__future_base12_Result_baseENS1_8_DeleterEE6_M_ptrEv=so_stub_for_libv2x_radio
-Wl,--defsym=_ZNKSt15__uniq_ptr_implINSt13__future_base7_ResultI21_v2x_status_enum_typeEENS0_12_Result_base8_DeleterEE6_M_ptrEv=so_stub_for_libv2x_radio
-Wl,--defsym=_ZNKSt15__uniq_ptr_implINSt13__future_base7_ResultIiEENS0_12_Result_base8_DeleterEE6_M_ptrEv=so_stub_for_libv2x_radio
-Wl,--defsym=_ZNKSt15__uniq_ptr_implINSt13__future_base7_ResultIN5telux6common9ErrorCodeEEENS0_12_Result_base8_DeleterEE6_M_ptrEv=so_stub_for_libv2x_radio
-Wl,--defsym=_ZNKSt15__uniq_ptr_implINSt13__future_base7_ResultISt4pairIN5telux6common9ErrorCodeES5_EEENS0_12_Result_base8_DeleterEE6_M_ptrEv=so_stub_for_libv2x_radio
-Wl,--defsym=_ZNKSt16initializer_listISt4pairIK11v2x_event_tNSt7__cxx1112basic_stringIcSt11char_traitsIcESaIcEEEEE3endEv=so_stub_for_libv2x_radio
-Wl,--defsym=_ZNKSt16initializer_listISt4pairIK11v2x_event_tNSt7__cxx1112basic_stringIcSt11char_traitsIcESaIcEEEEE4sizeEv=so_stub_for_libv2x_radio
-Wl,--defsym=_ZNKSt16initializer_listISt4pairIK11v2x_event_tNSt7__cxx1112basic_stringIcSt11char_traitsIcESaIcEEEEE5beginEv=so_stub_for_libv2x_radio
-Wl,--defsym=_ZNKSt16initializer_listISt4pairIKN5telux4cv2x14Cv2xStatusTypeENSt7__cxx1112basic_stringIcSt11char_traitsIcESaIcEEEEE3endEv=so_stub_for_libv2x_radio
-Wl,--defsym=_ZNKSt16initializer_listISt4pairIKN5telux4cv2x14Cv2xStatusTypeENSt7__cxx1112basic_stringIcSt11char_traitsIcESaIcEEEEE4sizeEv=so_stub_for_libv2x_radio
-Wl,--defsym=_ZNKSt16initializer_listISt4pairIKN5telux4cv2x14Cv2xStatusTypeENSt7__cxx1112basic_stringIcSt11char_traitsIcESaIcEEEEE5beginEv=so_stub_for_libv2x_radio
-Wl,--defsym=_ZNKSt16_Sp_counted_baseILN9__gnu_cxx12_Lock_policyE2EE16_M_get_use_countEv=so_stub_for_libv2x_radio
-Wl,--defsym=_ZNKSt17_Rb_tree_iteratorISt4pairIK11v2x_event_tNSt7__cxx1112basic_stringIcSt11char_traitsIcESaIcEEEEEdeEv=so_stub_for_libv2x_radio
-Wl,--defsym=_ZNKSt17_Rb_tree_iteratorISt4pairIK11v2x_event_tNSt7__cxx1112basic_stringIcSt11char_traitsIcESaIcEEEEEeqERKSA_=so_stub_for_libv2x_radio
-Wl,--defsym=_ZNKSt17_Rb_tree_iteratorISt4pairIKiSt10shared_ptrIN5telux4cv2x11ICv2xTxFlowEEEEdeEv=so_stub_for_libv2x_radio
-Wl,--defsym=_ZNKSt17_Rb_tree_iteratorISt4pairIKiSt10shared_ptrIN5telux4cv2x11ICv2xTxFlowEEEEeqERKS8_=so_stub_for_libv2x_radio
-Wl,--defsym=_ZNKSt17_Rb_tree_iteratorISt4pairIKiSt10shared_ptrIN5telux4cv2x15ICv2xTxRxSocketEEEEdeEv=so_stub_for_libv2x_radio
-Wl,--defsym=_ZNKSt17_Rb_tree_iteratorISt4pairIKiSt10shared_ptrIN5telux4cv2x15ICv2xTxRxSocketEEEEeqERKS8_=so_stub_for_libv2x_radio
-Wl,--defsym=_ZNKSt17_Rb_tree_iteratorISt4pairIKiSt10shared_ptrIN5telux4cv2x19ICv2xRxSubscriptionEEEEdeEv=so_stub_for_libv2x_radio
-Wl,--defsym=_ZNKSt17_Rb_tree_iteratorISt4pairIKiSt10shared_ptrIN5telux4cv2x19ICv2xRxSubscriptionEEEEeqERKS8_=so_stub_for_libv2x_radio
-Wl,--defsym=_ZNKSt17_Rb_tree_iteratorISt4pairIKjP31v2x_per_sps_reservation_calls_tEEdeEv=so_stub_for_libv2x_radio
-Wl,--defsym=_ZNKSt17_Rb_tree_iteratorISt4pairIKjP31v2x_per_sps_reservation_calls_tEEeqERKS5_=so_stub_for_libv2x_radio
-Wl,--defsym=_ZNKSt17_Rb_tree_iteratorISt4pairIKN5telux4cv2x14Cv2xStatusTypeENSt7__cxx1112basic_stringIcSt11char_traitsIcESaIcEEEEEdeEv=so_stub_for_libv2x_radio
-Wl,--defsym=_ZNKSt17_Rb_tree_iteratorISt4pairIKN5telux4cv2x14Cv2xStatusTypeENSt7__cxx1112basic_stringIcSt11char_traitsIcESaIcEEEEEeqERKSC_=so_stub_for_libv2x_radio
-Wl,--defsym=_ZNKSt19__shared_ptr_accessIN5telux4cv2x10ICv2xRadioELN9__gnu_cxx12_Lock_policyE2ELb0ELb0EE6_M_getEv=so_stub_for_libv2x_radio
-Wl,--defsym=_ZNKSt19__shared_ptr_accessIN5telux4cv2x10ICv2xRadioELN9__gnu_cxx12_Lock_policyE2ELb0ELb0EEptEv=so_stub_for_libv2x_radio
-Wl,--defsym=_ZNKSt19__shared_ptr_accessIN5telux4cv2x11ICv2xConfigELN9__gnu_cxx12_Lock_policyE2ELb0ELb0EE6_M_getEv=so_stub_for_libv2x_radio
-Wl,--defsym=_ZNKSt19__shared_ptr_accessIN5telux4cv2x11ICv2xConfigELN9__gnu_cxx12_Lock_policyE2ELb0ELb0EEptEv=so_stub_for_libv2x_radio
-Wl,--defsym=_ZNKSt19__shared_ptr_accessIN5telux4cv2x11ICv2xTxFlowELN9__gnu_cxx12_Lock_policyE2ELb0ELb0EE6_M_getEv=so_stub_for_libv2x_radio
-Wl,--defsym=_ZNKSt19__shared_ptr_accessIN5telux4cv2x11ICv2xTxFlowELN9__gnu_cxx12_Lock_policyE2ELb0ELb0EEptEv=so_stub_for_libv2x_radio
-Wl,--defsym=_ZNKSt19__shared_ptr_accessIN5telux4cv2x15ICv2xTxRxSocketELN9__gnu_cxx12_Lock_policyE2ELb0ELb0EE6_M_getEv=so_stub_for_libv2x_radio
-Wl,--defsym=_ZNKSt19__shared_ptr_accessIN5telux4cv2x15ICv2xTxRxSocketELN9__gnu_cxx12_Lock_policyE2ELb0ELb0EEptEv=so_stub_for_libv2x_radio
-Wl,--defsym=_ZNKSt19__shared_ptr_accessIN5telux4cv2x17ICv2xRadioManagerELN9__gnu_cxx12_Lock_policyE2ELb0ELb0EE6_M_getEv=so_stub_for_libv2x_radio
-Wl,--defsym=_ZNKSt19__shared_ptr_accessIN5telux4cv2x17ICv2xRadioManagerELN9__gnu_cxx12_Lock_policyE2ELb0ELb0EEptEv=so_stub_for_libv2x_radio
-Wl,--defsym=_ZNKSt19__shared_ptr_accessIN5telux4cv2x19ICv2xRxSubscriptionELN9__gnu_cxx12_Lock_policyE2ELb0ELb0EE6_M_getEv=so_stub_for_libv2x_radio
-Wl,--defsym=_ZNKSt19__shared_ptr_accessIN5telux4cv2x19ICv2xRxSubscriptionELN9__gnu_cxx12_Lock_policyE2ELb0ELb0EEptEv=so_stub_for_libv2x_radio
-Wl,--defsym=_ZNKSt19__shared_ptr_accessINSt13__future_base13_State_baseV2ELN9__gnu_cxx12_Lock_policyE2ELb0ELb0EE6_M_getEv=so_stub_for_libv2x_radio
-Wl,--defsym=_ZNKSt19__shared_ptr_accessINSt13__future_base13_State_baseV2ELN9__gnu_cxx12_Lock_policyE2ELb0ELb0EEptEv=so_stub_for_libv2x_radio
-Wl,--defsym=_ZNKSt23_Rb_tree_const_iteratorISt4pairIK11v2x_event_tNSt7__cxx1112basic_stringIcSt11char_traitsIcESaIcEEEEE13_M_const_castEv=so_stub_for_libv2x_radio
-Wl,--defsym=_ZNKSt23_Rb_tree_const_iteratorISt4pairIKiSt10shared_ptrIN5telux4cv2x11ICv2xTxFlowEEEE13_M_const_castEv=so_stub_for_libv2x_radio
-Wl,--defsym=_ZNKSt23_Rb_tree_const_iteratorISt4pairIKiSt10shared_ptrIN5telux4cv2x11ICv2xTxFlowEEEEeqERKS8_=so_stub_for_libv2x_radio
-Wl,--defsym=_ZNKSt23_Rb_tree_const_iteratorISt4pairIKiSt10shared_ptrIN5telux4cv2x11ICv2xTxFlowEEEEneERKS8_=so_stub_for_libv2x_radio
-Wl,--defsym=_ZNKSt23_Rb_tree_const_iteratorISt4pairIKiSt10shared_ptrIN5telux4cv2x15ICv2xTxRxSocketEEEE13_M_const_castEv=so_stub_for_libv2x_radio
-Wl,--defsym=_ZNKSt23_Rb_tree_const_iteratorISt4pairIKiSt10shared_ptrIN5telux4cv2x15ICv2xTxRxSocketEEEEeqERKS8_=so_stub_for_libv2x_radio
-Wl,--defsym=_ZNKSt23_Rb_tree_const_iteratorISt4pairIKiSt10shared_ptrIN5telux4cv2x15ICv2xTxRxSocketEEEEneERKS8_=so_stub_for_libv2x_radio
-Wl,--defsym=_ZNKSt23_Rb_tree_const_iteratorISt4pairIKiSt10shared_ptrIN5telux4cv2x19ICv2xRxSubscriptionEEEE13_M_const_castEv=so_stub_for_libv2x_radio
-Wl,--defsym=_ZNKSt23_Rb_tree_const_iteratorISt4pairIKiSt10shared_ptrIN5telux4cv2x19ICv2xRxSubscriptionEEEEeqERKS8_=so_stub_for_libv2x_radio
-Wl,--defsym=_ZNKSt23_Rb_tree_const_iteratorISt4pairIKiSt10shared_ptrIN5telux4cv2x19ICv2xRxSubscriptionEEEEneERKS8_=so_stub_for_libv2x_radio
-Wl,--defsym=_ZNKSt23_Rb_tree_const_iteratorISt4pairIKjP31v2x_per_sps_reservation_calls_tEE13_M_const_castEv=so_stub_for_libv2x_radio
-Wl,--defsym=_ZNKSt23_Rb_tree_const_iteratorISt4pairIKjP31v2x_per_sps_reservation_calls_tEEeqERKS5_=so_stub_for_libv2x_radio
-Wl,--defsym=_ZNKSt23_Rb_tree_const_iteratorISt4pairIKjP31v2x_per_sps_reservation_calls_tEEneERKS5_=so_stub_for_libv2x_radio
-Wl,--defsym=_ZNKSt23_Rb_tree_const_iteratorISt4pairIKN5telux4cv2x14Cv2xStatusTypeENSt7__cxx1112basic_stringIcSt11char_traitsIcESaIcEEEEE13_M_const_castEv=so_stub_for_libv2x_radio
-Wl,--defsym=_ZNKSt3mapI11v2x_event_tNSt7__cxx1112basic_stringIcSt11char_traitsIcESaIcEEESt4lessIS0_ESaISt4pairIKS0_S6_EEE8key_compEv=so_stub_for_libv2x_radio
-Wl,--defsym=_ZNKSt3mapIiSt10shared_ptrIN5telux4cv2x11ICv2xTxFlowEESt4lessIiESaISt4pairIKiS4_EEE5countERS8_=so_stub_for_libv2x_radio
-Wl,--defsym=_ZNKSt3mapIiSt10shared_ptrIN5telux4cv2x11ICv2xTxFlowEESt4lessIiESaISt4pairIKiS4_EEE8key_compEv=so_stub_for_libv2x_radio
-Wl,--defsym=_ZNKSt3mapIiSt10shared_ptrIN5telux4cv2x15ICv2xTxRxSocketEESt4lessIiESaISt4pairIKiS4_EEE5countERS8_=so_stub_for_libv2x_radio
-Wl,--defsym=_ZNKSt3mapIiSt10shared_ptrIN5telux4cv2x15ICv2xTxRxSocketEESt4lessIiESaISt4pairIKiS4_EEE8key_compEv=so_stub_for_libv2x_radio
-Wl,--defsym=_ZNKSt3mapIiSt10shared_ptrIN5telux4cv2x19ICv2xRxSubscriptionEESt4lessIiESaISt4pairIKiS4_EEE5countERS8_=so_stub_for_libv2x_radio
-Wl,--defsym=_ZNKSt3mapIiSt10shared_ptrIN5telux4cv2x19ICv2xRxSubscriptionEESt4lessIiESaISt4pairIKiS4_EEE8key_compEv=so_stub_for_libv2x_radio
-Wl,--defsym=_ZNKSt3mapIjP31v2x_per_sps_reservation_calls_tSt4lessIjESaISt4pairIKjS1_EEE5countERS5_=so_stub_for_libv2x_radio
-Wl,--defsym=_ZNKSt3mapIjP31v2x_per_sps_reservation_calls_tSt4lessIjESaISt4pairIKjS1_EEE8key_compEv=so_stub_for_libv2x_radio
-Wl,--defsym=_ZNKSt3mapIN5telux4cv2x14Cv2xStatusTypeENSt7__cxx1112basic_stringIcSt11char_traitsIcESaIcEEESt4lessIS2_ESaISt4pairIKS2_S8_EEE8key_compEv=so_stub_for_libv2x_radio
-Wl,--defsym=_ZNKSt4lessI11v2x_event_tEclERKS0_S3_=so_stub_for_libv2x_radio
-Wl,--defsym=_ZNKSt4lessIiEclERKiS2_=so_stub_for_libv2x_radio
-Wl,--defsym=_ZNKSt4lessIjEclERKjS2_=so_stub_for_libv2x_radio
-Wl,--defsym=_ZNKSt4lessIN5telux4cv2x14Cv2xStatusTypeEEclERKS2_S5_=so_stub_for_libv2x_radio
-Wl,--defsym=_ZNKSt5ctypeIcE5widenEc=so_stub_for_libv2x_radio
-Wl,--defsym=_ZNKSt6atomicIbEcvbEv=so_stub_for_libv2x_radio
-Wl,--defsym=_ZNKSt6bitsetILj8EE15_Unchecked_testEj=so_stub_for_libv2x_radio
-Wl,--defsym=_ZNKSt6bitsetILj8EE17_M_copy_to_stringIcSt11char_traitsIcESaIcEEEvRNSt7__cxx1112basic_stringIT_T0_T1_EES7_S7_=so_stub_for_libv2x_radio
-Wl,--defsym=_ZNKSt6bitsetILj8EE4testEj=so_stub_for_libv2x_radio
-Wl,--defsym=_ZNKSt6bitsetILj8EE8_M_checkEjPKc=so_stub_for_libv2x_radio
-Wl,--defsym=_ZNKSt6bitsetILj8EE9referencecvbEv=so_stub_for_libv2x_radio
-Wl,--defsym=_ZNKSt6thread8joinableEv=so_stub_for_libv2x_radio
-Wl,--defsym=_ZNKSt6vectorIjSaIjEE12_M_check_lenEjPKc=so_stub_for_libv2x_radio
-Wl,--defsym=_ZNKSt6vectorIjSaIjEE3endEv=so_stub_for_libv2x_radio
-Wl,--defsym=_ZNKSt6vectorIjSaIjEE4sizeEv=so_stub_for_libv2x_radio
-Wl,--defsym=_ZNKSt6vectorIjSaIjEE5beginEv=so_stub_for_libv2x_radio
-Wl,--defsym=_ZNKSt6vectorIjSaIjEE8capacityEv=so_stub_for_libv2x_radio
-Wl,--defsym=_ZNKSt6vectorIjSaIjEE8max_sizeEv=so_stub_for_libv2x_radio
-Wl,--defsym=_ZNKSt6vectorIN5telux4cv2x12TxPoolIdInfoESaIS2_EE3endEv=so_stub_for_libv2x_radio
-Wl,--defsym=_ZNKSt6vectorIN5telux4cv2x12TxPoolIdInfoESaIS2_EE4sizeEv=so_stub_for_libv2x_radio
-Wl,--defsym=_ZNKSt6vectorIN5telux4cv2x12TxPoolIdInfoESaIS2_EE5beginEv=so_stub_for_libv2x_radio
-Wl,--defsym=_ZNKSt6vectorIN5telux4cv2x12TxPoolIdInfoESaIS2_EE8capacityEv=so_stub_for_libv2x_radio
-Wl,--defsym=_ZNKSt6vectorIN5telux4cv2x12TxPoolIdInfoESaIS2_EEixEj=so_stub_for_libv2x_radio
-Wl,--defsym=_ZNKSt6vectorIN5telux4cv2x13TrustedUEInfoESaIS2_EE12_M_check_lenEjPKc=so_stub_for_libv2x_radio
-Wl,--defsym=_ZNKSt6vectorIN5telux4cv2x13TrustedUEInfoESaIS2_EE4sizeEv=so_stub_for_libv2x_radio
-Wl,--defsym=_ZNKSt6vectorIN5telux4cv2x13TrustedUEInfoESaIS2_EE8capacityEv=so_stub_for_libv2x_radio
-Wl,--defsym=_ZNKSt6vectorIN5telux4cv2x13TrustedUEInfoESaIS2_EE8max_sizeEv=so_stub_for_libv2x_radio
-Wl,--defsym=_ZNKSt6vectorIN5telux4cv2x14Cv2xPoolStatusESaIS2_EE3endEv=so_stub_for_libv2x_radio
-Wl,--defsym=_ZNKSt6vectorIN5telux4cv2x14Cv2xPoolStatusESaIS2_EE4sizeEv=so_stub_for_libv2x_radio
-Wl,--defsym=_ZNKSt6vectorIN5telux4cv2x14Cv2xPoolStatusESaIS2_EE5beginEv=so_stub_for_libv2x_radio
-Wl,--defsym=_ZNKSt6vectorIN5telux4cv2x14Cv2xPoolStatusESaIS2_EE8capacityEv=so_stub_for_libv2x_radio
-Wl,--defsym=_ZNKSt6vectorIySaIyEE3endEv=so_stub_for_libv2x_radio
-Wl,--defsym=_ZNKSt6vectorIySaIyEE4sizeEv=so_stub_for_libv2x_radio
-Wl,--defsym=_ZNKSt6vectorIySaIyEE5beginEv=so_stub_for_libv2x_radio
-Wl,--defsym=_ZNKSt6vectorIySaIyEE8capacityEv=so_stub_for_libv2x_radio
-Wl,--defsym=_ZNKSt6vectorIySaIyEEixEj=so_stub_for_libv2x_radio
-Wl,--defsym=_ZNKSt8functionIFSt10unique_ptrINSt13__future_base12_Result_baseENS2_8_DeleterEEvEEclEv=so_stub_for_libv2x_radio
-Wl,--defsym=_ZNKSt8ios_base6getlocEv=so_stub_for_libv2x_radio
-Wl,--defsym=_ZNKSt8_Rb_treeI11v2x_event_tSt4pairIKS0_NSt7__cxx1112basic_stringIcSt11char_traitsIcESaIcEEEESt10_Select1stIS9_ESt4lessIS0_ESaIS9_EE11_Alloc_nodeclIRKS9_EEPSt13_Rb_tree_nodeIS9_EOT_=so_stub_for_libv2x_radio
-Wl,--defsym=_ZNKSt8_Rb_treeI11v2x_event_tSt4pairIKS0_NSt7__cxx1112basic_stringIcSt11char_traitsIcESaIcEEEESt10_Select1stIS9_ESt4lessIS0_ESaIS9_EE4sizeEv=so_stub_for_libv2x_radio
-Wl,--defsym=_ZNKSt8_Rb_treeI11v2x_event_tSt4pairIKS0_NSt7__cxx1112basic_stringIcSt11char_traitsIcESaIcEEEESt10_Select1stIS9_ESt4lessIS0_ESaIS9_EE8key_compEv=so_stub_for_libv2x_radio
-Wl,--defsym=_ZNKSt8_Rb_treeIiSt4pairIKiSt10shared_ptrIN5telux4cv2x11ICv2xTxFlowEEESt10_Select1stIS7_ESt4lessIiESaIS7_EE14_M_lower_boundEPKSt13_Rb_tree_nodeIS7_EPKSt18_Rb_tree_node_baseRS1_=so_stub_for_libv2x_radio
-Wl,--defsym=_ZNKSt8_Rb_treeIiSt4pairIKiSt10shared_ptrIN5telux4cv2x11ICv2xTxFlowEEESt10_Select1stIS7_ESt4lessIiESaIS7_EE3endEv=so_stub_for_libv2x_radio
-Wl,--defsym=_ZNKSt8_Rb_treeIiSt4pairIKiSt10shared_ptrIN5telux4cv2x11ICv2xTxFlowEEESt10_Select1stIS7_ESt4lessIiESaIS7_EE4findERS1_=so_stub_for_libv2x_radio
-Wl,--defsym=_ZNKSt8_Rb_treeIiSt4pairIKiSt10shared_ptrIN5telux4cv2x11ICv2xTxFlowEEESt10_Select1stIS7_ESt4lessIiESaIS7_EE4sizeEv=so_stub_for_libv2x_radio
-Wl,--defsym=_ZNKSt8_Rb_treeIiSt4pairIKiSt10shared_ptrIN5telux4cv2x11ICv2xTxFlowEEESt10_Select1stIS7_ESt4lessIiESaIS7_EE6_M_endEv=so_stub_for_libv2x_radio
-Wl,--defsym=_ZNKSt8_Rb_treeIiSt4pairIKiSt10shared_ptrIN5telux4cv2x11ICv2xTxFlowEEESt10_Select1stIS7_ESt4lessIiESaIS7_EE8key_compEv=so_stub_for_libv2x_radio
-Wl,--defsym=_ZNKSt8_Rb_treeIiSt4pairIKiSt10shared_ptrIN5telux4cv2x11ICv2xTxFlowEEESt10_Select1stIS7_ESt4lessIiESaIS7_EE8_M_beginEv=so_stub_for_libv2x_radio
-Wl,--defsym=_ZNKSt8_Rb_treeIiSt4pairIKiSt10shared_ptrIN5telux4cv2x15ICv2xTxRxSocketEEESt10_Select1stIS7_ESt4lessIiESaIS7_EE14_M_lower_boundEPKSt13_Rb_tree_nodeIS7_EPKSt18_Rb_tree_node_baseRS1_=so_stub_for_libv2x_radio
-Wl,--defsym=_ZNKSt8_Rb_treeIiSt4pairIKiSt10shared_ptrIN5telux4cv2x15ICv2xTxRxSocketEEESt10_Select1stIS7_ESt4lessIiESaIS7_EE3endEv=so_stub_for_libv2x_radio
-Wl,--defsym=_ZNKSt8_Rb_treeIiSt4pairIKiSt10shared_ptrIN5telux4cv2x15ICv2xTxRxSocketEEESt10_Select1stIS7_ESt4lessIiESaIS7_EE4findERS1_=so_stub_for_libv2x_radio
-Wl,--defsym=_ZNKSt8_Rb_treeIiSt4pairIKiSt10shared_ptrIN5telux4cv2x15ICv2xTxRxSocketEEESt10_Select1stIS7_ESt4lessIiESaIS7_EE4sizeEv=so_stub_for_libv2x_radio
-Wl,--defsym=_ZNKSt8_Rb_treeIiSt4pairIKiSt10shared_ptrIN5telux4cv2x15ICv2xTxRxSocketEEESt10_Select1stIS7_ESt4lessIiESaIS7_EE6_M_endEv=so_stub_for_libv2x_radio
-Wl,--defsym=_ZNKSt8_Rb_treeIiSt4pairIKiSt10shared_ptrIN5telux4cv2x15ICv2xTxRxSocketEEESt10_Select1stIS7_ESt4lessIiESaIS7_EE8key_compEv=so_stub_for_libv2x_radio
-Wl,--defsym=_ZNKSt8_Rb_treeIiSt4pairIKiSt10shared_ptrIN5telux4cv2x15ICv2xTxRxSocketEEESt10_Select1stIS7_ESt4lessIiESaIS7_EE8_M_beginEv=so_stub_for_libv2x_radio
-Wl,--defsym=_ZNKSt8_Rb_treeIiSt4pairIKiSt10shared_ptrIN5telux4cv2x19ICv2xRxSubscriptionEEESt10_Select1stIS7_ESt4lessIiESaIS7_EE14_M_lower_boundEPKSt13_Rb_tree_nodeIS7_EPKSt18_Rb_tree_node_baseRS1_=so_stub_for_libv2x_radio
-Wl,--defsym=_ZNKSt8_Rb_treeIiSt4pairIKiSt10shared_ptrIN5telux4cv2x19ICv2xRxSubscriptionEEESt10_Select1stIS7_ESt4lessIiESaIS7_EE3endEv=so_stub_for_libv2x_radio
-Wl,--defsym=_ZNKSt8_Rb_treeIiSt4pairIKiSt10shared_ptrIN5telux4cv2x19ICv2xRxSubscriptionEEESt10_Select1stIS7_ESt4lessIiESaIS7_EE4findERS1_=so_stub_for_libv2x_radio
-Wl,--defsym=_ZNKSt8_Rb_treeIiSt4pairIKiSt10shared_ptrIN5telux4cv2x19ICv2xRxSubscriptionEEESt10_Select1stIS7_ESt4lessIiESaIS7_EE4sizeEv=so_stub_for_libv2x_radio
-Wl,--defsym=_ZNKSt8_Rb_treeIiSt4pairIKiSt10shared_ptrIN5telux4cv2x19ICv2xRxSubscriptionEEESt10_Select1stIS7_ESt4lessIiESaIS7_EE6_M_endEv=so_stub_for_libv2x_radio
-Wl,--defsym=_ZNKSt8_Rb_treeIiSt4pairIKiSt10shared_ptrIN5telux4cv2x19ICv2xRxSubscriptionEEESt10_Select1stIS7_ESt4lessIiESaIS7_EE8key_compEv=so_stub_for_libv2x_radio
-Wl,--defsym=_ZNKSt8_Rb_treeIiSt4pairIKiSt10shared_ptrIN5telux4cv2x19ICv2xRxSubscriptionEEESt10_Select1stIS7_ESt4lessIiESaIS7_EE8_M_beginEv=so_stub_for_libv2x_radio
-Wl,--defsym=_ZNKSt8_Rb_treeIjSt4pairIKjP31v2x_per_sps_reservation_calls_tESt10_Select1stIS4_ESt4lessIjESaIS4_EE14_M_lower_boundEPKSt13_Rb_tree_nodeIS4_EPKSt18_Rb_tree_node_baseRS1_=so_stub_for_libv2x_radio
-Wl,--defsym=_ZNKSt8_Rb_treeIjSt4pairIKjP31v2x_per_sps_reservation_calls_tESt10_Select1stIS4_ESt4lessIjESaIS4_EE3endEv=so_stub_for_libv2x_radio
-Wl,--defsym=_ZNKSt8_Rb_treeIjSt4pairIKjP31v2x_per_sps_reservation_calls_tESt10_Select1stIS4_ESt4lessIjESaIS4_EE4findERS1_=so_stub_for_libv2x_radio
-Wl,--defsym=_ZNKSt8_Rb_treeIjSt4pairIKjP31v2x_per_sps_reservation_calls_tESt10_Select1stIS4_ESt4lessIjESaIS4_EE4sizeEv=so_stub_for_libv2x_radio
-Wl,--defsym=_ZNKSt8_Rb_treeIjSt4pairIKjP31v2x_per_sps_reservation_calls_tESt10_Select1stIS4_ESt4lessIjESaIS4_EE6_M_endEv=so_stub_for_libv2x_radio
-Wl,--defsym=_ZNKSt8_Rb_treeIjSt4pairIKjP31v2x_per_sps_reservation_calls_tESt10_Select1stIS4_ESt4lessIjESaIS4_EE8key_compEv=so_stub_for_libv2x_radio
-Wl,--defsym=_ZNKSt8_Rb_treeIjSt4pairIKjP31v2x_per_sps_reservation_calls_tESt10_Select1stIS4_ESt4lessIjESaIS4_EE8_M_beginEv=so_stub_for_libv2x_radio
-Wl,--defsym=_ZNKSt8_Rb_treeIN5telux4cv2x14Cv2xStatusTypeESt4pairIKS2_NSt7__cxx1112basic_stringIcSt11char_traitsIcESaIcEEEESt10_Select1stISB_ESt4lessIS2_ESaISB_EE11_Alloc_nodeclIRKSB_EEPSt13_Rb_tree_nodeISB_EOT_=so_stub_for_libv2x_radio
-Wl,--defsym=_ZNKSt8_Rb_treeIN5telux4cv2x14Cv2xStatusTypeESt4pairIKS2_NSt7__cxx1112basic_stringIcSt11char_traitsIcESaIcEEEESt10_Select1stISB_ESt4lessIS2_ESaISB_EE4sizeEv=so_stub_for_libv2x_radio
-Wl,--defsym=_ZNKSt8_Rb_treeIN5telux4cv2x14Cv2xStatusTypeESt4pairIKS2_NSt7__cxx1112basic_stringIcSt11char_traitsIcESaIcEEEESt10_Select1stISB_ESt4lessIS2_ESaISB_EE8key_compEv=so_stub_for_libv2x_radio
-Wl,--defsym=_ZNKSt9_Any_data9_M_accessEv=so_stub_for_libv2x_radio
-Wl,--defsym=_ZNKSt9_Any_data9_M_accessINSt13__future_base13_State_baseV27_SetterIiOiEEEERKT_v=so_stub_for_libv2x_radio
-Wl,--defsym=_ZNKSt9_Any_data9_M_accessINSt13__future_base13_State_baseV27_SetterIN5telux6common9ErrorCodeERKS6_EEEERKT_v=so_stub_for_libv2x_radio
-Wl,--defsym=_ZNKSt9_Any_data9_M_accessINSt13__future_base13_State_baseV27_SetterISt4pairIN5telux6common9ErrorCodeES7_EOS8_EEEERKT_v=so_stub_for_libv2x_radio
-Wl,--defsym=_ZNKSt9_Any_data9_M_accessIPFvSt10shared_ptrIN5telux4cv2x11ICv2xTxFlowEENS2_6common9ErrorCodeEEEERKT_v=so_stub_for_libv2x_radio
-Wl,--defsym=_ZNSaI12Cv2xListenerEC1ERKS0_=so_stub_for_libv2x_radio
-Wl,--defsym=_ZNSaI12Cv2xListenerEC1Ev=so_stub_for_libv2x_radio
-Wl,--defsym=_ZNSaI12Cv2xListenerEC2ERKS0_=so_stub_for_libv2x_radio
-Wl,--defsym=_ZNSaI12Cv2xListenerEC2Ev=so_stub_for_libv2x_radio
-Wl,--defsym=_ZNSaI12Cv2xListenerED1Ev=so_stub_for_libv2x_radio
-Wl,--defsym=_ZNSaI12Cv2xListenerED2Ev=so_stub_for_libv2x_radio
-Wl,--defsym=_ZNSaI13RadioListenerEC1ERKS0_=so_stub_for_libv2x_radio
-Wl,--defsym=_ZNSaI13RadioListenerEC1Ev=so_stub_for_libv2x_radio
-Wl,--defsym=_ZNSaI13RadioListenerEC2ERKS0_=so_stub_for_libv2x_radio
-Wl,--defsym=_ZNSaI13RadioListenerEC2Ev=so_stub_for_libv2x_radio
-Wl,--defsym=_ZNSaI13RadioListenerED1Ev=so_stub_for_libv2x_radio
-Wl,--defsym=_ZNSaI13RadioListenerED2Ev=so_stub_for_libv2x_radio
-Wl,--defsym=_ZNSaI14ConfigListenerEC1ERKS0_=so_stub_for_libv2x_radio
-Wl,--defsym=_ZNSaI14ConfigListenerEC1Ev=so_stub_for_libv2x_radio
-Wl,--defsym=_ZNSaI14ConfigListenerEC2ERKS0_=so_stub_for_libv2x_radio
-Wl,--defsym=_ZNSaI14ConfigListenerEC2Ev=so_stub_for_libv2x_radio
-Wl,--defsym=_ZNSaI14ConfigListenerED1Ev=so_stub_for_libv2x_radio
-Wl,--defsym=_ZNSaI14ConfigListenerED2Ev=so_stub_for_libv2x_radio
-Wl,--defsym=_ZNSaIjEC1ERKS_=so_stub_for_libv2x_radio
-Wl,--defsym=_ZNSaIjEC1Ev=so_stub_for_libv2x_radio
-Wl,--defsym=_ZNSaIjEC2ERKS_=so_stub_for_libv2x_radio
-Wl,--defsym=_ZNSaIjEC2Ev=so_stub_for_libv2x_radio
-Wl,--defsym=_ZNSaIjED1Ev=so_stub_for_libv2x_radio
-Wl,--defsym=_ZNSaIjED2Ev=so_stub_for_libv2x_radio
-Wl,--defsym=_ZNSaIN5telux4cv2x12TxPoolIdInfoEEC1ERKS2_=so_stub_for_libv2x_radio
-Wl,--defsym=_ZNSaIN5telux4cv2x12TxPoolIdInfoEEC1Ev=so_stub_for_libv2x_radio
-Wl,--defsym=_ZNSaIN5telux4cv2x12TxPoolIdInfoEEC2ERKS2_=so_stub_for_libv2x_radio
-Wl,--defsym=_ZNSaIN5telux4cv2x12TxPoolIdInfoEEC2Ev=so_stub_for_libv2x_radio
-Wl,--defsym=_ZNSaIN5telux4cv2x12TxPoolIdInfoEED1Ev=so_stub_for_libv2x_radio
-Wl,--defsym=_ZNSaIN5telux4cv2x12TxPoolIdInfoEED2Ev=so_stub_for_libv2x_radio
-Wl,--defsym=_ZNSaIN5telux4cv2x13TrustedUEInfoEEC1Ev=so_stub_for_libv2x_radio
-Wl,--defsym=_ZNSaIN5telux4cv2x13TrustedUEInfoEEC2Ev=so_stub_for_libv2x_radio
-Wl,--defsym=_ZNSaIN5telux4cv2x13TrustedUEInfoEED1Ev=so_stub_for_libv2x_radio
-Wl,--defsym=_ZNSaIN5telux4cv2x13TrustedUEInfoEED2Ev=so_stub_for_libv2x_radio
-Wl,--defsym=_ZNSaIN5telux4cv2x14Cv2xPoolStatusEEC1ERKS2_=so_stub_for_libv2x_radio
-Wl,--defsym=_ZNSaIN5telux4cv2x14Cv2xPoolStatusEEC1Ev=so_stub_for_libv2x_radio
-Wl,--defsym=_ZNSaIN5telux4cv2x14Cv2xPoolStatusEEC2ERKS2_=so_stub_for_libv2x_radio
-Wl,--defsym=_ZNSaIN5telux4cv2x14Cv2xPoolStatusEEC2Ev=so_stub_for_libv2x_radio
-Wl,--defsym=_ZNSaIN5telux4cv2x14Cv2xPoolStatusEED1Ev=so_stub_for_libv2x_radio
-Wl,--defsym=_ZNSaIN5telux4cv2x14Cv2xPoolStatusEED2Ev=so_stub_for_libv2x_radio
-Wl,--defsym=_ZNSaINSt13__future_base13_State_baseV2EEC1ERKS1_=so_stub_for_libv2x_radio
-Wl,--defsym=_ZNSaINSt13__future_base13_State_baseV2EEC1Ev=so_stub_for_libv2x_radio
-Wl,--defsym=_ZNSaINSt13__future_base13_State_baseV2EEC2ERKS1_=so_stub_for_libv2x_radio
-Wl,--defsym=_ZNSaINSt13__future_base13_State_baseV2EEC2Ev=so_stub_for_libv2x_radio
-Wl,--defsym=_ZNSaINSt13__future_base13_State_baseV2EED1Ev=so_stub_for_libv2x_radio
-Wl,--defsym=_ZNSaINSt13__future_base13_State_baseV2EED2Ev=so_stub_for_libv2x_radio
-Wl,--defsym=_ZNSaISt13_Rb_tree_nodeISt4pairIK11v2x_event_tNSt7__cxx1112basic_stringIcSt11char_traitsIcESaIcEEEEEEC1ERKSB_=so_stub_for_libv2x_radio
-Wl,--defsym=_ZNSaISt13_Rb_tree_nodeISt4pairIK11v2x_event_tNSt7__cxx1112basic_stringIcSt11char_traitsIcESaIcEEEEEEC1IS9_EERKSaIT_E=so_stub_for_libv2x_radio
-Wl,--defsym=_ZNSaISt13_Rb_tree_nodeISt4pairIK11v2x_event_tNSt7__cxx1112basic_stringIcSt11char_traitsIcESaIcEEEEEEC2ERKSB_=so_stub_for_libv2x_radio
-Wl,--defsym=_ZNSaISt13_Rb_tree_nodeISt4pairIK11v2x_event_tNSt7__cxx1112basic_stringIcSt11char_traitsIcESaIcEEEEEEC2IS9_EERKSaIT_E=so_stub_for_libv2x_radio
-Wl,--defsym=_ZNSaISt13_Rb_tree_nodeISt4pairIK11v2x_event_tNSt7__cxx1112basic_stringIcSt11char_traitsIcESaIcEEEEEED1Ev=so_stub_for_libv2x_radio
-Wl,--defsym=_ZNSaISt13_Rb_tree_nodeISt4pairIK11v2x_event_tNSt7__cxx1112basic_stringIcSt11char_traitsIcESaIcEEEEEED2Ev=so_stub_for_libv2x_radio
-Wl,--defsym=_ZNSaISt13_Rb_tree_nodeISt4pairIKiSt10shared_ptrIN5telux4cv2x11ICv2xTxFlowEEEEEC1Ev=so_stub_for_libv2x_radio
-Wl,--defsym=_ZNSaISt13_Rb_tree_nodeISt4pairIKiSt10shared_ptrIN5telux4cv2x11ICv2xTxFlowEEEEEC2Ev=so_stub_for_libv2x_radio
-Wl,--defsym=_ZNSaISt13_Rb_tree_nodeISt4pairIKiSt10shared_ptrIN5telux4cv2x11ICv2xTxFlowEEEEED1Ev=so_stub_for_libv2x_radio
-Wl,--defsym=_ZNSaISt13_Rb_tree_nodeISt4pairIKiSt10shared_ptrIN5telux4cv2x11ICv2xTxFlowEEEEED2Ev=so_stub_for_libv2x_radio
-Wl,--defsym=_ZNSaISt13_Rb_tree_nodeISt4pairIKiSt10shared_ptrIN5telux4cv2x15ICv2xTxRxSocketEEEEEC1Ev=so_stub_for_libv2x_radio
-Wl,--defsym=_ZNSaISt13_Rb_tree_nodeISt4pairIKiSt10shared_ptrIN5telux4cv2x15ICv2xTxRxSocketEEEEEC2Ev=so_stub_for_libv2x_radio
-Wl,--defsym=_ZNSaISt13_Rb_tree_nodeISt4pairIKiSt10shared_ptrIN5telux4cv2x15ICv2xTxRxSocketEEEEED1Ev=so_stub_for_libv2x_radio
-Wl,--defsym=_ZNSaISt13_Rb_tree_nodeISt4pairIKiSt10shared_ptrIN5telux4cv2x15ICv2xTxRxSocketEEEEED2Ev=so_stub_for_libv2x_radio
-Wl,--defsym=_ZNSaISt13_Rb_tree_nodeISt4pairIKiSt10shared_ptrIN5telux4cv2x19ICv2xRxSubscriptionEEEEEC1Ev=so_stub_for_libv2x_radio
-Wl,--defsym=_ZNSaISt13_Rb_tree_nodeISt4pairIKiSt10shared_ptrIN5telux4cv2x19ICv2xRxSubscriptionEEEEEC2Ev=so_stub_for_libv2x_radio
-Wl,--defsym=_ZNSaISt13_Rb_tree_nodeISt4pairIKiSt10shared_ptrIN5telux4cv2x19ICv2xRxSubscriptionEEEEED1Ev=so_stub_for_libv2x_radio
-Wl,--defsym=_ZNSaISt13_Rb_tree_nodeISt4pairIKiSt10shared_ptrIN5telux4cv2x19ICv2xRxSubscriptionEEEEED2Ev=so_stub_for_libv2x_radio
-Wl,--defsym=_ZNSaISt13_Rb_tree_nodeISt4pairIKjP31v2x_per_sps_reservation_calls_tEEEC1Ev=so_stub_for_libv2x_radio
-Wl,--defsym=_ZNSaISt13_Rb_tree_nodeISt4pairIKjP31v2x_per_sps_reservation_calls_tEEEC2Ev=so_stub_for_libv2x_radio
-Wl,--defsym=_ZNSaISt13_Rb_tree_nodeISt4pairIKjP31v2x_per_sps_reservation_calls_tEEED1Ev=so_stub_for_libv2x_radio
-Wl,--defsym=_ZNSaISt13_Rb_tree_nodeISt4pairIKjP31v2x_per_sps_reservation_calls_tEEED2Ev=so_stub_for_libv2x_radio
-Wl,--defsym=_ZNSaISt13_Rb_tree_nodeISt4pairIKN5telux4cv2x14Cv2xStatusTypeENSt7__cxx1112basic_stringIcSt11char_traitsIcESaIcEEEEEEC1ERKSD_=so_stub_for_libv2x_radio
-Wl,--defsym=_ZNSaISt13_Rb_tree_nodeISt4pairIKN5telux4cv2x14Cv2xStatusTypeENSt7__cxx1112basic_stringIcSt11char_traitsIcESaIcEEEEEEC1ISB_EERKSaIT_E=so_stub_for_libv2x_radio
-Wl,--defsym=_ZNSaISt13_Rb_tree_nodeISt4pairIKN5telux4cv2x14Cv2xStatusTypeENSt7__cxx1112basic_stringIcSt11char_traitsIcESaIcEEEEEEC2ERKSD_=so_stub_for_libv2x_radio
-Wl,--defsym=_ZNSaISt13_Rb_tree_nodeISt4pairIKN5telux4cv2x14Cv2xStatusTypeENSt7__cxx1112basic_stringIcSt11char_traitsIcESaIcEEEEEEC2ISB_EERKSaIT_E=so_stub_for_libv2x_radio
-Wl,--defsym=_ZNSaISt13_Rb_tree_nodeISt4pairIKN5telux4cv2x14Cv2xStatusTypeENSt7__cxx1112basic_stringIcSt11char_traitsIcESaIcEEEEEED1Ev=so_stub_for_libv2x_radio
-Wl,--defsym=_ZNSaISt13_Rb_tree_nodeISt4pairIKN5telux4cv2x14Cv2xStatusTypeENSt7__cxx1112basic_stringIcSt11char_traitsIcESaIcEEEEEED2Ev=so_stub_for_libv2x_radio
-Wl,--defsym=_ZNSaISt23_Sp_counted_ptr_inplaceI12Cv2xListenerSaIS0_ELN9__gnu_cxx12_Lock_policyE2EEEC1IS0_EERKSaIT_E=so_stub_for_libv2x_radio
-Wl,--defsym=_ZNSaISt23_Sp_counted_ptr_inplaceI12Cv2xListenerSaIS0_ELN9__gnu_cxx12_Lock_policyE2EEEC2IS0_EERKSaIT_E=so_stub_for_libv2x_radio
-Wl,--defsym=_ZNSaISt23_Sp_counted_ptr_inplaceI12Cv2xListenerSaIS0_ELN9__gnu_cxx12_Lock_policyE2EEED1Ev=so_stub_for_libv2x_radio
-Wl,--defsym=_ZNSaISt23_Sp_counted_ptr_inplaceI12Cv2xListenerSaIS0_ELN9__gnu_cxx12_Lock_policyE2EEED2Ev=so_stub_for_libv2x_radio
-Wl,--defsym=_ZNSaISt23_Sp_counted_ptr_inplaceI13RadioListenerSaIS0_ELN9__gnu_cxx12_Lock_policyE2EEEC1IS0_EERKSaIT_E=so_stub_for_libv2x_radio
-Wl,--defsym=_ZNSaISt23_Sp_counted_ptr_inplaceI13RadioListenerSaIS0_ELN9__gnu_cxx12_Lock_policyE2EEEC2IS0_EERKSaIT_E=so_stub_for_libv2x_radio
-Wl,--defsym=_ZNSaISt23_Sp_counted_ptr_inplaceI13RadioListenerSaIS0_ELN9__gnu_cxx12_Lock_policyE2EEED1Ev=so_stub_for_libv2x_radio
-Wl,--defsym=_ZNSaISt23_Sp_counted_ptr_inplaceI13RadioListenerSaIS0_ELN9__gnu_cxx12_Lock_policyE2EEED2Ev=so_stub_for_libv2x_radio
-Wl,--defsym=_ZNSaISt23_Sp_counted_ptr_inplaceI14ConfigListenerSaIS0_ELN9__gnu_cxx12_Lock_policyE2EEEC1IS0_EERKSaIT_E=so_stub_for_libv2x_radio
-Wl,--defsym=_ZNSaISt23_Sp_counted_ptr_inplaceI14ConfigListenerSaIS0_ELN9__gnu_cxx12_Lock_policyE2EEEC2IS0_EERKSaIT_E=so_stub_for_libv2x_radio
-Wl,--defsym=_ZNSaISt23_Sp_counted_ptr_inplaceI14ConfigListenerSaIS0_ELN9__gnu_cxx12_Lock_policyE2EEED1Ev=so_stub_for_libv2x_radio
-Wl,--defsym=_ZNSaISt23_Sp_counted_ptr_inplaceI14ConfigListenerSaIS0_ELN9__gnu_cxx12_Lock_policyE2EEED2Ev=so_stub_for_libv2x_radio
-Wl,--defsym=_ZNSaISt23_Sp_counted_ptr_inplaceINSt13__future_base13_State_baseV2ESaIS1_ELN9__gnu_cxx12_Lock_policyE2EEEC1IS1_EERKSaIT_E=so_stub_for_libv2x_radio
-Wl,--defsym=_ZNSaISt23_Sp_counted_ptr_inplaceINSt13__future_base13_State_baseV2ESaIS1_ELN9__gnu_cxx12_Lock_policyE2EEEC2IS1_EERKSaIT_E=so_stub_for_libv2x_radio
-Wl,--defsym=_ZNSaISt23_Sp_counted_ptr_inplaceINSt13__future_base13_State_baseV2ESaIS1_ELN9__gnu_cxx12_Lock_policyE2EEED1Ev=so_stub_for_libv2x_radio
-Wl,--defsym=_ZNSaISt23_Sp_counted_ptr_inplaceINSt13__future_base13_State_baseV2ESaIS1_ELN9__gnu_cxx12_Lock_policyE2EEED2Ev=so_stub_for_libv2x_radio
-Wl,--defsym=_ZNSaISt23_Sp_counted_ptr_inplaceISt6vectorIjSaIjEESaIS2_ELN9__gnu_cxx12_Lock_policyE2EEEC1IS2_EERKSaIT_E=so_stub_for_libv2x_radio
-Wl,--defsym=_ZNSaISt23_Sp_counted_ptr_inplaceISt6vectorIjSaIjEESaIS2_ELN9__gnu_cxx12_Lock_policyE2EEEC2IS2_EERKSaIT_E=so_stub_for_libv2x_radio
-Wl,--defsym=_ZNSaISt23_Sp_counted_ptr_inplaceISt6vectorIjSaIjEESaIS2_ELN9__gnu_cxx12_Lock_policyE2EEED1Ev=so_stub_for_libv2x_radio
-Wl,--defsym=_ZNSaISt23_Sp_counted_ptr_inplaceISt6vectorIjSaIjEESaIS2_ELN9__gnu_cxx12_Lock_policyE2EEED2Ev=so_stub_for_libv2x_radio
-Wl,--defsym=_ZNSaISt4pairIK11v2x_event_tNSt7__cxx1112basic_stringIcSt11char_traitsIcESaIcEEEEEC1ERKS9_=so_stub_for_libv2x_radio
-Wl,--defsym=_ZNSaISt4pairIK11v2x_event_tNSt7__cxx1112basic_stringIcSt11char_traitsIcESaIcEEEEEC1Ev=so_stub_for_libv2x_radio
-Wl,--defsym=_ZNSaISt4pairIK11v2x_event_tNSt7__cxx1112basic_stringIcSt11char_traitsIcESaIcEEEEEC2ERKS9_=so_stub_for_libv2x_radio
-Wl,--defsym=_ZNSaISt4pairIK11v2x_event_tNSt7__cxx1112basic_stringIcSt11char_traitsIcESaIcEEEEEC2Ev=so_stub_for_libv2x_radio
-Wl,--defsym=_ZNSaISt4pairIK11v2x_event_tNSt7__cxx1112basic_stringIcSt11char_traitsIcESaIcEEEEED1Ev=so_stub_for_libv2x_radio
-Wl,--defsym=_ZNSaISt4pairIK11v2x_event_tNSt7__cxx1112basic_stringIcSt11char_traitsIcESaIcEEEEED2Ev=so_stub_for_libv2x_radio
-Wl,--defsym=_ZNSaISt4pairIKN5telux4cv2x14Cv2xStatusTypeENSt7__cxx1112basic_stringIcSt11char_traitsIcESaIcEEEEEC1ERKSB_=so_stub_for_libv2x_radio
-Wl,--defsym=_ZNSaISt4pairIKN5telux4cv2x14Cv2xStatusTypeENSt7__cxx1112basic_stringIcSt11char_traitsIcESaIcEEEEEC1Ev=so_stub_for_libv2x_radio
-Wl,--defsym=_ZNSaISt4pairIKN5telux4cv2x14Cv2xStatusTypeENSt7__cxx1112basic_stringIcSt11char_traitsIcESaIcEEEEEC2ERKSB_=so_stub_for_libv2x_radio
-Wl,--defsym=_ZNSaISt4pairIKN5telux4cv2x14Cv2xStatusTypeENSt7__cxx1112basic_stringIcSt11char_traitsIcESaIcEEEEEC2Ev=so_stub_for_libv2x_radio
-Wl,--defsym=_ZNSaISt4pairIKN5telux4cv2x14Cv2xStatusTypeENSt7__cxx1112basic_stringIcSt11char_traitsIcESaIcEEEEED1Ev=so_stub_for_libv2x_radio
-Wl,--defsym=_ZNSaISt4pairIKN5telux4cv2x14Cv2xStatusTypeENSt7__cxx1112basic_stringIcSt11char_traitsIcESaIcEEEEED2Ev=so_stub_for_libv2x_radio
-Wl,--defsym=_ZNSaISt6vectorIjSaIjEEEC1ERKS2_=so_stub_for_libv2x_radio
-Wl,--defsym=_ZNSaISt6vectorIjSaIjEEEC1Ev=so_stub_for_libv2x_radio
-Wl,--defsym=_ZNSaISt6vectorIjSaIjEEEC2ERKS2_=so_stub_for_libv2x_radio
-Wl,--defsym=_ZNSaISt6vectorIjSaIjEEEC2Ev=so_stub_for_libv2x_radio
-Wl,--defsym=_ZNSaISt6vectorIjSaIjEEED1Ev=so_stub_for_libv2x_radio
-Wl,--defsym=_ZNSaISt6vectorIjSaIjEEED2Ev=so_stub_for_libv2x_radio
-Wl,--defsym=_ZNSaIyEC1ERKS_=so_stub_for_libv2x_radio
-Wl,--defsym=_ZNSaIyEC1Ev=so_stub_for_libv2x_radio
-Wl,--defsym=_ZNSaIyEC2ERKS_=so_stub_for_libv2x_radio
-Wl,--defsym=_ZNSaIyEC2Ev=so_stub_for_libv2x_radio
-Wl,--defsym=_ZNSaIyED1Ev=so_stub_for_libv2x_radio
-Wl,--defsym=_ZNSaIyED2Ev=so_stub_for_libv2x_radio
-Wl,--defsym=_ZNSt10error_codeC1EiRKNSt3_V214error_categoryE=so_stub_for_libv2x_radio
-Wl,--defsym=_ZNSt10error_codeC2EiRKNSt3_V214error_categoryE=so_stub_for_libv2x_radio
-Wl,--defsym=_ZNSt10_Head_baseILj0EPNSt13__future_base12_Result_baseELb0EE7_M_headERKS3_=so_stub_for_libv2x_radio
-Wl,--defsym=_ZNSt10_Head_baseILj0EPNSt13__future_base12_Result_baseELb0EE7_M_headERS3_=so_stub_for_libv2x_radio
-Wl,--defsym=_ZNSt10_Head_baseILj0EPNSt13__future_base12_Result_baseELb0EEC1Ev=so_stub_for_libv2x_radio
-Wl,--defsym=_ZNSt10_Head_baseILj0EPNSt13__future_base12_Result_baseELb0EEC1IRS2_EEOT_=so_stub_for_libv2x_radio
-Wl,--defsym=_ZNSt10_Head_baseILj0EPNSt13__future_base12_Result_baseELb0EEC1IS2_EEOT_=so_stub_for_libv2x_radio
-Wl,--defsym=_ZNSt10_Head_baseILj0EPNSt13__future_base12_Result_baseELb0EEC2Ev=so_stub_for_libv2x_radio
-Wl,--defsym=_ZNSt10_Head_baseILj0EPNSt13__future_base12_Result_baseELb0EEC2IRS2_EEOT_=so_stub_for_libv2x_radio
-Wl,--defsym=_ZNSt10_Head_baseILj0EPNSt13__future_base12_Result_baseELb0EEC2IS2_EEOT_=so_stub_for_libv2x_radio
-Wl,--defsym=_ZNSt10_Head_baseILj0EPNSt13__future_base7_ResultI21_v2x_status_enum_typeEELb0EE7_M_headERKS5_=so_stub_for_libv2x_radio
-Wl,--defsym=_ZNSt10_Head_baseILj0EPNSt13__future_base7_ResultI21_v2x_status_enum_typeEELb0EE7_M_headERS5_=so_stub_for_libv2x_radio
-Wl,--defsym=_ZNSt10_Head_baseILj0EPNSt13__future_base7_ResultI21_v2x_status_enum_typeEELb0EEC1Ev=so_stub_for_libv2x_radio
-Wl,--defsym=_ZNSt10_Head_baseILj0EPNSt13__future_base7_ResultI21_v2x_status_enum_typeEELb0EEC1IRS4_EEOT_=so_stub_for_libv2x_radio
-Wl,--defsym=_ZNSt10_Head_baseILj0EPNSt13__future_base7_ResultI21_v2x_status_enum_typeEELb0EEC2Ev=so_stub_for_libv2x_radio
-Wl,--defsym=_ZNSt10_Head_baseILj0EPNSt13__future_base7_ResultI21_v2x_status_enum_typeEELb0EEC2IRS4_EEOT_=so_stub_for_libv2x_radio
-Wl,--defsym=_ZNSt10_Head_baseILj0EPNSt13__future_base7_ResultIiEELb0EE7_M_headERKS4_=so_stub_for_libv2x_radio
-Wl,--defsym=_ZNSt10_Head_baseILj0EPNSt13__future_base7_ResultIiEELb0EE7_M_headERS4_=so_stub_for_libv2x_radio
-Wl,--defsym=_ZNSt10_Head_baseILj0EPNSt13__future_base7_ResultIiEELb0EEC1Ev=so_stub_for_libv2x_radio
-Wl,--defsym=_ZNSt10_Head_baseILj0EPNSt13__future_base7_ResultIiEELb0EEC1IRS3_EEOT_=so_stub_for_libv2x_radio
-Wl,--defsym=_ZNSt10_Head_baseILj0EPNSt13__future_base7_ResultIiEELb0EEC2Ev=so_stub_for_libv2x_radio
-Wl,--defsym=_ZNSt10_Head_baseILj0EPNSt13__future_base7_ResultIiEELb0EEC2IRS3_EEOT_=so_stub_for_libv2x_radio
-Wl,--defsym=_ZNSt10_Head_baseILj0EPNSt13__future_base7_ResultIN5telux6common9ErrorCodeEEELb0EE7_M_headERKS7_=so_stub_for_libv2x_radio
-Wl,--defsym=_ZNSt10_Head_baseILj0EPNSt13__future_base7_ResultIN5telux6common9ErrorCodeEEELb0EE7_M_headERS7_=so_stub_for_libv2x_radio
-Wl,--defsym=_ZNSt10_Head_baseILj0EPNSt13__future_base7_ResultIN5telux6common9ErrorCodeEEELb0EEC1Ev=so_stub_for_libv2x_radio
-Wl,--defsym=_ZNSt10_Head_baseILj0EPNSt13__future_base7_ResultIN5telux6common9ErrorCodeEEELb0EEC1IRS6_EEOT_=so_stub_for_libv2x_radio
-Wl,--defsym=_ZNSt10_Head_baseILj0EPNSt13__future_base7_ResultIN5telux6common9ErrorCodeEEELb0EEC2Ev=so_stub_for_libv2x_radio
-Wl,--defsym=_ZNSt10_Head_baseILj0EPNSt13__future_base7_ResultIN5telux6common9ErrorCodeEEELb0EEC2IRS6_EEOT_=so_stub_for_libv2x_radio
-Wl,--defsym=_ZNSt10_Head_baseILj0EPNSt13__future_base7_ResultISt4pairIN5telux6common9ErrorCodeES5_EEELb0EE7_M_headERKS9_=so_stub_for_libv2x_radio
-Wl,--defsym=_ZNSt10_Head_baseILj0EPNSt13__future_base7_ResultISt4pairIN5telux6common9ErrorCodeES5_EEELb0EE7_M_headERS9_=so_stub_for_libv2x_radio
-Wl,--defsym=_ZNSt10_Head_baseILj0EPNSt13__future_base7_ResultISt4pairIN5telux6common9ErrorCodeES5_EEELb0EEC1Ev=so_stub_for_libv2x_radio
-Wl,--defsym=_ZNSt10_Head_baseILj0EPNSt13__future_base7_ResultISt4pairIN5telux6common9ErrorCodeES5_EEELb0EEC1IRS8_EEOT_=so_stub_for_libv2x_radio
-Wl,--defsym=_ZNSt10_Head_baseILj0EPNSt13__future_base7_ResultISt4pairIN5telux6common9ErrorCodeES5_EEELb0EEC2Ev=so_stub_for_libv2x_radio
-Wl,--defsym=_ZNSt10_Head_baseILj0EPNSt13__future_base7_ResultISt4pairIN5telux6common9ErrorCodeES5_EEELb0EEC2IRS8_EEOT_=so_stub_for_libv2x_radio
-Wl,--defsym=_ZNSt10_Head_baseILj0EPNSt6thread6_StateELb0EE7_M_headERS3_=so_stub_for_libv2x_radio
-Wl,--defsym=_ZNSt10_Head_baseILj0EPNSt6thread6_StateELb0EEC1Ev=so_stub_for_libv2x_radio
-Wl,--defsym=_ZNSt10_Head_baseILj0EPNSt6thread6_StateELb0EEC2Ev=so_stub_for_libv2x_radio
-Wl,--defsym=_ZNSt10_Head_baseILj0ERK11v2x_event_tLb0EE7_M_headERS3_=so_stub_for_libv2x_radio
-Wl,--defsym=_ZNSt10_Head_baseILj0ERK11v2x_event_tLb0EEC1ES2_=so_stub_for_libv2x_radio
-Wl,--defsym=_ZNSt10_Head_baseILj0ERK11v2x_event_tLb0EEC2ES2_=so_stub_for_libv2x_radio
-Wl,--defsym=_ZNSt10_Head_baseILj0ERKiLb0EE7_M_headERS2_=so_stub_for_libv2x_radio
-Wl,--defsym=_ZNSt10_Head_baseILj0ERKiLb0EEC1ES1_=so_stub_for_libv2x_radio
-Wl,--defsym=_ZNSt10_Head_baseILj0ERKiLb0EEC2ES1_=so_stub_for_libv2x_radio
-Wl,--defsym=_ZNSt10_Head_baseILj0ERKjLb0EE7_M_headERS2_=so_stub_for_libv2x_radio
-Wl,--defsym=_ZNSt10_Head_baseILj0ERKjLb0EEC1ES1_=so_stub_for_libv2x_radio
-Wl,--defsym=_ZNSt10_Head_baseILj0ERKjLb0EEC2ES1_=so_stub_for_libv2x_radio
-Wl,--defsym=_ZNSt10_Head_baseILj0ERKN5telux4cv2x14Cv2xStatusTypeELb0EE7_M_headERS5_=so_stub_for_libv2x_radio
-Wl,--defsym=_ZNSt10_Head_baseILj0ERKN5telux4cv2x14Cv2xStatusTypeELb0EEC1ES4_=so_stub_for_libv2x_radio
-Wl,--defsym=_ZNSt10_Head_baseILj0ERKN5telux4cv2x14Cv2xStatusTypeELb0EEC2ES4_=so_stub_for_libv2x_radio
-Wl,--defsym=_ZNSt10_Head_baseILj1ENSt13__future_base12_Result_base8_DeleterELb1EE7_M_headERS3_=so_stub_for_libv2x_radio
-Wl,--defsym=_ZNSt10_Head_baseILj1ENSt13__future_base12_Result_base8_DeleterELb1EEC1Ev=so_stub_for_libv2x_radio
-Wl,--defsym=_ZNSt10_Head_baseILj1ENSt13__future_base12_Result_base8_DeleterELb1EEC1IS2_EEOT_=so_stub_for_libv2x_radio
-Wl,--defsym=_ZNSt10_Head_baseILj1ENSt13__future_base12_Result_base8_DeleterELb1EEC2Ev=so_stub_for_libv2x_radio
-Wl,--defsym=_ZNSt10_Head_baseILj1ENSt13__future_base12_Result_base8_DeleterELb1EEC2IS2_EEOT_=so_stub_for_libv2x_radio
-Wl,--defsym=_ZNSt10_Head_baseILj1ESt14default_deleteINSt6thread6_StateEELb1EE7_M_headERS4_=so_stub_for_libv2x_radio
-Wl,--defsym=_ZNSt10_Head_baseILj1ESt14default_deleteINSt6thread6_StateEELb1EEC1Ev=so_stub_for_libv2x_radio
-Wl,--defsym=_ZNSt10_Head_baseILj1ESt14default_deleteINSt6thread6_StateEELb1EEC2Ev=so_stub_for_libv2x_radio
-Wl,--defsym=_ZNSt10lock_guardISt5mutexEC1ERS0_=so_stub_for_libv2x_radio
-Wl,--defsym=_ZNSt10lock_guardISt5mutexEC2ERS0_=so_stub_for_libv2x_radio
-Wl,--defsym=_ZNSt10lock_guardISt5mutexED1Ev=so_stub_for_libv2x_radio
-Wl,--defsym=_ZNSt10lock_guardISt5mutexED2Ev=so_stub_for_libv2x_radio
-Wl,--defsym=_ZNSt10shared_ptrI12Cv2xListenerEC1ISaIS0_EJEEESt19_Sp_make_shared_tagRKT_DpOT0_=so_stub_for_libv2x_radio
-Wl,--defsym=_ZNSt10shared_ptrI12Cv2xListenerEC2ISaIS0_EJEEESt19_Sp_make_shared_tagRKT_DpOT0_=so_stub_for_libv2x_radio
-Wl,--defsym=_ZNSt10shared_ptrI12Cv2xListenerED1Ev=so_stub_for_libv2x_radio
-Wl,--defsym=_ZNSt10shared_ptrI12Cv2xListenerED2Ev=so_stub_for_libv2x_radio
-Wl,--defsym=_ZNSt10shared_ptrI13RadioListenerEC1ISaIS0_EJEEESt19_Sp_make_shared_tagRKT_DpOT0_=so_stub_for_libv2x_radio
-Wl,--defsym=_ZNSt10shared_ptrI13RadioListenerEC2ISaIS0_EJEEESt19_Sp_make_shared_tagRKT_DpOT0_=so_stub_for_libv2x_radio
-Wl,--defsym=_ZNSt10shared_ptrI13RadioListenerED1Ev=so_stub_for_libv2x_radio
-Wl,--defsym=_ZNSt10shared_ptrI13RadioListenerED2Ev=so_stub_for_libv2x_radio
-Wl,--defsym=_ZNSt10shared_ptrI14ConfigListenerEC1ISaIS0_EJEEESt19_Sp_make_shared_tagRKT_DpOT0_=so_stub_for_libv2x_radio
-Wl,--defsym=_ZNSt10shared_ptrI14ConfigListenerEC2ISaIS0_EJEEESt19_Sp_make_shared_tagRKT_DpOT0_=so_stub_for_libv2x_radio
-Wl,--defsym=_ZNSt10shared_ptrI14ConfigListenerED1Ev=so_stub_for_libv2x_radio
-Wl,--defsym=_ZNSt10shared_ptrI14ConfigListenerED2Ev=so_stub_for_libv2x_radio
-Wl,--defsym=_ZNSt10shared_ptrIN5telux4cv2x10ICv2xRadioEEaSEOS3_=so_stub_for_libv2x_radio
-Wl,--defsym=_ZNSt10shared_ptrIN5telux4cv2x10ICv2xRadioEEC1EDn=so_stub_for_libv2x_radio
-Wl,--defsym=_ZNSt10shared_ptrIN5telux4cv2x10ICv2xRadioEEC1Ev=so_stub_for_libv2x_radio
-Wl,--defsym=_ZNSt10shared_ptrIN5telux4cv2x10ICv2xRadioEED1Ev=so_stub_for_libv2x_radio
-Wl,--defsym=_ZNSt10shared_ptrIN5telux4cv2x10ICv2xRadioEED2Ev=so_stub_for_libv2x_radio
-Wl,--defsym=_ZNSt10shared_ptrIN5telux4cv2x11ICv2xConfigEED1Ev=so_stub_for_libv2x_radio
-Wl,--defsym=_ZNSt10shared_ptrIN5telux4cv2x11ICv2xConfigEED2Ev=so_stub_for_libv2x_radio
-Wl,--defsym=_ZNSt10shared_ptrIN5telux4cv2x11ICv2xTxFlowEEaSERKS3_=so_stub_for_libv2x_radio
-Wl,--defsym=_ZNSt10shared_ptrIN5telux4cv2x11ICv2xTxFlowEEC1EDn=so_stub_for_libv2x_radio
-Wl,--defsym=_ZNSt10shared_ptrIN5telux4cv2x11ICv2xTxFlowEEC1EOS3_=so_stub_for_libv2x_radio
-Wl,--defsym=_ZNSt10shared_ptrIN5telux4cv2x11ICv2xTxFlowEEC1ERKS3_=so_stub_for_libv2x_radio
-Wl,--defsym=_ZNSt10shared_ptrIN5telux4cv2x11ICv2xTxFlowEEC1Ev=so_stub_for_libv2x_radio
-Wl,--defsym=_ZNSt10shared_ptrIN5telux4cv2x11ICv2xTxFlowEEC2EDn=so_stub_for_libv2x_radio
-Wl,--defsym=_ZNSt10shared_ptrIN5telux4cv2x11ICv2xTxFlowEEC2EOS3_=so_stub_for_libv2x_radio
-Wl,--defsym=_ZNSt10shared_ptrIN5telux4cv2x11ICv2xTxFlowEEC2ERKS3_=so_stub_for_libv2x_radio
-Wl,--defsym=_ZNSt10shared_ptrIN5telux4cv2x11ICv2xTxFlowEED1Ev=so_stub_for_libv2x_radio
-Wl,--defsym=_ZNSt10shared_ptrIN5telux4cv2x11ICv2xTxFlowEED2Ev=so_stub_for_libv2x_radio
-Wl,--defsym=_ZNSt10shared_ptrIN5telux4cv2x13ICv2xListenerEEaSI12Cv2xListenerEENSt9enable_ifIXsrSt13is_assignableIRSt12__shared_ptrIS2_LN9__gnu_cxx12_Lock_policyE2EES_IT_EE5valueERS3_E4typeEOSE_=so_stub_for_libv2x_radio
-Wl,--defsym=_ZNSt10shared_ptrIN5telux4cv2x13ICv2xListenerEEC1EDn=so_stub_for_libv2x_radio
-Wl,--defsym=_ZNSt10shared_ptrIN5telux4cv2x13ICv2xListenerEEC1Ev=so_stub_for_libv2x_radio
-Wl,--defsym=_ZNSt10shared_ptrIN5telux4cv2x13ICv2xListenerEED1Ev=so_stub_for_libv2x_radio
-Wl,--defsym=_ZNSt10shared_ptrIN5telux4cv2x13ICv2xListenerEED2Ev=so_stub_for_libv2x_radio
-Wl,--defsym=_ZNSt10shared_ptrIN5telux4cv2x15ICv2xTxRxSocketEEaSERKS3_=so_stub_for_libv2x_radio
-Wl,--defsym=_ZNSt10shared_ptrIN5telux4cv2x15ICv2xTxRxSocketEEC1EDn=so_stub_for_libv2x_radio
-Wl,--defsym=_ZNSt10shared_ptrIN5telux4cv2x15ICv2xTxRxSocketEEC1EOS3_=so_stub_for_libv2x_radio
-Wl,--defsym=_ZNSt10shared_ptrIN5telux4cv2x15ICv2xTxRxSocketEEC1ERKS3_=so_stub_for_libv2x_radio
-Wl,--defsym=_ZNSt10shared_ptrIN5telux4cv2x15ICv2xTxRxSocketEEC1Ev=so_stub_for_libv2x_radio
-Wl,--defsym=_ZNSt10shared_ptrIN5telux4cv2x15ICv2xTxRxSocketEEC2EDn=so_stub_for_libv2x_radio
-Wl,--defsym=_ZNSt10shared_ptrIN5telux4cv2x15ICv2xTxRxSocketEEC2EOS3_=so_stub_for_libv2x_radio
-Wl,--defsym=_ZNSt10shared_ptrIN5telux4cv2x15ICv2xTxRxSocketEEC2ERKS3_=so_stub_for_libv2x_radio
-Wl,--defsym=_ZNSt10shared_ptrIN5telux4cv2x15ICv2xTxRxSocketEED1Ev=so_stub_for_libv2x_radio
-Wl,--defsym=_ZNSt10shared_ptrIN5telux4cv2x15ICv2xTxRxSocketEED2Ev=so_stub_for_libv2x_radio
-Wl,--defsym=_ZNSt10shared_ptrIN5telux4cv2x17ICv2xRadioManagerEEaSEOS3_=so_stub_for_libv2x_radio
-Wl,--defsym=_ZNSt10shared_ptrIN5telux4cv2x17ICv2xRadioManagerEEC1EDn=so_stub_for_libv2x_radio
-Wl,--defsym=_ZNSt10shared_ptrIN5telux4cv2x17ICv2xRadioManagerEEC1EOS3_=so_stub_for_libv2x_radio
-Wl,--defsym=_ZNSt10shared_ptrIN5telux4cv2x17ICv2xRadioManagerEEC1Ev=so_stub_for_libv2x_radio
-Wl,--defsym=_ZNSt10shared_ptrIN5telux4cv2x17ICv2xRadioManagerEEC2EOS3_=so_stub_for_libv2x_radio
-Wl,--defsym=_ZNSt10shared_ptrIN5telux4cv2x17ICv2xRadioManagerEED1Ev=so_stub_for_libv2x_radio
-Wl,--defsym=_ZNSt10shared_ptrIN5telux4cv2x17ICv2xRadioManagerEED2Ev=so_stub_for_libv2x_radio
-Wl,--defsym=_ZNSt10shared_ptrIN5telux4cv2x18ICv2xRadioListenerEEaSI13RadioListenerEENSt9enable_ifIXsrSt13is_assignableIRSt12__shared_ptrIS2_LN9__gnu_cxx12_Lock_policyE2EES_IT_EE5valueERS3_E4typeEOSE_=so_stub_for_libv2x_radio
-Wl,--defsym=_ZNSt10shared_ptrIN5telux4cv2x18ICv2xRadioListenerEEC1EDn=so_stub_for_libv2x_radio
-Wl,--defsym=_ZNSt10shared_ptrIN5telux4cv2x18ICv2xRadioListenerEEC1Ev=so_stub_for_libv2x_radio
-Wl,--defsym=_ZNSt10shared_ptrIN5telux4cv2x18ICv2xRadioListenerEED1Ev=so_stub_for_libv2x_radio
-Wl,--defsym=_ZNSt10shared_ptrIN5telux4cv2x18ICv2xRadioListenerEED2Ev=so_stub_for_libv2x_radio
-Wl,--defsym=_ZNSt10shared_ptrIN5telux4cv2x19ICv2xConfigListenerEEaSI14ConfigListenerEENSt9enable_ifIXsrSt13is_assignableIRSt12__shared_ptrIS2_LN9__gnu_cxx12_Lock_policyE2EES_IT_EE5valueERS3_E4typeEOSE_=so_stub_for_libv2x_radio
-Wl,--defsym=_ZNSt10shared_ptrIN5telux4cv2x19ICv2xConfigListenerEED1Ev=so_stub_for_libv2x_radio
-Wl,--defsym=_ZNSt10shared_ptrIN5telux4cv2x19ICv2xConfigListenerEED2Ev=so_stub_for_libv2x_radio
-Wl,--defsym=_ZNSt10shared_ptrIN5telux4cv2x19ICv2xRxSubscriptionEEaSERKS3_=so_stub_for_libv2x_radio
-Wl,--defsym=_ZNSt10shared_ptrIN5telux4cv2x19ICv2xRxSubscriptionEEC1EDn=so_stub_for_libv2x_radio
-Wl,--defsym=_ZNSt10shared_ptrIN5telux4cv2x19ICv2xRxSubscriptionEEC1EOS3_=so_stub_for_libv2x_radio
-Wl,--defsym=_ZNSt10shared_ptrIN5telux4cv2x19ICv2xRxSubscriptionEEC1ERKS3_=so_stub_for_libv2x_radio
-Wl,--defsym=_ZNSt10shared_ptrIN5telux4cv2x19ICv2xRxSubscriptionEEC1Ev=so_stub_for_libv2x_radio
-Wl,--defsym=_ZNSt10shared_ptrIN5telux4cv2x19ICv2xRxSubscriptionEEC2EDn=so_stub_for_libv2x_radio
-Wl,--defsym=_ZNSt10shared_ptrIN5telux4cv2x19ICv2xRxSubscriptionEEC2EOS3_=so_stub_for_libv2x_radio
-Wl,--defsym=_ZNSt10shared_ptrIN5telux4cv2x19ICv2xRxSubscriptionEEC2ERKS3_=so_stub_for_libv2x_radio
-Wl,--defsym=_ZNSt10shared_ptrIN5telux4cv2x19ICv2xRxSubscriptionEED1Ev=so_stub_for_libv2x_radio
-Wl,--defsym=_ZNSt10shared_ptrIN5telux4cv2x19ICv2xRxSubscriptionEED2Ev=so_stub_for_libv2x_radio
-Wl,--defsym=_ZNSt10shared_ptrINSt13__future_base13_State_baseV2EEaSEOS2_=so_stub_for_libv2x_radio
-Wl,--defsym=_ZNSt10shared_ptrINSt13__future_base13_State_baseV2EEC1ERKS2_=so_stub_for_libv2x_radio
-Wl,--defsym=_ZNSt10shared_ptrINSt13__future_base13_State_baseV2EEC1ISaIS1_EJEEESt19_Sp_make_shared_tagRKT_DpOT0_=so_stub_for_libv2x_radio
-Wl,--defsym=_ZNSt10shared_ptrINSt13__future_base13_State_baseV2EEC2ERKS2_=so_stub_for_libv2x_radio
-Wl,--defsym=_ZNSt10shared_ptrINSt13__future_base13_State_baseV2EEC2ISaIS1_EJEEESt19_Sp_make_shared_tagRKT_DpOT0_=so_stub_for_libv2x_radio
-Wl,--defsym=_ZNSt10shared_ptrINSt13__future_base13_State_baseV2EED1Ev=so_stub_for_libv2x_radio
-Wl,--defsym=_ZNSt10shared_ptrINSt13__future_base13_State_baseV2EED2Ev=so_stub_for_libv2x_radio
-Wl,--defsym=_ZNSt10shared_ptrISt6vectorIjSaIjEEEC1EDn=so_stub_for_libv2x_radio
-Wl,--defsym=_ZNSt10shared_ptrISt6vectorIjSaIjEEEC1ERKS3_=so_stub_for_libv2x_radio
-Wl,--defsym=_ZNSt10shared_ptrISt6vectorIjSaIjEEEC1Ev=so_stub_for_libv2x_radio
-Wl,--defsym=_ZNSt10shared_ptrISt6vectorIjSaIjEEEC1ISaIS2_EJRS2_EEESt19_Sp_make_shared_tagRKT_DpOT0_=so_stub_for_libv2x_radio
-Wl,--defsym=_ZNSt10shared_ptrISt6vectorIjSaIjEEEC2EDn=so_stub_for_libv2x_radio
-Wl,--defsym=_ZNSt10shared_ptrISt6vectorIjSaIjEEEC2ERKS3_=so_stub_for_libv2x_radio
-Wl,--defsym=_ZNSt10shared_ptrISt6vectorIjSaIjEEEC2Ev=so_stub_for_libv2x_radio
-Wl,--defsym=_ZNSt10shared_ptrISt6vectorIjSaIjEEEC2ISaIS2_EJRS2_EEESt19_Sp_make_shared_tagRKT_DpOT0_=so_stub_for_libv2x_radio
-Wl,--defsym=_ZNSt10shared_ptrISt6vectorIjSaIjEEED1Ev=so_stub_for_libv2x_radio
-Wl,--defsym=_ZNSt10shared_ptrISt6vectorIjSaIjEEED2Ev=so_stub_for_libv2x_radio
-Wl,--defsym=_ZNSt10unique_ptrINSt13__future_base12_Result_baseENS1_8_DeleterEE11get_deleterEv=so_stub_for_libv2x_radio
-Wl,--defsym=_ZNSt10unique_ptrINSt13__future_base12_Result_baseENS1_8_DeleterEE4swapERS3_=so_stub_for_libv2x_radio
-Wl,--defsym=_ZNSt10unique_ptrINSt13__future_base12_Result_baseENS1_8_DeleterEEC1INS0_7_ResultI21_v2x_status_enum_typeEES2_vEEOS_IT_T0_E=so_stub_for_libv2x_radio
-Wl,--defsym=_ZNSt10unique_ptrINSt13__future_base12_Result_baseENS1_8_DeleterEEC1INS0_7_ResultIiEES2_vEEOS_IT_T0_E=so_stub_for_libv2x_radio
-Wl,--defsym=_ZNSt10unique_ptrINSt13__future_base12_Result_baseENS1_8_DeleterEEC1INS0_7_ResultIN5telux6common9ErrorCodeEEES2_vEEOS_IT_T0_E=so_stub_for_libv2x_radio
-Wl,--defsym=_ZNSt10unique_ptrINSt13__future_base12_Result_baseENS1_8_DeleterEEC1INS0_7_ResultISt4pairIN5telux6common9ErrorCodeES9_EEES2_vEEOS_IT_T0_E=so_stub_for_libv2x_radio
-Wl,--defsym=_ZNSt10unique_ptrINSt13__future_base12_Result_baseENS1_8_DeleterEEC1IS2_vEEv=so_stub_for_libv2x_radio
-Wl,--defsym=_ZNSt10unique_ptrINSt13__future_base12_Result_baseENS1_8_DeleterEEC2INS0_7_ResultI21_v2x_status_enum_typeEES2_vEEOS_IT_T0_E=so_stub_for_libv2x_radio
-Wl,--defsym=_ZNSt10unique_ptrINSt13__future_base12_Result_baseENS1_8_DeleterEEC2INS0_7_ResultIiEES2_vEEOS_IT_T0_E=so_stub_for_libv2x_radio
-Wl,--defsym=_ZNSt10unique_ptrINSt13__future_base12_Result_baseENS1_8_DeleterEEC2INS0_7_ResultIN5telux6common9ErrorCodeEEES2_vEEOS_IT_T0_E=so_stub_for_libv2x_radio
-Wl,--defsym=_ZNSt10unique_ptrINSt13__future_base12_Result_baseENS1_8_DeleterEEC2INS0_7_ResultISt4pairIN5telux6common9ErrorCodeES9_EEES2_vEEOS_IT_T0_E=so_stub_for_libv2x_radio
-Wl,--defsym=_ZNSt10unique_ptrINSt13__future_base12_Result_baseENS1_8_DeleterEEC2IS2_vEEv=so_stub_for_libv2x_radio
-Wl,--defsym=_ZNSt10unique_ptrINSt13__future_base12_Result_baseENS1_8_DeleterEED1Ev=so_stub_for_libv2x_radio
-Wl,--defsym=_ZNSt10unique_ptrINSt13__future_base12_Result_baseENS1_8_DeleterEED2Ev=so_stub_for_libv2x_radio
-Wl,--defsym=_ZNSt10unique_ptrINSt13__future_base7_ResultI21_v2x_status_enum_typeEENS0_12_Result_base8_DeleterEE11get_deleterEv=so_stub_for_libv2x_radio
-Wl,--defsym=_ZNSt10unique_ptrINSt13__future_base7_ResultI21_v2x_status_enum_typeEENS0_12_Result_base8_DeleterEE7releaseEv=so_stub_for_libv2x_radio
-Wl,--defsym=_ZNSt10unique_ptrINSt13__future_base7_ResultI21_v2x_status_enum_typeEENS0_12_Result_base8_DeleterEEC1EOS6_=so_stub_for_libv2x_radio
-Wl,--defsym=_ZNSt10unique_ptrINSt13__future_base7_ResultI21_v2x_status_enum_typeEENS0_12_Result_base8_DeleterEEC1IS5_vEEPS3_=so_stub_for_libv2x_radio
-Wl,--defsym=_ZNSt10unique_ptrINSt13__future_base7_ResultI21_v2x_status_enum_typeEENS0_12_Result_base8_DeleterEEC2EOS6_=so_stub_for_libv2x_radio
-Wl,--defsym=_ZNSt10unique_ptrINSt13__future_base7_ResultI21_v2x_status_enum_typeEENS0_12_Result_base8_DeleterEEC2IS5_vEEPS3_=so_stub_for_libv2x_radio
-Wl,--defsym=_ZNSt10unique_ptrINSt13__future_base7_ResultI21_v2x_status_enum_typeEENS0_12_Result_base8_DeleterEED1Ev=so_stub_for_libv2x_radio
-Wl,--defsym=_ZNSt10unique_ptrINSt13__future_base7_ResultI21_v2x_status_enum_typeEENS0_12_Result_base8_DeleterEED2Ev=so_stub_for_libv2x_radio
-Wl,--defsym=_ZNSt10unique_ptrINSt13__future_base7_ResultIiEENS0_12_Result_base8_DeleterEE11get_deleterEv=so_stub_for_libv2x_radio
-Wl,--defsym=_ZNSt10unique_ptrINSt13__future_base7_ResultIiEENS0_12_Result_base8_DeleterEE7releaseEv=so_stub_for_libv2x_radio
-Wl,--defsym=_ZNSt10unique_ptrINSt13__future_base7_ResultIiEENS0_12_Result_base8_DeleterEEC1EOS5_=so_stub_for_libv2x_radio
-Wl,--defsym=_ZNSt10unique_ptrINSt13__future_base7_ResultIiEENS0_12_Result_base8_DeleterEEC1IS4_vEEPS2_=so_stub_for_libv2x_radio
-Wl,--defsym=_ZNSt10unique_ptrINSt13__future_base7_ResultIiEENS0_12_Result_base8_DeleterEEC2EOS5_=so_stub_for_libv2x_radio
-Wl,--defsym=_ZNSt10unique_ptrINSt13__future_base7_ResultIiEENS0_12_Result_base8_DeleterEEC2IS4_vEEPS2_=so_stub_for_libv2x_radio
-Wl,--defsym=_ZNSt10unique_ptrINSt13__future_base7_ResultIiEENS0_12_Result_base8_DeleterEED1Ev=so_stub_for_libv2x_radio
-Wl,--defsym=_ZNSt10unique_ptrINSt13__future_base7_ResultIiEENS0_12_Result_base8_DeleterEED2Ev=so_stub_for_libv2x_radio
-Wl,--defsym=_ZNSt10unique_ptrINSt13__future_base7_ResultIN5telux6common9ErrorCodeEEENS0_12_Result_base8_DeleterEE11get_deleterEv=so_stub_for_libv2x_radio
-Wl,--defsym=_ZNSt10unique_ptrINSt13__future_base7_ResultIN5telux6common9ErrorCodeEEENS0_12_Result_base8_DeleterEE7releaseEv=so_stub_for_libv2x_radio
-Wl,--defsym=_ZNSt10unique_ptrINSt13__future_base7_ResultIN5telux6common9ErrorCodeEEENS0_12_Result_base8_DeleterEEC1EOS8_=so_stub_for_libv2x_radio
-Wl,--defsym=_ZNSt10unique_ptrINSt13__future_base7_ResultIN5telux6common9ErrorCodeEEENS0_12_Result_base8_DeleterEEC1IS7_vEEPS5_=so_stub_for_libv2x_radio
-Wl,--defsym=_ZNSt10unique_ptrINSt13__future_base7_ResultIN5telux6common9ErrorCodeEEENS0_12_Result_base8_DeleterEEC2EOS8_=so_stub_for_libv2x_radio
-Wl,--defsym=_ZNSt10unique_ptrINSt13__future_base7_ResultIN5telux6common9ErrorCodeEEENS0_12_Result_base8_DeleterEEC2IS7_vEEPS5_=so_stub_for_libv2x_radio
-Wl,--defsym=_ZNSt10unique_ptrINSt13__future_base7_ResultIN5telux6common9ErrorCodeEEENS0_12_Result_base8_DeleterEED1Ev=so_stub_for_libv2x_radio
-Wl,--defsym=_ZNSt10unique_ptrINSt13__future_base7_ResultIN5telux6common9ErrorCodeEEENS0_12_Result_base8_DeleterEED2Ev=so_stub_for_libv2x_radio
-Wl,--defsym=_ZNSt10unique_ptrINSt13__future_base7_ResultISt4pairIN5telux6common9ErrorCodeES5_EEENS0_12_Result_base8_DeleterEE11get_deleterEv=so_stub_for_libv2x_radio
-Wl,--defsym=_ZNSt10unique_ptrINSt13__future_base7_ResultISt4pairIN5telux6common9ErrorCodeES5_EEENS0_12_Result_base8_DeleterEE7releaseEv=so_stub_for_libv2x_radio
-Wl,--defsym=_ZNSt10unique_ptrINSt13__future_base7_ResultISt4pairIN5telux6common9ErrorCodeES5_EEENS0_12_Result_base8_DeleterEEC1EOSA_=so_stub_for_libv2x_radio
-Wl,--defsym=_ZNSt10unique_ptrINSt13__future_base7_ResultISt4pairIN5telux6common9ErrorCodeES5_EEENS0_12_Result_base8_DeleterEEC1IS9_vEEPS7_=so_stub_for_libv2x_radio
-Wl,--defsym=_ZNSt10unique_ptrINSt13__future_base7_ResultISt4pairIN5telux6common9ErrorCodeES5_EEENS0_12_Result_base8_DeleterEEC2EOSA_=so_stub_for_libv2x_radio
-Wl,--defsym=_ZNSt10unique_ptrINSt13__future_base7_ResultISt4pairIN5telux6common9ErrorCodeES5_EEENS0_12_Result_base8_DeleterEEC2IS9_vEEPS7_=so_stub_for_libv2x_radio
-Wl,--defsym=_ZNSt10unique_ptrINSt13__future_base7_ResultISt4pairIN5telux6common9ErrorCodeES5_EEENS0_12_Result_base8_DeleterEED1Ev=so_stub_for_libv2x_radio
-Wl,--defsym=_ZNSt10unique_ptrINSt13__future_base7_ResultISt4pairIN5telux6common9ErrorCodeES5_EEENS0_12_Result_base8_DeleterEED2Ev=so_stub_for_libv2x_radio
-Wl,--defsym=_ZNSt10unique_ptrINSt6thread6_StateESt14default_deleteIS1_EE11get_deleterEv=so_stub_for_libv2x_radio
-Wl,--defsym=_ZNSt10unique_ptrINSt6thread6_StateESt14default_deleteIS1_EEC1IS3_vEEPS1_=so_stub_for_libv2x_radio
-Wl,--defsym=_ZNSt10unique_ptrINSt6thread6_StateESt14default_deleteIS1_EEC2IS3_vEEPS1_=so_stub_for_libv2x_radio
-Wl,--defsym=_ZNSt10unique_ptrINSt6thread6_StateESt14default_deleteIS1_EED1Ev=so_stub_for_libv2x_radio
-Wl,--defsym=_ZNSt10unique_ptrINSt6thread6_StateESt14default_deleteIS1_EED2Ev=so_stub_for_libv2x_radio
-Wl,--defsym=_ZNSt10__weak_ptrIN5telux4cv2x13ICv2xListenerELN9__gnu_cxx12_Lock_policyE2EEC1IS2_vEERKSt12__shared_ptrIT_LS4_2EE=so_stub_for_libv2x_radio
-Wl,--defsym=_ZNSt10__weak_ptrIN5telux4cv2x13ICv2xListenerELN9__gnu_cxx12_Lock_policyE2EEC2IS2_vEERKSt12__shared_ptrIT_LS4_2EE=so_stub_for_libv2x_radio
-Wl,--defsym=_ZNSt10__weak_ptrIN5telux4cv2x13ICv2xListenerELN9__gnu_cxx12_Lock_policyE2EED1Ev=so_stub_for_libv2x_radio
-Wl,--defsym=_ZNSt10__weak_ptrIN5telux4cv2x13ICv2xListenerELN9__gnu_cxx12_Lock_policyE2EED2Ev=so_stub_for_libv2x_radio
-Wl,--defsym=_ZNSt10__weak_ptrIN5telux4cv2x18ICv2xRadioListenerELN9__gnu_cxx12_Lock_policyE2EEC1IS2_vEERKSt12__shared_ptrIT_LS4_2EE=so_stub_for_libv2x_radio
-Wl,--defsym=_ZNSt10__weak_ptrIN5telux4cv2x18ICv2xRadioListenerELN9__gnu_cxx12_Lock_policyE2EEC2IS2_vEERKSt12__shared_ptrIT_LS4_2EE=so_stub_for_libv2x_radio
-Wl,--defsym=_ZNSt10__weak_ptrIN5telux4cv2x18ICv2xRadioListenerELN9__gnu_cxx12_Lock_policyE2EED1Ev=so_stub_for_libv2x_radio
-Wl,--defsym=_ZNSt10__weak_ptrIN5telux4cv2x18ICv2xRadioListenerELN9__gnu_cxx12_Lock_policyE2EED2Ev=so_stub_for_libv2x_radio
-Wl,--defsym=_ZNSt10__weak_ptrIN5telux4cv2x19ICv2xConfigListenerELN9__gnu_cxx12_Lock_policyE2EEC1IS2_vEERKSt12__shared_ptrIT_LS4_2EE=so_stub_for_libv2x_radio
-Wl,--defsym=_ZNSt10__weak_ptrIN5telux4cv2x19ICv2xConfigListenerELN9__gnu_cxx12_Lock_policyE2EEC2IS2_vEERKSt12__shared_ptrIT_LS4_2EE=so_stub_for_libv2x_radio
-Wl,--defsym=_ZNSt10__weak_ptrIN5telux4cv2x19ICv2xConfigListenerELN9__gnu_cxx12_Lock_policyE2EED1Ev=so_stub_for_libv2x_radio
-Wl,--defsym=_ZNSt10__weak_ptrIN5telux4cv2x19ICv2xConfigListenerELN9__gnu_cxx12_Lock_policyE2EED2Ev=so_stub_for_libv2x_radio
-Wl,--defsym=_ZNSt11atomic_flag7_S_initEb=so_stub_for_libv2x_radio
-Wl,--defsym=_ZNSt11atomic_flagC1Eb=so_stub_for_libv2x_radio
-Wl,--defsym=_ZNSt11atomic_flagC2Eb=so_stub_for_libv2x_radio
-Wl,--defsym=_ZNSt11char_traitsIcE6assignERcRKc=so_stub_for_libv2x_radio
-Wl,--defsym=_ZNSt11char_traitsIcE7compareEPKcS2_j=so_stub_for_libv2x_radio
-Wl,--defsym=_ZNSt11__copy_moveILb0ELb0ESt26random_access_iterator_tagE8__copy_mIPKN5telux4cv2x14Cv2xPoolStatusEPS5_EET0_T_SA_S9_=so_stub_for_libv2x_radio
-Wl,--defsym=_ZNSt11__copy_moveILb0ELb0ESt26random_access_iterator_tagE8__copy_mIPN5telux4cv2x14Cv2xPoolStatusES6_EET0_T_S8_S7_=so_stub_for_libv2x_radio
-Wl,--defsym=_ZNSt11__copy_moveILb0ELb1ESt26random_access_iterator_tagE8__copy_mIjEEPT_PKS3_S6_S4_=so_stub_for_libv2x_radio
-Wl,--defsym=_ZNSt11__copy_moveILb0ELb1ESt26random_access_iterator_tagE8__copy_mIN5telux4cv2x12TxPoolIdInfoEEEPT_PKS6_S9_S7_=so_stub_for_libv2x_radio
-Wl,--defsym=_ZNSt11__copy_moveILb0ELb1ESt26random_access_iterator_tagE8__copy_mIyEEPT_PKS3_S6_S4_=so_stub_for_libv2x_radio
-Wl,--defsym=_ZNSt11__copy_moveILb1ELb1ESt26random_access_iterator_tagE8__copy_mIjEEPT_PKS3_S6_S4_=so_stub_for_libv2x_radio
-Wl,--defsym=_ZNSt11__copy_moveILb1ELb1ESt26random_access_iterator_tagE8__copy_mIN5telux4cv2x13TrustedUEInfoEEEPT_PKS6_S9_S7_=so_stub_for_libv2x_radio
-Wl,--defsym=_ZNSt11_Tuple_implILj0EJPNSt13__future_base12_Result_baseENS1_8_DeleterEEE7_M_headERKS4_=so_stub_for_libv2x_radio
-Wl,--defsym=_ZNSt11_Tuple_implILj0EJPNSt13__future_base12_Result_baseENS1_8_DeleterEEE7_M_headERS4_=so_stub_for_libv2x_radio
-Wl,--defsym=_ZNSt11_Tuple_implILj0EJPNSt13__future_base12_Result_baseENS1_8_DeleterEEE7_M_tailERS4_=so_stub_for_libv2x_radio
-Wl,--defsym=_ZNSt11_Tuple_implILj0EJPNSt13__future_base12_Result_baseENS1_8_DeleterEEEaSEOS4_=so_stub_for_libv2x_radio
-Wl,--defsym=_ZNSt11_Tuple_implILj0EJPNSt13__future_base12_Result_baseENS1_8_DeleterEEEC1EOS4_=so_stub_for_libv2x_radio
-Wl,--defsym=_ZNSt11_Tuple_implILj0EJPNSt13__future_base12_Result_baseENS1_8_DeleterEEEC1Ev=so_stub_for_libv2x_radio
-Wl,--defsym=_ZNSt11_Tuple_implILj0EJPNSt13__future_base12_Result_baseENS1_8_DeleterEEEC1IRS2_JS3_EvEEOT_DpOT0_=so_stub_for_libv2x_radio
-Wl,--defsym=_ZNSt11_Tuple_implILj0EJPNSt13__future_base12_Result_baseENS1_8_DeleterEEEC2EOS4_=so_stub_for_libv2x_radio
-Wl,--defsym=_ZNSt11_Tuple_implILj0EJPNSt13__future_base12_Result_baseENS1_8_DeleterEEEC2Ev=so_stub_for_libv2x_radio
-Wl,--defsym=_ZNSt11_Tuple_implILj0EJPNSt13__future_base12_Result_baseENS1_8_DeleterEEEC2IRS2_JS3_EvEEOT_DpOT0_=so_stub_for_libv2x_radio
-Wl,--defsym=_ZNSt11_Tuple_implILj0EJPNSt13__future_base7_ResultI21_v2x_status_enum_typeEENS0_12_Result_base8_DeleterEEE7_M_headERKS7_=so_stub_for_libv2x_radio
-Wl,--defsym=_ZNSt11_Tuple_implILj0EJPNSt13__future_base7_ResultI21_v2x_status_enum_typeEENS0_12_Result_base8_DeleterEEE7_M_headERS7_=so_stub_for_libv2x_radio
-Wl,--defsym=_ZNSt11_Tuple_implILj0EJPNSt13__future_base7_ResultI21_v2x_status_enum_typeEENS0_12_Result_base8_DeleterEEEC1Ev=so_stub_for_libv2x_radio
-Wl,--defsym=_ZNSt11_Tuple_implILj0EJPNSt13__future_base7_ResultI21_v2x_status_enum_typeEENS0_12_Result_base8_DeleterEEEC1IRS4_JS6_EvEEOT_DpOT0_=so_stub_for_libv2x_radio
-Wl,--defsym=_ZNSt11_Tuple_implILj0EJPNSt13__future_base7_ResultI21_v2x_status_enum_typeEENS0_12_Result_base8_DeleterEEEC2Ev=so_stub_for_libv2x_radio
-Wl,--defsym=_ZNSt11_Tuple_implILj0EJPNSt13__future_base7_ResultI21_v2x_status_enum_typeEENS0_12_Result_base8_DeleterEEEC2IRS4_JS6_EvEEOT_DpOT0_=so_stub_for_libv2x_radio
-Wl,--defsym=_ZNSt11_Tuple_implILj0EJPNSt13__future_base7_ResultIiEENS0_12_Result_base8_DeleterEEE7_M_headERKS6_=so_stub_for_libv2x_radio
-Wl,--defsym=_ZNSt11_Tuple_implILj0EJPNSt13__future_base7_ResultIiEENS0_12_Result_base8_DeleterEEE7_M_headERS6_=so_stub_for_libv2x_radio
-Wl,--defsym=_ZNSt11_Tuple_implILj0EJPNSt13__future_base7_ResultIiEENS0_12_Result_base8_DeleterEEEC1Ev=so_stub_for_libv2x_radio
-Wl,--defsym=_ZNSt11_Tuple_implILj0EJPNSt13__future_base7_ResultIiEENS0_12_Result_base8_DeleterEEEC1IRS3_JS5_EvEEOT_DpOT0_=so_stub_for_libv2x_radio
-Wl,--defsym=_ZNSt11_Tuple_implILj0EJPNSt13__future_base7_ResultIiEENS0_12_Result_base8_DeleterEEEC2Ev=so_stub_for_libv2x_radio
-Wl,--defsym=_ZNSt11_Tuple_implILj0EJPNSt13__future_base7_ResultIiEENS0_12_Result_base8_DeleterEEEC2IRS3_JS5_EvEEOT_DpOT0_=so_stub_for_libv2x_radio
-Wl,--defsym=_ZNSt11_Tuple_implILj0EJPNSt13__future_base7_ResultIN5telux6common9ErrorCodeEEENS0_12_Result_base8_DeleterEEE7_M_headERKS9_=so_stub_for_libv2x_radio
-Wl,--defsym=_ZNSt11_Tuple_implILj0EJPNSt13__future_base7_ResultIN5telux6common9ErrorCodeEEENS0_12_Result_base8_DeleterEEE7_M_headERS9_=so_stub_for_libv2x_radio
-Wl,--defsym=_ZNSt11_Tuple_implILj0EJPNSt13__future_base7_ResultIN5telux6common9ErrorCodeEEENS0_12_Result_base8_DeleterEEEC1Ev=so_stub_for_libv2x_radio
-Wl,--defsym=_ZNSt11_Tuple_implILj0EJPNSt13__future_base7_ResultIN5telux6common9ErrorCodeEEENS0_12_Result_base8_DeleterEEEC1IRS6_JS8_EvEEOT_DpOT0_=so_stub_for_libv2x_radio
-Wl,--defsym=_ZNSt11_Tuple_implILj0EJPNSt13__future_base7_ResultIN5telux6common9ErrorCodeEEENS0_12_Result_base8_DeleterEEEC2Ev=so_stub_for_libv2x_radio
-Wl,--defsym=_ZNSt11_Tuple_implILj0EJPNSt13__future_base7_ResultIN5telux6common9ErrorCodeEEENS0_12_Result_base8_DeleterEEEC2IRS6_JS8_EvEEOT_DpOT0_=so_stub_for_libv2x_radio
-Wl,--defsym=_ZNSt11_Tuple_implILj0EJPNSt13__future_base7_ResultISt4pairIN5telux6common9ErrorCodeES5_EEENS0_12_Result_base8_DeleterEEE7_M_headERKSB_=so_stub_for_libv2x_radio
-Wl,--defsym=_ZNSt11_Tuple_implILj0EJPNSt13__future_base7_ResultISt4pairIN5telux6common9ErrorCodeES5_EEENS0_12_Result_base8_DeleterEEE7_M_headERSB_=so_stub_for_libv2x_radio
-Wl,--defsym=_ZNSt11_Tuple_implILj0EJPNSt13__future_base7_ResultISt4pairIN5telux6common9ErrorCodeES5_EEENS0_12_Result_base8_DeleterEEEC1Ev=so_stub_for_libv2x_radio
-Wl,--defsym=_ZNSt11_Tuple_implILj0EJPNSt13__future_base7_ResultISt4pairIN5telux6common9ErrorCodeES5_EEENS0_12_Result_base8_DeleterEEEC1IRS8_JSA_EvEEOT_DpOT0_=so_stub_for_libv2x_radio
-Wl,--defsym=_ZNSt11_Tuple_implILj0EJPNSt13__future_base7_ResultISt4pairIN5telux6common9ErrorCodeES5_EEENS0_12_Result_base8_DeleterEEEC2Ev=so_stub_for_libv2x_radio
-Wl,--defsym=_ZNSt11_Tuple_implILj0EJPNSt13__future_base7_ResultISt4pairIN5telux6common9ErrorCodeES5_EEENS0_12_Result_base8_DeleterEEEC2IRS8_JSA_EvEEOT_DpOT0_=so_stub_for_libv2x_radio
-Wl,--defsym=_ZNSt11_Tuple_implILj0EJPNSt6thread6_StateESt14default_deleteIS1_EEE7_M_headERS5_=so_stub_for_libv2x_radio
-Wl,--defsym=_ZNSt11_Tuple_implILj0EJPNSt6thread6_StateESt14default_deleteIS1_EEEC1Ev=so_stub_for_libv2x_radio
-Wl,--defsym=_ZNSt11_Tuple_implILj0EJPNSt6thread6_StateESt14default_deleteIS1_EEEC2Ev=so_stub_for_libv2x_radio
-Wl,--defsym=_ZNSt11_Tuple_implILj0EJRK11v2x_event_tEE7_M_headERS3_=so_stub_for_libv2x_radio
-Wl,--defsym=_ZNSt11_Tuple_implILj0EJRK11v2x_event_tEEC1EOS3_=so_stub_for_libv2x_radio
-Wl,--defsym=_ZNSt11_Tuple_implILj0EJRK11v2x_event_tEEC1ES2_=so_stub_for_libv2x_radio
-Wl,--defsym=_ZNSt11_Tuple_implILj0EJRK11v2x_event_tEEC2EOS3_=so_stub_for_libv2x_radio
-Wl,--defsym=_ZNSt11_Tuple_implILj0EJRK11v2x_event_tEEC2ES2_=so_stub_for_libv2x_radio
-Wl,--defsym=_ZNSt11_Tuple_implILj0EJRKiEE7_M_headERS2_=so_stub_for_libv2x_radio
-Wl,--defsym=_ZNSt11_Tuple_implILj0EJRKiEEC1EOS2_=so_stub_for_libv2x_radio
-Wl,--defsym=_ZNSt11_Tuple_implILj0EJRKiEEC1ES1_=so_stub_for_libv2x_radio
-Wl,--defsym=_ZNSt11_Tuple_implILj0EJRKiEEC2EOS2_=so_stub_for_libv2x_radio
-Wl,--defsym=_ZNSt11_Tuple_implILj0EJRKiEEC2ES1_=so_stub_for_libv2x_radio
-Wl,--defsym=_ZNSt11_Tuple_implILj0EJRKjEE7_M_headERS2_=so_stub_for_libv2x_radio
-Wl,--defsym=_ZNSt11_Tuple_implILj0EJRKjEEC1EOS2_=so_stub_for_libv2x_radio
-Wl,--defsym=_ZNSt11_Tuple_implILj0EJRKjEEC1ES1_=so_stub_for_libv2x_radio
-Wl,--defsym=_ZNSt11_Tuple_implILj0EJRKjEEC2EOS2_=so_stub_for_libv2x_radio
-Wl,--defsym=_ZNSt11_Tuple_implILj0EJRKjEEC2ES1_=so_stub_for_libv2x_radio
-Wl,--defsym=_ZNSt11_Tuple_implILj0EJRKN5telux4cv2x14Cv2xStatusTypeEEE7_M_headERS5_=so_stub_for_libv2x_radio
-Wl,--defsym=_ZNSt11_Tuple_implILj0EJRKN5telux4cv2x14Cv2xStatusTypeEEEC1EOS5_=so_stub_for_libv2x_radio
-Wl,--defsym=_ZNSt11_Tuple_implILj0EJRKN5telux4cv2x14Cv2xStatusTypeEEEC1ES4_=so_stub_for_libv2x_radio
-Wl,--defsym=_ZNSt11_Tuple_implILj0EJRKN5telux4cv2x14Cv2xStatusTypeEEEC2EOS5_=so_stub_for_libv2x_radio
-Wl,--defsym=_ZNSt11_Tuple_implILj0EJRKN5telux4cv2x14Cv2xStatusTypeEEEC2ES4_=so_stub_for_libv2x_radio
-Wl,--defsym=_ZNSt11_Tuple_implILj1EJNSt13__future_base12_Result_base8_DeleterEEE7_M_headERS3_=so_stub_for_libv2x_radio
-Wl,--defsym=_ZNSt11_Tuple_implILj1EJNSt13__future_base12_Result_base8_DeleterEEEaSEOS3_=so_stub_for_libv2x_radio
-Wl,--defsym=_ZNSt11_Tuple_implILj1EJNSt13__future_base12_Result_base8_DeleterEEEC1EOS3_=so_stub_for_libv2x_radio
-Wl,--defsym=_ZNSt11_Tuple_implILj1EJNSt13__future_base12_Result_base8_DeleterEEEC1Ev=so_stub_for_libv2x_radio
-Wl,--defsym=_ZNSt11_Tuple_implILj1EJNSt13__future_base12_Result_base8_DeleterEEEC1IS2_EEOT_=so_stub_for_libv2x_radio
-Wl,--defsym=_ZNSt11_Tuple_implILj1EJNSt13__future_base12_Result_base8_DeleterEEEC2EOS3_=so_stub_for_libv2x_radio
-Wl,--defsym=_ZNSt11_Tuple_implILj1EJNSt13__future_base12_Result_base8_DeleterEEEC2Ev=so_stub_for_libv2x_radio
-Wl,--defsym=_ZNSt11_Tuple_implILj1EJNSt13__future_base12_Result_base8_DeleterEEEC2IS2_EEOT_=so_stub_for_libv2x_radio
-Wl,--defsym=_ZNSt11_Tuple_implILj1EJSt14default_deleteINSt6thread6_StateEEEE7_M_headERS4_=so_stub_for_libv2x_radio
-Wl,--defsym=_ZNSt11_Tuple_implILj1EJSt14default_deleteINSt6thread6_StateEEEEC1Ev=so_stub_for_libv2x_radio
-Wl,--defsym=_ZNSt11_Tuple_implILj1EJSt14default_deleteINSt6thread6_StateEEEEC2Ev=so_stub_for_libv2x_radio
-Wl,--defsym=_ZNSt11unique_lockISt5mutexE4lockEv=so_stub_for_libv2x_radio
-Wl,--defsym=_ZNSt11unique_lockISt5mutexE6unlockEv=so_stub_for_libv2x_radio
-Wl,--defsym=_ZNSt11unique_lockISt5mutexEC1ERS0_=so_stub_for_libv2x_radio
-Wl,--defsym=_ZNSt11unique_lockISt5mutexEC2ERS0_=so_stub_for_libv2x_radio
-Wl,--defsym=_ZNSt11unique_lockISt5mutexED1Ev=so_stub_for_libv2x_radio
-Wl,--defsym=_ZNSt11unique_lockISt5mutexED2Ev=so_stub_for_libv2x_radio
-Wl,--defsym=_ZNSt12_Base_bitsetILj1EE10_M_getwordEj=so_stub_for_libv2x_radio
-Wl,--defsym=_ZNSt12_Base_bitsetILj1EE10_S_maskbitEj=so_stub_for_libv2x_radio
-Wl,--defsym=_ZNSt12_Base_bitsetILj1EE11_S_whichbitEj=so_stub_for_libv2x_radio
-Wl,--defsym=_ZNSt12_Base_bitsetILj1EEC1Ev=so_stub_for_libv2x_radio
-Wl,--defsym=_ZNSt12_Base_bitsetILj1EEC2Ev=so_stub_for_libv2x_radio
-Wl,--defsym=_ZNSt12_Destroy_auxILb1EE9__destroyIN9__gnu_cxx17__normal_iteratorIPN5telux4cv2x12TxPoolIdInfoESt6vectorIS6_SaIS6_EEEEEEvT_SC_=so_stub_for_libv2x_radio
-Wl,--defsym=_ZNSt12_Destroy_auxILb1EE9__destroyIN9__gnu_cxx17__normal_iteratorIPN5telux4cv2x14Cv2xPoolStatusESt6vectorIS6_SaIS6_EEEEEEvT_SC_=so_stub_for_libv2x_radio
-Wl,--defsym=_ZNSt12_Destroy_auxILb1EE9__destroyIN9__gnu_cxx17__normal_iteratorIPySt6vectorIySaIyEEEEEEvT_S9_=so_stub_for_libv2x_radio
-Wl,--defsym=_ZNSt12_Destroy_auxILb1EE9__destroyIPjEEvT_S3_=so_stub_for_libv2x_radio
-Wl,--defsym=_ZNSt12_Destroy_auxILb1EE9__destroyIPN5telux4cv2x12TxPoolIdInfoEEEvT_S6_=so_stub_for_libv2x_radio
-Wl,--defsym=_ZNSt12_Destroy_auxILb1EE9__destroyIPN5telux4cv2x13TrustedUEInfoEEEvT_S6_=so_stub_for_libv2x_radio
-Wl,--defsym=_ZNSt12_Destroy_auxILb1EE9__destroyIPN5telux4cv2x14Cv2xPoolStatusEEEvT_S6_=so_stub_for_libv2x_radio
-Wl,--defsym=_ZNSt12_Destroy_auxILb1EE9__destroyIPyEEvT_S3_=so_stub_for_libv2x_radio
-Wl,--defsym=_ZNSt12future_errorC1ERKS_=so_stub_for_libv2x_radio
-Wl,--defsym=_ZNSt12future_errorC1ESt10error_code=so_stub_for_libv2x_radio
-Wl,--defsym=_ZNSt12future_errorC1ESt11future_errc=so_stub_for_libv2x_radio
-Wl,--defsym=_ZNSt12future_errorC2ERKS_=so_stub_for_libv2x_radio
-Wl,--defsym=_ZNSt12future_errorC2ESt10error_code=so_stub_for_libv2x_radio
-Wl,--defsym=_ZNSt12future_errorC2ESt11future_errc=so_stub_for_libv2x_radio
-Wl,--defsym=_ZNSt12__mutex_baseC1Ev=so_stub_for_libv2x_radio
-Wl,--defsym=_ZNSt12__mutex_baseC2Ev=so_stub_for_libv2x_radio
-Wl,--defsym=_ZNSt12__shared_ptrI12Cv2xListenerLN9__gnu_cxx12_Lock_policyE2EE31_M_enable_shared_from_this_withIS0_S0_EENSt9enable_ifIXntsrNS3_15__has_esft_baseIT0_vEE5valueEvE4typeEPT_=so_stub_for_libv2x_radio
-Wl,--defsym=_ZNSt12__shared_ptrI12Cv2xListenerLN9__gnu_cxx12_Lock_policyE2EEC1ISaIS0_EJEEESt19_Sp_make_shared_tagRKT_DpOT0_=so_stub_for_libv2x_radio
-Wl,--defsym=_ZNSt12__shared_ptrI12Cv2xListenerLN9__gnu_cxx12_Lock_policyE2EEC2ISaIS0_EJEEESt19_Sp_make_shared_tagRKT_DpOT0_=so_stub_for_libv2x_radio
-Wl,--defsym=_ZNSt12__shared_ptrI12Cv2xListenerLN9__gnu_cxx12_Lock_policyE2EED1Ev=so_stub_for_libv2x_radio
-Wl,--defsym=_ZNSt12__shared_ptrI12Cv2xListenerLN9__gnu_cxx12_Lock_policyE2EED2Ev=so_stub_for_libv2x_radio
-Wl,--defsym=_ZNSt12__shared_ptrI13RadioListenerLN9__gnu_cxx12_Lock_policyE2EE31_M_enable_shared_from_this_withIS0_S0_EENSt9enable_ifIXntsrNS3_15__has_esft_baseIT0_vEE5valueEvE4typeEPT_=so_stub_for_libv2x_radio
-Wl,--defsym=_ZNSt12__shared_ptrI13RadioListenerLN9__gnu_cxx12_Lock_policyE2EEC1ISaIS0_EJEEESt19_Sp_make_shared_tagRKT_DpOT0_=so_stub_for_libv2x_radio
-Wl,--defsym=_ZNSt12__shared_ptrI13RadioListenerLN9__gnu_cxx12_Lock_policyE2EEC2ISaIS0_EJEEESt19_Sp_make_shared_tagRKT_DpOT0_=so_stub_for_libv2x_radio
-Wl,--defsym=_ZNSt12__shared_ptrI13RadioListenerLN9__gnu_cxx12_Lock_policyE2EED1Ev=so_stub_for_libv2x_radio
-Wl,--defsym=_ZNSt12__shared_ptrI13RadioListenerLN9__gnu_cxx12_Lock_policyE2EED2Ev=so_stub_for_libv2x_radio
-Wl,--defsym=_ZNSt12__shared_ptrI14ConfigListenerLN9__gnu_cxx12_Lock_policyE2EE31_M_enable_shared_from_this_withIS0_S0_EENSt9enable_ifIXntsrNS3_15__has_esft_baseIT0_vEE5valueEvE4typeEPT_=so_stub_for_libv2x_radio
-Wl,--defsym=_ZNSt12__shared_ptrI14ConfigListenerLN9__gnu_cxx12_Lock_policyE2EEC1ISaIS0_EJEEESt19_Sp_make_shared_tagRKT_DpOT0_=so_stub_for_libv2x_radio
-Wl,--defsym=_ZNSt12__shared_ptrI14ConfigListenerLN9__gnu_cxx12_Lock_policyE2EEC2ISaIS0_EJEEESt19_Sp_make_shared_tagRKT_DpOT0_=so_stub_for_libv2x_radio
-Wl,--defsym=_ZNSt12__shared_ptrI14ConfigListenerLN9__gnu_cxx12_Lock_policyE2EED1Ev=so_stub_for_libv2x_radio
-Wl,--defsym=_ZNSt12__shared_ptrI14ConfigListenerLN9__gnu_cxx12_Lock_policyE2EED2Ev=so_stub_for_libv2x_radio
-Wl,--defsym=_ZNSt12__shared_ptrIN5telux4cv2x10ICv2xRadioELN9__gnu_cxx12_Lock_policyE2EE4swapERS5_=so_stub_for_libv2x_radio
-Wl,--defsym=_ZNSt12__shared_ptrIN5telux4cv2x10ICv2xRadioELN9__gnu_cxx12_Lock_policyE2EEaSEOS5_=so_stub_for_libv2x_radio
-Wl,--defsym=_ZNSt12__shared_ptrIN5telux4cv2x10ICv2xRadioELN9__gnu_cxx12_Lock_policyE2EEC1EOS5_=so_stub_for_libv2x_radio
-Wl,--defsym=_ZNSt12__shared_ptrIN5telux4cv2x10ICv2xRadioELN9__gnu_cxx12_Lock_policyE2EEC2EOS5_=so_stub_for_libv2x_radio
-Wl,--defsym=_ZNSt12__shared_ptrIN5telux4cv2x10ICv2xRadioELN9__gnu_cxx12_Lock_policyE2EEC2Ev=so_stub_for_libv2x_radio
-Wl,--defsym=_ZNSt12__shared_ptrIN5telux4cv2x10ICv2xRadioELN9__gnu_cxx12_Lock_policyE2EED1Ev=so_stub_for_libv2x_radio
-Wl,--defsym=_ZNSt12__shared_ptrIN5telux4cv2x10ICv2xRadioELN9__gnu_cxx12_Lock_policyE2EED2Ev=so_stub_for_libv2x_radio
-Wl,--defsym=_ZNSt12__shared_ptrIN5telux4cv2x11ICv2xConfigELN9__gnu_cxx12_Lock_policyE2EED1Ev=so_stub_for_libv2x_radio
-Wl,--defsym=_ZNSt12__shared_ptrIN5telux4cv2x11ICv2xConfigELN9__gnu_cxx12_Lock_policyE2EED2Ev=so_stub_for_libv2x_radio
-Wl,--defsym=_ZNSt12__shared_ptrIN5telux4cv2x11ICv2xTxFlowELN9__gnu_cxx12_Lock_policyE2EEaSERKS5_=so_stub_for_libv2x_radio
-Wl,--defsym=_ZNSt12__shared_ptrIN5telux4cv2x11ICv2xTxFlowELN9__gnu_cxx12_Lock_policyE2EEC1EOS5_=so_stub_for_libv2x_radio
-Wl,--defsym=_ZNSt12__shared_ptrIN5telux4cv2x11ICv2xTxFlowELN9__gnu_cxx12_Lock_policyE2EEC1ERKS5_=so_stub_for_libv2x_radio
-Wl,--defsym=_ZNSt12__shared_ptrIN5telux4cv2x11ICv2xTxFlowELN9__gnu_cxx12_Lock_policyE2EEC2EOS5_=so_stub_for_libv2x_radio
-Wl,--defsym=_ZNSt12__shared_ptrIN5telux4cv2x11ICv2xTxFlowELN9__gnu_cxx12_Lock_policyE2EEC2ERKS5_=so_stub_for_libv2x_radio
-Wl,--defsym=_ZNSt12__shared_ptrIN5telux4cv2x11ICv2xTxFlowELN9__gnu_cxx12_Lock_policyE2EEC2Ev=so_stub_for_libv2x_radio
-Wl,--defsym=_ZNSt12__shared_ptrIN5telux4cv2x11ICv2xTxFlowELN9__gnu_cxx12_Lock_policyE2EED1Ev=so_stub_for_libv2x_radio
-Wl,--defsym=_ZNSt12__shared_ptrIN5telux4cv2x11ICv2xTxFlowELN9__gnu_cxx12_Lock_policyE2EED2Ev=so_stub_for_libv2x_radio
-Wl,--defsym=_ZNSt12__shared_ptrIN5telux4cv2x13ICv2xListenerELN9__gnu_cxx12_Lock_policyE2EE4swapERS5_=so_stub_for_libv2x_radio
-Wl,--defsym=_ZNSt12__shared_ptrIN5telux4cv2x13ICv2xListenerELN9__gnu_cxx12_Lock_policyE2EEaSI12Cv2xListenerEENSt9enable_ifIXsrSt20__sp_compatible_withIPT_PS2_E5valueERS5_E4typeEOS_ISA_LS4_2EE=so_stub_for_libv2x_radio
-Wl,--defsym=_ZNSt12__shared_ptrIN5telux4cv2x13ICv2xListenerELN9__gnu_cxx12_Lock_policyE2EEC1I12Cv2xListenervEEOS_IT_LS4_2EE=so_stub_for_libv2x_radio
-Wl,--defsym=_ZNSt12__shared_ptrIN5telux4cv2x13ICv2xListenerELN9__gnu_cxx12_Lock_policyE2EEC2Ev=so_stub_for_libv2x_radio
-Wl,--defsym=_ZNSt12__shared_ptrIN5telux4cv2x13ICv2xListenerELN9__gnu_cxx12_Lock_policyE2EEC2I12Cv2xListenervEEOS_IT_LS4_2EE=so_stub_for_libv2x_radio
-Wl,--defsym=_ZNSt12__shared_ptrIN5telux4cv2x13ICv2xListenerELN9__gnu_cxx12_Lock_policyE2EED1Ev=so_stub_for_libv2x_radio
-Wl,--defsym=_ZNSt12__shared_ptrIN5telux4cv2x13ICv2xListenerELN9__gnu_cxx12_Lock_policyE2EED2Ev=so_stub_for_libv2x_radio
-Wl,--defsym=_ZNSt12__shared_ptrIN5telux4cv2x15ICv2xTxRxSocketELN9__gnu_cxx12_Lock_policyE2EEaSERKS5_=so_stub_for_libv2x_radio
-Wl,--defsym=_ZNSt12__shared_ptrIN5telux4cv2x15ICv2xTxRxSocketELN9__gnu_cxx12_Lock_policyE2EEC1EOS5_=so_stub_for_libv2x_radio
-Wl,--defsym=_ZNSt12__shared_ptrIN5telux4cv2x15ICv2xTxRxSocketELN9__gnu_cxx12_Lock_policyE2EEC1ERKS5_=so_stub_for_libv2x_radio
-Wl,--defsym=_ZNSt12__shared_ptrIN5telux4cv2x15ICv2xTxRxSocketELN9__gnu_cxx12_Lock_policyE2EEC2EOS5_=so_stub_for_libv2x_radio
-Wl,--defsym=_ZNSt12__shared_ptrIN5telux4cv2x15ICv2xTxRxSocketELN9__gnu_cxx12_Lock_policyE2EEC2ERKS5_=so_stub_for_libv2x_radio
-Wl,--defsym=_ZNSt12__shared_ptrIN5telux4cv2x15ICv2xTxRxSocketELN9__gnu_cxx12_Lock_policyE2EEC2Ev=so_stub_for_libv2x_radio
-Wl,--defsym=_ZNSt12__shared_ptrIN5telux4cv2x15ICv2xTxRxSocketELN9__gnu_cxx12_Lock_policyE2EED1Ev=so_stub_for_libv2x_radio
-Wl,--defsym=_ZNSt12__shared_ptrIN5telux4cv2x15ICv2xTxRxSocketELN9__gnu_cxx12_Lock_policyE2EED2Ev=so_stub_for_libv2x_radio
-Wl,--defsym=_ZNSt12__shared_ptrIN5telux4cv2x17ICv2xRadioManagerELN9__gnu_cxx12_Lock_policyE2EE4swapERS5_=so_stub_for_libv2x_radio
-Wl,--defsym=_ZNSt12__shared_ptrIN5telux4cv2x17ICv2xRadioManagerELN9__gnu_cxx12_Lock_policyE2EEaSEOS5_=so_stub_for_libv2x_radio
-Wl,--defsym=_ZNSt12__shared_ptrIN5telux4cv2x17ICv2xRadioManagerELN9__gnu_cxx12_Lock_policyE2EEC1EOS5_=so_stub_for_libv2x_radio
-Wl,--defsym=_ZNSt12__shared_ptrIN5telux4cv2x17ICv2xRadioManagerELN9__gnu_cxx12_Lock_policyE2EEC2EOS5_=so_stub_for_libv2x_radio
-Wl,--defsym=_ZNSt12__shared_ptrIN5telux4cv2x17ICv2xRadioManagerELN9__gnu_cxx12_Lock_policyE2EEC2Ev=so_stub_for_libv2x_radio
-Wl,--defsym=_ZNSt12__shared_ptrIN5telux4cv2x17ICv2xRadioManagerELN9__gnu_cxx12_Lock_policyE2EED1Ev=so_stub_for_libv2x_radio
-Wl,--defsym=_ZNSt12__shared_ptrIN5telux4cv2x17ICv2xRadioManagerELN9__gnu_cxx12_Lock_policyE2EED2Ev=so_stub_for_libv2x_radio
-Wl,--defsym=_ZNSt12__shared_ptrIN5telux4cv2x18ICv2xRadioListenerELN9__gnu_cxx12_Lock_policyE2EE4swapERS5_=so_stub_for_libv2x_radio
-Wl,--defsym=_ZNSt12__shared_ptrIN5telux4cv2x18ICv2xRadioListenerELN9__gnu_cxx12_Lock_policyE2EEaSI13RadioListenerEENSt9enable_ifIXsrSt20__sp_compatible_withIPT_PS2_E5valueERS5_E4typeEOS_ISA_LS4_2EE=so_stub_for_libv2x_radio
-Wl,--defsym=_ZNSt12__shared_ptrIN5telux4cv2x18ICv2xRadioListenerELN9__gnu_cxx12_Lock_policyE2EEC1I13RadioListenervEEOS_IT_LS4_2EE=so_stub_for_libv2x_radio
-Wl,--defsym=_ZNSt12__shared_ptrIN5telux4cv2x18ICv2xRadioListenerELN9__gnu_cxx12_Lock_policyE2EEC2Ev=so_stub_for_libv2x_radio
-Wl,--defsym=_ZNSt12__shared_ptrIN5telux4cv2x18ICv2xRadioListenerELN9__gnu_cxx12_Lock_policyE2EEC2I13RadioListenervEEOS_IT_LS4_2EE=so_stub_for_libv2x_radio
-Wl,--defsym=_ZNSt12__shared_ptrIN5telux4cv2x18ICv2xRadioListenerELN9__gnu_cxx12_Lock_policyE2EED1Ev=so_stub_for_libv2x_radio
-Wl,--defsym=_ZNSt12__shared_ptrIN5telux4cv2x18ICv2xRadioListenerELN9__gnu_cxx12_Lock_policyE2EED2Ev=so_stub_for_libv2x_radio
-Wl,--defsym=_ZNSt12__shared_ptrIN5telux4cv2x19ICv2xConfigListenerELN9__gnu_cxx12_Lock_policyE2EE4swapERS5_=so_stub_for_libv2x_radio
-Wl,--defsym=_ZNSt12__shared_ptrIN5telux4cv2x19ICv2xConfigListenerELN9__gnu_cxx12_Lock_policyE2EEaSI14ConfigListenerEENSt9enable_ifIXsrSt20__sp_compatible_withIPT_PS2_E5valueERS5_E4typeEOS_ISA_LS4_2EE=so_stub_for_libv2x_radio
-Wl,--defsym=_ZNSt12__shared_ptrIN5telux4cv2x19ICv2xConfigListenerELN9__gnu_cxx12_Lock_policyE2EEC1I14ConfigListenervEEOS_IT_LS4_2EE=so_stub_for_libv2x_radio
-Wl,--defsym=_ZNSt12__shared_ptrIN5telux4cv2x19ICv2xConfigListenerELN9__gnu_cxx12_Lock_policyE2EEC2I14ConfigListenervEEOS_IT_LS4_2EE=so_stub_for_libv2x_radio
-Wl,--defsym=_ZNSt12__shared_ptrIN5telux4cv2x19ICv2xConfigListenerELN9__gnu_cxx12_Lock_policyE2EED1Ev=so_stub_for_libv2x_radio
-Wl,--defsym=_ZNSt12__shared_ptrIN5telux4cv2x19ICv2xConfigListenerELN9__gnu_cxx12_Lock_policyE2EED2Ev=so_stub_for_libv2x_radio
-Wl,--defsym=_ZNSt12__shared_ptrIN5telux4cv2x19ICv2xRxSubscriptionELN9__gnu_cxx12_Lock_policyE2EEaSERKS5_=so_stub_for_libv2x_radio
-Wl,--defsym=_ZNSt12__shared_ptrIN5telux4cv2x19ICv2xRxSubscriptionELN9__gnu_cxx12_Lock_policyE2EEC1EOS5_=so_stub_for_libv2x_radio
-Wl,--defsym=_ZNSt12__shared_ptrIN5telux4cv2x19ICv2xRxSubscriptionELN9__gnu_cxx12_Lock_policyE2EEC1ERKS5_=so_stub_for_libv2x_radio
-Wl,--defsym=_ZNSt12__shared_ptrIN5telux4cv2x19ICv2xRxSubscriptionELN9__gnu_cxx12_Lock_policyE2EEC2EOS5_=so_stub_for_libv2x_radio
-Wl,--defsym=_ZNSt12__shared_ptrIN5telux4cv2x19ICv2xRxSubscriptionELN9__gnu_cxx12_Lock_policyE2EEC2ERKS5_=so_stub_for_libv2x_radio
-Wl,--defsym=_ZNSt12__shared_ptrIN5telux4cv2x19ICv2xRxSubscriptionELN9__gnu_cxx12_Lock_policyE2EEC2Ev=so_stub_for_libv2x_radio
-Wl,--defsym=_ZNSt12__shared_ptrIN5telux4cv2x19ICv2xRxSubscriptionELN9__gnu_cxx12_Lock_policyE2EED1Ev=so_stub_for_libv2x_radio
-Wl,--defsym=_ZNSt12__shared_ptrIN5telux4cv2x19ICv2xRxSubscriptionELN9__gnu_cxx12_Lock_policyE2EED2Ev=so_stub_for_libv2x_radio
-Wl,--defsym=_ZNSt12__shared_ptrINSt13__future_base13_State_baseV2ELN9__gnu_cxx12_Lock_policyE2EE31_M_enable_shared_from_this_withIS1_S1_EENSt9enable_ifIXntsrNS4_15__has_esft_baseIT0_vEE5valueEvE4typeEPT_=so_stub_for_libv2x_radio
-Wl,--defsym=_ZNSt12__shared_ptrINSt13__future_base13_State_baseV2ELN9__gnu_cxx12_Lock_policyE2EE4swapERS4_=so_stub_for_libv2x_radio
-Wl,--defsym=_ZNSt12__shared_ptrINSt13__future_base13_State_baseV2ELN9__gnu_cxx12_Lock_policyE2EE5resetEv=so_stub_for_libv2x_radio
-Wl,--defsym=_ZNSt12__shared_ptrINSt13__future_base13_State_baseV2ELN9__gnu_cxx12_Lock_policyE2EEaSEOS4_=so_stub_for_libv2x_radio
-Wl,--defsym=_ZNSt12__shared_ptrINSt13__future_base13_State_baseV2ELN9__gnu_cxx12_Lock_policyE2EEC1EOS4_=so_stub_for_libv2x_radio
-Wl,--defsym=_ZNSt12__shared_ptrINSt13__future_base13_State_baseV2ELN9__gnu_cxx12_Lock_policyE2EEC1ERKS4_=so_stub_for_libv2x_radio
-Wl,--defsym=_ZNSt12__shared_ptrINSt13__future_base13_State_baseV2ELN9__gnu_cxx12_Lock_policyE2EEC1Ev=so_stub_for_libv2x_radio
-Wl,--defsym=_ZNSt12__shared_ptrINSt13__future_base13_State_baseV2ELN9__gnu_cxx12_Lock_policyE2EEC1ISaIS1_EJEEESt19_Sp_make_shared_tagRKT_DpOT0_=so_stub_for_libv2x_radio
-Wl,--defsym=_ZNSt12__shared_ptrINSt13__future_base13_State_baseV2ELN9__gnu_cxx12_Lock_policyE2EEC2EOS4_=so_stub_for_libv2x_radio
-Wl,--defsym=_ZNSt12__shared_ptrINSt13__future_base13_State_baseV2ELN9__gnu_cxx12_Lock_policyE2EEC2ERKS4_=so_stub_for_libv2x_radio
-Wl,--defsym=_ZNSt12__shared_ptrINSt13__future_base13_State_baseV2ELN9__gnu_cxx12_Lock_policyE2EEC2Ev=so_stub_for_libv2x_radio
-Wl,--defsym=_ZNSt12__shared_ptrINSt13__future_base13_State_baseV2ELN9__gnu_cxx12_Lock_policyE2EEC2ISaIS1_EJEEESt19_Sp_make_shared_tagRKT_DpOT0_=so_stub_for_libv2x_radio
-Wl,--defsym=_ZNSt12__shared_ptrINSt13__future_base13_State_baseV2ELN9__gnu_cxx12_Lock_policyE2EED1Ev=so_stub_for_libv2x_radio
-Wl,--defsym=_ZNSt12__shared_ptrINSt13__future_base13_State_baseV2ELN9__gnu_cxx12_Lock_policyE2EED2Ev=so_stub_for_libv2x_radio
-Wl,--defsym=_ZNSt12__shared_ptrISt6vectorIjSaIjEELN9__gnu_cxx12_Lock_policyE2EE31_M_enable_shared_from_this_withIS2_S2_EENSt9enable_ifIXntsrNS5_15__has_esft_baseIT0_vEE5valueEvE4typeEPT_=so_stub_for_libv2x_radio
-Wl,--defsym=_ZNSt12__shared_ptrISt6vectorIjSaIjEELN9__gnu_cxx12_Lock_policyE2EEC1ERKS5_=so_stub_for_libv2x_radio
-Wl,--defsym=_ZNSt12__shared_ptrISt6vectorIjSaIjEELN9__gnu_cxx12_Lock_policyE2EEC1Ev=so_stub_for_libv2x_radio
-Wl,--defsym=_ZNSt12__shared_ptrISt6vectorIjSaIjEELN9__gnu_cxx12_Lock_policyE2EEC1ISaIS2_EJRS2_EEESt19_Sp_make_shared_tagRKT_DpOT0_=so_stub_for_libv2x_radio
-Wl,--defsym=_ZNSt12__shared_ptrISt6vectorIjSaIjEELN9__gnu_cxx12_Lock_policyE2EEC2ERKS5_=so_stub_for_libv2x_radio
-Wl,--defsym=_ZNSt12__shared_ptrISt6vectorIjSaIjEELN9__gnu_cxx12_Lock_policyE2EEC2Ev=so_stub_for_libv2x_radio
-Wl,--defsym=_ZNSt12__shared_ptrISt6vectorIjSaIjEELN9__gnu_cxx12_Lock_policyE2EEC2ISaIS2_EJRS2_EEESt19_Sp_make_shared_tagRKT_DpOT0_=so_stub_for_libv2x_radio
-Wl,--defsym=_ZNSt12__shared_ptrISt6vectorIjSaIjEELN9__gnu_cxx12_Lock_policyE2EED1Ev=so_stub_for_libv2x_radio
-Wl,--defsym=_ZNSt12__shared_ptrISt6vectorIjSaIjEELN9__gnu_cxx12_Lock_policyE2EED2Ev=so_stub_for_libv2x_radio
-Wl,--defsym=_ZNSt12_Vector_baseIjSaIjEE11_M_allocateEj=so_stub_for_libv2x_radio
-Wl,--defsym=_ZNSt12_Vector_baseIjSaIjEE12_Vector_implC1ERKS0_=so_stub_for_libv2x_radio
-Wl,--defsym=_ZNSt12_Vector_baseIjSaIjEE12_Vector_implC1Ev=so_stub_for_libv2x_radio
-Wl,--defsym=_ZNSt12_Vector_baseIjSaIjEE12_Vector_implC2ERKS0_=so_stub_for_libv2x_radio
-Wl,--defsym=_ZNSt12_Vector_baseIjSaIjEE12_Vector_implC2Ev=so_stub_for_libv2x_radio
-Wl,--defsym=_ZNSt12_Vector_baseIjSaIjEE12_Vector_implD1Ev=so_stub_for_libv2x_radio
-Wl,--defsym=_ZNSt12_Vector_baseIjSaIjEE12_Vector_implD2Ev=so_stub_for_libv2x_radio
-Wl,--defsym=_ZNSt12_Vector_baseIjSaIjEE13_M_deallocateEPjj=so_stub_for_libv2x_radio
-Wl,--defsym=_ZNSt12_Vector_baseIjSaIjEE17_M_create_storageEj=so_stub_for_libv2x_radio
-Wl,--defsym=_ZNSt12_Vector_baseIjSaIjEE19_M_get_Tp_allocatorEv=so_stub_for_libv2x_radio
-Wl,--defsym=_ZNSt12_Vector_baseIjSaIjEEC1EjRKS0_=so_stub_for_libv2x_radio
-Wl,--defsym=_ZNSt12_Vector_baseIjSaIjEEC1Ev=so_stub_for_libv2x_radio
-Wl,--defsym=_ZNSt12_Vector_baseIjSaIjEEC2EjRKS0_=so_stub_for_libv2x_radio
-Wl,--defsym=_ZNSt12_Vector_baseIjSaIjEEC2Ev=so_stub_for_libv2x_radio
-Wl,--defsym=_ZNSt12_Vector_baseIjSaIjEED1Ev=so_stub_for_libv2x_radio
-Wl,--defsym=_ZNSt12_Vector_baseIjSaIjEED2Ev=so_stub_for_libv2x_radio
-Wl,--defsym=_ZNSt12_Vector_baseIN5telux4cv2x12TxPoolIdInfoESaIS2_EE11_M_allocateEj=so_stub_for_libv2x_radio
-Wl,--defsym=_ZNSt12_Vector_baseIN5telux4cv2x12TxPoolIdInfoESaIS2_EE12_Vector_implC1ERKS3_=so_stub_for_libv2x_radio
-Wl,--defsym=_ZNSt12_Vector_baseIN5telux4cv2x12TxPoolIdInfoESaIS2_EE12_Vector_implC1Ev=so_stub_for_libv2x_radio
-Wl,--defsym=_ZNSt12_Vector_baseIN5telux4cv2x12TxPoolIdInfoESaIS2_EE12_Vector_implC2ERKS3_=so_stub_for_libv2x_radio
-Wl,--defsym=_ZNSt12_Vector_baseIN5telux4cv2x12TxPoolIdInfoESaIS2_EE12_Vector_implC2Ev=so_stub_for_libv2x_radio
-Wl,--defsym=_ZNSt12_Vector_baseIN5telux4cv2x12TxPoolIdInfoESaIS2_EE12_Vector_implD1Ev=so_stub_for_libv2x_radio
-Wl,--defsym=_ZNSt12_Vector_baseIN5telux4cv2x12TxPoolIdInfoESaIS2_EE12_Vector_implD2Ev=so_stub_for_libv2x_radio
-Wl,--defsym=_ZNSt12_Vector_baseIN5telux4cv2x12TxPoolIdInfoESaIS2_EE13_M_deallocateEPS2_j=so_stub_for_libv2x_radio
-Wl,--defsym=_ZNSt12_Vector_baseIN5telux4cv2x12TxPoolIdInfoESaIS2_EE17_M_create_storageEj=so_stub_for_libv2x_radio
-Wl,--defsym=_ZNSt12_Vector_baseIN5telux4cv2x12TxPoolIdInfoESaIS2_EE19_M_get_Tp_allocatorEv=so_stub_for_libv2x_radio
-Wl,--defsym=_ZNSt12_Vector_baseIN5telux4cv2x12TxPoolIdInfoESaIS2_EEC1EjRKS3_=so_stub_for_libv2x_radio
-Wl,--defsym=_ZNSt12_Vector_baseIN5telux4cv2x12TxPoolIdInfoESaIS2_EEC1Ev=so_stub_for_libv2x_radio
-Wl,--defsym=_ZNSt12_Vector_baseIN5telux4cv2x12TxPoolIdInfoESaIS2_EEC2EjRKS3_=so_stub_for_libv2x_radio
-Wl,--defsym=_ZNSt12_Vector_baseIN5telux4cv2x12TxPoolIdInfoESaIS2_EEC2Ev=so_stub_for_libv2x_radio
-Wl,--defsym=_ZNSt12_Vector_baseIN5telux4cv2x12TxPoolIdInfoESaIS2_EED1Ev=so_stub_for_libv2x_radio
-Wl,--defsym=_ZNSt12_Vector_baseIN5telux4cv2x12TxPoolIdInfoESaIS2_EED2Ev=so_stub_for_libv2x_radio
-Wl,--defsym=_ZNSt12_Vector_baseIN5telux4cv2x13TrustedUEInfoESaIS2_EE11_M_allocateEj=so_stub_for_libv2x_radio
-Wl,--defsym=_ZNSt12_Vector_baseIN5telux4cv2x13TrustedUEInfoESaIS2_EE12_Vector_implC1Ev=so_stub_for_libv2x_radio
-Wl,--defsym=_ZNSt12_Vector_baseIN5telux4cv2x13TrustedUEInfoESaIS2_EE12_Vector_implC2Ev=so_stub_for_libv2x_radio
-Wl,--defsym=_ZNSt12_Vector_baseIN5telux4cv2x13TrustedUEInfoESaIS2_EE12_Vector_implD1Ev=so_stub_for_libv2x_radio
-Wl,--defsym=_ZNSt12_Vector_baseIN5telux4cv2x13TrustedUEInfoESaIS2_EE12_Vector_implD2Ev=so_stub_for_libv2x_radio
-Wl,--defsym=_ZNSt12_Vector_baseIN5telux4cv2x13TrustedUEInfoESaIS2_EE13_M_deallocateEPS2_j=so_stub_for_libv2x_radio
-Wl,--defsym=_ZNSt12_Vector_baseIN5telux4cv2x13TrustedUEInfoESaIS2_EE19_M_get_Tp_allocatorEv=so_stub_for_libv2x_radio
-Wl,--defsym=_ZNSt12_Vector_baseIN5telux4cv2x13TrustedUEInfoESaIS2_EEC1Ev=so_stub_for_libv2x_radio
-Wl,--defsym=_ZNSt12_Vector_baseIN5telux4cv2x13TrustedUEInfoESaIS2_EEC2Ev=so_stub_for_libv2x_radio
-Wl,--defsym=_ZNSt12_Vector_baseIN5telux4cv2x13TrustedUEInfoESaIS2_EED1Ev=so_stub_for_libv2x_radio
-Wl,--defsym=_ZNSt12_Vector_baseIN5telux4cv2x13TrustedUEInfoESaIS2_EED2Ev=so_stub_for_libv2x_radio
-Wl,--defsym=_ZNSt12_Vector_baseIN5telux4cv2x14Cv2xPoolStatusESaIS2_EE11_M_allocateEj=so_stub_for_libv2x_radio
-Wl,--defsym=_ZNSt12_Vector_baseIN5telux4cv2x14Cv2xPoolStatusESaIS2_EE12_Vector_impl12_M_swap_dataERS5_=so_stub_for_libv2x_radio
-Wl,--defsym=_ZNSt12_Vector_baseIN5telux4cv2x14Cv2xPoolStatusESaIS2_EE12_Vector_implC1EOS3_=so_stub_for_libv2x_radio
-Wl,--defsym=_ZNSt12_Vector_baseIN5telux4cv2x14Cv2xPoolStatusESaIS2_EE12_Vector_implC1Ev=so_stub_for_libv2x_radio
-Wl,--defsym=_ZNSt12_Vector_baseIN5telux4cv2x14Cv2xPoolStatusESaIS2_EE12_Vector_implC2EOS3_=so_stub_for_libv2x_radio
-Wl,--defsym=_ZNSt12_Vector_baseIN5telux4cv2x14Cv2xPoolStatusESaIS2_EE12_Vector_implC2Ev=so_stub_for_libv2x_radio
-Wl,--defsym=_ZNSt12_Vector_baseIN5telux4cv2x14Cv2xPoolStatusESaIS2_EE12_Vector_implD1Ev=so_stub_for_libv2x_radio
-Wl,--defsym=_ZNSt12_Vector_baseIN5telux4cv2x14Cv2xPoolStatusESaIS2_EE12_Vector_implD2Ev=so_stub_for_libv2x_radio
-Wl,--defsym=_ZNSt12_Vector_baseIN5telux4cv2x14Cv2xPoolStatusESaIS2_EE13_M_deallocateEPS2_j=so_stub_for_libv2x_radio
-Wl,--defsym=_ZNSt12_Vector_baseIN5telux4cv2x14Cv2xPoolStatusESaIS2_EE19_M_get_Tp_allocatorEv=so_stub_for_libv2x_radio
-Wl,--defsym=_ZNSt12_Vector_baseIN5telux4cv2x14Cv2xPoolStatusESaIS2_EEC1EOS4_=so_stub_for_libv2x_radio
-Wl,--defsym=_ZNSt12_Vector_baseIN5telux4cv2x14Cv2xPoolStatusESaIS2_EEC1Ev=so_stub_for_libv2x_radio
-Wl,--defsym=_ZNSt12_Vector_baseIN5telux4cv2x14Cv2xPoolStatusESaIS2_EEC2EOS4_=so_stub_for_libv2x_radio
-Wl,--defsym=_ZNSt12_Vector_baseIN5telux4cv2x14Cv2xPoolStatusESaIS2_EEC2Ev=so_stub_for_libv2x_radio
-Wl,--defsym=_ZNSt12_Vector_baseIN5telux4cv2x14Cv2xPoolStatusESaIS2_EED1Ev=so_stub_for_libv2x_radio
-Wl,--defsym=_ZNSt12_Vector_baseIN5telux4cv2x14Cv2xPoolStatusESaIS2_EED2Ev=so_stub_for_libv2x_radio
-Wl,--defsym=_ZNSt12_Vector_baseIySaIyEE11_M_allocateEj=so_stub_for_libv2x_radio
-Wl,--defsym=_ZNSt12_Vector_baseIySaIyEE12_Vector_implC1ERKS0_=so_stub_for_libv2x_radio
-Wl,--defsym=_ZNSt12_Vector_baseIySaIyEE12_Vector_implC1Ev=so_stub_for_libv2x_radio
-Wl,--defsym=_ZNSt12_Vector_baseIySaIyEE12_Vector_implC2ERKS0_=so_stub_for_libv2x_radio
-Wl,--defsym=_ZNSt12_Vector_baseIySaIyEE12_Vector_implC2Ev=so_stub_for_libv2x_radio
-Wl,--defsym=_ZNSt12_Vector_baseIySaIyEE12_Vector_implD1Ev=so_stub_for_libv2x_radio
-Wl,--defsym=_ZNSt12_Vector_baseIySaIyEE12_Vector_implD2Ev=so_stub_for_libv2x_radio
-Wl,--defsym=_ZNSt12_Vector_baseIySaIyEE13_M_deallocateEPyj=so_stub_for_libv2x_radio
-Wl,--defsym=_ZNSt12_Vector_baseIySaIyEE17_M_create_storageEj=so_stub_for_libv2x_radio
-Wl,--defsym=_ZNSt12_Vector_baseIySaIyEE19_M_get_Tp_allocatorEv=so_stub_for_libv2x_radio
-Wl,--defsym=_ZNSt12_Vector_baseIySaIyEEC1EjRKS0_=so_stub_for_libv2x_radio
-Wl,--defsym=_ZNSt12_Vector_baseIySaIyEEC1Ev=so_stub_for_libv2x_radio
-Wl,--defsym=_ZNSt12_Vector_baseIySaIyEEC2EjRKS0_=so_stub_for_libv2x_radio
-Wl,--defsym=_ZNSt12_Vector_baseIySaIyEEC2Ev=so_stub_for_libv2x_radio
-Wl,--defsym=_ZNSt12_Vector_baseIySaIyEED1Ev=so_stub_for_libv2x_radio
-Wl,--defsym=_ZNSt12_Vector_baseIySaIyEED2Ev=so_stub_for_libv2x_radio
-Wl,--defsym=_ZNSt12__weak_countILN9__gnu_cxx12_Lock_policyE2EEC1ERKSt14__shared_countILS1_2EE=so_stub_for_libv2x_radio
-Wl,--defsym=_ZNSt12__weak_countILN9__gnu_cxx12_Lock_policyE2EEC2ERKSt14__shared_countILS1_2EE=so_stub_for_libv2x_radio
-Wl,--defsym=_ZNSt12__weak_countILN9__gnu_cxx12_Lock_policyE2EED1Ev=so_stub_for_libv2x_radio
-Wl,--defsym=_ZNSt12__weak_countILN9__gnu_cxx12_Lock_policyE2EED2Ev=so_stub_for_libv2x_radio
-Wl,--defsym=_ZNSt13__atomic_baseIbEaSEb=so_stub_for_libv2x_radio
-Wl,--defsym=_ZNSt13__atomic_baseIbEC1Eb=so_stub_for_libv2x_radio
-Wl,--defsym=_ZNSt13__atomic_baseIjEC1Ej=so_stub_for_libv2x_radio
-Wl,--defsym=_ZNSt13__atomic_baseIjEC2Ej=so_stub_for_libv2x_radio
-Wl,--defsym=_ZNSt13__future_base13_State_baseV213_M_set_resultESt8functionIFSt10unique_ptrINS_12_Result_baseENS3_8_DeleterEEvEEb=so_stub_for_libv2x_radio
-Wl,--defsym=_ZNSt13__future_base13_State_baseV216_M_break_promiseESt10unique_ptrINS_12_Result_baseENS2_8_DeleterEE=so_stub_for_libv2x_radio
-Wl,--defsym=_ZNSt13__future_base13_State_baseV217_M_complete_asyncEv=so_stub_for_libv2x_radio
-Wl,--defsym=_ZNSt13__future_base13_State_baseV221_M_set_retrieved_flagEv=so_stub_for_libv2x_radio
-Wl,--defsym=_ZNSt13__future_base13_State_baseV24waitEv=so_stub_for_libv2x_radio
-Wl,--defsym=_ZNSt13__future_base13_State_baseV28_S_checkIS0_EEvRKSt10shared_ptrIT_E=so_stub_for_libv2x_radio
-Wl,--defsym=_ZNSt13__future_base13_State_baseV28__setterIiiEENS0_7_SetterIT_OT0_EEPSt7promiseIS3_ES5_=so_stub_for_libv2x_radio
-Wl,--defsym=_ZNSt13__future_base13_State_baseV28__setterIN5telux6common9ErrorCodeERKS4_EENS0_7_SetterIT_OT0_EEPSt7promiseIS8_ESA_=so_stub_for_libv2x_radio
-Wl,--defsym=_ZNSt13__future_base13_State_baseV28__setterISt4pairIN5telux6common9ErrorCodeES5_ES6_EENS0_7_SetterIT_OT0_EEPSt7promiseIS8_ESA_=so_stub_for_libv2x_radio
-Wl,--defsym=_ZNSt13__future_base13_State_baseV29_M_do_setEPSt8functionIFSt10unique_ptrINS_12_Result_baseENS3_8_DeleterEEvEEPb=so_stub_for_libv2x_radio
-Wl,--defsym=_ZNSt13__future_base13_State_baseV2C1Ev=so_stub_for_libv2x_radio
-Wl,--defsym=_ZNSt13__future_base13_State_baseV2C2Ev=so_stub_for_libv2x_radio
-Wl,--defsym=_ZNSt13__future_base13_State_baseV2D0Ev=so_stub_for_libv2x_radio
-Wl,--defsym=_ZNSt13__future_base13_State_baseV2D1Ev=so_stub_for_libv2x_radio
-Wl,--defsym=_ZNSt13__future_base13_State_baseV2D2Ev=so_stub_for_libv2x_radio
-Wl,--defsym=_ZNSt13__future_base21_Async_state_commonV217_M_complete_asyncEv=so_stub_for_libv2x_radio
-Wl,--defsym=_ZNSt13__future_base21_Async_state_commonV27_M_joinEv=so_stub_for_libv2x_radio
-Wl,--defsym=_ZNSt13__future_base21_Async_state_commonV2C1Ev=so_stub_for_libv2x_radio
-Wl,--defsym=_ZNSt13__future_base21_Async_state_commonV2C2Ev=so_stub_for_libv2x_radio
-Wl,--defsym=_ZNSt13__future_base21_Async_state_commonV2D0Ev=so_stub_for_libv2x_radio
-Wl,--defsym=_ZNSt13__future_base21_Async_state_commonV2D1Ev=so_stub_for_libv2x_radio
-Wl,--defsym=_ZNSt13__future_base21_Async_state_commonV2D2Ev=so_stub_for_libv2x_radio
-Wl,--defsym=_ZNSt13__future_base7_ResultI21_v2x_status_enum_typeE10_M_destroyEv=so_stub_for_libv2x_radio
-Wl,--defsym=_ZNSt13__future_base7_ResultI21_v2x_status_enum_typeE6_M_setEOS1_=so_stub_for_libv2x_radio
-Wl,--defsym=_ZNSt13__future_base7_ResultI21_v2x_status_enum_typeE8_M_valueEv=so_stub_for_libv2x_radio
-Wl,--defsym=_ZNSt13__future_base7_ResultI21_v2x_status_enum_typeEC1Ev=so_stub_for_libv2x_radio
-Wl,--defsym=_ZNSt13__future_base7_ResultI21_v2x_status_enum_typeEC2Ev=so_stub_for_libv2x_radio
-Wl,--defsym=_ZNSt13__future_base7_ResultI21_v2x_status_enum_typeED0Ev=so_stub_for_libv2x_radio
-Wl,--defsym=_ZNSt13__future_base7_ResultI21_v2x_status_enum_typeED1Ev=so_stub_for_libv2x_radio
-Wl,--defsym=_ZNSt13__future_base7_ResultI21_v2x_status_enum_typeED2Ev=so_stub_for_libv2x_radio
-Wl,--defsym=_ZNSt13__future_base7_ResultIbE8_M_valueEv=so_stub_for_libv2x_radio
-Wl,--defsym=_ZNSt13__future_base7_ResultIiE10_M_destroyEv=so_stub_for_libv2x_radio
-Wl,--defsym=_ZNSt13__future_base7_ResultIiE6_M_setEOi=so_stub_for_libv2x_radio
-Wl,--defsym=_ZNSt13__future_base7_ResultIiE8_M_valueEv=so_stub_for_libv2x_radio
-Wl,--defsym=_ZNSt13__future_base7_ResultIiEC1Ev=so_stub_for_libv2x_radio
-Wl,--defsym=_ZNSt13__future_base7_ResultIiEC2Ev=so_stub_for_libv2x_radio
-Wl,--defsym=_ZNSt13__future_base7_ResultIiED0Ev=so_stub_for_libv2x_radio
-Wl,--defsym=_ZNSt13__future_base7_ResultIiED1Ev=so_stub_for_libv2x_radio
-Wl,--defsym=_ZNSt13__future_base7_ResultIiED2Ev=so_stub_for_libv2x_radio
-Wl,--defsym=_ZNSt13__future_base7_ResultIN5telux6common6StatusEE8_M_valueEv=so_stub_for_libv2x_radio
-Wl,--defsym=_ZNSt13__future_base7_ResultIN5telux6common9ErrorCodeEE10_M_destroyEv=so_stub_for_libv2x_radio
-Wl,--defsym=_ZNSt13__future_base7_ResultIN5telux6common9ErrorCodeEE6_M_setERKS3_=so_stub_for_libv2x_radio
-Wl,--defsym=_ZNSt13__future_base7_ResultIN5telux6common9ErrorCodeEE8_M_valueEv=so_stub_for_libv2x_radio
-Wl,--defsym=_ZNSt13__future_base7_ResultIN5telux6common9ErrorCodeEEC1Ev=so_stub_for_libv2x_radio
-Wl,--defsym=_ZNSt13__future_base7_ResultIN5telux6common9ErrorCodeEEC2Ev=so_stub_for_libv2x_radio
-Wl,--defsym=_ZNSt13__future_base7_ResultIN5telux6common9ErrorCodeEED0Ev=so_stub_for_libv2x_radio
-Wl,--defsym=_ZNSt13__future_base7_ResultIN5telux6common9ErrorCodeEED1Ev=so_stub_for_libv2x_radio
-Wl,--defsym=_ZNSt13__future_base7_ResultIN5telux6common9ErrorCodeEED2Ev=so_stub_for_libv2x_radio
-Wl,--defsym=_ZNSt13__future_base7_ResultISt4pairIN5telux6common9ErrorCodeES4_EE10_M_destroyEv=so_stub_for_libv2x_radio
-Wl,--defsym=_ZNSt13__future_base7_ResultISt4pairIN5telux6common9ErrorCodeES4_EE6_M_setEOS5_=so_stub_for_libv2x_radio
-Wl,--defsym=_ZNSt13__future_base7_ResultISt4pairIN5telux6common9ErrorCodeES4_EE8_M_valueEv=so_stub_for_libv2x_radio
-Wl,--defsym=_ZNSt13__future_base7_ResultISt4pairIN5telux6common9ErrorCodeES4_EEC1Ev=so_stub_for_libv2x_radio
-Wl,--defsym=_ZNSt13__future_base7_ResultISt4pairIN5telux6common9ErrorCodeES4_EEC2Ev=so_stub_for_libv2x_radio
-Wl,--defsym=_ZNSt13__future_base7_ResultISt4pairIN5telux6common9ErrorCodeES4_EED0Ev=so_stub_for_libv2x_radio
-Wl,--defsym=_ZNSt13__future_base7_ResultISt4pairIN5telux6common9ErrorCodeES4_EED1Ev=so_stub_for_libv2x_radio
-Wl,--defsym=_ZNSt13__future_base7_ResultISt4pairIN5telux6common9ErrorCodeES4_EED2Ev=so_stub_for_libv2x_radio
-Wl,--defsym=_ZNSt13move_iteratorIPjEC1ES0_=so_stub_for_libv2x_radio
-Wl,--defsym=_ZNSt13move_iteratorIPjEC2ES0_=so_stub_for_libv2x_radio
-Wl,--defsym=_ZNSt13move_iteratorIPN5telux4cv2x13TrustedUEInfoEEC1ES3_=so_stub_for_libv2x_radio
-Wl,--defsym=_ZNSt13move_iteratorIPN5telux4cv2x13TrustedUEInfoEEC2ES3_=so_stub_for_libv2x_radio
-Wl,--defsym=_ZNSt13_Rb_tree_nodeISt4pairIK11v2x_event_tNSt7__cxx1112basic_stringIcSt11char_traitsIcESaIcEEEEE9_M_valptrEv=so_stub_for_libv2x_radio
-Wl,--defsym=_ZNSt13_Rb_tree_nodeISt4pairIKiSt10shared_ptrIN5telux4cv2x11ICv2xTxFlowEEEE9_M_valptrEv=so_stub_for_libv2x_radio
-Wl,--defsym=_ZNSt13_Rb_tree_nodeISt4pairIKiSt10shared_ptrIN5telux4cv2x15ICv2xTxRxSocketEEEE9_M_valptrEv=so_stub_for_libv2x_radio
-Wl,--defsym=_ZNSt13_Rb_tree_nodeISt4pairIKiSt10shared_ptrIN5telux4cv2x19ICv2xRxSubscriptionEEEE9_M_valptrEv=so_stub_for_libv2x_radio
-Wl,--defsym=_ZNSt13_Rb_tree_nodeISt4pairIKjP31v2x_per_sps_reservation_calls_tEE9_M_valptrEv=so_stub_for_libv2x_radio
-Wl,--defsym=_ZNSt13_Rb_tree_nodeISt4pairIKN5telux4cv2x14Cv2xStatusTypeENSt7__cxx1112basic_stringIcSt11char_traitsIcESaIcEEEEE9_M_valptrEv=so_stub_for_libv2x_radio
-Wl,--defsym=_ZNSt14__basic_futureI21_v2x_status_enum_typeE6_ResetC1ERS1_=so_stub_for_libv2x_radio
-Wl,--defsym=_ZNSt14__basic_futureI21_v2x_status_enum_typeE6_ResetC2ERS1_=so_stub_for_libv2x_radio
-Wl,--defsym=_ZNSt14__basic_futureI21_v2x_status_enum_typeE6_ResetD1Ev=so_stub_for_libv2x_radio
-Wl,--defsym=_ZNSt14__basic_futureI21_v2x_status_enum_typeE6_ResetD2Ev=so_stub_for_libv2x_radio
-Wl,--defsym=_ZNSt14__basic_futureI21_v2x_status_enum_typeEC1ERKSt10shared_ptrINSt13__future_base13_State_baseV2EE=so_stub_for_libv2x_radio
-Wl,--defsym=_ZNSt14__basic_futureI21_v2x_status_enum_typeEC2ERKSt10shared_ptrINSt13__future_base13_State_baseV2EE=so_stub_for_libv2x_radio
-Wl,--defsym=_ZNSt14__basic_futureI21_v2x_status_enum_typeED1Ev=so_stub_for_libv2x_radio
-Wl,--defsym=_ZNSt14__basic_futureI21_v2x_status_enum_typeED2Ev=so_stub_for_libv2x_radio
-Wl,--defsym=_ZNSt14__basic_futureIbE6_ResetC1ERS0_=so_stub_for_libv2x_radio
-Wl,--defsym=_ZNSt14__basic_futureIbE6_ResetC2ERS0_=so_stub_for_libv2x_radio
-Wl,--defsym=_ZNSt14__basic_futureIbE6_ResetD1Ev=so_stub_for_libv2x_radio
-Wl,--defsym=_ZNSt14__basic_futureIbE6_ResetD2Ev=so_stub_for_libv2x_radio
-Wl,--defsym=_ZNSt14__basic_futureIbED1Ev=so_stub_for_libv2x_radio
-Wl,--defsym=_ZNSt14__basic_futureIbED2Ev=so_stub_for_libv2x_radio
-Wl,--defsym=_ZNSt14__basic_futureIiE6_ResetC1ERS0_=so_stub_for_libv2x_radio
-Wl,--defsym=_ZNSt14__basic_futureIiE6_ResetC2ERS0_=so_stub_for_libv2x_radio
-Wl,--defsym=_ZNSt14__basic_futureIiE6_ResetD1Ev=so_stub_for_libv2x_radio
-Wl,--defsym=_ZNSt14__basic_futureIiE6_ResetD2Ev=so_stub_for_libv2x_radio
-Wl,--defsym=_ZNSt14__basic_futureIiEC1ERKSt10shared_ptrINSt13__future_base13_State_baseV2EE=so_stub_for_libv2x_radio
-Wl,--defsym=_ZNSt14__basic_futureIiEC2ERKSt10shared_ptrINSt13__future_base13_State_baseV2EE=so_stub_for_libv2x_radio
-Wl,--defsym=_ZNSt14__basic_futureIiED1Ev=so_stub_for_libv2x_radio
-Wl,--defsym=_ZNSt14__basic_futureIiED2Ev=so_stub_for_libv2x_radio
-Wl,--defsym=_ZNSt14__basic_futureIN5telux6common6StatusEE6_ResetC1ERS3_=so_stub_for_libv2x_radio
-Wl,--defsym=_ZNSt14__basic_futureIN5telux6common6StatusEE6_ResetC2ERS3_=so_stub_for_libv2x_radio
-Wl,--defsym=_ZNSt14__basic_futureIN5telux6common6StatusEE6_ResetD1Ev=so_stub_for_libv2x_radio
-Wl,--defsym=_ZNSt14__basic_futureIN5telux6common6StatusEE6_ResetD2Ev=so_stub_for_libv2x_radio
-Wl,--defsym=_ZNSt14__basic_futureIN5telux6common6StatusEED1Ev=so_stub_for_libv2x_radio
-Wl,--defsym=_ZNSt14__basic_futureIN5telux6common6StatusEED2Ev=so_stub_for_libv2x_radio
-Wl,--defsym=_ZNSt14__basic_futureIN5telux6common9ErrorCodeEE6_ResetC1ERS3_=so_stub_for_libv2x_radio
-Wl,--defsym=_ZNSt14__basic_futureIN5telux6common9ErrorCodeEE6_ResetC2ERS3_=so_stub_for_libv2x_radio
-Wl,--defsym=_ZNSt14__basic_futureIN5telux6common9ErrorCodeEE6_ResetD1Ev=so_stub_for_libv2x_radio
-Wl,--defsym=_ZNSt14__basic_futureIN5telux6common9ErrorCodeEE6_ResetD2Ev=so_stub_for_libv2x_radio
-Wl,--defsym=_ZNSt14__basic_futureIN5telux6common9ErrorCodeEEC1ERKSt10shared_ptrINSt13__future_base13_State_baseV2EE=so_stub_for_libv2x_radio
-Wl,--defsym=_ZNSt14__basic_futureIN5telux6common9ErrorCodeEEC2ERKSt10shared_ptrINSt13__future_base13_State_baseV2EE=so_stub_for_libv2x_radio
-Wl,--defsym=_ZNSt14__basic_futureIN5telux6common9ErrorCodeEED1Ev=so_stub_for_libv2x_radio
-Wl,--defsym=_ZNSt14__basic_futureIN5telux6common9ErrorCodeEED2Ev=so_stub_for_libv2x_radio
-Wl,--defsym=_ZNSt14__basic_futureISt4pairIN5telux6common9ErrorCodeES3_EE6_ResetC1ERS5_=so_stub_for_libv2x_radio
-Wl,--defsym=_ZNSt14__basic_futureISt4pairIN5telux6common9ErrorCodeES3_EE6_ResetC2ERS5_=so_stub_for_libv2x_radio
-Wl,--defsym=_ZNSt14__basic_futureISt4pairIN5telux6common9ErrorCodeES3_EE6_ResetD1Ev=so_stub_for_libv2x_radio
-Wl,--defsym=_ZNSt14__basic_futureISt4pairIN5telux6common9ErrorCodeES3_EE6_ResetD2Ev=so_stub_for_libv2x_radio
-Wl,--defsym=_ZNSt14__basic_futureISt4pairIN5telux6common9ErrorCodeES3_EEC1ERKSt10shared_ptrINSt13__future_base13_State_baseV2EE=so_stub_for_libv2x_radio
-Wl,--defsym=_ZNSt14__basic_futureISt4pairIN5telux6common9ErrorCodeES3_EEC2ERKSt10shared_ptrINSt13__future_base13_State_baseV2EE=so_stub_for_libv2x_radio
-Wl,--defsym=_ZNSt14__basic_futureISt4pairIN5telux6common9ErrorCodeES3_EED1Ev=so_stub_for_libv2x_radio
-Wl,--defsym=_ZNSt14__basic_futureISt4pairIN5telux6common9ErrorCodeES3_EED2Ev=so_stub_for_libv2x_radio
-Wl,--defsym=_ZNSt14_Function_base13_Base_managerINSt13__future_base13_State_baseV27_SetterIiOiEEE10_M_destroyERSt9_Any_dataSt17integral_constantIbLb1EE=so_stub_for_libv2x_radio
-Wl,--defsym=_ZNSt14_Function_base13_Base_managerINSt13__future_base13_State_baseV27_SetterIiOiEEE10_M_managerERSt9_Any_dataRKS7_St18_Manager_operation=so_stub_for_libv2x_radio
-Wl,--defsym=_ZNSt14_Function_base13_Base_managerINSt13__future_base13_State_baseV27_SetterIiOiEEE14_M_get_pointerERKSt9_Any_data=so_stub_for_libv2x_radio
-Wl,--defsym=_ZNSt14_Function_base13_Base_managerINSt13__future_base13_State_baseV27_SetterIiOiEEE15_M_init_functorERSt9_Any_dataOS5_=so_stub_for_libv2x_radio
-Wl,--defsym=_ZNSt14_Function_base13_Base_managerINSt13__future_base13_State_baseV27_SetterIiOiEEE15_M_init_functorERSt9_Any_dataOS5_St17integral_constantIbLb1EE=so_stub_for_libv2x_radio
-Wl,--defsym=_ZNSt14_Function_base13_Base_managerINSt13__future_base13_State_baseV27_SetterIiOiEEE21_M_not_empty_functionIS5_EEbRKT_=so_stub_for_libv2x_radio
-Wl,--defsym=_ZNSt14_Function_base13_Base_managerINSt13__future_base13_State_baseV27_SetterIiOiEEE8_M_cloneERSt9_Any_dataRKS7_St17integral_constantIbLb1EE=so_stub_for_libv2x_radio
-Wl,--defsym=_ZNSt14_Function_base13_Base_managerINSt13__future_base13_State_baseV27_SetterIN5telux6common9ErrorCodeERKS6_EEE10_M_destroyERSt9_Any_dataSt17integral_constantIbLb1EE=so_stub_for_libv2x_radio
-Wl,--defsym=_ZNSt14_Function_base13_Base_managerINSt13__future_base13_State_baseV27_SetterIN5telux6common9ErrorCodeERKS6_EEE10_M_managerERSt9_Any_dataRKSB_St18_Manager_operation=so_stub_for_libv2x_radio
-Wl,--defsym=_ZNSt14_Function_base13_Base_managerINSt13__future_base13_State_baseV27_SetterIN5telux6common9ErrorCodeERKS6_EEE14_M_get_pointerERKSt9_Any_data=so_stub_for_libv2x_radio
-Wl,--defsym=_ZNSt14_Function_base13_Base_managerINSt13__future_base13_State_baseV27_SetterIN5telux6common9ErrorCodeERKS6_EEE15_M_init_functorERSt9_Any_dataOS9_=so_stub_for_libv2x_radio
-Wl,--defsym=_ZNSt14_Function_base13_Base_managerINSt13__future_base13_State_baseV27_SetterIN5telux6common9ErrorCodeERKS6_EEE15_M_init_functorERSt9_Any_dataOS9_St17integral_constantIbLb1EE=so_stub_for_libv2x_radio
-Wl,--defsym=_ZNSt14_Function_base13_Base_managerINSt13__future_base13_State_baseV27_SetterIN5telux6common9ErrorCodeERKS6_EEE21_M_not_empty_functionIS9_EEbRKT_=so_stub_for_libv2x_radio
-Wl,--defsym=_ZNSt14_Function_base13_Base_managerINSt13__future_base13_State_baseV27_SetterIN5telux6common9ErrorCodeERKS6_EEE8_M_cloneERSt9_Any_dataRKSB_St17integral_constantIbLb1EE=so_stub_for_libv2x_radio
-Wl,--defsym=_ZNSt14_Function_base13_Base_managerINSt13__future_base13_State_baseV27_SetterISt4pairIN5telux6common9ErrorCodeES7_EOS8_EEE10_M_destroyERSt9_Any_dataSt17integral_constantIbLb1EE=so_stub_for_libv2x_radio
-Wl,--defsym=_ZNSt14_Function_base13_Base_managerINSt13__future_base13_State_baseV27_SetterISt4pairIN5telux6common9ErrorCodeES7_EOS8_EEE10_M_managerERSt9_Any_dataRKSC_St18_Manager_operation=so_stub_for_libv2x_radio
-Wl,--defsym=_ZNSt14_Function_base13_Base_managerINSt13__future_base13_State_baseV27_SetterISt4pairIN5telux6common9ErrorCodeES7_EOS8_EEE14_M_get_pointerERKSt9_Any_data=so_stub_for_libv2x_radio
-Wl,--defsym=_ZNSt14_Function_base13_Base_managerINSt13__future_base13_State_baseV27_SetterISt4pairIN5telux6common9ErrorCodeES7_EOS8_EEE15_M_init_functorERSt9_Any_dataOSA_=so_stub_for_libv2x_radio
-Wl,--defsym=_ZNSt14_Function_base13_Base_managerINSt13__future_base13_State_baseV27_SetterISt4pairIN5telux6common9ErrorCodeES7_EOS8_EEE15_M_init_functorERSt9_Any_dataOSA_St17integral_constantIbLb1EE=so_stub_for_libv2x_radio
-Wl,--defsym=_ZNSt14_Function_base13_Base_managerINSt13__future_base13_State_baseV27_SetterISt4pairIN5telux6common9ErrorCodeES7_EOS8_EEE21_M_not_empty_functionISA_EEbRKT_=so_stub_for_libv2x_radio
-Wl,--defsym=_ZNSt14_Function_base13_Base_managerINSt13__future_base13_State_baseV27_SetterISt4pairIN5telux6common9ErrorCodeES7_EOS8_EEE8_M_cloneERSt9_Any_dataRKSC_St17integral_constantIbLb1EE=so_stub_for_libv2x_radio
-Wl,--defsym=_ZNSt14_Function_base13_Base_managerIPFvSt10shared_ptrIN5telux4cv2x11ICv2xTxFlowEENS2_6common9ErrorCodeEEE10_M_destroyERSt9_Any_dataSt17integral_constantIbLb1EE=so_stub_for_libv2x_radio
-Wl,--defsym=_ZNSt14_Function_base13_Base_managerIPFvSt10shared_ptrIN5telux4cv2x11ICv2xTxFlowEENS2_6common9ErrorCodeEEE10_M_managerERSt9_Any_dataRKSB_St18_Manager_operation=so_stub_for_libv2x_radio
-Wl,--defsym=_ZNSt14_Function_base13_Base_managerIPFvSt10shared_ptrIN5telux4cv2x11ICv2xTxFlowEENS2_6common9ErrorCodeEEE14_M_get_pointerERKSt9_Any_data=so_stub_for_libv2x_radio
-Wl,--defsym=_ZNSt14_Function_base13_Base_managerIPFvSt10shared_ptrIN5telux4cv2x11ICv2xTxFlowEENS2_6common9ErrorCodeEEE15_M_init_functorERSt9_Any_dataOS9_=so_stub_for_libv2x_radio
-Wl,--defsym=_ZNSt14_Function_base13_Base_managerIPFvSt10shared_ptrIN5telux4cv2x11ICv2xTxFlowEENS2_6common9ErrorCodeEEE15_M_init_functorERSt9_Any_dataOS9_St17integral_constantIbLb1EE=so_stub_for_libv2x_radio
-Wl,--defsym=_ZNSt14_Function_base13_Base_managerIPFvSt10shared_ptrIN5telux4cv2x11ICv2xTxFlowEENS2_6common9ErrorCodeEEE21_M_not_empty_functionIS8_EEbPT_=so_stub_for_libv2x_radio
-Wl,--defsym=_ZNSt14_Function_base13_Base_managerIPFvSt10shared_ptrIN5telux4cv2x11ICv2xTxFlowEENS2_6common9ErrorCodeEEE8_M_cloneERSt9_Any_dataRKSB_St17integral_constantIbLb1EE=so_stub_for_libv2x_radio
-Wl,--defsym=_ZNSt14_Function_baseC1Ev=so_stub_for_libv2x_radio
-Wl,--defsym=_ZNSt14_Function_baseC2Ev=so_stub_for_libv2x_radio
-Wl,--defsym=_ZNSt14_Function_baseD1Ev=so_stub_for_libv2x_radio
-Wl,--defsym=_ZNSt14_Function_baseD2Ev=so_stub_for_libv2x_radio
-Wl,--defsym=_ZNSt14__shared_countILN9__gnu_cxx12_Lock_policyE2EE7_M_swapERS2_=so_stub_for_libv2x_radio
-Wl,--defsym=_ZNSt14__shared_countILN9__gnu_cxx12_Lock_policyE2EEaSERKS2_=so_stub_for_libv2x_radio
-Wl,--defsym=_ZNSt14__shared_countILN9__gnu_cxx12_Lock_policyE2EEC1ERKS2_=so_stub_for_libv2x_radio
-Wl,--defsym=_ZNSt14__shared_countILN9__gnu_cxx12_Lock_policyE2EEC1Ev=so_stub_for_libv2x_radio
-Wl,--defsym=_ZNSt14__shared_countILN9__gnu_cxx12_Lock_policyE2EEC1I12Cv2xListenerSaIS4_EJEEESt19_Sp_make_shared_tagPT_RKT0_DpOT1_=so_stub_for_libv2x_radio
-Wl,--defsym=_ZNSt14__shared_countILN9__gnu_cxx12_Lock_policyE2EEC1I13RadioListenerSaIS4_EJEEESt19_Sp_make_shared_tagPT_RKT0_DpOT1_=so_stub_for_libv2x_radio
-Wl,--defsym=_ZNSt14__shared_countILN9__gnu_cxx12_Lock_policyE2EEC1I14ConfigListenerSaIS4_EJEEESt19_Sp_make_shared_tagPT_RKT0_DpOT1_=so_stub_for_libv2x_radio
-Wl,--defsym=_ZNSt14__shared_countILN9__gnu_cxx12_Lock_policyE2EEC1INSt13__future_base13_State_baseV2ESaIS5_EJEEESt19_Sp_make_shared_tagPT_RKT0_DpOT1_=so_stub_for_libv2x_radio
-Wl,--defsym=_ZNSt14__shared_countILN9__gnu_cxx12_Lock_policyE2EEC1ISt6vectorIjSaIjEESaIS6_EJRS6_EEESt19_Sp_make_shared_tagPT_RKT0_DpOT1_=so_stub_for_libv2x_radio
-Wl,--defsym=_ZNSt14__shared_countILN9__gnu_cxx12_Lock_policyE2EEC2ERKS2_=so_stub_for_libv2x_radio
-Wl,--defsym=_ZNSt14__shared_countILN9__gnu_cxx12_Lock_policyE2EEC2I12Cv2xListenerSaIS4_EJEEESt19_Sp_make_shared_tagPT_RKT0_DpOT1_=so_stub_for_libv2x_radio
-Wl,--defsym=_ZNSt14__shared_countILN9__gnu_cxx12_Lock_policyE2EEC2I13RadioListenerSaIS4_EJEEESt19_Sp_make_shared_tagPT_RKT0_DpOT1_=so_stub_for_libv2x_radio
-Wl,--defsym=_ZNSt14__shared_countILN9__gnu_cxx12_Lock_policyE2EEC2I14ConfigListenerSaIS4_EJEEESt19_Sp_make_shared_tagPT_RKT0_DpOT1_=so_stub_for_libv2x_radio
-Wl,--defsym=_ZNSt14__shared_countILN9__gnu_cxx12_Lock_policyE2EEC2INSt13__future_base13_State_baseV2ESaIS5_EJEEESt19_Sp_make_shared_tagPT_RKT0_DpOT1_=so_stub_for_libv2x_radio
-Wl,--defsym=_ZNSt14__shared_countILN9__gnu_cxx12_Lock_policyE2EEC2ISt6vectorIjSaIjEESaIS6_EJRS6_EEESt19_Sp_make_shared_tagPT_RKT0_DpOT1_=so_stub_for_libv2x_radio
-Wl,--defsym=_ZNSt14__shared_countILN9__gnu_cxx12_Lock_policyE2EED1Ev=so_stub_for_libv2x_radio
-Wl,--defsym=_ZNSt14__shared_countILN9__gnu_cxx12_Lock_policyE2EED2Ev=so_stub_for_libv2x_radio
-Wl,--defsym=_ZNSt14_Sp_ebo_helperILi0ESaI12Cv2xListenerELb1EE6_S_getERS2_=so_stub_for_libv2x_radio
-Wl,--defsym=_ZNSt14_Sp_ebo_helperILi0ESaI12Cv2xListenerELb1EEC1ERKS1_=so_stub_for_libv2x_radio
-Wl,--defsym=_ZNSt14_Sp_ebo_helperILi0ESaI12Cv2xListenerELb1EEC2ERKS1_=so_stub_for_libv2x_radio
-Wl,--defsym=_ZNSt14_Sp_ebo_helperILi0ESaI12Cv2xListenerELb1EED1Ev=so_stub_for_libv2x_radio
-Wl,--defsym=_ZNSt14_Sp_ebo_helperILi0ESaI12Cv2xListenerELb1EED2Ev=so_stub_for_libv2x_radio
-Wl,--defsym=_ZNSt14_Sp_ebo_helperILi0ESaI13RadioListenerELb1EE6_S_getERS2_=so_stub_for_libv2x_radio
-Wl,--defsym=_ZNSt14_Sp_ebo_helperILi0ESaI13RadioListenerELb1EEC1ERKS1_=so_stub_for_libv2x_radio
-Wl,--defsym=_ZNSt14_Sp_ebo_helperILi0ESaI13RadioListenerELb1EEC2ERKS1_=so_stub_for_libv2x_radio
-Wl,--defsym=_ZNSt14_Sp_ebo_helperILi0ESaI13RadioListenerELb1EED1Ev=so_stub_for_libv2x_radio
-Wl,--defsym=_ZNSt14_Sp_ebo_helperILi0ESaI13RadioListenerELb1EED2Ev=so_stub_for_libv2x_radio
-Wl,--defsym=_ZNSt14_Sp_ebo_helperILi0ESaI14ConfigListenerELb1EE6_S_getERS2_=so_stub_for_libv2x_radio
-Wl,--defsym=_ZNSt14_Sp_ebo_helperILi0ESaI14ConfigListenerELb1EEC1ERKS1_=so_stub_for_libv2x_radio
-Wl,--defsym=_ZNSt14_Sp_ebo_helperILi0ESaI14ConfigListenerELb1EEC2ERKS1_=so_stub_for_libv2x_radio
-Wl,--defsym=_ZNSt14_Sp_ebo_helperILi0ESaI14ConfigListenerELb1EED1Ev=so_stub_for_libv2x_radio
-Wl,--defsym=_ZNSt14_Sp_ebo_helperILi0ESaI14ConfigListenerELb1EED2Ev=so_stub_for_libv2x_radio
-Wl,--defsym=_ZNSt14_Sp_ebo_helperILi0ESaINSt13__future_base13_State_baseV2EELb1EE6_S_getERS3_=so_stub_for_libv2x_radio
-Wl,--defsym=_ZNSt14_Sp_ebo_helperILi0ESaINSt13__future_base13_State_baseV2EELb1EEC1ERKS2_=so_stub_for_libv2x_radio
-Wl,--defsym=_ZNSt14_Sp_ebo_helperILi0ESaINSt13__future_base13_State_baseV2EELb1EEC2ERKS2_=so_stub_for_libv2x_radio
-Wl,--defsym=_ZNSt14_Sp_ebo_helperILi0ESaINSt13__future_base13_State_baseV2EELb1EED1Ev=so_stub_for_libv2x_radio
-Wl,--defsym=_ZNSt14_Sp_ebo_helperILi0ESaINSt13__future_base13_State_baseV2EELb1EED2Ev=so_stub_for_libv2x_radio
-Wl,--defsym=_ZNSt14_Sp_ebo_helperILi0ESaISt6vectorIjSaIjEEELb1EE6_S_getERS4_=so_stub_for_libv2x_radio
-Wl,--defsym=_ZNSt14_Sp_ebo_helperILi0ESaISt6vectorIjSaIjEEELb1EEC1ERKS3_=so_stub_for_libv2x_radio
-Wl,--defsym=_ZNSt14_Sp_ebo_helperILi0ESaISt6vectorIjSaIjEEELb1EEC2ERKS3_=so_stub_for_libv2x_radio
-Wl,--defsym=_ZNSt14_Sp_ebo_helperILi0ESaISt6vectorIjSaIjEEELb1EED1Ev=so_stub_for_libv2x_radio
-Wl,--defsym=_ZNSt14_Sp_ebo_helperILi0ESaISt6vectorIjSaIjEEELb1EED2Ev=so_stub_for_libv2x_radio
-Wl,--defsym=_ZNSt15__allocated_ptrISaISt23_Sp_counted_ptr_inplaceI12Cv2xListenerSaIS1_ELN9__gnu_cxx12_Lock_policyE2EEEE3getEv=so_stub_for_libv2x_radio
-Wl,--defsym=_ZNSt15__allocated_ptrISaISt23_Sp_counted_ptr_inplaceI12Cv2xListenerSaIS1_ELN9__gnu_cxx12_Lock_policyE2EEEEaSEDn=so_stub_for_libv2x_radio
-Wl,--defsym=_ZNSt15__allocated_ptrISaISt23_Sp_counted_ptr_inplaceI12Cv2xListenerSaIS1_ELN9__gnu_cxx12_Lock_policyE2EEEEC1ERS6_PS5_=so_stub_for_libv2x_radio
-Wl,--defsym=_ZNSt15__allocated_ptrISaISt23_Sp_counted_ptr_inplaceI12Cv2xListenerSaIS1_ELN9__gnu_cxx12_Lock_policyE2EEEEC2ERS6_PS5_=so_stub_for_libv2x_radio
-Wl,--defsym=_ZNSt15__allocated_ptrISaISt23_Sp_counted_ptr_inplaceI12Cv2xListenerSaIS1_ELN9__gnu_cxx12_Lock_policyE2EEEED1Ev=so_stub_for_libv2x_radio
-Wl,--defsym=_ZNSt15__allocated_ptrISaISt23_Sp_counted_ptr_inplaceI12Cv2xListenerSaIS1_ELN9__gnu_cxx12_Lock_policyE2EEEED2Ev=so_stub_for_libv2x_radio
-Wl,--defsym=_ZNSt15__allocated_ptrISaISt23_Sp_counted_ptr_inplaceI13RadioListenerSaIS1_ELN9__gnu_cxx12_Lock_policyE2EEEE3getEv=so_stub_for_libv2x_radio
-Wl,--defsym=_ZNSt15__allocated_ptrISaISt23_Sp_counted_ptr_inplaceI13RadioListenerSaIS1_ELN9__gnu_cxx12_Lock_policyE2EEEEaSEDn=so_stub_for_libv2x_radio
-Wl,--defsym=_ZNSt15__allocated_ptrISaISt23_Sp_counted_ptr_inplaceI13RadioListenerSaIS1_ELN9__gnu_cxx12_Lock_policyE2EEEEC1ERS6_PS5_=so_stub_for_libv2x_radio
-Wl,--defsym=_ZNSt15__allocated_ptrISaISt23_Sp_counted_ptr_inplaceI13RadioListenerSaIS1_ELN9__gnu_cxx12_Lock_policyE2EEEEC2ERS6_PS5_=so_stub_for_libv2x_radio
-Wl,--defsym=_ZNSt15__allocated_ptrISaISt23_Sp_counted_ptr_inplaceI13RadioListenerSaIS1_ELN9__gnu_cxx12_Lock_policyE2EEEED1Ev=so_stub_for_libv2x_radio
-Wl,--defsym=_ZNSt15__allocated_ptrISaISt23_Sp_counted_ptr_inplaceI13RadioListenerSaIS1_ELN9__gnu_cxx12_Lock_policyE2EEEED2Ev=so_stub_for_libv2x_radio
-Wl,--defsym=_ZNSt15__allocated_ptrISaISt23_Sp_counted_ptr_inplaceI14ConfigListenerSaIS1_ELN9__gnu_cxx12_Lock_policyE2EEEE3getEv=so_stub_for_libv2x_radio
-Wl,--defsym=_ZNSt15__allocated_ptrISaISt23_Sp_counted_ptr_inplaceI14ConfigListenerSaIS1_ELN9__gnu_cxx12_Lock_policyE2EEEEaSEDn=so_stub_for_libv2x_radio
-Wl,--defsym=_ZNSt15__allocated_ptrISaISt23_Sp_counted_ptr_inplaceI14ConfigListenerSaIS1_ELN9__gnu_cxx12_Lock_policyE2EEEEC1ERS6_PS5_=so_stub_for_libv2x_radio
-Wl,--defsym=_ZNSt15__allocated_ptrISaISt23_Sp_counted_ptr_inplaceI14ConfigListenerSaIS1_ELN9__gnu_cxx12_Lock_policyE2EEEEC2ERS6_PS5_=so_stub_for_libv2x_radio
-Wl,--defsym=_ZNSt15__allocated_ptrISaISt23_Sp_counted_ptr_inplaceI14ConfigListenerSaIS1_ELN9__gnu_cxx12_Lock_policyE2EEEED1Ev=so_stub_for_libv2x_radio
-Wl,--defsym=_ZNSt15__allocated_ptrISaISt23_Sp_counted_ptr_inplaceI14ConfigListenerSaIS1_ELN9__gnu_cxx12_Lock_policyE2EEEED2Ev=so_stub_for_libv2x_radio
-Wl,--defsym=_ZNSt15__allocated_ptrISaISt23_Sp_counted_ptr_inplaceINSt13__future_base13_State_baseV2ESaIS2_ELN9__gnu_cxx12_Lock_policyE2EEEE3getEv=so_stub_for_libv2x_radio
-Wl,--defsym=_ZNSt15__allocated_ptrISaISt23_Sp_counted_ptr_inplaceINSt13__future_base13_State_baseV2ESaIS2_ELN9__gnu_cxx12_Lock_policyE2EEEEaSEDn=so_stub_for_libv2x_radio
-Wl,--defsym=_ZNSt15__allocated_ptrISaISt23_Sp_counted_ptr_inplaceINSt13__future_base13_State_baseV2ESaIS2_ELN9__gnu_cxx12_Lock_policyE2EEEEC1ERS7_PS6_=so_stub_for_libv2x_radio
-Wl,--defsym=_ZNSt15__allocated_ptrISaISt23_Sp_counted_ptr_inplaceINSt13__future_base13_State_baseV2ESaIS2_ELN9__gnu_cxx12_Lock_policyE2EEEEC2ERS7_PS6_=so_stub_for_libv2x_radio
-Wl,--defsym=_ZNSt15__allocated_ptrISaISt23_Sp_counted_ptr_inplaceINSt13__future_base13_State_baseV2ESaIS2_ELN9__gnu_cxx12_Lock_policyE2EEEED1Ev=so_stub_for_libv2x_radio
-Wl,--defsym=_ZNSt15__allocated_ptrISaISt23_Sp_counted_ptr_inplaceINSt13__future_base13_State_baseV2ESaIS2_ELN9__gnu_cxx12_Lock_policyE2EEEED2Ev=so_stub_for_libv2x_radio
-Wl,--defsym=_ZNSt15__allocated_ptrISaISt23_Sp_counted_ptr_inplaceISt6vectorIjSaIjEESaIS3_ELN9__gnu_cxx12_Lock_policyE2EEEE3getEv=so_stub_for_libv2x_radio
-Wl,--defsym=_ZNSt15__allocated_ptrISaISt23_Sp_counted_ptr_inplaceISt6vectorIjSaIjEESaIS3_ELN9__gnu_cxx12_Lock_policyE2EEEEaSEDn=so_stub_for_libv2x_radio
-Wl,--defsym=_ZNSt15__allocated_ptrISaISt23_Sp_counted_ptr_inplaceISt6vectorIjSaIjEESaIS3_ELN9__gnu_cxx12_Lock_policyE2EEEEC1ERS8_PS7_=so_stub_for_libv2x_radio
-Wl,--defsym=_ZNSt15__allocated_ptrISaISt23_Sp_counted_ptr_inplaceISt6vectorIjSaIjEESaIS3_ELN9__gnu_cxx12_Lock_policyE2EEEEC2ERS8_PS7_=so_stub_for_libv2x_radio
-Wl,--defsym=_ZNSt15__allocated_ptrISaISt23_Sp_counted_ptr_inplaceISt6vectorIjSaIjEESaIS3_ELN9__gnu_cxx12_Lock_policyE2EEEED1Ev=so_stub_for_libv2x_radio
-Wl,--defsym=_ZNSt15__allocated_ptrISaISt23_Sp_counted_ptr_inplaceISt6vectorIjSaIjEESaIS3_ELN9__gnu_cxx12_Lock_policyE2EEEED2Ev=so_stub_for_libv2x_radio
-Wl,--defsym=_ZNSt15error_conditionC1EiRKNSt3_V214error_categoryE=so_stub_for_libv2x_radio
-Wl,--defsym=_ZNSt15error_conditionC1ISt4errcvEET_=so_stub_for_libv2x_radio
-Wl,--defsym=_ZNSt15error_conditionC2EiRKNSt3_V214error_categoryE=so_stub_for_libv2x_radio
-Wl,--defsym=_ZNSt15error_conditionC2ISt4errcvEET_=so_stub_for_libv2x_radio
-Wl,--defsym=_ZNSt15__exception_ptr12__dest_thunkISt12future_errorEEvPv=so_stub_for_libv2x_radio
-Wl,--defsym=_ZNSt15__exception_ptr13exception_ptraSEOS0_=so_stub_for_libv2x_radio
-Wl,--defsym=_ZNSt15__exception_ptr13exception_ptrC1EDn=so_stub_for_libv2x_radio
-Wl,--defsym=_ZNSt15__exception_ptr13exception_ptrC1EOS0_=so_stub_for_libv2x_radio
-Wl,--defsym=_ZNSt15__exception_ptr13exception_ptrC2EDn=so_stub_for_libv2x_radio
-Wl,--defsym=_ZNSt15__exception_ptr13exception_ptrC2EOS0_=so_stub_for_libv2x_radio
-Wl,--defsym=_ZNSt15_Rb_tree_header8_M_resetEv=so_stub_for_libv2x_radio
-Wl,--defsym=_ZNSt15_Rb_tree_headerC1Ev=so_stub_for_libv2x_radio
-Wl,--defsym=_ZNSt15_Rb_tree_headerC2Ev=so_stub_for_libv2x_radio
-Wl,--defsym=_ZNSt15__uniq_ptr_implINSt13__future_base12_Result_baseENS1_8_DeleterEE10_M_deleterEv=so_stub_for_libv2x_radio
-Wl,--defsym=_ZNSt15__uniq_ptr_implINSt13__future_base12_Result_baseENS1_8_DeleterEE6_M_ptrEv=so_stub_for_libv2x_radio
-Wl,--defsym=_ZNSt15__uniq_ptr_implINSt13__future_base12_Result_baseENS1_8_DeleterEEaSEOS3_=so_stub_for_libv2x_radio
-Wl,--defsym=_ZNSt15__uniq_ptr_implINSt13__future_base12_Result_baseENS1_8_DeleterEEC1EOS3_=so_stub_for_libv2x_radio
-Wl,--defsym=_ZNSt15__uniq_ptr_implINSt13__future_base12_Result_baseENS1_8_DeleterEEC1Ev=so_stub_for_libv2x_radio
-Wl,--defsym=_ZNSt15__uniq_ptr_implINSt13__future_base12_Result_baseENS1_8_DeleterEEC1IS2_EEPS1_OT_=so_stub_for_libv2x_radio
-Wl,--defsym=_ZNSt15__uniq_ptr_implINSt13__future_base12_Result_baseENS1_8_DeleterEEC2EOS3_=so_stub_for_libv2x_radio
-Wl,--defsym=_ZNSt15__uniq_ptr_implINSt13__future_base12_Result_baseENS1_8_DeleterEEC2Ev=so_stub_for_libv2x_radio
-Wl,--defsym=_ZNSt15__uniq_ptr_implINSt13__future_base12_Result_baseENS1_8_DeleterEEC2IS2_EEPS1_OT_=so_stub_for_libv2x_radio
-Wl,--defsym=_ZNSt15__uniq_ptr_implINSt13__future_base7_ResultI21_v2x_status_enum_typeEENS0_12_Result_base8_DeleterEE10_M_deleterEv=so_stub_for_libv2x_radio
-Wl,--defsym=_ZNSt15__uniq_ptr_implINSt13__future_base7_ResultI21_v2x_status_enum_typeEENS0_12_Result_base8_DeleterEE6_M_ptrEv=so_stub_for_libv2x_radio
-Wl,--defsym=_ZNSt15__uniq_ptr_implINSt13__future_base7_ResultI21_v2x_status_enum_typeEENS0_12_Result_base8_DeleterEEC1EPS3_=so_stub_for_libv2x_radio
-Wl,--defsym=_ZNSt15__uniq_ptr_implINSt13__future_base7_ResultI21_v2x_status_enum_typeEENS0_12_Result_base8_DeleterEEC1IS5_EEPS3_OT_=so_stub_for_libv2x_radio
-Wl,--defsym=_ZNSt15__uniq_ptr_implINSt13__future_base7_ResultI21_v2x_status_enum_typeEENS0_12_Result_base8_DeleterEEC2EPS3_=so_stub_for_libv2x_radio
-Wl,--defsym=_ZNSt15__uniq_ptr_implINSt13__future_base7_ResultI21_v2x_status_enum_typeEENS0_12_Result_base8_DeleterEEC2IS5_EEPS3_OT_=so_stub_for_libv2x_radio
-Wl,--defsym=_ZNSt15__uniq_ptr_implINSt13__future_base7_ResultIiEENS0_12_Result_base8_DeleterEE10_M_deleterEv=so_stub_for_libv2x_radio
-Wl,--defsym=_ZNSt15__uniq_ptr_implINSt13__future_base7_ResultIiEENS0_12_Result_base8_DeleterEE6_M_ptrEv=so_stub_for_libv2x_radio
-Wl,--defsym=_ZNSt15__uniq_ptr_implINSt13__future_base7_ResultIiEENS0_12_Result_base8_DeleterEEC1EPS2_=so_stub_for_libv2x_radio
-Wl,--defsym=_ZNSt15__uniq_ptr_implINSt13__future_base7_ResultIiEENS0_12_Result_base8_DeleterEEC1IS4_EEPS2_OT_=so_stub_for_libv2x_radio
-Wl,--defsym=_ZNSt15__uniq_ptr_implINSt13__future_base7_ResultIiEENS0_12_Result_base8_DeleterEEC2EPS2_=so_stub_for_libv2x_radio
-Wl,--defsym=_ZNSt15__uniq_ptr_implINSt13__future_base7_ResultIiEENS0_12_Result_base8_DeleterEEC2IS4_EEPS2_OT_=so_stub_for_libv2x_radio
-Wl,--defsym=_ZNSt15__uniq_ptr_implINSt13__future_base7_ResultIN5telux6common9ErrorCodeEEENS0_12_Result_base8_DeleterEE10_M_deleterEv=so_stub_for_libv2x_radio
-Wl,--defsym=_ZNSt15__uniq_ptr_implINSt13__future_base7_ResultIN5telux6common9ErrorCodeEEENS0_12_Result_base8_DeleterEE6_M_ptrEv=so_stub_for_libv2x_radio
-Wl,--defsym=_ZNSt15__uniq_ptr_implINSt13__future_base7_ResultIN5telux6common9ErrorCodeEEENS0_12_Result_base8_DeleterEEC1EPS5_=so_stub_for_libv2x_radio
-Wl,--defsym=_ZNSt15__uniq_ptr_implINSt13__future_base7_ResultIN5telux6common9ErrorCodeEEENS0_12_Result_base8_DeleterEEC1IS7_EEPS5_OT_=so_stub_for_libv2x_radio
-Wl,--defsym=_ZNSt15__uniq_ptr_implINSt13__future_base7_ResultIN5telux6common9ErrorCodeEEENS0_12_Result_base8_DeleterEEC2EPS5_=so_stub_for_libv2x_radio
-Wl,--defsym=_ZNSt15__uniq_ptr_implINSt13__future_base7_ResultIN5telux6common9ErrorCodeEEENS0_12_Result_base8_DeleterEEC2IS7_EEPS5_OT_=so_stub_for_libv2x_radio
-Wl,--defsym=_ZNSt15__uniq_ptr_implINSt13__future_base7_ResultISt4pairIN5telux6common9ErrorCodeES5_EEENS0_12_Result_base8_DeleterEE10_M_deleterEv=so_stub_for_libv2x_radio
-Wl,--defsym=_ZNSt15__uniq_ptr_implINSt13__future_base7_ResultISt4pairIN5telux6common9ErrorCodeES5_EEENS0_12_Result_base8_DeleterEE6_M_ptrEv=so_stub_for_libv2x_radio
-Wl,--defsym=_ZNSt15__uniq_ptr_implINSt13__future_base7_ResultISt4pairIN5telux6common9ErrorCodeES5_EEENS0_12_Result_base8_DeleterEEC1EPS7_=so_stub_for_libv2x_radio
-Wl,--defsym=_ZNSt15__uniq_ptr_implINSt13__future_base7_ResultISt4pairIN5telux6common9ErrorCodeES5_EEENS0_12_Result_base8_DeleterEEC1IS9_EEPS7_OT_=so_stub_for_libv2x_radio
-Wl,--defsym=_ZNSt15__uniq_ptr_implINSt13__future_base7_ResultISt4pairIN5telux6common9ErrorCodeES5_EEENS0_12_Result_base8_DeleterEEC2EPS7_=so_stub_for_libv2x_radio
-Wl,--defsym=_ZNSt15__uniq_ptr_implINSt13__future_base7_ResultISt4pairIN5telux6common9ErrorCodeES5_EEENS0_12_Result_base8_DeleterEEC2IS9_EEPS7_OT_=so_stub_for_libv2x_radio
-Wl,--defsym=_ZNSt15__uniq_ptr_implINSt6thread6_StateESt14default_deleteIS1_EE10_M_deleterEv=so_stub_for_libv2x_radio
-Wl,--defsym=_ZNSt15__uniq_ptr_implINSt6thread6_StateESt14default_deleteIS1_EE6_M_ptrEv=so_stub_for_libv2x_radio
-Wl,--defsym=_ZNSt15__uniq_ptr_implINSt6thread6_StateESt14default_deleteIS1_EEC1EPS1_=so_stub_for_libv2x_radio
-Wl,--defsym=_ZNSt15__uniq_ptr_implINSt6thread6_StateESt14default_deleteIS1_EEC2EPS1_=so_stub_for_libv2x_radio
-Wl,--defsym=_ZNSt16allocator_traitsISaI12Cv2xListenerEE7destroyIS0_EEvRS1_PT_=so_stub_for_libv2x_radio
-Wl,--defsym=_ZNSt16allocator_traitsISaI12Cv2xListenerEE9constructIS0_JEEEvRS1_PT_DpOT0_=so_stub_for_libv2x_radio
-Wl,--defsym=_ZNSt16allocator_traitsISaI13RadioListenerEE7destroyIS0_EEvRS1_PT_=so_stub_for_libv2x_radio
-Wl,--defsym=_ZNSt16allocator_traitsISaI13RadioListenerEE9constructIS0_JEEEvRS1_PT_DpOT0_=so_stub_for_libv2x_radio
-Wl,--defsym=_ZNSt16allocator_traitsISaI14ConfigListenerEE7destroyIS0_EEvRS1_PT_=so_stub_for_libv2x_radio
-Wl,--defsym=_ZNSt16allocator_traitsISaI14ConfigListenerEE9constructIS0_JEEEvRS1_PT_DpOT0_=so_stub_for_libv2x_radio
-Wl,--defsym=_ZNSt16allocator_traitsISaIjEE10deallocateERS0_Pjj=so_stub_for_libv2x_radio
-Wl,--defsym=_ZNSt16allocator_traitsISaIjEE37select_on_container_copy_constructionERKS0_=so_stub_for_libv2x_radio
-Wl,--defsym=_ZNSt16allocator_traitsISaIjEE7destroyIjEEvRS0_PT_=so_stub_for_libv2x_radio
-Wl,--defsym=_ZNSt16allocator_traitsISaIjEE8allocateERS0_j=so_stub_for_libv2x_radio
-Wl,--defsym=_ZNSt16allocator_traitsISaIjEE8max_sizeERKS0_=so_stub_for_libv2x_radio
-Wl,--defsym=_ZNSt16allocator_traitsISaIjEE9constructIjJRKjEEEvRS0_PT_DpOT0_=so_stub_for_libv2x_radio
-Wl,--defsym=_ZNSt16allocator_traitsISaIN5telux4cv2x12TxPoolIdInfoEEE10deallocateERS3_PS2_j=so_stub_for_libv2x_radio
-Wl,--defsym=_ZNSt16allocator_traitsISaIN5telux4cv2x12TxPoolIdInfoEEE37select_on_container_copy_constructionERKS3_=so_stub_for_libv2x_radio
-Wl,--defsym=_ZNSt16allocator_traitsISaIN5telux4cv2x12TxPoolIdInfoEEE8allocateERS3_j=so_stub_for_libv2x_radio
-Wl,--defsym=_ZNSt16allocator_traitsISaIN5telux4cv2x13TrustedUEInfoEEE10deallocateERS3_PS2_j=so_stub_for_libv2x_radio
-Wl,--defsym=_ZNSt16allocator_traitsISaIN5telux4cv2x13TrustedUEInfoEEE7destroyIS2_EEvRS3_PT_=so_stub_for_libv2x_radio
-Wl,--defsym=_ZNSt16allocator_traitsISaIN5telux4cv2x13TrustedUEInfoEEE8allocateERS3_j=so_stub_for_libv2x_radio
-Wl,--defsym=_ZNSt16allocator_traitsISaIN5telux4cv2x13TrustedUEInfoEEE8max_sizeERKS3_=so_stub_for_libv2x_radio
-Wl,--defsym=_ZNSt16allocator_traitsISaIN5telux4cv2x13TrustedUEInfoEEE9constructIS2_JRKS2_EEEvRS3_PT_DpOT0_=so_stub_for_libv2x_radio
-Wl,--defsym=_ZNSt16allocator_traitsISaIN5telux4cv2x14Cv2xPoolStatusEEE10deallocateERS3_PS2_j=so_stub_for_libv2x_radio
-Wl,--defsym=_ZNSt16allocator_traitsISaIN5telux4cv2x14Cv2xPoolStatusEEE8allocateERS3_j=so_stub_for_libv2x_radio
-Wl,--defsym=_ZNSt16allocator_traitsISaINSt13__future_base13_State_baseV2EEE7destroyIS1_EEvRS2_PT_=so_stub_for_libv2x_radio
-Wl,--defsym=_ZNSt16allocator_traitsISaINSt13__future_base13_State_baseV2EEE9constructIS1_JEEEvRS2_PT_DpOT0_=so_stub_for_libv2x_radio
-Wl,--defsym=_ZNSt16allocator_traitsISaISt13_Rb_tree_nodeISt4pairIK11v2x_event_tNSt7__cxx1112basic_stringIcSt11char_traitsIcESaIcEEEEEEE10deallocateERSC_PSB_j=so_stub_for_libv2x_radio
-Wl,--defsym=_ZNSt16allocator_traitsISaISt13_Rb_tree_nodeISt4pairIK11v2x_event_tNSt7__cxx1112basic_stringIcSt11char_traitsIcESaIcEEEEEEE7destroyISA_EEvRSC_PT_=so_stub_for_libv2x_radio
-Wl,--defsym=_ZNSt16allocator_traitsISaISt13_Rb_tree_nodeISt4pairIK11v2x_event_tNSt7__cxx1112basic_stringIcSt11char_traitsIcESaIcEEEEEEE8allocateERSC_j=so_stub_for_libv2x_radio
-Wl,--defsym=_ZNSt16allocator_traitsISaISt13_Rb_tree_nodeISt4pairIK11v2x_event_tNSt7__cxx1112basic_stringIcSt11char_traitsIcESaIcEEEEEEE9constructISA_JRKSA_EEEvRSC_PT_DpOT0_=so_stub_for_libv2x_radio
-Wl,--defsym=_ZNSt16allocator_traitsISaISt13_Rb_tree_nodeISt4pairIK11v2x_event_tNSt7__cxx1112basic_stringIcSt11char_traitsIcESaIcEEEEEEE9constructISA_JRKSt21piecewise_construct_tSt5tupleIJRS3_EESI_IJEEEEEvRSC_PT_DpOT0_=so_stub_for_libv2x_radio
-Wl,--defsym=_ZNSt16allocator_traitsISaISt13_Rb_tree_nodeISt4pairIKiSt10shared_ptrIN5telux4cv2x11ICv2xTxFlowEEEEEE10deallocateERSA_PS9_j=so_stub_for_libv2x_radio
-Wl,--defsym=_ZNSt16allocator_traitsISaISt13_Rb_tree_nodeISt4pairIKiSt10shared_ptrIN5telux4cv2x11ICv2xTxFlowEEEEEE7destroyIS8_EEvRSA_PT_=so_stub_for_libv2x_radio
-Wl,--defsym=_ZNSt16allocator_traitsISaISt13_Rb_tree_nodeISt4pairIKiSt10shared_ptrIN5telux4cv2x11ICv2xTxFlowEEEEEE8allocateERSA_j=so_stub_for_libv2x_radio
-Wl,--defsym=_ZNSt16allocator_traitsISaISt13_Rb_tree_nodeISt4pairIKiSt10shared_ptrIN5telux4cv2x11ICv2xTxFlowEEEEEE9constructIS8_JRKSt21piecewise_construct_tSt5tupleIJRS2_EESG_IJEEEEEvRSA_PT_DpOT0_=so_stub_for_libv2x_radio
-Wl,--defsym=_ZNSt16allocator_traitsISaISt13_Rb_tree_nodeISt4pairIKiSt10shared_ptrIN5telux4cv2x15ICv2xTxRxSocketEEEEEE10deallocateERSA_PS9_j=so_stub_for_libv2x_radio
-Wl,--defsym=_ZNSt16allocator_traitsISaISt13_Rb_tree_nodeISt4pairIKiSt10shared_ptrIN5telux4cv2x15ICv2xTxRxSocketEEEEEE7destroyIS8_EEvRSA_PT_=so_stub_for_libv2x_radio
-Wl,--defsym=_ZNSt16allocator_traitsISaISt13_Rb_tree_nodeISt4pairIKiSt10shared_ptrIN5telux4cv2x15ICv2xTxRxSocketEEEEEE8allocateERSA_j=so_stub_for_libv2x_radio
-Wl,--defsym=_ZNSt16allocator_traitsISaISt13_Rb_tree_nodeISt4pairIKiSt10shared_ptrIN5telux4cv2x15ICv2xTxRxSocketEEEEEE9constructIS8_JRKSt21piecewise_construct_tSt5tupleIJRS2_EESG_IJEEEEEvRSA_PT_DpOT0_=so_stub_for_libv2x_radio
-Wl,--defsym=_ZNSt16allocator_traitsISaISt13_Rb_tree_nodeISt4pairIKiSt10shared_ptrIN5telux4cv2x19ICv2xRxSubscriptionEEEEEE10deallocateERSA_PS9_j=so_stub_for_libv2x_radio
-Wl,--defsym=_ZNSt16allocator_traitsISaISt13_Rb_tree_nodeISt4pairIKiSt10shared_ptrIN5telux4cv2x19ICv2xRxSubscriptionEEEEEE7destroyIS8_EEvRSA_PT_=so_stub_for_libv2x_radio
-Wl,--defsym=_ZNSt16allocator_traitsISaISt13_Rb_tree_nodeISt4pairIKiSt10shared_ptrIN5telux4cv2x19ICv2xRxSubscriptionEEEEEE8allocateERSA_j=so_stub_for_libv2x_radio
-Wl,--defsym=_ZNSt16allocator_traitsISaISt13_Rb_tree_nodeISt4pairIKiSt10shared_ptrIN5telux4cv2x19ICv2xRxSubscriptionEEEEEE9constructIS8_JRKSt21piecewise_construct_tSt5tupleIJRS2_EESG_IJEEEEEvRSA_PT_DpOT0_=so_stub_for_libv2x_radio
-Wl,--defsym=_ZNSt16allocator_traitsISaISt13_Rb_tree_nodeISt4pairIKjP31v2x_per_sps_reservation_calls_tEEEE10deallocateERS7_PS6_j=so_stub_for_libv2x_radio
-Wl,--defsym=_ZNSt16allocator_traitsISaISt13_Rb_tree_nodeISt4pairIKjP31v2x_per_sps_reservation_calls_tEEEE7destroyIS5_EEvRS7_PT_=so_stub_for_libv2x_radio
-Wl,--defsym=_ZNSt16allocator_traitsISaISt13_Rb_tree_nodeISt4pairIKjP31v2x_per_sps_reservation_calls_tEEEE8allocateERS7_j=so_stub_for_libv2x_radio
-Wl,--defsym=_ZNSt16allocator_traitsISaISt13_Rb_tree_nodeISt4pairIKjP31v2x_per_sps_reservation_calls_tEEEE9constructIS5_JRKSt21piecewise_construct_tSt5tupleIJRS2_EESD_IJEEEEEvRS7_PT_DpOT0_=so_stub_for_libv2x_radio
-Wl,--defsym=_ZNSt16allocator_traitsISaISt13_Rb_tree_nodeISt4pairIKN5telux4cv2x14Cv2xStatusTypeENSt7__cxx1112basic_stringIcSt11char_traitsIcESaIcEEEEEEE10deallocateERSE_PSD_j=so_stub_for_libv2x_radio
-Wl,--defsym=_ZNSt16allocator_traitsISaISt13_Rb_tree_nodeISt4pairIKN5telux4cv2x14Cv2xStatusTypeENSt7__cxx1112basic_stringIcSt11char_traitsIcESaIcEEEEEEE7destroyISC_EEvRSE_PT_=so_stub_for_libv2x_radio
-Wl,--defsym=_ZNSt16allocator_traitsISaISt13_Rb_tree_nodeISt4pairIKN5telux4cv2x14Cv2xStatusTypeENSt7__cxx1112basic_stringIcSt11char_traitsIcESaIcEEEEEEE8allocateERSE_j=so_stub_for_libv2x_radio
-Wl,--defsym=_ZNSt16allocator_traitsISaISt13_Rb_tree_nodeISt4pairIKN5telux4cv2x14Cv2xStatusTypeENSt7__cxx1112basic_stringIcSt11char_traitsIcESaIcEEEEEEE9constructISC_JRKSC_EEEvRSE_PT_DpOT0_=so_stub_for_libv2x_radio
-Wl,--defsym=_ZNSt16allocator_traitsISaISt13_Rb_tree_nodeISt4pairIKN5telux4cv2x14Cv2xStatusTypeENSt7__cxx1112basic_stringIcSt11char_traitsIcESaIcEEEEEEE9constructISC_JRKSt21piecewise_construct_tSt5tupleIJRS5_EESK_IJEEEEEvRSE_PT_DpOT0_=so_stub_for_libv2x_radio
-Wl,--defsym=_ZNSt16allocator_traitsISaISt23_Sp_counted_ptr_inplaceI12Cv2xListenerSaIS1_ELN9__gnu_cxx12_Lock_policyE2EEEE10deallocateERS6_PS5_j=so_stub_for_libv2x_radio
-Wl,--defsym=_ZNSt16allocator_traitsISaISt23_Sp_counted_ptr_inplaceI12Cv2xListenerSaIS1_ELN9__gnu_cxx12_Lock_policyE2EEEE8allocateERS6_j=so_stub_for_libv2x_radio
-Wl,--defsym=_ZNSt16allocator_traitsISaISt23_Sp_counted_ptr_inplaceI13RadioListenerSaIS1_ELN9__gnu_cxx12_Lock_policyE2EEEE10deallocateERS6_PS5_j=so_stub_for_libv2x_radio
-Wl,--defsym=_ZNSt16allocator_traitsISaISt23_Sp_counted_ptr_inplaceI13RadioListenerSaIS1_ELN9__gnu_cxx12_Lock_policyE2EEEE8allocateERS6_j=so_stub_for_libv2x_radio
-Wl,--defsym=_ZNSt16allocator_traitsISaISt23_Sp_counted_ptr_inplaceI14ConfigListenerSaIS1_ELN9__gnu_cxx12_Lock_policyE2EEEE10deallocateERS6_PS5_j=so_stub_for_libv2x_radio
-Wl,--defsym=_ZNSt16allocator_traitsISaISt23_Sp_counted_ptr_inplaceI14ConfigListenerSaIS1_ELN9__gnu_cxx12_Lock_policyE2EEEE8allocateERS6_j=so_stub_for_libv2x_radio
-Wl,--defsym=_ZNSt16allocator_traitsISaISt23_Sp_counted_ptr_inplaceINSt13__future_base13_State_baseV2ESaIS2_ELN9__gnu_cxx12_Lock_policyE2EEEE10deallocateERS7_PS6_j=so_stub_for_libv2x_radio
-Wl,--defsym=_ZNSt16allocator_traitsISaISt23_Sp_counted_ptr_inplaceINSt13__future_base13_State_baseV2ESaIS2_ELN9__gnu_cxx12_Lock_policyE2EEEE8allocateERS7_j=so_stub_for_libv2x_radio
-Wl,--defsym=_ZNSt16allocator_traitsISaISt23_Sp_counted_ptr_inplaceISt6vectorIjSaIjEESaIS3_ELN9__gnu_cxx12_Lock_policyE2EEEE10deallocateERS8_PS7_j=so_stub_for_libv2x_radio
-Wl,--defsym=_ZNSt16allocator_traitsISaISt23_Sp_counted_ptr_inplaceISt6vectorIjSaIjEESaIS3_ELN9__gnu_cxx12_Lock_policyE2EEEE8allocateERS8_j=so_stub_for_libv2x_radio
-Wl,--defsym=_ZNSt16allocator_traitsISaISt6vectorIjSaIjEEEE7destroyIS2_EEvRS3_PT_=so_stub_for_libv2x_radio
-Wl,--defsym=_ZNSt16allocator_traitsISaISt6vectorIjSaIjEEEE9constructIS2_JRS2_EEEvRS3_PT_DpOT0_=so_stub_for_libv2x_radio
-Wl,--defsym=_ZNSt16allocator_traitsISaIyEE10deallocateERS0_Pyj=so_stub_for_libv2x_radio
-Wl,--defsym=_ZNSt16allocator_traitsISaIyEE37select_on_container_copy_constructionERKS0_=so_stub_for_libv2x_radio
-Wl,--defsym=_ZNSt16allocator_traitsISaIyEE8allocateERS0_j=so_stub_for_libv2x_radio
-Wl,--defsym=_ZNSt16_Sp_counted_baseILN9__gnu_cxx12_Lock_policyE2EE10_M_destroyEv=so_stub_for_libv2x_radio
-Wl,--defsym=_ZNSt16_Sp_counted_baseILN9__gnu_cxx12_Lock_policyE2EE10_M_releaseEv=so_stub_for_libv2x_radio
-Wl,--defsym=_ZNSt16_Sp_counted_baseILN9__gnu_cxx12_Lock_policyE2EE15_M_add_ref_copyEv=so_stub_for_libv2x_radio
-Wl,--defsym=_ZNSt16_Sp_counted_baseILN9__gnu_cxx12_Lock_policyE2EE15_M_weak_add_refEv=so_stub_for_libv2x_radio
-Wl,--defsym=_ZNSt16_Sp_counted_baseILN9__gnu_cxx12_Lock_policyE2EE15_M_weak_releaseEv=so_stub_for_libv2x_radio
-Wl,--defsym=_ZNSt16_Sp_counted_baseILN9__gnu_cxx12_Lock_policyE2EEC1Ev=so_stub_for_libv2x_radio
-Wl,--defsym=_ZNSt16_Sp_counted_baseILN9__gnu_cxx12_Lock_policyE2EEC2Ev=so_stub_for_libv2x_radio
-Wl,--defsym=_ZNSt16_Sp_counted_baseILN9__gnu_cxx12_Lock_policyE2EED0Ev=so_stub_for_libv2x_radio
-Wl,--defsym=_ZNSt16_Sp_counted_baseILN9__gnu_cxx12_Lock_policyE2EED1Ev=so_stub_for_libv2x_radio
-Wl,--defsym=_ZNSt16_Sp_counted_baseILN9__gnu_cxx12_Lock_policyE2EED2Ev=so_stub_for_libv2x_radio
-Wl,--defsym=_ZNSt17_Function_handlerIFSt10unique_ptrINSt13__future_base12_Result_baseENS2_8_DeleterEEvENS1_13_State_baseV27_SetterIiOiEEE9_M_invokeERKSt9_Any_data=so_stub_for_libv2x_radio
-Wl,--defsym=_ZNSt17_Function_handlerIFSt10unique_ptrINSt13__future_base12_Result_baseENS2_8_DeleterEEvENS1_13_State_baseV27_SetterIN5telux6common9ErrorCodeERKSA_EEE9_M_invokeERKSt9_Any_data=so_stub_for_libv2x_radio
-Wl,--defsym=_ZNSt17_Function_handlerIFSt10unique_ptrINSt13__future_base12_Result_baseENS2_8_DeleterEEvENS1_13_State_baseV27_SetterISt4pairIN5telux6common9ErrorCodeESB_EOSC_EEE9_M_invokeERKSt9_Any_data=so_stub_for_libv2x_radio
-Wl,--defsym=_ZNSt17_Function_handlerIFvSt10shared_ptrIN5telux4cv2x11ICv2xTxFlowEENS1_6common9ErrorCodeEEPS7_E9_M_invokeERKSt9_Any_dataOS4_OS6_=so_stub_for_libv2x_radio
-Wl,--defsym=_ZNSt17_Rb_tree_iteratorISt4pairIK11v2x_event_tNSt7__cxx1112basic_stringIcSt11char_traitsIcESaIcEEEEEC1EPSt18_Rb_tree_node_base=so_stub_for_libv2x_radio
-Wl,--defsym=_ZNSt17_Rb_tree_iteratorISt4pairIK11v2x_event_tNSt7__cxx1112basic_stringIcSt11char_traitsIcESaIcEEEEEC2EPSt18_Rb_tree_node_base=so_stub_for_libv2x_radio
-Wl,--defsym=_ZNSt17_Rb_tree_iteratorISt4pairIK11v2x_event_tNSt7__cxx1112basic_stringIcSt11char_traitsIcESaIcEEEEEmmEv=so_stub_for_libv2x_radio
-Wl,--defsym=_ZNSt17_Rb_tree_iteratorISt4pairIK11v2x_event_tNSt7__cxx1112basic_stringIcSt11char_traitsIcESaIcEEEEEppEv=so_stub_for_libv2x_radio
-Wl,--defsym=_ZNSt17_Rb_tree_iteratorISt4pairIKiSt10shared_ptrIN5telux4cv2x11ICv2xTxFlowEEEEC1EPSt18_Rb_tree_node_base=so_stub_for_libv2x_radio
-Wl,--defsym=_ZNSt17_Rb_tree_iteratorISt4pairIKiSt10shared_ptrIN5telux4cv2x11ICv2xTxFlowEEEEC2EPSt18_Rb_tree_node_base=so_stub_for_libv2x_radio
-Wl,--defsym=_ZNSt17_Rb_tree_iteratorISt4pairIKiSt10shared_ptrIN5telux4cv2x11ICv2xTxFlowEEEEmmEv=so_stub_for_libv2x_radio
-Wl,--defsym=_ZNSt17_Rb_tree_iteratorISt4pairIKiSt10shared_ptrIN5telux4cv2x11ICv2xTxFlowEEEEppEv=so_stub_for_libv2x_radio
-Wl,--defsym=_ZNSt17_Rb_tree_iteratorISt4pairIKiSt10shared_ptrIN5telux4cv2x15ICv2xTxRxSocketEEEEC1EPSt18_Rb_tree_node_base=so_stub_for_libv2x_radio
-Wl,--defsym=_ZNSt17_Rb_tree_iteratorISt4pairIKiSt10shared_ptrIN5telux4cv2x15ICv2xTxRxSocketEEEEC2EPSt18_Rb_tree_node_base=so_stub_for_libv2x_radio
-Wl,--defsym=_ZNSt17_Rb_tree_iteratorISt4pairIKiSt10shared_ptrIN5telux4cv2x15ICv2xTxRxSocketEEEEmmEv=so_stub_for_libv2x_radio
-Wl,--defsym=_ZNSt17_Rb_tree_iteratorISt4pairIKiSt10shared_ptrIN5telux4cv2x15ICv2xTxRxSocketEEEEppEv=so_stub_for_libv2x_radio
-Wl,--defsym=_ZNSt17_Rb_tree_iteratorISt4pairIKiSt10shared_ptrIN5telux4cv2x19ICv2xRxSubscriptionEEEEC1EPSt18_Rb_tree_node_base=so_stub_for_libv2x_radio
-Wl,--defsym=_ZNSt17_Rb_tree_iteratorISt4pairIKiSt10shared_ptrIN5telux4cv2x19ICv2xRxSubscriptionEEEEC2EPSt18_Rb_tree_node_base=so_stub_for_libv2x_radio
-Wl,--defsym=_ZNSt17_Rb_tree_iteratorISt4pairIKiSt10shared_ptrIN5telux4cv2x19ICv2xRxSubscriptionEEEEmmEv=so_stub_for_libv2x_radio
-Wl,--defsym=_ZNSt17_Rb_tree_iteratorISt4pairIKiSt10shared_ptrIN5telux4cv2x19ICv2xRxSubscriptionEEEEppEv=so_stub_for_libv2x_radio
-Wl,--defsym=_ZNSt17_Rb_tree_iteratorISt4pairIKjP31v2x_per_sps_reservation_calls_tEEC1EPSt18_Rb_tree_node_base=so_stub_for_libv2x_radio
-Wl,--defsym=_ZNSt17_Rb_tree_iteratorISt4pairIKjP31v2x_per_sps_reservation_calls_tEEC2EPSt18_Rb_tree_node_base=so_stub_for_libv2x_radio
-Wl,--defsym=_ZNSt17_Rb_tree_iteratorISt4pairIKjP31v2x_per_sps_reservation_calls_tEEmmEv=so_stub_for_libv2x_radio
-Wl,--defsym=_ZNSt17_Rb_tree_iteratorISt4pairIKjP31v2x_per_sps_reservation_calls_tEEppEv=so_stub_for_libv2x_radio
-Wl,--defsym=_ZNSt17_Rb_tree_iteratorISt4pairIKN5telux4cv2x14Cv2xStatusTypeENSt7__cxx1112basic_stringIcSt11char_traitsIcESaIcEEEEEC1EPSt18_Rb_tree_node_base=so_stub_for_libv2x_radio
-Wl,--defsym=_ZNSt17_Rb_tree_iteratorISt4pairIKN5telux4cv2x14Cv2xStatusTypeENSt7__cxx1112basic_stringIcSt11char_traitsIcESaIcEEEEEC2EPSt18_Rb_tree_node_base=so_stub_for_libv2x_radio
-Wl,--defsym=_ZNSt17_Rb_tree_iteratorISt4pairIKN5telux4cv2x14Cv2xStatusTypeENSt7__cxx1112basic_stringIcSt11char_traitsIcESaIcEEEEEmmEv=so_stub_for_libv2x_radio
-Wl,--defsym=_ZNSt17_Rb_tree_iteratorISt4pairIKN5telux4cv2x14Cv2xStatusTypeENSt7__cxx1112basic_stringIcSt11char_traitsIcESaIcEEEEEppEv=so_stub_for_libv2x_radio
-Wl,--defsym=_ZNSt20_Rb_tree_key_compareISt4lessI11v2x_event_tEEC1ERKS2_=so_stub_for_libv2x_radio
-Wl,--defsym=_ZNSt20_Rb_tree_key_compareISt4lessI11v2x_event_tEEC2ERKS2_=so_stub_for_libv2x_radio
-Wl,--defsym=_ZNSt20_Rb_tree_key_compareISt4lessIiEEC1Ev=so_stub_for_libv2x_radio
-Wl,--defsym=_ZNSt20_Rb_tree_key_compareISt4lessIiEEC2Ev=so_stub_for_libv2x_radio
-Wl,--defsym=_ZNSt20_Rb_tree_key_compareISt4lessIjEEC1Ev=so_stub_for_libv2x_radio
-Wl,--defsym=_ZNSt20_Rb_tree_key_compareISt4lessIjEEC2Ev=so_stub_for_libv2x_radio
-Wl,--defsym=_ZNSt20_Rb_tree_key_compareISt4lessIN5telux4cv2x14Cv2xStatusTypeEEEC1ERKS4_=so_stub_for_libv2x_radio
-Wl,--defsym=_ZNSt20_Rb_tree_key_compareISt4lessIN5telux4cv2x14Cv2xStatusTypeEEEC2ERKS4_=so_stub_for_libv2x_radio
-Wl,--defsym=_ZNSt20__uninitialized_copyILb0EE13__uninit_copyIN9__gnu_cxx17__normal_iteratorIPKN5telux4cv2x14Cv2xPoolStatusESt6vectorIS6_SaIS6_EEEEPS6_EET0_T_SF_SE_=so_stub_for_libv2x_radio
-Wl,--defsym=_ZNSt20__uninitialized_copyILb0EE13__uninit_copyIPN5telux4cv2x14Cv2xPoolStatusES5_EET0_T_S7_S6_=so_stub_for_libv2x_radio
-Wl,--defsym=_ZNSt20__uninitialized_copyILb1EE13__uninit_copyIN9__gnu_cxx17__normal_iteratorIPKjSt6vectorIjSaIjEEEEPjEET0_T_SC_SB_=so_stub_for_libv2x_radio
-Wl,--defsym=_ZNSt20__uninitialized_copyILb1EE13__uninit_copyIN9__gnu_cxx17__normal_iteratorIPKN5telux4cv2x12TxPoolIdInfoESt6vectorIS6_SaIS6_EEEEPS6_EET0_T_SF_SE_=so_stub_for_libv2x_radio
-Wl,--defsym=_ZNSt20__uninitialized_copyILb1EE13__uninit_copyIN9__gnu_cxx17__normal_iteratorIPKySt6vectorIySaIyEEEEPyEET0_T_SC_SB_=so_stub_for_libv2x_radio
-Wl,--defsym=_ZNSt20__uninitialized_copyILb1EE13__uninit_copyIPN5telux4cv2x12TxPoolIdInfoES5_EET0_T_S7_S6_=so_stub_for_libv2x_radio
-Wl,--defsym=_ZNSt20__uninitialized_copyILb1EE13__uninit_copyIPyS2_EET0_T_S4_S3_=so_stub_for_libv2x_radio
-Wl,--defsym=_ZNSt20__uninitialized_copyILb1EE13__uninit_copyISt13move_iteratorIPjES3_EET0_T_S6_S5_=so_stub_for_libv2x_radio
-Wl,--defsym=_ZNSt20__uninitialized_copyILb1EE13__uninit_copyISt13move_iteratorIPN5telux4cv2x13TrustedUEInfoEES6_EET0_T_S9_S8_=so_stub_for_libv2x_radio
-Wl,--defsym=_ZNSt23__atomic_futex_unsignedILj2147483648EE16_M_load_and_testEjjbSt12memory_order=so_stub_for_libv2x_radio
-Wl,--defsym=_ZNSt23__atomic_futex_unsignedILj2147483648EE22_M_load_and_test_untilEjjbSt12memory_orderbNSt6chrono8durationIxSt5ratioILx1ELx1EEEENS3_IxS4_ILx1ELx1000000000EEEE=so_stub_for_libv2x_radio
-Wl,--defsym=_ZNSt23__atomic_futex_unsignedILj2147483648EEC1Ej=so_stub_for_libv2x_radio
-Wl,--defsym=_ZNSt23__atomic_futex_unsignedILj2147483648EEC2Ej=so_stub_for_libv2x_radio
-Wl,--defsym=_ZNSt23_Rb_tree_const_iteratorISt4pairIK11v2x_event_tNSt7__cxx1112basic_stringIcSt11char_traitsIcESaIcEEEEEC1ERKSt17_Rb_tree_iteratorIS9_E=so_stub_for_libv2x_radio
-Wl,--defsym=_ZNSt23_Rb_tree_const_iteratorISt4pairIK11v2x_event_tNSt7__cxx1112basic_stringIcSt11char_traitsIcESaIcEEEEEC2ERKSt17_Rb_tree_iteratorIS9_E=so_stub_for_libv2x_radio
-Wl,--defsym=_ZNSt23_Rb_tree_const_iteratorISt4pairIKiSt10shared_ptrIN5telux4cv2x11ICv2xTxFlowEEEEC1EPKSt18_Rb_tree_node_base=so_stub_for_libv2x_radio
-Wl,--defsym=_ZNSt23_Rb_tree_const_iteratorISt4pairIKiSt10shared_ptrIN5telux4cv2x11ICv2xTxFlowEEEEC1ERKSt17_Rb_tree_iteratorIS7_E=so_stub_for_libv2x_radio
-Wl,--defsym=_ZNSt23_Rb_tree_const_iteratorISt4pairIKiSt10shared_ptrIN5telux4cv2x11ICv2xTxFlowEEEEC2EPKSt18_Rb_tree_node_base=so_stub_for_libv2x_radio
-Wl,--defsym=_ZNSt23_Rb_tree_const_iteratorISt4pairIKiSt10shared_ptrIN5telux4cv2x11ICv2xTxFlowEEEEC2ERKSt17_Rb_tree_iteratorIS7_E=so_stub_for_libv2x_radio
-Wl,--defsym=_ZNSt23_Rb_tree_const_iteratorISt4pairIKiSt10shared_ptrIN5telux4cv2x11ICv2xTxFlowEEEEppEi=so_stub_for_libv2x_radio
-Wl,--defsym=_ZNSt23_Rb_tree_const_iteratorISt4pairIKiSt10shared_ptrIN5telux4cv2x15ICv2xTxRxSocketEEEEC1EPKSt18_Rb_tree_node_base=so_stub_for_libv2x_radio
-Wl,--defsym=_ZNSt23_Rb_tree_const_iteratorISt4pairIKiSt10shared_ptrIN5telux4cv2x15ICv2xTxRxSocketEEEEC1ERKSt17_Rb_tree_iteratorIS7_E=so_stub_for_libv2x_radio
-Wl,--defsym=_ZNSt23_Rb_tree_const_iteratorISt4pairIKiSt10shared_ptrIN5telux4cv2x15ICv2xTxRxSocketEEEEC2EPKSt18_Rb_tree_node_base=so_stub_for_libv2x_radio
-Wl,--defsym=_ZNSt23_Rb_tree_const_iteratorISt4pairIKiSt10shared_ptrIN5telux4cv2x15ICv2xTxRxSocketEEEEC2ERKSt17_Rb_tree_iteratorIS7_E=so_stub_for_libv2x_radio
-Wl,--defsym=_ZNSt23_Rb_tree_const_iteratorISt4pairIKiSt10shared_ptrIN5telux4cv2x15ICv2xTxRxSocketEEEEppEi=so_stub_for_libv2x_radio
-Wl,--defsym=_ZNSt23_Rb_tree_const_iteratorISt4pairIKiSt10shared_ptrIN5telux4cv2x19ICv2xRxSubscriptionEEEEC1EPKSt18_Rb_tree_node_base=so_stub_for_libv2x_radio
-Wl,--defsym=_ZNSt23_Rb_tree_const_iteratorISt4pairIKiSt10shared_ptrIN5telux4cv2x19ICv2xRxSubscriptionEEEEC1ERKSt17_Rb_tree_iteratorIS7_E=so_stub_for_libv2x_radio
-Wl,--defsym=_ZNSt23_Rb_tree_const_iteratorISt4pairIKiSt10shared_ptrIN5telux4cv2x19ICv2xRxSubscriptionEEEEC2EPKSt18_Rb_tree_node_base=so_stub_for_libv2x_radio
-Wl,--defsym=_ZNSt23_Rb_tree_const_iteratorISt4pairIKiSt10shared_ptrIN5telux4cv2x19ICv2xRxSubscriptionEEEEC2ERKSt17_Rb_tree_iteratorIS7_E=so_stub_for_libv2x_radio
-Wl,--defsym=_ZNSt23_Rb_tree_const_iteratorISt4pairIKiSt10shared_ptrIN5telux4cv2x19ICv2xRxSubscriptionEEEEppEi=so_stub_for_libv2x_radio
-Wl,--defsym=_ZNSt23_Rb_tree_const_iteratorISt4pairIKjP31v2x_per_sps_reservation_calls_tEEC1EPKSt18_Rb_tree_node_base=so_stub_for_libv2x_radio
-Wl,--defsym=_ZNSt23_Rb_tree_const_iteratorISt4pairIKjP31v2x_per_sps_reservation_calls_tEEC1ERKSt17_Rb_tree_iteratorIS4_E=so_stub_for_libv2x_radio
-Wl,--defsym=_ZNSt23_Rb_tree_const_iteratorISt4pairIKjP31v2x_per_sps_reservation_calls_tEEC2EPKSt18_Rb_tree_node_base=so_stub_for_libv2x_radio
-Wl,--defsym=_ZNSt23_Rb_tree_const_iteratorISt4pairIKjP31v2x_per_sps_reservation_calls_tEEC2ERKSt17_Rb_tree_iteratorIS4_E=so_stub_for_libv2x_radio
-Wl,--defsym=_ZNSt23_Rb_tree_const_iteratorISt4pairIKjP31v2x_per_sps_reservation_calls_tEEppEi=so_stub_for_libv2x_radio
-Wl,--defsym=_ZNSt23_Rb_tree_const_iteratorISt4pairIKN5telux4cv2x14Cv2xStatusTypeENSt7__cxx1112basic_stringIcSt11char_traitsIcESaIcEEEEEC1ERKSt17_Rb_tree_iteratorISB_E=so_stub_for_libv2x_radio
-Wl,--defsym=_ZNSt23_Rb_tree_const_iteratorISt4pairIKN5telux4cv2x14Cv2xStatusTypeENSt7__cxx1112basic_stringIcSt11char_traitsIcESaIcEEEEEC2ERKSt17_Rb_tree_iteratorISB_E=so_stub_for_libv2x_radio
-Wl,--defsym=_ZNSt23_Sp_counted_ptr_inplaceI12Cv2xListenerSaIS0_ELN9__gnu_cxx12_Lock_policyE2EE10_M_destroyEv=so_stub_for_libv2x_radio
-Wl,--defsym=_ZNSt23_Sp_counted_ptr_inplaceI12Cv2xListenerSaIS0_ELN9__gnu_cxx12_Lock_policyE2EE10_M_disposeEv=so_stub_for_libv2x_radio
-Wl,--defsym=_ZNSt23_Sp_counted_ptr_inplaceI12Cv2xListenerSaIS0_ELN9__gnu_cxx12_Lock_policyE2EE14_M_get_deleterERKSt9type_info=so_stub_for_libv2x_radio
-Wl,--defsym=_ZNSt23_Sp_counted_ptr_inplaceI12Cv2xListenerSaIS0_ELN9__gnu_cxx12_Lock_policyE2EE5_Impl8_M_allocEv=so_stub_for_libv2x_radio
-Wl,--defsym=_ZNSt23_Sp_counted_ptr_inplaceI12Cv2xListenerSaIS0_ELN9__gnu_cxx12_Lock_policyE2EE5_ImplC1ES1_=so_stub_for_libv2x_radio
-Wl,--defsym=_ZNSt23_Sp_counted_ptr_inplaceI12Cv2xListenerSaIS0_ELN9__gnu_cxx12_Lock_policyE2EE5_ImplC2ES1_=so_stub_for_libv2x_radio
-Wl,--defsym=_ZNSt23_Sp_counted_ptr_inplaceI12Cv2xListenerSaIS0_ELN9__gnu_cxx12_Lock_policyE2EE5_ImplD1Ev=so_stub_for_libv2x_radio
-Wl,--defsym=_ZNSt23_Sp_counted_ptr_inplaceI12Cv2xListenerSaIS0_ELN9__gnu_cxx12_Lock_policyE2EE5_ImplD2Ev=so_stub_for_libv2x_radio
-Wl,--defsym=_ZNSt23_Sp_counted_ptr_inplaceI12Cv2xListenerSaIS0_ELN9__gnu_cxx12_Lock_policyE2EE6_M_ptrEv=so_stub_for_libv2x_radio
-Wl,--defsym=_ZNSt23_Sp_counted_ptr_inplaceI12Cv2xListenerSaIS0_ELN9__gnu_cxx12_Lock_policyE2EEC1IJEEES1_DpOT_=so_stub_for_libv2x_radio
-Wl,--defsym=_ZNSt23_Sp_counted_ptr_inplaceI12Cv2xListenerSaIS0_ELN9__gnu_cxx12_Lock_policyE2EEC2IJEEES1_DpOT_=so_stub_for_libv2x_radio
-Wl,--defsym=_ZNSt23_Sp_counted_ptr_inplaceI12Cv2xListenerSaIS0_ELN9__gnu_cxx12_Lock_policyE2EED0Ev=so_stub_for_libv2x_radio
-Wl,--defsym=_ZNSt23_Sp_counted_ptr_inplaceI12Cv2xListenerSaIS0_ELN9__gnu_cxx12_Lock_policyE2EED1Ev=so_stub_for_libv2x_radio
-Wl,--defsym=_ZNSt23_Sp_counted_ptr_inplaceI12Cv2xListenerSaIS0_ELN9__gnu_cxx12_Lock_policyE2EED2Ev=so_stub_for_libv2x_radio
-Wl,--defsym=_ZNSt23_Sp_counted_ptr_inplaceI13RadioListenerSaIS0_ELN9__gnu_cxx12_Lock_policyE2EE10_M_destroyEv=so_stub_for_libv2x_radio
-Wl,--defsym=_ZNSt23_Sp_counted_ptr_inplaceI13RadioListenerSaIS0_ELN9__gnu_cxx12_Lock_policyE2EE10_M_disposeEv=so_stub_for_libv2x_radio
-Wl,--defsym=_ZNSt23_Sp_counted_ptr_inplaceI13RadioListenerSaIS0_ELN9__gnu_cxx12_Lock_policyE2EE14_M_get_deleterERKSt9type_info=so_stub_for_libv2x_radio
-Wl,--defsym=_ZNSt23_Sp_counted_ptr_inplaceI13RadioListenerSaIS0_ELN9__gnu_cxx12_Lock_policyE2EE5_Impl8_M_allocEv=so_stub_for_libv2x_radio
-Wl,--defsym=_ZNSt23_Sp_counted_ptr_inplaceI13RadioListenerSaIS0_ELN9__gnu_cxx12_Lock_policyE2EE5_ImplC1ES1_=so_stub_for_libv2x_radio
-Wl,--defsym=_ZNSt23_Sp_counted_ptr_inplaceI13RadioListenerSaIS0_ELN9__gnu_cxx12_Lock_policyE2EE5_ImplC2ES1_=so_stub_for_libv2x_radio
-Wl,--defsym=_ZNSt23_Sp_counted_ptr_inplaceI13RadioListenerSaIS0_ELN9__gnu_cxx12_Lock_policyE2EE5_ImplD1Ev=so_stub_for_libv2x_radio
-Wl,--defsym=_ZNSt23_Sp_counted_ptr_inplaceI13RadioListenerSaIS0_ELN9__gnu_cxx12_Lock_policyE2EE5_ImplD2Ev=so_stub_for_libv2x_radio
-Wl,--defsym=_ZNSt23_Sp_counted_ptr_inplaceI13RadioListenerSaIS0_ELN9__gnu_cxx12_Lock_policyE2EE6_M_ptrEv=so_stub_for_libv2x_radio
-Wl,--defsym=_ZNSt23_Sp_counted_ptr_inplaceI13RadioListenerSaIS0_ELN9__gnu_cxx12_Lock_policyE2EEC1IJEEES1_DpOT_=so_stub_for_libv2x_radio
-Wl,--defsym=_ZNSt23_Sp_counted_ptr_inplaceI13RadioListenerSaIS0_ELN9__gnu_cxx12_Lock_policyE2EEC2IJEEES1_DpOT_=so_stub_for_libv2x_radio
-Wl,--defsym=_ZNSt23_Sp_counted_ptr_inplaceI13RadioListenerSaIS0_ELN9__gnu_cxx12_Lock_policyE2EED0Ev=so_stub_for_libv2x_radio
-Wl,--defsym=_ZNSt23_Sp_counted_ptr_inplaceI13RadioListenerSaIS0_ELN9__gnu_cxx12_Lock_policyE2EED1Ev=so_stub_for_libv2x_radio
-Wl,--defsym=_ZNSt23_Sp_counted_ptr_inplaceI13RadioListenerSaIS0_ELN9__gnu_cxx12_Lock_policyE2EED2Ev=so_stub_for_libv2x_radio
-Wl,--defsym=_ZNSt23_Sp_counted_ptr_inplaceI14ConfigListenerSaIS0_ELN9__gnu_cxx12_Lock_policyE2EE10_M_destroyEv=so_stub_for_libv2x_radio
-Wl,--defsym=_ZNSt23_Sp_counted_ptr_inplaceI14ConfigListenerSaIS0_ELN9__gnu_cxx12_Lock_policyE2EE10_M_disposeEv=so_stub_for_libv2x_radio
-Wl,--defsym=_ZNSt23_Sp_counted_ptr_inplaceI14ConfigListenerSaIS0_ELN9__gnu_cxx12_Lock_policyE2EE14_M_get_deleterERKSt9type_info=so_stub_for_libv2x_radio
-Wl,--defsym=_ZNSt23_Sp_counted_ptr_inplaceI14ConfigListenerSaIS0_ELN9__gnu_cxx12_Lock_policyE2EE5_Impl8_M_allocEv=so_stub_for_libv2x_radio
-Wl,--defsym=_ZNSt23_Sp_counted_ptr_inplaceI14ConfigListenerSaIS0_ELN9__gnu_cxx12_Lock_policyE2EE5_ImplC1ES1_=so_stub_for_libv2x_radio
-Wl,--defsym=_ZNSt23_Sp_counted_ptr_inplaceI14ConfigListenerSaIS0_ELN9__gnu_cxx12_Lock_policyE2EE5_ImplC2ES1_=so_stub_for_libv2x_radio
-Wl,--defsym=_ZNSt23_Sp_counted_ptr_inplaceI14ConfigListenerSaIS0_ELN9__gnu_cxx12_Lock_policyE2EE5_ImplD1Ev=so_stub_for_libv2x_radio
-Wl,--defsym=_ZNSt23_Sp_counted_ptr_inplaceI14ConfigListenerSaIS0_ELN9__gnu_cxx12_Lock_policyE2EE5_ImplD2Ev=so_stub_for_libv2x_radio
-Wl,--defsym=_ZNSt23_Sp_counted_ptr_inplaceI14ConfigListenerSaIS0_ELN9__gnu_cxx12_Lock_policyE2EE6_M_ptrEv=so_stub_for_libv2x_radio
-Wl,--defsym=_ZNSt23_Sp_counted_ptr_inplaceI14ConfigListenerSaIS0_ELN9__gnu_cxx12_Lock_policyE2EEC1IJEEES1_DpOT_=so_stub_for_libv2x_radio
-Wl,--defsym=_ZNSt23_Sp_counted_ptr_inplaceI14ConfigListenerSaIS0_ELN9__gnu_cxx12_Lock_policyE2EEC2IJEEES1_DpOT_=so_stub_for_libv2x_radio
-Wl,--defsym=_ZNSt23_Sp_counted_ptr_inplaceI14ConfigListenerSaIS0_ELN9__gnu_cxx12_Lock_policyE2EED0Ev=so_stub_for_libv2x_radio
-Wl,--defsym=_ZNSt23_Sp_counted_ptr_inplaceI14ConfigListenerSaIS0_ELN9__gnu_cxx12_Lock_policyE2EED1Ev=so_stub_for_libv2x_radio
-Wl,--defsym=_ZNSt23_Sp_counted_ptr_inplaceI14ConfigListenerSaIS0_ELN9__gnu_cxx12_Lock_policyE2EED2Ev=so_stub_for_libv2x_radio
-Wl,--defsym=_ZNSt23_Sp_counted_ptr_inplaceINSt13__future_base13_State_baseV2ESaIS1_ELN9__gnu_cxx12_Lock_policyE2EE10_M_destroyEv=so_stub_for_libv2x_radio
-Wl,--defsym=_ZNSt23_Sp_counted_ptr_inplaceINSt13__future_base13_State_baseV2ESaIS1_ELN9__gnu_cxx12_Lock_policyE2EE10_M_disposeEv=so_stub_for_libv2x_radio
-Wl,--defsym=_ZNSt23_Sp_counted_ptr_inplaceINSt13__future_base13_State_baseV2ESaIS1_ELN9__gnu_cxx12_Lock_policyE2EE14_M_get_deleterERKSt9type_info=so_stub_for_libv2x_radio
-Wl,--defsym=_ZNSt23_Sp_counted_ptr_inplaceINSt13__future_base13_State_baseV2ESaIS1_ELN9__gnu_cxx12_Lock_policyE2EE5_Impl8_M_allocEv=so_stub_for_libv2x_radio
-Wl,--defsym=_ZNSt23_Sp_counted_ptr_inplaceINSt13__future_base13_State_baseV2ESaIS1_ELN9__gnu_cxx12_Lock_policyE2EE5_ImplC1ES2_=so_stub_for_libv2x_radio
-Wl,--defsym=_ZNSt23_Sp_counted_ptr_inplaceINSt13__future_base13_State_baseV2ESaIS1_ELN9__gnu_cxx12_Lock_policyE2EE5_ImplC2ES2_=so_stub_for_libv2x_radio
-Wl,--defsym=_ZNSt23_Sp_counted_ptr_inplaceINSt13__future_base13_State_baseV2ESaIS1_ELN9__gnu_cxx12_Lock_policyE2EE5_ImplD1Ev=so_stub_for_libv2x_radio
-Wl,--defsym=_ZNSt23_Sp_counted_ptr_inplaceINSt13__future_base13_State_baseV2ESaIS1_ELN9__gnu_cxx12_Lock_policyE2EE5_ImplD2Ev=so_stub_for_libv2x_radio
-Wl,--defsym=_ZNSt23_Sp_counted_ptr_inplaceINSt13__future_base13_State_baseV2ESaIS1_ELN9__gnu_cxx12_Lock_policyE2EE6_M_ptrEv=so_stub_for_libv2x_radio
-Wl,--defsym=_ZNSt23_Sp_counted_ptr_inplaceINSt13__future_base13_State_baseV2ESaIS1_ELN9__gnu_cxx12_Lock_policyE2EEC1IJEEES2_DpOT_=so_stub_for_libv2x_radio
-Wl,--defsym=_ZNSt23_Sp_counted_ptr_inplaceINSt13__future_base13_State_baseV2ESaIS1_ELN9__gnu_cxx12_Lock_policyE2EEC2IJEEES2_DpOT_=so_stub_for_libv2x_radio
-Wl,--defsym=_ZNSt23_Sp_counted_ptr_inplaceINSt13__future_base13_State_baseV2ESaIS1_ELN9__gnu_cxx12_Lock_policyE2EED0Ev=so_stub_for_libv2x_radio
-Wl,--defsym=_ZNSt23_Sp_counted_ptr_inplaceINSt13__future_base13_State_baseV2ESaIS1_ELN9__gnu_cxx12_Lock_policyE2EED1Ev=so_stub_for_libv2x_radio
-Wl,--defsym=_ZNSt23_Sp_counted_ptr_inplaceINSt13__future_base13_State_baseV2ESaIS1_ELN9__gnu_cxx12_Lock_policyE2EED2Ev=so_stub_for_libv2x_radio
-Wl,--defsym=_ZNSt23_Sp_counted_ptr_inplaceISt6vectorIjSaIjEESaIS2_ELN9__gnu_cxx12_Lock_policyE2EE10_M_destroyEv=so_stub_for_libv2x_radio
-Wl,--defsym=_ZNSt23_Sp_counted_ptr_inplaceISt6vectorIjSaIjEESaIS2_ELN9__gnu_cxx12_Lock_policyE2EE10_M_disposeEv=so_stub_for_libv2x_radio
-Wl,--defsym=_ZNSt23_Sp_counted_ptr_inplaceISt6vectorIjSaIjEESaIS2_ELN9__gnu_cxx12_Lock_policyE2EE14_M_get_deleterERKSt9type_info=so_stub_for_libv2x_radio
-Wl,--defsym=_ZNSt23_Sp_counted_ptr_inplaceISt6vectorIjSaIjEESaIS2_ELN9__gnu_cxx12_Lock_policyE2EE5_Impl8_M_allocEv=so_stub_for_libv2x_radio
-Wl,--defsym=_ZNSt23_Sp_counted_ptr_inplaceISt6vectorIjSaIjEESaIS2_ELN9__gnu_cxx12_Lock_policyE2EE5_ImplC1ES3_=so_stub_for_libv2x_radio
-Wl,--defsym=_ZNSt23_Sp_counted_ptr_inplaceISt6vectorIjSaIjEESaIS2_ELN9__gnu_cxx12_Lock_policyE2EE5_ImplC2ES3_=so_stub_for_libv2x_radio
-Wl,--defsym=_ZNSt23_Sp_counted_ptr_inplaceISt6vectorIjSaIjEESaIS2_ELN9__gnu_cxx12_Lock_policyE2EE5_ImplD1Ev=so_stub_for_libv2x_radio
-Wl,--defsym=_ZNSt23_Sp_counted_ptr_inplaceISt6vectorIjSaIjEESaIS2_ELN9__gnu_cxx12_Lock_policyE2EE5_ImplD2Ev=so_stub_for_libv2x_radio
-Wl,--defsym=_ZNSt23_Sp_counted_ptr_inplaceISt6vectorIjSaIjEESaIS2_ELN9__gnu_cxx12_Lock_policyE2EE6_M_ptrEv=so_stub_for_libv2x_radio
-Wl,--defsym=_ZNSt23_Sp_counted_ptr_inplaceISt6vectorIjSaIjEESaIS2_ELN9__gnu_cxx12_Lock_policyE2EEC1IJRS2_EEES3_DpOT_=so_stub_for_libv2x_radio
-Wl,--defsym=_ZNSt23_Sp_counted_ptr_inplaceISt6vectorIjSaIjEESaIS2_ELN9__gnu_cxx12_Lock_policyE2EEC2IJRS2_EEES3_DpOT_=so_stub_for_libv2x_radio
-Wl,--defsym=_ZNSt23_Sp_counted_ptr_inplaceISt6vectorIjSaIjEESaIS2_ELN9__gnu_cxx12_Lock_policyE2EED0Ev=so_stub_for_libv2x_radio
-Wl,--defsym=_ZNSt23_Sp_counted_ptr_inplaceISt6vectorIjSaIjEESaIS2_ELN9__gnu_cxx12_Lock_policyE2EED1Ev=so_stub_for_libv2x_radio
-Wl,--defsym=_ZNSt23_Sp_counted_ptr_inplaceISt6vectorIjSaIjEESaIS2_ELN9__gnu_cxx12_Lock_policyE2EED2Ev=so_stub_for_libv2x_radio
-Wl,--defsym=_ZNSt3mapI11v2x_event_tNSt7__cxx1112basic_stringIcSt11char_traitsIcESaIcEEESt4lessIS0_ESaISt4pairIKS0_S6_EEE11lower_boundERSA_=so_stub_for_libv2x_radio
-Wl,--defsym=_ZNSt3mapI11v2x_event_tNSt7__cxx1112basic_stringIcSt11char_traitsIcESaIcEEESt4lessIS0_ESaISt4pairIKS0_S6_EEE3endEv=so_stub_for_libv2x_radio
-Wl,--defsym=_ZNSt3mapI11v2x_event_tNSt7__cxx1112basic_stringIcSt11char_traitsIcESaIcEEESt4lessIS0_ESaISt4pairIKS0_S6_EEEC1ESt16initializer_listISB_ERKS8_RKSC_=so_stub_for_libv2x_radio
-Wl,--defsym=_ZNSt3mapI11v2x_event_tNSt7__cxx1112basic_stringIcSt11char_traitsIcESaIcEEESt4lessIS0_ESaISt4pairIKS0_S6_EEEC2ESt16initializer_listISB_ERKS8_RKSC_=so_stub_for_libv2x_radio
-Wl,--defsym=_ZNSt3mapI11v2x_event_tNSt7__cxx1112basic_stringIcSt11char_traitsIcESaIcEEESt4lessIS0_ESaISt4pairIKS0_S6_EEED1Ev=so_stub_for_libv2x_radio
-Wl,--defsym=_ZNSt3mapI11v2x_event_tNSt7__cxx1112basic_stringIcSt11char_traitsIcESaIcEEESt4lessIS0_ESaISt4pairIKS0_S6_EEED2Ev=so_stub_for_libv2x_radio
-Wl,--defsym=_ZNSt3mapI11v2x_event_tNSt7__cxx1112basic_stringIcSt11char_traitsIcESaIcEEESt4lessIS0_ESaISt4pairIKS0_S6_EEEixERSA_=so_stub_for_libv2x_radio
-Wl,--defsym=_ZNSt3mapIiSt10shared_ptrIN5telux4cv2x11ICv2xTxFlowEESt4lessIiESaISt4pairIKiS4_EEE11lower_boundERS8_=so_stub_for_libv2x_radio
-Wl,--defsym=_ZNSt3mapIiSt10shared_ptrIN5telux4cv2x11ICv2xTxFlowEESt4lessIiESaISt4pairIKiS4_EEE3endEv=so_stub_for_libv2x_radio
-Wl,--defsym=_ZNSt3mapIiSt10shared_ptrIN5telux4cv2x11ICv2xTxFlowEESt4lessIiESaISt4pairIKiS4_EEE5clearEv=so_stub_for_libv2x_radio
-Wl,--defsym=_ZNSt3mapIiSt10shared_ptrIN5telux4cv2x11ICv2xTxFlowEESt4lessIiESaISt4pairIKiS4_EEE5eraseERS8_=so_stub_for_libv2x_radio
-Wl,--defsym=_ZNSt3mapIiSt10shared_ptrIN5telux4cv2x11ICv2xTxFlowEESt4lessIiESaISt4pairIKiS4_EEEC1Ev=so_stub_for_libv2x_radio
-Wl,--defsym=_ZNSt3mapIiSt10shared_ptrIN5telux4cv2x11ICv2xTxFlowEESt4lessIiESaISt4pairIKiS4_EEEC2Ev=so_stub_for_libv2x_radio
-Wl,--defsym=_ZNSt3mapIiSt10shared_ptrIN5telux4cv2x11ICv2xTxFlowEESt4lessIiESaISt4pairIKiS4_EEED1Ev=so_stub_for_libv2x_radio
-Wl,--defsym=_ZNSt3mapIiSt10shared_ptrIN5telux4cv2x11ICv2xTxFlowEESt4lessIiESaISt4pairIKiS4_EEED2Ev=so_stub_for_libv2x_radio
-Wl,--defsym=_ZNSt3mapIiSt10shared_ptrIN5telux4cv2x11ICv2xTxFlowEESt4lessIiESaISt4pairIKiS4_EEEixERS8_=so_stub_for_libv2x_radio
-Wl,--defsym=_ZNSt3mapIiSt10shared_ptrIN5telux4cv2x15ICv2xTxRxSocketEESt4lessIiESaISt4pairIKiS4_EEE11lower_boundERS8_=so_stub_for_libv2x_radio
-Wl,--defsym=_ZNSt3mapIiSt10shared_ptrIN5telux4cv2x15ICv2xTxRxSocketEESt4lessIiESaISt4pairIKiS4_EEE3endEv=so_stub_for_libv2x_radio
-Wl,--defsym=_ZNSt3mapIiSt10shared_ptrIN5telux4cv2x15ICv2xTxRxSocketEESt4lessIiESaISt4pairIKiS4_EEE5eraseERS8_=so_stub_for_libv2x_radio
-Wl,--defsym=_ZNSt3mapIiSt10shared_ptrIN5telux4cv2x15ICv2xTxRxSocketEESt4lessIiESaISt4pairIKiS4_EEEC1Ev=so_stub_for_libv2x_radio
-Wl,--defsym=_ZNSt3mapIiSt10shared_ptrIN5telux4cv2x15ICv2xTxRxSocketEESt4lessIiESaISt4pairIKiS4_EEEC2Ev=so_stub_for_libv2x_radio
-Wl,--defsym=_ZNSt3mapIiSt10shared_ptrIN5telux4cv2x15ICv2xTxRxSocketEESt4lessIiESaISt4pairIKiS4_EEED1Ev=so_stub_for_libv2x_radio
-Wl,--defsym=_ZNSt3mapIiSt10shared_ptrIN5telux4cv2x15ICv2xTxRxSocketEESt4lessIiESaISt4pairIKiS4_EEED2Ev=so_stub_for_libv2x_radio
-Wl,--defsym=_ZNSt3mapIiSt10shared_ptrIN5telux4cv2x15ICv2xTxRxSocketEESt4lessIiESaISt4pairIKiS4_EEEixERS8_=so_stub_for_libv2x_radio
-Wl,--defsym=_ZNSt3mapIiSt10shared_ptrIN5telux4cv2x19ICv2xRxSubscriptionEESt4lessIiESaISt4pairIKiS4_EEE11lower_boundERS8_=so_stub_for_libv2x_radio
-Wl,--defsym=_ZNSt3mapIiSt10shared_ptrIN5telux4cv2x19ICv2xRxSubscriptionEESt4lessIiESaISt4pairIKiS4_EEE3endEv=so_stub_for_libv2x_radio
-Wl,--defsym=_ZNSt3mapIiSt10shared_ptrIN5telux4cv2x19ICv2xRxSubscriptionEESt4lessIiESaISt4pairIKiS4_EEE5clearEv=so_stub_for_libv2x_radio
-Wl,--defsym=_ZNSt3mapIiSt10shared_ptrIN5telux4cv2x19ICv2xRxSubscriptionEESt4lessIiESaISt4pairIKiS4_EEE5eraseERS8_=so_stub_for_libv2x_radio
-Wl,--defsym=_ZNSt3mapIiSt10shared_ptrIN5telux4cv2x19ICv2xRxSubscriptionEESt4lessIiESaISt4pairIKiS4_EEEC1Ev=so_stub_for_libv2x_radio
-Wl,--defsym=_ZNSt3mapIiSt10shared_ptrIN5telux4cv2x19ICv2xRxSubscriptionEESt4lessIiESaISt4pairIKiS4_EEEC2Ev=so_stub_for_libv2x_radio
-Wl,--defsym=_ZNSt3mapIiSt10shared_ptrIN5telux4cv2x19ICv2xRxSubscriptionEESt4lessIiESaISt4pairIKiS4_EEED1Ev=so_stub_for_libv2x_radio
-Wl,--defsym=_ZNSt3mapIiSt10shared_ptrIN5telux4cv2x19ICv2xRxSubscriptionEESt4lessIiESaISt4pairIKiS4_EEED2Ev=so_stub_for_libv2x_radio
-Wl,--defsym=_ZNSt3mapIiSt10shared_ptrIN5telux4cv2x19ICv2xRxSubscriptionEESt4lessIiESaISt4pairIKiS4_EEEixERS8_=so_stub_for_libv2x_radio
-Wl,--defsym=_ZNSt3mapIjP31v2x_per_sps_reservation_calls_tSt4lessIjESaISt4pairIKjS1_EEE11lower_boundERS5_=so_stub_for_libv2x_radio
-Wl,--defsym=_ZNSt3mapIjP31v2x_per_sps_reservation_calls_tSt4lessIjESaISt4pairIKjS1_EEE3endEv=so_stub_for_libv2x_radio
-Wl,--defsym=_ZNSt3mapIjP31v2x_per_sps_reservation_calls_tSt4lessIjESaISt4pairIKjS1_EEE5clearEv=so_stub_for_libv2x_radio
-Wl,--defsym=_ZNSt3mapIjP31v2x_per_sps_reservation_calls_tSt4lessIjESaISt4pairIKjS1_EEE5eraseERS5_=so_stub_for_libv2x_radio
-Wl,--defsym=_ZNSt3mapIjP31v2x_per_sps_reservation_calls_tSt4lessIjESaISt4pairIKjS1_EEEC1Ev=so_stub_for_libv2x_radio
-Wl,--defsym=_ZNSt3mapIjP31v2x_per_sps_reservation_calls_tSt4lessIjESaISt4pairIKjS1_EEEC2Ev=so_stub_for_libv2x_radio
-Wl,--defsym=_ZNSt3mapIjP31v2x_per_sps_reservation_calls_tSt4lessIjESaISt4pairIKjS1_EEED1Ev=so_stub_for_libv2x_radio
-Wl,--defsym=_ZNSt3mapIjP31v2x_per_sps_reservation_calls_tSt4lessIjESaISt4pairIKjS1_EEED2Ev=so_stub_for_libv2x_radio
-Wl,--defsym=_ZNSt3mapIjP31v2x_per_sps_reservation_calls_tSt4lessIjESaISt4pairIKjS1_EEEixERS5_=so_stub_for_libv2x_radio
-Wl,--defsym=_ZNSt3mapIN5telux4cv2x14Cv2xStatusTypeENSt7__cxx1112basic_stringIcSt11char_traitsIcESaIcEEESt4lessIS2_ESaISt4pairIKS2_S8_EEE11lower_boundERSC_=so_stub_for_libv2x_radio
-Wl,--defsym=_ZNSt3mapIN5telux4cv2x14Cv2xStatusTypeENSt7__cxx1112basic_stringIcSt11char_traitsIcESaIcEEESt4lessIS2_ESaISt4pairIKS2_S8_EEE3endEv=so_stub_for_libv2x_radio
-Wl,--defsym=_ZNSt3mapIN5telux4cv2x14Cv2xStatusTypeENSt7__cxx1112basic_stringIcSt11char_traitsIcESaIcEEESt4lessIS2_ESaISt4pairIKS2_S8_EEEC1ESt16initializer_listISD_ERKSA_RKSE_=so_stub_for_libv2x_radio
-Wl,--defsym=_ZNSt3mapIN5telux4cv2x14Cv2xStatusTypeENSt7__cxx1112basic_stringIcSt11char_traitsIcESaIcEEESt4lessIS2_ESaISt4pairIKS2_S8_EEEC2ESt16initializer_listISD_ERKSA_RKSE_=so_stub_for_libv2x_radio
-Wl,--defsym=_ZNSt3mapIN5telux4cv2x14Cv2xStatusTypeENSt7__cxx1112basic_stringIcSt11char_traitsIcESaIcEEESt4lessIS2_ESaISt4pairIKS2_S8_EEED1Ev=so_stub_for_libv2x_radio
-Wl,--defsym=_ZNSt3mapIN5telux4cv2x14Cv2xStatusTypeENSt7__cxx1112basic_stringIcSt11char_traitsIcESaIcEEESt4lessIS2_ESaISt4pairIKS2_S8_EEED2Ev=so_stub_for_libv2x_radio
-Wl,--defsym=_ZNSt3mapIN5telux4cv2x14Cv2xStatusTypeENSt7__cxx1112basic_stringIcSt11char_traitsIcESaIcEEESt4lessIS2_ESaISt4pairIKS2_S8_EEEixERSC_=so_stub_for_libv2x_radio
-Wl,--defsym=_ZNSt4pairIK11v2x_event_tNSt7__cxx1112basic_stringIcSt11char_traitsIcESaIcEEEEC1ERKS8_=so_stub_for_libv2x_radio
-Wl,--defsym=_ZNSt4pairIK11v2x_event_tNSt7__cxx1112basic_stringIcSt11char_traitsIcESaIcEEEEC1IJRS1_EJEEESt21piecewise_construct_tSt5tupleIJDpT_EESC_IJDpT0_EE=so_stub_for_libv2x_radio
-Wl,--defsym=_ZNSt4pairIK11v2x_event_tNSt7__cxx1112basic_stringIcSt11char_traitsIcESaIcEEEEC1IJRS1_EJLj0EEJEJEEERSt5tupleIJDpT_EERSB_IJDpT1_EESt12_Index_tupleIJXspT0_EEESK_IJXspT2_EEE=so_stub_for_libv2x_radio
-Wl,--defsym=_ZNSt4pairIK11v2x_event_tNSt7__cxx1112basic_stringIcSt11char_traitsIcESaIcEEEEC1IS0_RA13_KcLb1EEEOT_OT0_=so_stub_for_libv2x_radio
-Wl,--defsym=_ZNSt4pairIK11v2x_event_tNSt7__cxx1112basic_stringIcSt11char_traitsIcESaIcEEEEC1IS0_RA15_KcLb1EEEOT_OT0_=so_stub_for_libv2x_radio
-Wl,--defsym=_ZNSt4pairIK11v2x_event_tNSt7__cxx1112basic_stringIcSt11char_traitsIcESaIcEEEEC1IS0_RA7_KcLb1EEEOT_OT0_=so_stub_for_libv2x_radio
-Wl,--defsym=_ZNSt4pairIK11v2x_event_tNSt7__cxx1112basic_stringIcSt11char_traitsIcESaIcEEEEC1IS0_RA9_KcLb1EEEOT_OT0_=so_stub_for_libv2x_radio
-Wl,--defsym=_ZNSt4pairIK11v2x_event_tNSt7__cxx1112basic_stringIcSt11char_traitsIcESaIcEEEEC2ERKS8_=so_stub_for_libv2x_radio
-Wl,--defsym=_ZNSt4pairIK11v2x_event_tNSt7__cxx1112basic_stringIcSt11char_traitsIcESaIcEEEEC2IJRS1_EJEEESt21piecewise_construct_tSt5tupleIJDpT_EESC_IJDpT0_EE=so_stub_for_libv2x_radio
-Wl,--defsym=_ZNSt4pairIK11v2x_event_tNSt7__cxx1112basic_stringIcSt11char_traitsIcESaIcEEEEC2IJRS1_EJLj0EEJEJEEERSt5tupleIJDpT_EERSB_IJDpT1_EESt12_Index_tupleIJXspT0_EEESK_IJXspT2_EEE=so_stub_for_libv2x_radio
-Wl,--defsym=_ZNSt4pairIK11v2x_event_tNSt7__cxx1112basic_stringIcSt11char_traitsIcESaIcEEEED1Ev=so_stub_for_libv2x_radio
-Wl,--defsym=_ZNSt4pairIK11v2x_event_tNSt7__cxx1112basic_stringIcSt11char_traitsIcESaIcEEEED2Ev=so_stub_for_libv2x_radio
-Wl,--defsym=_ZNSt4pairIKiSt10shared_ptrIN5telux4cv2x11ICv2xTxFlowEEEC1IJRS0_EJEEESt21piecewise_construct_tSt5tupleIJDpT_EESA_IJDpT0_EE=so_stub_for_libv2x_radio
-Wl,--defsym=_ZNSt4pairIKiSt10shared_ptrIN5telux4cv2x11ICv2xTxFlowEEEC1IJRS0_EJLj0EEJEJEEERSt5tupleIJDpT_EERS9_IJDpT1_EESt12_Index_tupleIJXspT0_EEESI_IJXspT2_EEE=so_stub_for_libv2x_radio
-Wl,--defsym=_ZNSt4pairIKiSt10shared_ptrIN5telux4cv2x11ICv2xTxFlowEEEC2IJRS0_EJEEESt21piecewise_construct_tSt5tupleIJDpT_EESA_IJDpT0_EE=so_stub_for_libv2x_radio
-Wl,--defsym=_ZNSt4pairIKiSt10shared_ptrIN5telux4cv2x11ICv2xTxFlowEEEC2IJRS0_EJLj0EEJEJEEERSt5tupleIJDpT_EERS9_IJDpT1_EESt12_Index_tupleIJXspT0_EEESI_IJXspT2_EEE=so_stub_for_libv2x_radio
-Wl,--defsym=_ZNSt4pairIKiSt10shared_ptrIN5telux4cv2x11ICv2xTxFlowEEED1Ev=so_stub_for_libv2x_radio
-Wl,--defsym=_ZNSt4pairIKiSt10shared_ptrIN5telux4cv2x11ICv2xTxFlowEEED2Ev=so_stub_for_libv2x_radio
-Wl,--defsym=_ZNSt4pairIKiSt10shared_ptrIN5telux4cv2x15ICv2xTxRxSocketEEEC1IJRS0_EJEEESt21piecewise_construct_tSt5tupleIJDpT_EESA_IJDpT0_EE=so_stub_for_libv2x_radio
-Wl,--defsym=_ZNSt4pairIKiSt10shared_ptrIN5telux4cv2x15ICv2xTxRxSocketEEEC1IJRS0_EJLj0EEJEJEEERSt5tupleIJDpT_EERS9_IJDpT1_EESt12_Index_tupleIJXspT0_EEESI_IJXspT2_EEE=so_stub_for_libv2x_radio
-Wl,--defsym=_ZNSt4pairIKiSt10shared_ptrIN5telux4cv2x15ICv2xTxRxSocketEEEC2IJRS0_EJEEESt21piecewise_construct_tSt5tupleIJDpT_EESA_IJDpT0_EE=so_stub_for_libv2x_radio
-Wl,--defsym=_ZNSt4pairIKiSt10shared_ptrIN5telux4cv2x15ICv2xTxRxSocketEEEC2IJRS0_EJLj0EEJEJEEERSt5tupleIJDpT_EERS9_IJDpT1_EESt12_Index_tupleIJXspT0_EEESI_IJXspT2_EEE=so_stub_for_libv2x_radio
-Wl,--defsym=_ZNSt4pairIKiSt10shared_ptrIN5telux4cv2x15ICv2xTxRxSocketEEED1Ev=so_stub_for_libv2x_radio
-Wl,--defsym=_ZNSt4pairIKiSt10shared_ptrIN5telux4cv2x15ICv2xTxRxSocketEEED2Ev=so_stub_for_libv2x_radio
-Wl,--defsym=_ZNSt4pairIKiSt10shared_ptrIN5telux4cv2x19ICv2xRxSubscriptionEEEC1IJRS0_EJEEESt21piecewise_construct_tSt5tupleIJDpT_EESA_IJDpT0_EE=so_stub_for_libv2x_radio
-Wl,--defsym=_ZNSt4pairIKiSt10shared_ptrIN5telux4cv2x19ICv2xRxSubscriptionEEEC1IJRS0_EJLj0EEJEJEEERSt5tupleIJDpT_EERS9_IJDpT1_EESt12_Index_tupleIJXspT0_EEESI_IJXspT2_EEE=so_stub_for_libv2x_radio
-Wl,--defsym=_ZNSt4pairIKiSt10shared_ptrIN5telux4cv2x19ICv2xRxSubscriptionEEEC2IJRS0_EJEEESt21piecewise_construct_tSt5tupleIJDpT_EESA_IJDpT0_EE=so_stub_for_libv2x_radio
-Wl,--defsym=_ZNSt4pairIKiSt10shared_ptrIN5telux4cv2x19ICv2xRxSubscriptionEEEC2IJRS0_EJLj0EEJEJEEERSt5tupleIJDpT_EERS9_IJDpT1_EESt12_Index_tupleIJXspT0_EEESI_IJXspT2_EEE=so_stub_for_libv2x_radio
-Wl,--defsym=_ZNSt4pairIKiSt10shared_ptrIN5telux4cv2x19ICv2xRxSubscriptionEEED1Ev=so_stub_for_libv2x_radio
-Wl,--defsym=_ZNSt4pairIKiSt10shared_ptrIN5telux4cv2x19ICv2xRxSubscriptionEEED2Ev=so_stub_for_libv2x_radio
-Wl,--defsym=_ZNSt4pairIKjP31v2x_per_sps_reservation_calls_tEC1IJRS0_EJEEESt21piecewise_construct_tSt5tupleIJDpT_EES7_IJDpT0_EE=so_stub_for_libv2x_radio
-Wl,--defsym=_ZNSt4pairIKjP31v2x_per_sps_reservation_calls_tEC1IJRS0_EJLj0EEJEJEEERSt5tupleIJDpT_EERS6_IJDpT1_EESt12_Index_tupleIJXspT0_EEESF_IJXspT2_EEE=so_stub_for_libv2x_radio
-Wl,--defsym=_ZNSt4pairIKjP31v2x_per_sps_reservation_calls_tEC2IJRS0_EJEEESt21piecewise_construct_tSt5tupleIJDpT_EES7_IJDpT0_EE=so_stub_for_libv2x_radio
-Wl,--defsym=_ZNSt4pairIKjP31v2x_per_sps_reservation_calls_tEC2IJRS0_EJLj0EEJEJEEERSt5tupleIJDpT_EERS6_IJDpT1_EESt12_Index_tupleIJXspT0_EEESF_IJXspT2_EEE=so_stub_for_libv2x_radio
-Wl,--defsym=_ZNSt4pairIKN5telux4cv2x14Cv2xStatusTypeENSt7__cxx1112basic_stringIcSt11char_traitsIcESaIcEEEEC1ERKSA_=so_stub_for_libv2x_radio
-Wl,--defsym=_ZNSt4pairIKN5telux4cv2x14Cv2xStatusTypeENSt7__cxx1112basic_stringIcSt11char_traitsIcESaIcEEEEC1IJRS3_EJEEESt21piecewise_construct_tSt5tupleIJDpT_EESE_IJDpT0_EE=so_stub_for_libv2x_radio
-Wl,--defsym=_ZNSt4pairIKN5telux4cv2x14Cv2xStatusTypeENSt7__cxx1112basic_stringIcSt11char_traitsIcESaIcEEEEC1IJRS3_EJLj0EEJEJEEERSt5tupleIJDpT_EERSD_IJDpT1_EESt12_Index_tupleIJXspT0_EEESM_IJXspT2_EEE=so_stub_for_libv2x_radio
-Wl,--defsym=_ZNSt4pairIKN5telux4cv2x14Cv2xStatusTypeENSt7__cxx1112basic_stringIcSt11char_traitsIcESaIcEEEEC1IS2_RA10_KcLb1EEEOT_OT0_=so_stub_for_libv2x_radio
-Wl,--defsym=_ZNSt4pairIKN5telux4cv2x14Cv2xStatusTypeENSt7__cxx1112basic_stringIcSt11char_traitsIcESaIcEEEEC1IS2_RA7_KcLb1EEEOT_OT0_=so_stub_for_libv2x_radio
-Wl,--defsym=_ZNSt4pairIKN5telux4cv2x14Cv2xStatusTypeENSt7__cxx1112basic_stringIcSt11char_traitsIcESaIcEEEEC1IS2_RA8_KcLb1EEEOT_OT0_=so_stub_for_libv2x_radio
-Wl,--defsym=_ZNSt4pairIKN5telux4cv2x14Cv2xStatusTypeENSt7__cxx1112basic_stringIcSt11char_traitsIcESaIcEEEEC1IS2_RA9_KcLb1EEEOT_OT0_=so_stub_for_libv2x_radio
-Wl,--defsym=_ZNSt4pairIKN5telux4cv2x14Cv2xStatusTypeENSt7__cxx1112basic_stringIcSt11char_traitsIcESaIcEEEEC2ERKSA_=so_stub_for_libv2x_radio
-Wl,--defsym=_ZNSt4pairIKN5telux4cv2x14Cv2xStatusTypeENSt7__cxx1112basic_stringIcSt11char_traitsIcESaIcEEEEC2IJRS3_EJEEESt21piecewise_construct_tSt5tupleIJDpT_EESE_IJDpT0_EE=so_stub_for_libv2x_radio
-Wl,--defsym=_ZNSt4pairIKN5telux4cv2x14Cv2xStatusTypeENSt7__cxx1112basic_stringIcSt11char_traitsIcESaIcEEEEC2IJRS3_EJLj0EEJEJEEERSt5tupleIJDpT_EERSD_IJDpT1_EESt12_Index_tupleIJXspT0_EEESM_IJXspT2_EEE=so_stub_for_libv2x_radio
-Wl,--defsym=_ZNSt4pairIKN5telux4cv2x14Cv2xStatusTypeENSt7__cxx1112basic_stringIcSt11char_traitsIcESaIcEEEED1Ev=so_stub_for_libv2x_radio
-Wl,--defsym=_ZNSt4pairIKN5telux4cv2x14Cv2xStatusTypeENSt7__cxx1112basic_stringIcSt11char_traitsIcESaIcEEEED2Ev=so_stub_for_libv2x_radio
-Wl,--defsym=_ZNSt4pairIN5telux6common9ErrorCodeES2_EaSEOS3_=so_stub_for_libv2x_radio
-Wl,--defsym=_ZNSt4pairIN5telux6common9ErrorCodeES2_EC1IRS2_S5_Lb1EEEOT_OT0_=so_stub_for_libv2x_radio
-Wl,--defsym=_ZNSt4pairIN5telux6common9ErrorCodeES2_EC2IRS2_S5_Lb1EEEOT_OT0_=so_stub_for_libv2x_radio
-Wl,--defsym=_ZNSt4pairIPSt18_Rb_tree_node_baseS1_EC1IRPSt13_Rb_tree_nodeIS_IK11v2x_event_tNSt7__cxx1112basic_stringIcSt11char_traitsIcESaIcEEEEERS1_Lb1EEEOT_OT0_=so_stub_for_libv2x_radio
-Wl,--defsym=_ZNSt4pairIPSt18_Rb_tree_node_baseS1_EC1IRPSt13_Rb_tree_nodeIS_IKiSt10shared_ptrIN5telux4cv2x11ICv2xTxFlowEEEERS1_Lb1EEEOT_OT0_=so_stub_for_libv2x_radio
-Wl,--defsym=_ZNSt4pairIPSt18_Rb_tree_node_baseS1_EC1IRPSt13_Rb_tree_nodeIS_IKiSt10shared_ptrIN5telux4cv2x15ICv2xTxRxSocketEEEERS1_Lb1EEEOT_OT0_=so_stub_for_libv2x_radio
-Wl,--defsym=_ZNSt4pairIPSt18_Rb_tree_node_baseS1_EC1IRPSt13_Rb_tree_nodeIS_IKiSt10shared_ptrIN5telux4cv2x19ICv2xRxSubscriptionEEEERS1_Lb1EEEOT_OT0_=so_stub_for_libv2x_radio
-Wl,--defsym=_ZNSt4pairIPSt18_Rb_tree_node_baseS1_EC1IRPSt13_Rb_tree_nodeIS_IKjP31v2x_per_sps_reservation_calls_tEERS1_Lb1EEEOT_OT0_=so_stub_for_libv2x_radio
-Wl,--defsym=_ZNSt4pairIPSt18_Rb_tree_node_baseS1_EC1IRPSt13_Rb_tree_nodeIS_IKN5telux4cv2x14Cv2xStatusTypeENSt7__cxx1112basic_stringIcSt11char_traitsIcESaIcEEEEERS1_Lb1EEEOT_OT0_=so_stub_for_libv2x_radio
-Wl,--defsym=_ZNSt4pairIPSt18_Rb_tree_node_baseS1_EC1IRS1_Lb1EEEOT_RKS1_=so_stub_for_libv2x_radio
-Wl,--defsym=_ZNSt4pairIPSt18_Rb_tree_node_baseS1_EC1IRS1_Lb1EEERKS1_OT_=so_stub_for_libv2x_radio
-Wl,--defsym=_ZNSt4pairIPSt18_Rb_tree_node_baseS1_EC1IRS1_S4_Lb1EEEOT_OT0_=so_stub_for_libv2x_radio
-Wl,--defsym=_ZNSt4pairIPSt18_Rb_tree_node_baseS1_EC2IRPSt13_Rb_tree_nodeIS_IK11v2x_event_tNSt7__cxx1112basic_stringIcSt11char_traitsIcESaIcEEEEERS1_Lb1EEEOT_OT0_=so_stub_for_libv2x_radio
-Wl,--defsym=_ZNSt4pairIPSt18_Rb_tree_node_baseS1_EC2IRPSt13_Rb_tree_nodeIS_IKiSt10shared_ptrIN5telux4cv2x11ICv2xTxFlowEEEERS1_Lb1EEEOT_OT0_=so_stub_for_libv2x_radio
-Wl,--defsym=_ZNSt4pairIPSt18_Rb_tree_node_baseS1_EC2IRPSt13_Rb_tree_nodeIS_IKiSt10shared_ptrIN5telux4cv2x15ICv2xTxRxSocketEEEERS1_Lb1EEEOT_OT0_=so_stub_for_libv2x_radio
-Wl,--defsym=_ZNSt4pairIPSt18_Rb_tree_node_baseS1_EC2IRPSt13_Rb_tree_nodeIS_IKiSt10shared_ptrIN5telux4cv2x19ICv2xRxSubscriptionEEEERS1_Lb1EEEOT_OT0_=so_stub_for_libv2x_radio
-Wl,--defsym=_ZNSt4pairIPSt18_Rb_tree_node_baseS1_EC2IRPSt13_Rb_tree_nodeIS_IKjP31v2x_per_sps_reservation_calls_tEERS1_Lb1EEEOT_OT0_=so_stub_for_libv2x_radio
-Wl,--defsym=_ZNSt4pairIPSt18_Rb_tree_node_baseS1_EC2IRPSt13_Rb_tree_nodeIS_IKN5telux4cv2x14Cv2xStatusTypeENSt7__cxx1112basic_stringIcSt11char_traitsIcESaIcEEEEERS1_Lb1EEEOT_OT0_=so_stub_for_libv2x_radio
-Wl,--defsym=_ZNSt4pairIPSt18_Rb_tree_node_baseS1_EC2IRS1_Lb1EEEOT_RKS1_=so_stub_for_libv2x_radio
-Wl,--defsym=_ZNSt4pairIPSt18_Rb_tree_node_baseS1_EC2IRS1_Lb1EEERKS1_OT_=so_stub_for_libv2x_radio
-Wl,--defsym=_ZNSt4pairIPSt18_Rb_tree_node_baseS1_EC2IRS1_S4_Lb1EEEOT_OT0_=so_stub_for_libv2x_radio
-Wl,--defsym=_ZNSt4pairISt17_Rb_tree_iteratorIS_IKiSt10shared_ptrIN5telux4cv2x11ICv2xTxFlowEEEES8_EC1IS8_S8_Lb1EEEOT_OT0_=so_stub_for_libv2x_radio
-Wl,--defsym=_ZNSt4pairISt17_Rb_tree_iteratorIS_IKiSt10shared_ptrIN5telux4cv2x11ICv2xTxFlowEEEES8_EC2IS8_S8_Lb1EEEOT_OT0_=so_stub_for_libv2x_radio
-Wl,--defsym=_ZNSt4pairISt17_Rb_tree_iteratorIS_IKiSt10shared_ptrIN5telux4cv2x15ICv2xTxRxSocketEEEES8_EC1IS8_S8_Lb1EEEOT_OT0_=so_stub_for_libv2x_radio
-Wl,--defsym=_ZNSt4pairISt17_Rb_tree_iteratorIS_IKiSt10shared_ptrIN5telux4cv2x15ICv2xTxRxSocketEEEES8_EC2IS8_S8_Lb1EEEOT_OT0_=so_stub_for_libv2x_radio
-Wl,--defsym=_ZNSt4pairISt17_Rb_tree_iteratorIS_IKiSt10shared_ptrIN5telux4cv2x19ICv2xRxSubscriptionEEEES8_EC1IS8_S8_Lb1EEEOT_OT0_=so_stub_for_libv2x_radio
-Wl,--defsym=_ZNSt4pairISt17_Rb_tree_iteratorIS_IKiSt10shared_ptrIN5telux4cv2x19ICv2xRxSubscriptionEEEES8_EC2IS8_S8_Lb1EEEOT_OT0_=so_stub_for_libv2x_radio
-Wl,--defsym=_ZNSt4pairISt17_Rb_tree_iteratorIS_IKjP31v2x_per_sps_reservation_calls_tEES5_EC1IS5_S5_Lb1EEEOT_OT0_=so_stub_for_libv2x_radio
-Wl,--defsym=_ZNSt4pairISt17_Rb_tree_iteratorIS_IKjP31v2x_per_sps_reservation_calls_tEES5_EC2IS5_S5_Lb1EEEOT_OT0_=so_stub_for_libv2x_radio
-Wl,--defsym=_ZNSt5mutex4lockEv=so_stub_for_libv2x_radio
-Wl,--defsym=_ZNSt5mutex6unlockEv=so_stub_for_libv2x_radio
-Wl,--defsym=_ZNSt5mutexC1Ev=so_stub_for_libv2x_radio
-Wl,--defsym=_ZNSt5mutexC2Ev=so_stub_for_libv2x_radio
-Wl,--defsym=_ZNSt5tupleIJPNSt13__future_base12_Result_baseENS1_8_DeleterEEEaSEOS4_=so_stub_for_libv2x_radio
-Wl,--defsym=_ZNSt5tupleIJPNSt13__future_base12_Result_baseENS1_8_DeleterEEEC1EOS4_=so_stub_for_libv2x_radio
-Wl,--defsym=_ZNSt5tupleIJPNSt13__future_base12_Result_baseENS1_8_DeleterEEEC1IRS2_S3_Lb1EEEOT_OT0_=so_stub_for_libv2x_radio
-Wl,--defsym=_ZNSt5tupleIJPNSt13__future_base12_Result_baseENS1_8_DeleterEEEC1IS2_S3_Lb1EEEv=so_stub_for_libv2x_radio
-Wl,--defsym=_ZNSt5tupleIJPNSt13__future_base12_Result_baseENS1_8_DeleterEEEC2EOS4_=so_stub_for_libv2x_radio
-Wl,--defsym=_ZNSt5tupleIJPNSt13__future_base12_Result_baseENS1_8_DeleterEEEC2IRS2_S3_Lb1EEEOT_OT0_=so_stub_for_libv2x_radio
-Wl,--defsym=_ZNSt5tupleIJPNSt13__future_base12_Result_baseENS1_8_DeleterEEEC2IS2_S3_Lb1EEEv=so_stub_for_libv2x_radio
-Wl,--defsym=_ZNSt5tupleIJPNSt13__future_base7_ResultI21_v2x_status_enum_typeEENS0_12_Result_base8_DeleterEEEC1IRS4_S6_Lb1EEEOT_OT0_=so_stub_for_libv2x_radio
-Wl,--defsym=_ZNSt5tupleIJPNSt13__future_base7_ResultI21_v2x_status_enum_typeEENS0_12_Result_base8_DeleterEEEC1IS4_S6_Lb1EEEv=so_stub_for_libv2x_radio
-Wl,--defsym=_ZNSt5tupleIJPNSt13__future_base7_ResultI21_v2x_status_enum_typeEENS0_12_Result_base8_DeleterEEEC2IRS4_S6_Lb1EEEOT_OT0_=so_stub_for_libv2x_radio
-Wl,--defsym=_ZNSt5tupleIJPNSt13__future_base7_ResultI21_v2x_status_enum_typeEENS0_12_Result_base8_DeleterEEEC2IS4_S6_Lb1EEEv=so_stub_for_libv2x_radio
-Wl,--defsym=_ZNSt5tupleIJPNSt13__future_base7_ResultIiEENS0_12_Result_base8_DeleterEEEC1IRS3_S5_Lb1EEEOT_OT0_=so_stub_for_libv2x_radio
-Wl,--defsym=_ZNSt5tupleIJPNSt13__future_base7_ResultIiEENS0_12_Result_base8_DeleterEEEC1IS3_S5_Lb1EEEv=so_stub_for_libv2x_radio
-Wl,--defsym=_ZNSt5tupleIJPNSt13__future_base7_ResultIiEENS0_12_Result_base8_DeleterEEEC2IRS3_S5_Lb1EEEOT_OT0_=so_stub_for_libv2x_radio
-Wl,--defsym=_ZNSt5tupleIJPNSt13__future_base7_ResultIiEENS0_12_Result_base8_DeleterEEEC2IS3_S5_Lb1EEEv=so_stub_for_libv2x_radio
-Wl,--defsym=_ZNSt5tupleIJPNSt13__future_base7_ResultIN5telux6common9ErrorCodeEEENS0_12_Result_base8_DeleterEEEC1IRS6_S8_Lb1EEEOT_OT0_=so_stub_for_libv2x_radio
-Wl,--defsym=_ZNSt5tupleIJPNSt13__future_base7_ResultIN5telux6common9ErrorCodeEEENS0_12_Result_base8_DeleterEEEC1IS6_S8_Lb1EEEv=so_stub_for_libv2x_radio
-Wl,--defsym=_ZNSt5tupleIJPNSt13__future_base7_ResultIN5telux6common9ErrorCodeEEENS0_12_Result_base8_DeleterEEEC2IRS6_S8_Lb1EEEOT_OT0_=so_stub_for_libv2x_radio
-Wl,--defsym=_ZNSt5tupleIJPNSt13__future_base7_ResultIN5telux6common9ErrorCodeEEENS0_12_Result_base8_DeleterEEEC2IS6_S8_Lb1EEEv=so_stub_for_libv2x_radio
-Wl,--defsym=_ZNSt5tupleIJPNSt13__future_base7_ResultISt4pairIN5telux6common9ErrorCodeES5_EEENS0_12_Result_base8_DeleterEEEC1IRS8_SA_Lb1EEEOT_OT0_=so_stub_for_libv2x_radio
-Wl,--defsym=_ZNSt5tupleIJPNSt13__future_base7_ResultISt4pairIN5telux6common9ErrorCodeES5_EEENS0_12_Result_base8_DeleterEEEC1IS8_SA_Lb1EEEv=so_stub_for_libv2x_radio
-Wl,--defsym=_ZNSt5tupleIJPNSt13__future_base7_ResultISt4pairIN5telux6common9ErrorCodeES5_EEENS0_12_Result_base8_DeleterEEEC2IRS8_SA_Lb1EEEOT_OT0_=so_stub_for_libv2x_radio
-Wl,--defsym=_ZNSt5tupleIJPNSt13__future_base7_ResultISt4pairIN5telux6common9ErrorCodeES5_EEENS0_12_Result_base8_DeleterEEEC2IS8_SA_Lb1EEEv=so_stub_for_libv2x_radio
-Wl,--defsym=_ZNSt5tupleIJPNSt6thread6_StateESt14default_deleteIS1_EEEC1IS2_S4_Lb1EEEv=so_stub_for_libv2x_radio
-Wl,--defsym=_ZNSt5tupleIJPNSt6thread6_StateESt14default_deleteIS1_EEEC2IS2_S4_Lb1EEEv=so_stub_for_libv2x_radio
-Wl,--defsym=_ZNSt5tupleIJRK11v2x_event_tEEC1EOS3_=so_stub_for_libv2x_radio
-Wl,--defsym=_ZNSt5tupleIJRK11v2x_event_tEEC1IvLb1EEES2_=so_stub_for_libv2x_radio
-Wl,--defsym=_ZNSt5tupleIJRK11v2x_event_tEEC2EOS3_=so_stub_for_libv2x_radio
-Wl,--defsym=_ZNSt5tupleIJRK11v2x_event_tEEC2IvLb1EEES2_=so_stub_for_libv2x_radio
-Wl,--defsym=_ZNSt5tupleIJRKiEEC1EOS2_=so_stub_for_libv2x_radio
-Wl,--defsym=_ZNSt5tupleIJRKiEEC1IvLb1EEES1_=so_stub_for_libv2x_radio
-Wl,--defsym=_ZNSt5tupleIJRKiEEC2EOS2_=so_stub_for_libv2x_radio
-Wl,--defsym=_ZNSt5tupleIJRKiEEC2IvLb1EEES1_=so_stub_for_libv2x_radio
-Wl,--defsym=_ZNSt5tupleIJRKjEEC1EOS2_=so_stub_for_libv2x_radio
-Wl,--defsym=_ZNSt5tupleIJRKjEEC1IvLb1EEES1_=so_stub_for_libv2x_radio
-Wl,--defsym=_ZNSt5tupleIJRKjEEC2EOS2_=so_stub_for_libv2x_radio
-Wl,--defsym=_ZNSt5tupleIJRKjEEC2IvLb1EEES1_=so_stub_for_libv2x_radio
-Wl,--defsym=_ZNSt5tupleIJRKN5telux4cv2x14Cv2xStatusTypeEEEC1EOS5_=so_stub_for_libv2x_radio
-Wl,--defsym=_ZNSt5tupleIJRKN5telux4cv2x14Cv2xStatusTypeEEEC1IvLb1EEES4_=so_stub_for_libv2x_radio
-Wl,--defsym=_ZNSt5tupleIJRKN5telux4cv2x14Cv2xStatusTypeEEEC2EOS5_=so_stub_for_libv2x_radio
-Wl,--defsym=_ZNSt5tupleIJRKN5telux4cv2x14Cv2xStatusTypeEEEC2IvLb1EEES4_=so_stub_for_libv2x_radio
-Wl,--defsym=_ZNSt6atomicIbEaSEb=so_stub_for_libv2x_radio
-Wl,--defsym=_ZNSt6atomicIbEC1Eb=so_stub_for_libv2x_radio
-Wl,--defsym=_ZNSt6atomicIbEC2Eb=so_stub_for_libv2x_radio
-Wl,--defsym=_ZNSt6atomicIjEC1Ej=so_stub_for_libv2x_radio
-Wl,--defsym=_ZNSt6atomicIjEC2Ej=so_stub_for_libv2x_radio
-Wl,--defsym=_ZNSt6bitsetILj8EE9referenceC1ERS0_j=so_stub_for_libv2x_radio
-Wl,--defsym=_ZNSt6bitsetILj8EE9referenceC2ERS0_j=so_stub_for_libv2x_radio
-Wl,--defsym=_ZNSt6bitsetILj8EE9referenceD1Ev=so_stub_for_libv2x_radio
-Wl,--defsym=_ZNSt6bitsetILj8EE9referenceD2Ev=so_stub_for_libv2x_radio
-Wl,--defsym=_ZNSt6bitsetILj8EEC1Ev=so_stub_for_libv2x_radio
-Wl,--defsym=_ZNSt6bitsetILj8EEC2Ev=so_stub_for_libv2x_radio
-Wl,--defsym=_ZNSt6bitsetILj8EEixEj=so_stub_for_libv2x_radio
-Wl,--defsym=_ZNSt6futureI21_v2x_status_enum_typeE3getEv=so_stub_for_libv2x_radio
-Wl,--defsym=_ZNSt6futureI21_v2x_status_enum_typeEC1ERKSt10shared_ptrINSt13__future_base13_State_baseV2EE=so_stub_for_libv2x_radio
-Wl,--defsym=_ZNSt6futureI21_v2x_status_enum_typeEC2ERKSt10shared_ptrINSt13__future_base13_State_baseV2EE=so_stub_for_libv2x_radio
-Wl,--defsym=_ZNSt6futureI21_v2x_status_enum_typeED1Ev=so_stub_for_libv2x_radio
-Wl,--defsym=_ZNSt6futureI21_v2x_status_enum_typeED2Ev=so_stub_for_libv2x_radio
-Wl,--defsym=_ZNSt6futureIbE3getEv=so_stub_for_libv2x_radio
-Wl,--defsym=_ZNSt6futureIbED1Ev=so_stub_for_libv2x_radio
-Wl,--defsym=_ZNSt6futureIbED2Ev=so_stub_for_libv2x_radio
-Wl,--defsym=_ZNSt6futureIiE3getEv=so_stub_for_libv2x_radio
-Wl,--defsym=_ZNSt6futureIiEC1ERKSt10shared_ptrINSt13__future_base13_State_baseV2EE=so_stub_for_libv2x_radio
-Wl,--defsym=_ZNSt6futureIiEC2ERKSt10shared_ptrINSt13__future_base13_State_baseV2EE=so_stub_for_libv2x_radio
-Wl,--defsym=_ZNSt6futureIiED1Ev=so_stub_for_libv2x_radio
-Wl,--defsym=_ZNSt6futureIiED2Ev=so_stub_for_libv2x_radio
-Wl,--defsym=_ZNSt6futureIN5telux6common6StatusEE3getEv=so_stub_for_libv2x_radio
-Wl,--defsym=_ZNSt6futureIN5telux6common6StatusEED1Ev=so_stub_for_libv2x_radio
-Wl,--defsym=_ZNSt6futureIN5telux6common6StatusEED2Ev=so_stub_for_libv2x_radio
-Wl,--defsym=_ZNSt6futureIN5telux6common9ErrorCodeEE3getEv=so_stub_for_libv2x_radio
-Wl,--defsym=_ZNSt6futureIN5telux6common9ErrorCodeEEC1ERKSt10shared_ptrINSt13__future_base13_State_baseV2EE=so_stub_for_libv2x_radio
-Wl,--defsym=_ZNSt6futureIN5telux6common9ErrorCodeEEC2ERKSt10shared_ptrINSt13__future_base13_State_baseV2EE=so_stub_for_libv2x_radio
-Wl,--defsym=_ZNSt6futureIN5telux6common9ErrorCodeEED1Ev=so_stub_for_libv2x_radio
-Wl,--defsym=_ZNSt6futureIN5telux6common9ErrorCodeEED2Ev=so_stub_for_libv2x_radio
-Wl,--defsym=_ZNSt6futureISt4pairIN5telux6common9ErrorCodeES3_EE3getEv=so_stub_for_libv2x_radio
-Wl,--defsym=_ZNSt6futureISt4pairIN5telux6common9ErrorCodeES3_EEC1ERKSt10shared_ptrINSt13__future_base13_State_baseV2EE=so_stub_for_libv2x_radio
-Wl,--defsym=_ZNSt6futureISt4pairIN5telux6common9ErrorCodeES3_EEC2ERKSt10shared_ptrINSt13__future_base13_State_baseV2EE=so_stub_for_libv2x_radio
-Wl,--defsym=_ZNSt6futureISt4pairIN5telux6common9ErrorCodeES3_EED1Ev=so_stub_for_libv2x_radio
-Wl,--defsym=_ZNSt6futureISt4pairIN5telux6common9ErrorCodeES3_EED2Ev=so_stub_for_libv2x_radio
-Wl,--defsym=_ZNSt6thread2idC1Ev=so_stub_for_libv2x_radio
-Wl,--defsym=_ZNSt6thread2idC2Ev=so_stub_for_libv2x_radio
-Wl,--defsym=_ZNSt6thread4swapERS_=so_stub_for_libv2x_radio
-Wl,--defsym=_ZNSt6thread6_StateC1Ev=so_stub_for_libv2x_radio
-Wl,--defsym=_ZNSt6thread6_StateC2Ev=so_stub_for_libv2x_radio
-Wl,--defsym=_ZNSt6threadaSEOS_=so_stub_for_libv2x_radio
-Wl,--defsym=_ZNSt6threadC1Ev=so_stub_for_libv2x_radio
-Wl,--defsym=_ZNSt6threadC2Ev=so_stub_for_libv2x_radio
-Wl,--defsym=_ZNSt6threadD1Ev=so_stub_for_libv2x_radio
-Wl,--defsym=_ZNSt6threadD2Ev=so_stub_for_libv2x_radio
-Wl,--defsym=_ZNSt6vectorIjSaIjEE17_M_realloc_insertIJRKjEEEvN9__gnu_cxx17__normal_iteratorIPjS1_EEDpOT_=so_stub_for_libv2x_radio
-Wl,--defsym=_ZNSt6vectorIjSaIjEE20_M_allocate_and_copyISt13move_iteratorIPjEEES4_jT_S6_=so_stub_for_libv2x_radio
-Wl,--defsym=_ZNSt6vectorIjSaIjEE3endEv=so_stub_for_libv2x_radio
-Wl,--defsym=_ZNSt6vectorIjSaIjEE5beginEv=so_stub_for_libv2x_radio
-Wl,--defsym=_ZNSt6vectorIjSaIjEE7reserveEj=so_stub_for_libv2x_radio
-Wl,--defsym=_ZNSt6vectorIjSaIjEE9push_backERKj=so_stub_for_libv2x_radio
-Wl,--defsym=_ZNSt6vectorIjSaIjEEC1ERKS1_=so_stub_for_libv2x_radio
-Wl,--defsym=_ZNSt6vectorIjSaIjEEC1Ev=so_stub_for_libv2x_radio
-Wl,--defsym=_ZNSt6vectorIjSaIjEEC2ERKS1_=so_stub_for_libv2x_radio
-Wl,--defsym=_ZNSt6vectorIjSaIjEEC2Ev=so_stub_for_libv2x_radio
-Wl,--defsym=_ZNSt6vectorIjSaIjEED1Ev=so_stub_for_libv2x_radio
-Wl,--defsym=_ZNSt6vectorIjSaIjEED2Ev=so_stub_for_libv2x_radio
-Wl,--defsym=_ZNSt6vectorIN5telux4cv2x12TxPoolIdInfoESaIS2_EE15_M_erase_at_endEPS2_=so_stub_for_libv2x_radio
-Wl,--defsym=_ZNSt6vectorIN5telux4cv2x12TxPoolIdInfoESaIS2_EE20_M_allocate_and_copyIN9__gnu_cxx17__normal_iteratorIPKS2_S4_EEEEPS2_jT_SC_=so_stub_for_libv2x_radio
-Wl,--defsym=_ZNSt6vectorIN5telux4cv2x12TxPoolIdInfoESaIS2_EE3endEv=so_stub_for_libv2x_radio
-Wl,--defsym=_ZNSt6vectorIN5telux4cv2x12TxPoolIdInfoESaIS2_EE5beginEv=so_stub_for_libv2x_radio
-Wl,--defsym=_ZNSt6vectorIN5telux4cv2x12TxPoolIdInfoESaIS2_EE5clearEv=so_stub_for_libv2x_radio
-Wl,--defsym=_ZNSt6vectorIN5telux4cv2x12TxPoolIdInfoESaIS2_EEaSERKS4_=so_stub_for_libv2x_radio
-Wl,--defsym=_ZNSt6vectorIN5telux4cv2x12TxPoolIdInfoESaIS2_EEC1ERKS4_=so_stub_for_libv2x_radio
-Wl,--defsym=_ZNSt6vectorIN5telux4cv2x12TxPoolIdInfoESaIS2_EEC1Ev=so_stub_for_libv2x_radio
-Wl,--defsym=_ZNSt6vectorIN5telux4cv2x12TxPoolIdInfoESaIS2_EEC2ERKS4_=so_stub_for_libv2x_radio
-Wl,--defsym=_ZNSt6vectorIN5telux4cv2x12TxPoolIdInfoESaIS2_EEC2Ev=so_stub_for_libv2x_radio
-Wl,--defsym=_ZNSt6vectorIN5telux4cv2x12TxPoolIdInfoESaIS2_EED1Ev=so_stub_for_libv2x_radio
-Wl,--defsym=_ZNSt6vectorIN5telux4cv2x12TxPoolIdInfoESaIS2_EED2Ev=so_stub_for_libv2x_radio
-Wl,--defsym=_ZNSt6vectorIN5telux4cv2x13TrustedUEInfoESaIS2_EE17_M_realloc_insertIJRKS2_EEEvN9__gnu_cxx17__normal_iteratorIPS2_S4_EEDpOT_=so_stub_for_libv2x_radio
-Wl,--defsym=_ZNSt6vectorIN5telux4cv2x13TrustedUEInfoESaIS2_EE20_M_allocate_and_copyISt13move_iteratorIPS2_EEES7_jT_S9_=so_stub_for_libv2x_radio
-Wl,--defsym=_ZNSt6vectorIN5telux4cv2x13TrustedUEInfoESaIS2_EE3endEv=so_stub_for_libv2x_radio
-Wl,--defsym=_ZNSt6vectorIN5telux4cv2x13TrustedUEInfoESaIS2_EE5beginEv=so_stub_for_libv2x_radio
-Wl,--defsym=_ZNSt6vectorIN5telux4cv2x13TrustedUEInfoESaIS2_EE7reserveEj=so_stub_for_libv2x_radio
-Wl,--defsym=_ZNSt6vectorIN5telux4cv2x13TrustedUEInfoESaIS2_EE9push_backERKS2_=so_stub_for_libv2x_radio
-Wl,--defsym=_ZNSt6vectorIN5telux4cv2x13TrustedUEInfoESaIS2_EEC1Ev=so_stub_for_libv2x_radio
-Wl,--defsym=_ZNSt6vectorIN5telux4cv2x13TrustedUEInfoESaIS2_EEC2Ev=so_stub_for_libv2x_radio
-Wl,--defsym=_ZNSt6vectorIN5telux4cv2x13TrustedUEInfoESaIS2_EED1Ev=so_stub_for_libv2x_radio
-Wl,--defsym=_ZNSt6vectorIN5telux4cv2x13TrustedUEInfoESaIS2_EED2Ev=so_stub_for_libv2x_radio
-Wl,--defsym=_ZNSt6vectorIN5telux4cv2x14Cv2xPoolStatusESaIS2_EE15_M_erase_at_endEPS2_=so_stub_for_libv2x_radio
-Wl,--defsym=_ZNSt6vectorIN5telux4cv2x14Cv2xPoolStatusESaIS2_EE20_M_allocate_and_copyIN9__gnu_cxx17__normal_iteratorIPKS2_S4_EEEEPS2_jT_SC_=so_stub_for_libv2x_radio
-Wl,--defsym=_ZNSt6vectorIN5telux4cv2x14Cv2xPoolStatusESaIS2_EE3endEv=so_stub_for_libv2x_radio
-Wl,--defsym=_ZNSt6vectorIN5telux4cv2x14Cv2xPoolStatusESaIS2_EE5beginEv=so_stub_for_libv2x_radio
-Wl,--defsym=_ZNSt6vectorIN5telux4cv2x14Cv2xPoolStatusESaIS2_EE5clearEv=so_stub_for_libv2x_radio
-Wl,--defsym=_ZNSt6vectorIN5telux4cv2x14Cv2xPoolStatusESaIS2_EEaSERKS4_=so_stub_for_libv2x_radio
-Wl,--defsym=_ZNSt6vectorIN5telux4cv2x14Cv2xPoolStatusESaIS2_EEC1EOS4_=so_stub_for_libv2x_radio
-Wl,--defsym=_ZNSt6vectorIN5telux4cv2x14Cv2xPoolStatusESaIS2_EEC1Ev=so_stub_for_libv2x_radio
-Wl,--defsym=_ZNSt6vectorIN5telux4cv2x14Cv2xPoolStatusESaIS2_EEC2EOS4_=so_stub_for_libv2x_radio
-Wl,--defsym=_ZNSt6vectorIN5telux4cv2x14Cv2xPoolStatusESaIS2_EEC2Ev=so_stub_for_libv2x_radio
-Wl,--defsym=_ZNSt6vectorIN5telux4cv2x14Cv2xPoolStatusESaIS2_EED1Ev=so_stub_for_libv2x_radio
-Wl,--defsym=_ZNSt6vectorIN5telux4cv2x14Cv2xPoolStatusESaIS2_EED2Ev=so_stub_for_libv2x_radio
-Wl,--defsym=_ZNSt6vectorIySaIyEE15_M_erase_at_endEPy=so_stub_for_libv2x_radio
-Wl,--defsym=_ZNSt6vectorIySaIyEE20_M_allocate_and_copyIN9__gnu_cxx17__normal_iteratorIPKyS1_EEEEPyjT_S9_=so_stub_for_libv2x_radio
-Wl,--defsym=_ZNSt6vectorIySaIyEE3endEv=so_stub_for_libv2x_radio
-Wl,--defsym=_ZNSt6vectorIySaIyEE5beginEv=so_stub_for_libv2x_radio
-Wl,--defsym=_ZNSt6vectorIySaIyEE5clearEv=so_stub_for_libv2x_radio
-Wl,--defsym=_ZNSt6vectorIySaIyEEaSERKS1_=so_stub_for_libv2x_radio
-Wl,--defsym=_ZNSt6vectorIySaIyEEC1ERKS1_=so_stub_for_libv2x_radio
-Wl,--defsym=_ZNSt6vectorIySaIyEEC1Ev=so_stub_for_libv2x_radio
-Wl,--defsym=_ZNSt6vectorIySaIyEEC2ERKS1_=so_stub_for_libv2x_radio
-Wl,--defsym=_ZNSt6vectorIySaIyEEC2Ev=so_stub_for_libv2x_radio
-Wl,--defsym=_ZNSt6vectorIySaIyEED1Ev=so_stub_for_libv2x_radio
-Wl,--defsym=_ZNSt6vectorIySaIyEED2Ev=so_stub_for_libv2x_radio
-Wl,--defsym=_ZNSt6vectorIySaIyEEixEj=so_stub_for_libv2x_radio
-Wl,--defsym=_ZNSt7promiseIiE10get_futureEv=so_stub_for_libv2x_radio
-Wl,--defsym=_ZNSt7promiseIiE9set_valueEOi=so_stub_for_libv2x_radio
-Wl,--defsym=_ZNSt7promiseIiEC1Ev=so_stub_for_libv2x_radio
-Wl,--defsym=_ZNSt7promiseIiEC2Ev=so_stub_for_libv2x_radio
-Wl,--defsym=_ZNSt7promiseIiED1Ev=so_stub_for_libv2x_radio
-Wl,--defsym=_ZNSt7promiseIiED2Ev=so_stub_for_libv2x_radio
-Wl,--defsym=_ZNSt7promiseIN5telux6common9ErrorCodeEE10get_futureEv=so_stub_for_libv2x_radio
-Wl,--defsym=_ZNSt7promiseIN5telux6common9ErrorCodeEE9set_valueERKS2_=so_stub_for_libv2x_radio
-Wl,--defsym=_ZNSt7promiseIN5telux6common9ErrorCodeEEC1Ev=so_stub_for_libv2x_radio
-Wl,--defsym=_ZNSt7promiseIN5telux6common9ErrorCodeEEC2Ev=so_stub_for_libv2x_radio
-Wl,--defsym=_ZNSt7promiseIN5telux6common9ErrorCodeEED1Ev=so_stub_for_libv2x_radio
-Wl,--defsym=_ZNSt7promiseIN5telux6common9ErrorCodeEED2Ev=so_stub_for_libv2x_radio
-Wl,--defsym=_ZNSt7promiseISt4pairIN5telux6common9ErrorCodeES3_EE10get_futureEv=so_stub_for_libv2x_radio
-Wl,--defsym=_ZNSt7promiseISt4pairIN5telux6common9ErrorCodeES3_EE9set_valueEOS4_=so_stub_for_libv2x_radio
-Wl,--defsym=_ZNSt7promiseISt4pairIN5telux6common9ErrorCodeES3_EEC1Ev=so_stub_for_libv2x_radio
-Wl,--defsym=_ZNSt7promiseISt4pairIN5telux6common9ErrorCodeES3_EEC2Ev=so_stub_for_libv2x_radio
-Wl,--defsym=_ZNSt7promiseISt4pairIN5telux6common9ErrorCodeES3_EED1Ev=so_stub_for_libv2x_radio
-Wl,--defsym=_ZNSt7promiseISt4pairIN5telux6common9ErrorCodeES3_EED2Ev=so_stub_for_libv2x_radio
-Wl,--defsym=_ZNSt8functionIFSt10unique_ptrINSt13__future_base12_Result_baseENS2_8_DeleterEEvEEC1INS1_13_State_baseV27_SetterIiOiEEvvEET_=so_stub_for_libv2x_radio
-Wl,--defsym=_ZNSt8functionIFSt10unique_ptrINSt13__future_base12_Result_baseENS2_8_DeleterEEvEEC1INS1_13_State_baseV27_SetterIN5telux6common9ErrorCodeERKSC_EEvvEET_=so_stub_for_libv2x_radio
-Wl,--defsym=_ZNSt8functionIFSt10unique_ptrINSt13__future_base12_Result_baseENS2_8_DeleterEEvEEC1INS1_13_State_baseV27_SetterISt4pairIN5telux6common9ErrorCodeESD_EOSE_EEvvEET_=so_stub_for_libv2x_radio
-Wl,--defsym=_ZNSt8functionIFSt10unique_ptrINSt13__future_base12_Result_baseENS2_8_DeleterEEvEEC2INS1_13_State_baseV27_SetterIiOiEEvvEET_=so_stub_for_libv2x_radio
-Wl,--defsym=_ZNSt8functionIFSt10unique_ptrINSt13__future_base12_Result_baseENS2_8_DeleterEEvEEC2INS1_13_State_baseV27_SetterIN5telux6common9ErrorCodeERKSC_EEvvEET_=so_stub_for_libv2x_radio
-Wl,--defsym=_ZNSt8functionIFSt10unique_ptrINSt13__future_base12_Result_baseENS2_8_DeleterEEvEEC2INS1_13_State_baseV27_SetterISt4pairIN5telux6common9ErrorCodeESD_EOSE_EEvvEET_=so_stub_for_libv2x_radio
-Wl,--defsym=_ZNSt8functionIFSt10unique_ptrINSt13__future_base12_Result_baseENS2_8_DeleterEEvEED1Ev=so_stub_for_libv2x_radio
-Wl,--defsym=_ZNSt8functionIFSt10unique_ptrINSt13__future_base12_Result_baseENS2_8_DeleterEEvEED2Ev=so_stub_for_libv2x_radio
-Wl,--defsym=_ZNSt8functionIFvN5telux4cv2x12Cv2xStatusExENS0_6common9ErrorCodeEEED1Ev=so_stub_for_libv2x_radio
-Wl,--defsym=_ZNSt8functionIFvN5telux4cv2x12Cv2xStatusExENS0_6common9ErrorCodeEEED2Ev=so_stub_for_libv2x_radio
-Wl,--defsym=_ZNSt8functionIFvN5telux6common9ErrorCodeEEED1Ev=so_stub_for_libv2x_radio
-Wl,--defsym=_ZNSt8functionIFvN5telux6common9ErrorCodeEEED2Ev=so_stub_for_libv2x_radio
-Wl,--defsym=_ZNSt8functionIFvRKN5telux4cv2x21Cv2xRadioCapabilitiesENS0_6common9ErrorCodeEEED1Ev=so_stub_for_libv2x_radio
-Wl,--defsym=_ZNSt8functionIFvRKN5telux4cv2x21Cv2xRadioCapabilitiesENS0_6common9ErrorCodeEEED2Ev=so_stub_for_libv2x_radio
-Wl,--defsym=_ZNSt8functionIFvSt10shared_ptrIN5telux4cv2x11ICv2xTxFlowEENS1_6common9ErrorCodeEEEC1IPS7_vvEET_=so_stub_for_libv2x_radio
-Wl,--defsym=_ZNSt8functionIFvSt10shared_ptrIN5telux4cv2x11ICv2xTxFlowEENS1_6common9ErrorCodeEEEC2IPS7_vvEET_=so_stub_for_libv2x_radio
-Wl,--defsym=_ZNSt8functionIFvSt10shared_ptrIN5telux4cv2x11ICv2xTxFlowEENS1_6common9ErrorCodeEEED1Ev=so_stub_for_libv2x_radio
-Wl,--defsym=_ZNSt8functionIFvSt10shared_ptrIN5telux4cv2x11ICv2xTxFlowEENS1_6common9ErrorCodeEEED2Ev=so_stub_for_libv2x_radio
-Wl,--defsym=_ZNSt8functionIFvSt10shared_ptrIN5telux4cv2x11ICv2xTxFlowEES4_NS1_6common9ErrorCodeES6_EED1Ev=so_stub_for_libv2x_radio
-Wl,--defsym=_ZNSt8functionIFvSt10shared_ptrIN5telux4cv2x11ICv2xTxFlowEES4_NS1_6common9ErrorCodeES6_EED2Ev=so_stub_for_libv2x_radio
-Wl,--defsym=_ZNSt8functionIFvSt10shared_ptrIN5telux4cv2x15ICv2xTxRxSocketEENS1_6common9ErrorCodeEEED1Ev=so_stub_for_libv2x_radio
-Wl,--defsym=_ZNSt8functionIFvSt10shared_ptrIN5telux4cv2x15ICv2xTxRxSocketEENS1_6common9ErrorCodeEEED2Ev=so_stub_for_libv2x_radio
-Wl,--defsym=_ZNSt8functionIFvSt10shared_ptrIN5telux4cv2x19ICv2xRxSubscriptionEENS1_6common9ErrorCodeEEED1Ev=so_stub_for_libv2x_radio
-Wl,--defsym=_ZNSt8functionIFvSt10shared_ptrIN5telux4cv2x19ICv2xRxSubscriptionEENS1_6common9ErrorCodeEEED2Ev=so_stub_for_libv2x_radio
-Wl,--defsym=_ZNSt8_Rb_treeI11v2x_event_tSt4pairIKS0_NSt7__cxx1112basic_stringIcSt11char_traitsIcESaIcEEEESt10_Select1stIS9_ESt4lessIS0_ESaIS9_EE10_M_insert_IRKS9_NSF_11_Alloc_nodeEEESt17_Rb_tree_iteratorIS9_EPSt18_Rb_tree_node_baseSN_OT_RT0_=so_stub_for_libv2x_radio
-Wl,--defsym=_ZNSt8_Rb_treeI11v2x_event_tSt4pairIKS0_NSt7__cxx1112basic_stringIcSt11char_traitsIcESaIcEEEESt10_Select1stIS9_ESt4lessIS0_ESaIS9_EE11_Alloc_nodeC1ERSF_=so_stub_for_libv2x_radio
-Wl,--defsym=_ZNSt8_Rb_treeI11v2x_event_tSt4pairIKS0_NSt7__cxx1112basic_stringIcSt11char_traitsIcESaIcEEEESt10_Select1stIS9_ESt4lessIS0_ESaIS9_EE11_Alloc_nodeC2ERSF_=so_stub_for_libv2x_radio
-Wl,--defsym=_ZNSt8_Rb_treeI11v2x_event_tSt4pairIKS0_NSt7__cxx1112basic_stringIcSt11char_traitsIcESaIcEEEESt10_Select1stIS9_ESt4lessIS0_ESaIS9_EE11lower_boundERS2_=so_stub_for_libv2x_radio
-Wl,--defsym=_ZNSt8_Rb_treeI11v2x_event_tSt4pairIKS0_NSt7__cxx1112basic_stringIcSt11char_traitsIcESaIcEEEESt10_Select1stIS9_ESt4lessIS0_ESaIS9_EE11_M_get_nodeEv=so_stub_for_libv2x_radio
-Wl,--defsym=_ZNSt8_Rb_treeI11v2x_event_tSt4pairIKS0_NSt7__cxx1112basic_stringIcSt11char_traitsIcESaIcEEEESt10_Select1stIS9_ESt4lessIS0_ESaIS9_EE11_M_leftmostEv=so_stub_for_libv2x_radio
-Wl,--defsym=_ZNSt8_Rb_treeI11v2x_event_tSt4pairIKS0_NSt7__cxx1112basic_stringIcSt11char_traitsIcESaIcEEEESt10_Select1stIS9_ESt4lessIS0_ESaIS9_EE11_M_put_nodeEPSt13_Rb_tree_nodeIS9_E=so_stub_for_libv2x_radio
-Wl,--defsym=_ZNSt8_Rb_treeI11v2x_event_tSt4pairIKS0_NSt7__cxx1112basic_stringIcSt11char_traitsIcESaIcEEEESt10_Select1stIS9_ESt4lessIS0_ESaIS9_EE12_M_drop_nodeEPSt13_Rb_tree_nodeIS9_E=so_stub_for_libv2x_radio
-Wl,--defsym=_ZNSt8_Rb_treeI11v2x_event_tSt4pairIKS0_NSt7__cxx1112basic_stringIcSt11char_traitsIcESaIcEEEESt10_Select1stIS9_ESt4lessIS0_ESaIS9_EE12_M_rightmostEv=so_stub_for_libv2x_radio
-Wl,--defsym=_ZNSt8_Rb_treeI11v2x_event_tSt4pairIKS0_NSt7__cxx1112basic_stringIcSt11char_traitsIcESaIcEEEESt10_Select1stIS9_ESt4lessIS0_ESaIS9_EE13_Rb_tree_implISD_Lb1EEC1ERKSD_OSaISt13_Rb_tree_nodeIS9_EE=so_stub_for_libv2x_radio
-Wl,--defsym=_ZNSt8_Rb_treeI11v2x_event_tSt4pairIKS0_NSt7__cxx1112basic_stringIcSt11char_traitsIcESaIcEEEESt10_Select1stIS9_ESt4lessIS0_ESaIS9_EE13_Rb_tree_implISD_Lb1EEC2ERKSD_OSaISt13_Rb_tree_nodeIS9_EE=so_stub_for_libv2x_radio
-Wl,--defsym=_ZNSt8_Rb_treeI11v2x_event_tSt4pairIKS0_NSt7__cxx1112basic_stringIcSt11char_traitsIcESaIcEEEESt10_Select1stIS9_ESt4lessIS0_ESaIS9_EE13_Rb_tree_implISD_Lb1EED1Ev=so_stub_for_libv2x_radio
-Wl,--defsym=_ZNSt8_Rb_treeI11v2x_event_tSt4pairIKS0_NSt7__cxx1112basic_stringIcSt11char_traitsIcESaIcEEEESt10_Select1stIS9_ESt4lessIS0_ESaIS9_EE13_Rb_tree_implISD_Lb1EED2Ev=so_stub_for_libv2x_radio
-Wl,--defsym=_ZNSt8_Rb_treeI11v2x_event_tSt4pairIKS0_NSt7__cxx1112basic_stringIcSt11char_traitsIcESaIcEEEESt10_Select1stIS9_ESt4lessIS0_ESaIS9_EE14_M_create_nodeIJRKS9_EEEPSt13_Rb_tree_nodeIS9_EDpOT_=so_stub_for_libv2x_radio
-Wl,--defsym=_ZNSt8_Rb_treeI11v2x_event_tSt4pairIKS0_NSt7__cxx1112basic_stringIcSt11char_traitsIcESaIcEEEESt10_Select1stIS9_ESt4lessIS0_ESaIS9_EE14_M_create_nodeIJRKSt21piecewise_construct_tSt5tupleIJRS2_EESK_IJEEEEEPSt13_Rb_tree_nodeIS9_EDpOT_=so_stub_for_libv2x_radio
-Wl,--defsym=_ZNSt8_Rb_treeI11v2x_event_tSt4pairIKS0_NSt7__cxx1112basic_stringIcSt11char_traitsIcESaIcEEEESt10_Select1stIS9_ESt4lessIS0_ESaIS9_EE14_M_insert_nodeEPSt18_Rb_tree_node_baseSH_PSt13_Rb_tree_nodeIS9_E=so_stub_for_libv2x_radio
-Wl,--defsym=_ZNSt8_Rb_treeI11v2x_event_tSt4pairIKS0_NSt7__cxx1112basic_stringIcSt11char_traitsIcESaIcEEEESt10_Select1stIS9_ESt4lessIS0_ESaIS9_EE14_M_lower_boundEPSt13_Rb_tree_nodeIS9_EPSt18_Rb_tree_node_baseRS2_=so_stub_for_libv2x_radio
-Wl,--defsym=_ZNSt8_Rb_treeI11v2x_event_tSt4pairIKS0_NSt7__cxx1112basic_stringIcSt11char_traitsIcESaIcEEEESt10_Select1stIS9_ESt4lessIS0_ESaIS9_EE15_M_destroy_nodeEPSt13_Rb_tree_nodeIS9_E=so_stub_for_libv2x_radio
-Wl,--defsym=_ZNSt8_Rb_treeI11v2x_event_tSt4pairIKS0_NSt7__cxx1112basic_stringIcSt11char_traitsIcESaIcEEEESt10_Select1stIS9_ESt4lessIS0_ESaIS9_EE16_M_insert_uniqueIPKS9_EEvT_SJ_=so_stub_for_libv2x_radio
-Wl,--defsym=_ZNSt8_Rb_treeI11v2x_event_tSt4pairIKS0_NSt7__cxx1112basic_stringIcSt11char_traitsIcESaIcEEEESt10_Select1stIS9_ESt4lessIS0_ESaIS9_EE17_M_construct_nodeIJRKS9_EEEvPSt13_Rb_tree_nodeIS9_EDpOT_=so_stub_for_libv2x_radio
-Wl,--defsym=_ZNSt8_Rb_treeI11v2x_event_tSt4pairIKS0_NSt7__cxx1112basic_stringIcSt11char_traitsIcESaIcEEEESt10_Select1stIS9_ESt4lessIS0_ESaIS9_EE17_M_construct_nodeIJRKSt21piecewise_construct_tSt5tupleIJRS2_EESK_IJEEEEEvPSt13_Rb_tree_nodeIS9_EDpOT_=so_stub_for_libv2x_radio
-Wl,--defsym=_ZNSt8_Rb_treeI11v2x_event_tSt4pairIKS0_NSt7__cxx1112basic_stringIcSt11char_traitsIcESaIcEEEESt10_Select1stIS9_ESt4lessIS0_ESaIS9_EE17_M_insert_unique_IRKS9_NSF_11_Alloc_nodeEEESt17_Rb_tree_iteratorIS9_ESt23_Rb_tree_const_iteratorIS9_EOT_RT0_=so_stub_for_libv2x_radio
-Wl,--defsym=_ZNSt8_Rb_treeI11v2x_event_tSt4pairIKS0_NSt7__cxx1112basic_stringIcSt11char_traitsIcESaIcEEEESt10_Select1stIS9_ESt4lessIS0_ESaIS9_EE21_M_get_Node_allocatorEv=so_stub_for_libv2x_radio
-Wl,--defsym=_ZNSt8_Rb_treeI11v2x_event_tSt4pairIKS0_NSt7__cxx1112basic_stringIcSt11char_traitsIcESaIcEEEESt10_Select1stIS9_ESt4lessIS0_ESaIS9_EE22_M_emplace_hint_uniqueIJRKSt21piecewise_construct_tSt5tupleIJRS2_EESK_IJEEEEESt17_Rb_tree_iteratorIS9_ESt23_Rb_tree_const_iteratorIS9_EDpOT_=so_stub_for_libv2x_radio
-Wl,--defsym=_ZNSt8_Rb_treeI11v2x_event_tSt4pairIKS0_NSt7__cxx1112basic_stringIcSt11char_traitsIcESaIcEEEESt10_Select1stIS9_ESt4lessIS0_ESaIS9_EE24_M_get_insert_unique_posERS2_=so_stub_for_libv2x_radio
-Wl,--defsym=_ZNSt8_Rb_treeI11v2x_event_tSt4pairIKS0_NSt7__cxx1112basic_stringIcSt11char_traitsIcESaIcEEEESt10_Select1stIS9_ESt4lessIS0_ESaIS9_EE29_M_get_insert_hint_unique_posESt23_Rb_tree_const_iteratorIS9_ERS2_=so_stub_for_libv2x_radio
-Wl,--defsym=_ZNSt8_Rb_treeI11v2x_event_tSt4pairIKS0_NSt7__cxx1112basic_stringIcSt11char_traitsIcESaIcEEEESt10_Select1stIS9_ESt4lessIS0_ESaIS9_EE3endEv=so_stub_for_libv2x_radio
-Wl,--defsym=_ZNSt8_Rb_treeI11v2x_event_tSt4pairIKS0_NSt7__cxx1112basic_stringIcSt11char_traitsIcESaIcEEEESt10_Select1stIS9_ESt4lessIS0_ESaIS9_EE5beginEv=so_stub_for_libv2x_radio
-Wl,--defsym=_ZNSt8_Rb_treeI11v2x_event_tSt4pairIKS0_NSt7__cxx1112basic_stringIcSt11char_traitsIcESaIcEEEESt10_Select1stIS9_ESt4lessIS0_ESaIS9_EE6_M_endEv=so_stub_for_libv2x_radio
-Wl,--defsym=_ZNSt8_Rb_treeI11v2x_event_tSt4pairIKS0_NSt7__cxx1112basic_stringIcSt11char_traitsIcESaIcEEEESt10_Select1stIS9_ESt4lessIS0_ESaIS9_EE6_S_keyEPKSt13_Rb_tree_nodeIS9_E=so_stub_for_libv2x_radio
-Wl,--defsym=_ZNSt8_Rb_treeI11v2x_event_tSt4pairIKS0_NSt7__cxx1112basic_stringIcSt11char_traitsIcESaIcEEEESt10_Select1stIS9_ESt4lessIS0_ESaIS9_EE6_S_keyEPKSt18_Rb_tree_node_base=so_stub_for_libv2x_radio
-Wl,--defsym=_ZNSt8_Rb_treeI11v2x_event_tSt4pairIKS0_NSt7__cxx1112basic_stringIcSt11char_traitsIcESaIcEEEESt10_Select1stIS9_ESt4lessIS0_ESaIS9_EE7_S_leftEPSt18_Rb_tree_node_base=so_stub_for_libv2x_radio
-Wl,--defsym=_ZNSt8_Rb_treeI11v2x_event_tSt4pairIKS0_NSt7__cxx1112basic_stringIcSt11char_traitsIcESaIcEEEESt10_Select1stIS9_ESt4lessIS0_ESaIS9_EE8_M_beginEv=so_stub_for_libv2x_radio
-Wl,--defsym=_ZNSt8_Rb_treeI11v2x_event_tSt4pairIKS0_NSt7__cxx1112basic_stringIcSt11char_traitsIcESaIcEEEESt10_Select1stIS9_ESt4lessIS0_ESaIS9_EE8_M_eraseEPSt13_Rb_tree_nodeIS9_E=so_stub_for_libv2x_radio
-Wl,--defsym=_ZNSt8_Rb_treeI11v2x_event_tSt4pairIKS0_NSt7__cxx1112basic_stringIcSt11char_traitsIcESaIcEEEESt10_Select1stIS9_ESt4lessIS0_ESaIS9_EE8_S_rightEPSt18_Rb_tree_node_base=so_stub_for_libv2x_radio
-Wl,--defsym=_ZNSt8_Rb_treeI11v2x_event_tSt4pairIKS0_NSt7__cxx1112basic_stringIcSt11char_traitsIcESaIcEEEESt10_Select1stIS9_ESt4lessIS0_ESaIS9_EE8_S_valueEPKSt13_Rb_tree_nodeIS9_E=so_stub_for_libv2x_radio
-Wl,--defsym=_ZNSt8_Rb_treeI11v2x_event_tSt4pairIKS0_NSt7__cxx1112basic_stringIcSt11char_traitsIcESaIcEEEESt10_Select1stIS9_ESt4lessIS0_ESaIS9_EE8_S_valueEPKSt18_Rb_tree_node_base=so_stub_for_libv2x_radio
-Wl,--defsym=_ZNSt8_Rb_treeI11v2x_event_tSt4pairIKS0_NSt7__cxx1112basic_stringIcSt11char_traitsIcESaIcEEEESt10_Select1stIS9_ESt4lessIS0_ESaIS9_EEC1ERKSD_RKSE_=so_stub_for_libv2x_radio
-Wl,--defsym=_ZNSt8_Rb_treeI11v2x_event_tSt4pairIKS0_NSt7__cxx1112basic_stringIcSt11char_traitsIcESaIcEEEESt10_Select1stIS9_ESt4lessIS0_ESaIS9_EEC2ERKSD_RKSE_=so_stub_for_libv2x_radio
-Wl,--defsym=_ZNSt8_Rb_treeI11v2x_event_tSt4pairIKS0_NSt7__cxx1112basic_stringIcSt11char_traitsIcESaIcEEEESt10_Select1stIS9_ESt4lessIS0_ESaIS9_EED1Ev=so_stub_for_libv2x_radio
-Wl,--defsym=_ZNSt8_Rb_treeI11v2x_event_tSt4pairIKS0_NSt7__cxx1112basic_stringIcSt11char_traitsIcESaIcEEEESt10_Select1stIS9_ESt4lessIS0_ESaIS9_EED2Ev=so_stub_for_libv2x_radio
-Wl,--defsym=_ZNSt8_Rb_treeIiSt4pairIKiSt10shared_ptrIN5telux4cv2x11ICv2xTxFlowEEESt10_Select1stIS7_ESt4lessIiESaIS7_EE11equal_rangeERS1_=so_stub_for_libv2x_radio
-Wl,--defsym=_ZNSt8_Rb_treeIiSt4pairIKiSt10shared_ptrIN5telux4cv2x11ICv2xTxFlowEEESt10_Select1stIS7_ESt4lessIiESaIS7_EE11lower_boundERS1_=so_stub_for_libv2x_radio
-Wl,--defsym=_ZNSt8_Rb_treeIiSt4pairIKiSt10shared_ptrIN5telux4cv2x11ICv2xTxFlowEEESt10_Select1stIS7_ESt4lessIiESaIS7_EE11_M_get_nodeEv=so_stub_for_libv2x_radio
-Wl,--defsym=_ZNSt8_Rb_treeIiSt4pairIKiSt10shared_ptrIN5telux4cv2x11ICv2xTxFlowEEESt10_Select1stIS7_ESt4lessIiESaIS7_EE11_M_leftmostEv=so_stub_for_libv2x_radio
-Wl,--defsym=_ZNSt8_Rb_treeIiSt4pairIKiSt10shared_ptrIN5telux4cv2x11ICv2xTxFlowEEESt10_Select1stIS7_ESt4lessIiESaIS7_EE11_M_put_nodeEPSt13_Rb_tree_nodeIS7_E=so_stub_for_libv2x_radio
-Wl,--defsym=_ZNSt8_Rb_treeIiSt4pairIKiSt10shared_ptrIN5telux4cv2x11ICv2xTxFlowEEESt10_Select1stIS7_ESt4lessIiESaIS7_EE12_M_drop_nodeEPSt13_Rb_tree_nodeIS7_E=so_stub_for_libv2x_radio
-Wl,--defsym=_ZNSt8_Rb_treeIiSt4pairIKiSt10shared_ptrIN5telux4cv2x11ICv2xTxFlowEEESt10_Select1stIS7_ESt4lessIiESaIS7_EE12_M_erase_auxESt23_Rb_tree_const_iteratorIS7_E=so_stub_for_libv2x_radio
-Wl,--defsym=_ZNSt8_Rb_treeIiSt4pairIKiSt10shared_ptrIN5telux4cv2x11ICv2xTxFlowEEESt10_Select1stIS7_ESt4lessIiESaIS7_EE12_M_erase_auxESt23_Rb_tree_const_iteratorIS7_ESF_=so_stub_for_libv2x_radio
-Wl,--defsym=_ZNSt8_Rb_treeIiSt4pairIKiSt10shared_ptrIN5telux4cv2x11ICv2xTxFlowEEESt10_Select1stIS7_ESt4lessIiESaIS7_EE12_M_rightmostEv=so_stub_for_libv2x_radio
-Wl,--defsym=_ZNSt8_Rb_treeIiSt4pairIKiSt10shared_ptrIN5telux4cv2x11ICv2xTxFlowEEESt10_Select1stIS7_ESt4lessIiESaIS7_EE13_Rb_tree_implISB_Lb1EEC1Ev=so_stub_for_libv2x_radio
-Wl,--defsym=_ZNSt8_Rb_treeIiSt4pairIKiSt10shared_ptrIN5telux4cv2x11ICv2xTxFlowEEESt10_Select1stIS7_ESt4lessIiESaIS7_EE13_Rb_tree_implISB_Lb1EEC2Ev=so_stub_for_libv2x_radio
-Wl,--defsym=_ZNSt8_Rb_treeIiSt4pairIKiSt10shared_ptrIN5telux4cv2x11ICv2xTxFlowEEESt10_Select1stIS7_ESt4lessIiESaIS7_EE13_Rb_tree_implISB_Lb1EED1Ev=so_stub_for_libv2x_radio
-Wl,--defsym=_ZNSt8_Rb_treeIiSt4pairIKiSt10shared_ptrIN5telux4cv2x11ICv2xTxFlowEEESt10_Select1stIS7_ESt4lessIiESaIS7_EE13_Rb_tree_implISB_Lb1EED2Ev=so_stub_for_libv2x_radio
-Wl,--defsym=_ZNSt8_Rb_treeIiSt4pairIKiSt10shared_ptrIN5telux4cv2x11ICv2xTxFlowEEESt10_Select1stIS7_ESt4lessIiESaIS7_EE14_M_create_nodeIJRKSt21piecewise_construct_tSt5tupleIJRS1_EESI_IJEEEEEPSt13_Rb_tree_nodeIS7_EDpOT_=so_stub_for_libv2x_radio
-Wl,--defsym=_ZNSt8_Rb_treeIiSt4pairIKiSt10shared_ptrIN5telux4cv2x11ICv2xTxFlowEEESt10_Select1stIS7_ESt4lessIiESaIS7_EE14_M_insert_nodeEPSt18_Rb_tree_node_baseSF_PSt13_Rb_tree_nodeIS7_E=so_stub_for_libv2x_radio
-Wl,--defsym=_ZNSt8_Rb_treeIiSt4pairIKiSt10shared_ptrIN5telux4cv2x11ICv2xTxFlowEEESt10_Select1stIS7_ESt4lessIiESaIS7_EE14_M_lower_boundEPSt13_Rb_tree_nodeIS7_EPSt18_Rb_tree_node_baseRS1_=so_stub_for_libv2x_radio
-Wl,--defsym=_ZNSt8_Rb_treeIiSt4pairIKiSt10shared_ptrIN5telux4cv2x11ICv2xTxFlowEEESt10_Select1stIS7_ESt4lessIiESaIS7_EE14_M_upper_boundEPSt13_Rb_tree_nodeIS7_EPSt18_Rb_tree_node_baseRS1_=so_stub_for_libv2x_radio
-Wl,--defsym=_ZNSt8_Rb_treeIiSt4pairIKiSt10shared_ptrIN5telux4cv2x11ICv2xTxFlowEEESt10_Select1stIS7_ESt4lessIiESaIS7_EE15_M_destroy_nodeEPSt13_Rb_tree_nodeIS7_E=so_stub_for_libv2x_radio
-Wl,--defsym=_ZNSt8_Rb_treeIiSt4pairIKiSt10shared_ptrIN5telux4cv2x11ICv2xTxFlowEEESt10_Select1stIS7_ESt4lessIiESaIS7_EE17_M_construct_nodeIJRKSt21piecewise_construct_tSt5tupleIJRS1_EESI_IJEEEEEvPSt13_Rb_tree_nodeIS7_EDpOT_=so_stub_for_libv2x_radio
-Wl,--defsym=_ZNSt8_Rb_treeIiSt4pairIKiSt10shared_ptrIN5telux4cv2x11ICv2xTxFlowEEESt10_Select1stIS7_ESt4lessIiESaIS7_EE21_M_get_Node_allocatorEv=so_stub_for_libv2x_radio
-Wl,--defsym=_ZNSt8_Rb_treeIiSt4pairIKiSt10shared_ptrIN5telux4cv2x11ICv2xTxFlowEEESt10_Select1stIS7_ESt4lessIiESaIS7_EE22_M_emplace_hint_uniqueIJRKSt21piecewise_construct_tSt5tupleIJRS1_EESI_IJEEEEESt17_Rb_tree_iteratorIS7_ESt23_Rb_tree_const_iteratorIS7_EDpOT_=so_stub_for_libv2x_radio
-Wl,--defsym=_ZNSt8_Rb_treeIiSt4pairIKiSt10shared_ptrIN5telux4cv2x11ICv2xTxFlowEEESt10_Select1stIS7_ESt4lessIiESaIS7_EE24_M_get_insert_unique_posERS1_=so_stub_for_libv2x_radio
-Wl,--defsym=_ZNSt8_Rb_treeIiSt4pairIKiSt10shared_ptrIN5telux4cv2x11ICv2xTxFlowEEESt10_Select1stIS7_ESt4lessIiESaIS7_EE29_M_get_insert_hint_unique_posESt23_Rb_tree_const_iteratorIS7_ERS1_=so_stub_for_libv2x_radio
-Wl,--defsym=_ZNSt8_Rb_treeIiSt4pairIKiSt10shared_ptrIN5telux4cv2x11ICv2xTxFlowEEESt10_Select1stIS7_ESt4lessIiESaIS7_EE3endEv=so_stub_for_libv2x_radio
-Wl,--defsym=_ZNSt8_Rb_treeIiSt4pairIKiSt10shared_ptrIN5telux4cv2x11ICv2xTxFlowEEESt10_Select1stIS7_ESt4lessIiESaIS7_EE5beginEv=so_stub_for_libv2x_radio
-Wl,--defsym=_ZNSt8_Rb_treeIiSt4pairIKiSt10shared_ptrIN5telux4cv2x11ICv2xTxFlowEEESt10_Select1stIS7_ESt4lessIiESaIS7_EE5clearEv=so_stub_for_libv2x_radio
-Wl,--defsym=_ZNSt8_Rb_treeIiSt4pairIKiSt10shared_ptrIN5telux4cv2x11ICv2xTxFlowEEESt10_Select1stIS7_ESt4lessIiESaIS7_EE5eraseERS1_=so_stub_for_libv2x_radio
-Wl,--defsym=_ZNSt8_Rb_treeIiSt4pairIKiSt10shared_ptrIN5telux4cv2x11ICv2xTxFlowEEESt10_Select1stIS7_ESt4lessIiESaIS7_EE6_M_endEv=so_stub_for_libv2x_radio
-Wl,--defsym=_ZNSt8_Rb_treeIiSt4pairIKiSt10shared_ptrIN5telux4cv2x11ICv2xTxFlowEEESt10_Select1stIS7_ESt4lessIiESaIS7_EE6_S_keyEPKSt13_Rb_tree_nodeIS7_E=so_stub_for_libv2x_radio
-Wl,--defsym=_ZNSt8_Rb_treeIiSt4pairIKiSt10shared_ptrIN5telux4cv2x11ICv2xTxFlowEEESt10_Select1stIS7_ESt4lessIiESaIS7_EE6_S_keyEPKSt18_Rb_tree_node_base=so_stub_for_libv2x_radio
-Wl,--defsym=_ZNSt8_Rb_treeIiSt4pairIKiSt10shared_ptrIN5telux4cv2x11ICv2xTxFlowEEESt10_Select1stIS7_ESt4lessIiESaIS7_EE7_S_leftEPKSt18_Rb_tree_node_base=so_stub_for_libv2x_radio
-Wl,--defsym=_ZNSt8_Rb_treeIiSt4pairIKiSt10shared_ptrIN5telux4cv2x11ICv2xTxFlowEEESt10_Select1stIS7_ESt4lessIiESaIS7_EE7_S_leftEPSt18_Rb_tree_node_base=so_stub_for_libv2x_radio
-Wl,--defsym=_ZNSt8_Rb_treeIiSt4pairIKiSt10shared_ptrIN5telux4cv2x11ICv2xTxFlowEEESt10_Select1stIS7_ESt4lessIiESaIS7_EE8_M_beginEv=so_stub_for_libv2x_radio
-Wl,--defsym=_ZNSt8_Rb_treeIiSt4pairIKiSt10shared_ptrIN5telux4cv2x11ICv2xTxFlowEEESt10_Select1stIS7_ESt4lessIiESaIS7_EE8_M_eraseEPSt13_Rb_tree_nodeIS7_E=so_stub_for_libv2x_radio
-Wl,--defsym=_ZNSt8_Rb_treeIiSt4pairIKiSt10shared_ptrIN5telux4cv2x11ICv2xTxFlowEEESt10_Select1stIS7_ESt4lessIiESaIS7_EE8_S_rightEPKSt18_Rb_tree_node_base=so_stub_for_libv2x_radio
-Wl,--defsym=_ZNSt8_Rb_treeIiSt4pairIKiSt10shared_ptrIN5telux4cv2x11ICv2xTxFlowEEESt10_Select1stIS7_ESt4lessIiESaIS7_EE8_S_rightEPSt18_Rb_tree_node_base=so_stub_for_libv2x_radio
-Wl,--defsym=_ZNSt8_Rb_treeIiSt4pairIKiSt10shared_ptrIN5telux4cv2x11ICv2xTxFlowEEESt10_Select1stIS7_ESt4lessIiESaIS7_EE8_S_valueEPKSt13_Rb_tree_nodeIS7_E=so_stub_for_libv2x_radio
-Wl,--defsym=_ZNSt8_Rb_treeIiSt4pairIKiSt10shared_ptrIN5telux4cv2x11ICv2xTxFlowEEESt10_Select1stIS7_ESt4lessIiESaIS7_EE8_S_valueEPKSt18_Rb_tree_node_base=so_stub_for_libv2x_radio
-Wl,--defsym=_ZNSt8_Rb_treeIiSt4pairIKiSt10shared_ptrIN5telux4cv2x11ICv2xTxFlowEEESt10_Select1stIS7_ESt4lessIiESaIS7_EEC1Ev=so_stub_for_libv2x_radio
-Wl,--defsym=_ZNSt8_Rb_treeIiSt4pairIKiSt10shared_ptrIN5telux4cv2x11ICv2xTxFlowEEESt10_Select1stIS7_ESt4lessIiESaIS7_EEC2Ev=so_stub_for_libv2x_radio
-Wl,--defsym=_ZNSt8_Rb_treeIiSt4pairIKiSt10shared_ptrIN5telux4cv2x11ICv2xTxFlowEEESt10_Select1stIS7_ESt4lessIiESaIS7_EED1Ev=so_stub_for_libv2x_radio
-Wl,--defsym=_ZNSt8_Rb_treeIiSt4pairIKiSt10shared_ptrIN5telux4cv2x11ICv2xTxFlowEEESt10_Select1stIS7_ESt4lessIiESaIS7_EED2Ev=so_stub_for_libv2x_radio
-Wl,--defsym=_ZNSt8_Rb_treeIiSt4pairIKiSt10shared_ptrIN5telux4cv2x15ICv2xTxRxSocketEEESt10_Select1stIS7_ESt4lessIiESaIS7_EE11equal_rangeERS1_=so_stub_for_libv2x_radio
-Wl,--defsym=_ZNSt8_Rb_treeIiSt4pairIKiSt10shared_ptrIN5telux4cv2x15ICv2xTxRxSocketEEESt10_Select1stIS7_ESt4lessIiESaIS7_EE11lower_boundERS1_=so_stub_for_libv2x_radio
-Wl,--defsym=_ZNSt8_Rb_treeIiSt4pairIKiSt10shared_ptrIN5telux4cv2x15ICv2xTxRxSocketEEESt10_Select1stIS7_ESt4lessIiESaIS7_EE11_M_get_nodeEv=so_stub_for_libv2x_radio
-Wl,--defsym=_ZNSt8_Rb_treeIiSt4pairIKiSt10shared_ptrIN5telux4cv2x15ICv2xTxRxSocketEEESt10_Select1stIS7_ESt4lessIiESaIS7_EE11_M_leftmostEv=so_stub_for_libv2x_radio
-Wl,--defsym=_ZNSt8_Rb_treeIiSt4pairIKiSt10shared_ptrIN5telux4cv2x15ICv2xTxRxSocketEEESt10_Select1stIS7_ESt4lessIiESaIS7_EE11_M_put_nodeEPSt13_Rb_tree_nodeIS7_E=so_stub_for_libv2x_radio
-Wl,--defsym=_ZNSt8_Rb_treeIiSt4pairIKiSt10shared_ptrIN5telux4cv2x15ICv2xTxRxSocketEEESt10_Select1stIS7_ESt4lessIiESaIS7_EE12_M_drop_nodeEPSt13_Rb_tree_nodeIS7_E=so_stub_for_libv2x_radio
-Wl,--defsym=_ZNSt8_Rb_treeIiSt4pairIKiSt10shared_ptrIN5telux4cv2x15ICv2xTxRxSocketEEESt10_Select1stIS7_ESt4lessIiESaIS7_EE12_M_erase_auxESt23_Rb_tree_const_iteratorIS7_E=so_stub_for_libv2x_radio
-Wl,--defsym=_ZNSt8_Rb_treeIiSt4pairIKiSt10shared_ptrIN5telux4cv2x15ICv2xTxRxSocketEEESt10_Select1stIS7_ESt4lessIiESaIS7_EE12_M_erase_auxESt23_Rb_tree_const_iteratorIS7_ESF_=so_stub_for_libv2x_radio
-Wl,--defsym=_ZNSt8_Rb_treeIiSt4pairIKiSt10shared_ptrIN5telux4cv2x15ICv2xTxRxSocketEEESt10_Select1stIS7_ESt4lessIiESaIS7_EE12_M_rightmostEv=so_stub_for_libv2x_radio
-Wl,--defsym=_ZNSt8_Rb_treeIiSt4pairIKiSt10shared_ptrIN5telux4cv2x15ICv2xTxRxSocketEEESt10_Select1stIS7_ESt4lessIiESaIS7_EE13_Rb_tree_implISB_Lb1EEC1Ev=so_stub_for_libv2x_radio
-Wl,--defsym=_ZNSt8_Rb_treeIiSt4pairIKiSt10shared_ptrIN5telux4cv2x15ICv2xTxRxSocketEEESt10_Select1stIS7_ESt4lessIiESaIS7_EE13_Rb_tree_implISB_Lb1EEC2Ev=so_stub_for_libv2x_radio
-Wl,--defsym=_ZNSt8_Rb_treeIiSt4pairIKiSt10shared_ptrIN5telux4cv2x15ICv2xTxRxSocketEEESt10_Select1stIS7_ESt4lessIiESaIS7_EE13_Rb_tree_implISB_Lb1EED1Ev=so_stub_for_libv2x_radio
-Wl,--defsym=_ZNSt8_Rb_treeIiSt4pairIKiSt10shared_ptrIN5telux4cv2x15ICv2xTxRxSocketEEESt10_Select1stIS7_ESt4lessIiESaIS7_EE13_Rb_tree_implISB_Lb1EED2Ev=so_stub_for_libv2x_radio
-Wl,--defsym=_ZNSt8_Rb_treeIiSt4pairIKiSt10shared_ptrIN5telux4cv2x15ICv2xTxRxSocketEEESt10_Select1stIS7_ESt4lessIiESaIS7_EE14_M_create_nodeIJRKSt21piecewise_construct_tSt5tupleIJRS1_EESI_IJEEEEEPSt13_Rb_tree_nodeIS7_EDpOT_=so_stub_for_libv2x_radio
-Wl,--defsym=_ZNSt8_Rb_treeIiSt4pairIKiSt10shared_ptrIN5telux4cv2x15ICv2xTxRxSocketEEESt10_Select1stIS7_ESt4lessIiESaIS7_EE14_M_insert_nodeEPSt18_Rb_tree_node_baseSF_PSt13_Rb_tree_nodeIS7_E=so_stub_for_libv2x_radio
-Wl,--defsym=_ZNSt8_Rb_treeIiSt4pairIKiSt10shared_ptrIN5telux4cv2x15ICv2xTxRxSocketEEESt10_Select1stIS7_ESt4lessIiESaIS7_EE14_M_lower_boundEPSt13_Rb_tree_nodeIS7_EPSt18_Rb_tree_node_baseRS1_=so_stub_for_libv2x_radio
-Wl,--defsym=_ZNSt8_Rb_treeIiSt4pairIKiSt10shared_ptrIN5telux4cv2x15ICv2xTxRxSocketEEESt10_Select1stIS7_ESt4lessIiESaIS7_EE14_M_upper_boundEPSt13_Rb_tree_nodeIS7_EPSt18_Rb_tree_node_baseRS1_=so_stub_for_libv2x_radio
-Wl,--defsym=_ZNSt8_Rb_treeIiSt4pairIKiSt10shared_ptrIN5telux4cv2x15ICv2xTxRxSocketEEESt10_Select1stIS7_ESt4lessIiESaIS7_EE15_M_destroy_nodeEPSt13_Rb_tree_nodeIS7_E=so_stub_for_libv2x_radio
-Wl,--defsym=_ZNSt8_Rb_treeIiSt4pairIKiSt10shared_ptrIN5telux4cv2x15ICv2xTxRxSocketEEESt10_Select1stIS7_ESt4lessIiESaIS7_EE17_M_construct_nodeIJRKSt21piecewise_construct_tSt5tupleIJRS1_EESI_IJEEEEEvPSt13_Rb_tree_nodeIS7_EDpOT_=so_stub_for_libv2x_radio
-Wl,--defsym=_ZNSt8_Rb_treeIiSt4pairIKiSt10shared_ptrIN5telux4cv2x15ICv2xTxRxSocketEEESt10_Select1stIS7_ESt4lessIiESaIS7_EE21_M_get_Node_allocatorEv=so_stub_for_libv2x_radio
-Wl,--defsym=_ZNSt8_Rb_treeIiSt4pairIKiSt10shared_ptrIN5telux4cv2x15ICv2xTxRxSocketEEESt10_Select1stIS7_ESt4lessIiESaIS7_EE22_M_emplace_hint_uniqueIJRKSt21piecewise_construct_tSt5tupleIJRS1_EESI_IJEEEEESt17_Rb_tree_iteratorIS7_ESt23_Rb_tree_const_iteratorIS7_EDpOT_=so_stub_for_libv2x_radio
-Wl,--defsym=_ZNSt8_Rb_treeIiSt4pairIKiSt10shared_ptrIN5telux4cv2x15ICv2xTxRxSocketEEESt10_Select1stIS7_ESt4lessIiESaIS7_EE24_M_get_insert_unique_posERS1_=so_stub_for_libv2x_radio
-Wl,--defsym=_ZNSt8_Rb_treeIiSt4pairIKiSt10shared_ptrIN5telux4cv2x15ICv2xTxRxSocketEEESt10_Select1stIS7_ESt4lessIiESaIS7_EE29_M_get_insert_hint_unique_posESt23_Rb_tree_const_iteratorIS7_ERS1_=so_stub_for_libv2x_radio
-Wl,--defsym=_ZNSt8_Rb_treeIiSt4pairIKiSt10shared_ptrIN5telux4cv2x15ICv2xTxRxSocketEEESt10_Select1stIS7_ESt4lessIiESaIS7_EE3endEv=so_stub_for_libv2x_radio
-Wl,--defsym=_ZNSt8_Rb_treeIiSt4pairIKiSt10shared_ptrIN5telux4cv2x15ICv2xTxRxSocketEEESt10_Select1stIS7_ESt4lessIiESaIS7_EE5beginEv=so_stub_for_libv2x_radio
-Wl,--defsym=_ZNSt8_Rb_treeIiSt4pairIKiSt10shared_ptrIN5telux4cv2x15ICv2xTxRxSocketEEESt10_Select1stIS7_ESt4lessIiESaIS7_EE5clearEv=so_stub_for_libv2x_radio
-Wl,--defsym=_ZNSt8_Rb_treeIiSt4pairIKiSt10shared_ptrIN5telux4cv2x15ICv2xTxRxSocketEEESt10_Select1stIS7_ESt4lessIiESaIS7_EE5eraseERS1_=so_stub_for_libv2x_radio
-Wl,--defsym=_ZNSt8_Rb_treeIiSt4pairIKiSt10shared_ptrIN5telux4cv2x15ICv2xTxRxSocketEEESt10_Select1stIS7_ESt4lessIiESaIS7_EE6_M_endEv=so_stub_for_libv2x_radio
-Wl,--defsym=_ZNSt8_Rb_treeIiSt4pairIKiSt10shared_ptrIN5telux4cv2x15ICv2xTxRxSocketEEESt10_Select1stIS7_ESt4lessIiESaIS7_EE6_S_keyEPKSt13_Rb_tree_nodeIS7_E=so_stub_for_libv2x_radio
-Wl,--defsym=_ZNSt8_Rb_treeIiSt4pairIKiSt10shared_ptrIN5telux4cv2x15ICv2xTxRxSocketEEESt10_Select1stIS7_ESt4lessIiESaIS7_EE6_S_keyEPKSt18_Rb_tree_node_base=so_stub_for_libv2x_radio
-Wl,--defsym=_ZNSt8_Rb_treeIiSt4pairIKiSt10shared_ptrIN5telux4cv2x15ICv2xTxRxSocketEEESt10_Select1stIS7_ESt4lessIiESaIS7_EE7_S_leftEPKSt18_Rb_tree_node_base=so_stub_for_libv2x_radio
-Wl,--defsym=_ZNSt8_Rb_treeIiSt4pairIKiSt10shared_ptrIN5telux4cv2x15ICv2xTxRxSocketEEESt10_Select1stIS7_ESt4lessIiESaIS7_EE7_S_leftEPSt18_Rb_tree_node_base=so_stub_for_libv2x_radio
-Wl,--defsym=_ZNSt8_Rb_treeIiSt4pairIKiSt10shared_ptrIN5telux4cv2x15ICv2xTxRxSocketEEESt10_Select1stIS7_ESt4lessIiESaIS7_EE8_M_beginEv=so_stub_for_libv2x_radio
-Wl,--defsym=_ZNSt8_Rb_treeIiSt4pairIKiSt10shared_ptrIN5telux4cv2x15ICv2xTxRxSocketEEESt10_Select1stIS7_ESt4lessIiESaIS7_EE8_M_eraseEPSt13_Rb_tree_nodeIS7_E=so_stub_for_libv2x_radio
-Wl,--defsym=_ZNSt8_Rb_treeIiSt4pairIKiSt10shared_ptrIN5telux4cv2x15ICv2xTxRxSocketEEESt10_Select1stIS7_ESt4lessIiESaIS7_EE8_S_rightEPKSt18_Rb_tree_node_base=so_stub_for_libv2x_radio
-Wl,--defsym=_ZNSt8_Rb_treeIiSt4pairIKiSt10shared_ptrIN5telux4cv2x15ICv2xTxRxSocketEEESt10_Select1stIS7_ESt4lessIiESaIS7_EE8_S_rightEPSt18_Rb_tree_node_base=so_stub_for_libv2x_radio
-Wl,--defsym=_ZNSt8_Rb_treeIiSt4pairIKiSt10shared_ptrIN5telux4cv2x15ICv2xTxRxSocketEEESt10_Select1stIS7_ESt4lessIiESaIS7_EE8_S_valueEPKSt13_Rb_tree_nodeIS7_E=so_stub_for_libv2x_radio
-Wl,--defsym=_ZNSt8_Rb_treeIiSt4pairIKiSt10shared_ptrIN5telux4cv2x15ICv2xTxRxSocketEEESt10_Select1stIS7_ESt4lessIiESaIS7_EE8_S_valueEPKSt18_Rb_tree_node_base=so_stub_for_libv2x_radio
-Wl,--defsym=_ZNSt8_Rb_treeIiSt4pairIKiSt10shared_ptrIN5telux4cv2x15ICv2xTxRxSocketEEESt10_Select1stIS7_ESt4lessIiESaIS7_EEC1Ev=so_stub_for_libv2x_radio
-Wl,--defsym=_ZNSt8_Rb_treeIiSt4pairIKiSt10shared_ptrIN5telux4cv2x15ICv2xTxRxSocketEEESt10_Select1stIS7_ESt4lessIiESaIS7_EEC2Ev=so_stub_for_libv2x_radio
-Wl,--defsym=_ZNSt8_Rb_treeIiSt4pairIKiSt10shared_ptrIN5telux4cv2x15ICv2xTxRxSocketEEESt10_Select1stIS7_ESt4lessIiESaIS7_EED1Ev=so_stub_for_libv2x_radio
-Wl,--defsym=_ZNSt8_Rb_treeIiSt4pairIKiSt10shared_ptrIN5telux4cv2x15ICv2xTxRxSocketEEESt10_Select1stIS7_ESt4lessIiESaIS7_EED2Ev=so_stub_for_libv2x_radio
-Wl,--defsym=_ZNSt8_Rb_treeIiSt4pairIKiSt10shared_ptrIN5telux4cv2x19ICv2xRxSubscriptionEEESt10_Select1stIS7_ESt4lessIiESaIS7_EE11equal_rangeERS1_=so_stub_for_libv2x_radio
-Wl,--defsym=_ZNSt8_Rb_treeIiSt4pairIKiSt10shared_ptrIN5telux4cv2x19ICv2xRxSubscriptionEEESt10_Select1stIS7_ESt4lessIiESaIS7_EE11lower_boundERS1_=so_stub_for_libv2x_radio
-Wl,--defsym=_ZNSt8_Rb_treeIiSt4pairIKiSt10shared_ptrIN5telux4cv2x19ICv2xRxSubscriptionEEESt10_Select1stIS7_ESt4lessIiESaIS7_EE11_M_get_nodeEv=so_stub_for_libv2x_radio
-Wl,--defsym=_ZNSt8_Rb_treeIiSt4pairIKiSt10shared_ptrIN5telux4cv2x19ICv2xRxSubscriptionEEESt10_Select1stIS7_ESt4lessIiESaIS7_EE11_M_leftmostEv=so_stub_for_libv2x_radio
-Wl,--defsym=_ZNSt8_Rb_treeIiSt4pairIKiSt10shared_ptrIN5telux4cv2x19ICv2xRxSubscriptionEEESt10_Select1stIS7_ESt4lessIiESaIS7_EE11_M_put_nodeEPSt13_Rb_tree_nodeIS7_E=so_stub_for_libv2x_radio
-Wl,--defsym=_ZNSt8_Rb_treeIiSt4pairIKiSt10shared_ptrIN5telux4cv2x19ICv2xRxSubscriptionEEESt10_Select1stIS7_ESt4lessIiESaIS7_EE12_M_drop_nodeEPSt13_Rb_tree_nodeIS7_E=so_stub_for_libv2x_radio
-Wl,--defsym=_ZNSt8_Rb_treeIiSt4pairIKiSt10shared_ptrIN5telux4cv2x19ICv2xRxSubscriptionEEESt10_Select1stIS7_ESt4lessIiESaIS7_EE12_M_erase_auxESt23_Rb_tree_const_iteratorIS7_E=so_stub_for_libv2x_radio
-Wl,--defsym=_ZNSt8_Rb_treeIiSt4pairIKiSt10shared_ptrIN5telux4cv2x19ICv2xRxSubscriptionEEESt10_Select1stIS7_ESt4lessIiESaIS7_EE12_M_erase_auxESt23_Rb_tree_const_iteratorIS7_ESF_=so_stub_for_libv2x_radio
-Wl,--defsym=_ZNSt8_Rb_treeIiSt4pairIKiSt10shared_ptrIN5telux4cv2x19ICv2xRxSubscriptionEEESt10_Select1stIS7_ESt4lessIiESaIS7_EE12_M_rightmostEv=so_stub_for_libv2x_radio
-Wl,--defsym=_ZNSt8_Rb_treeIiSt4pairIKiSt10shared_ptrIN5telux4cv2x19ICv2xRxSubscriptionEEESt10_Select1stIS7_ESt4lessIiESaIS7_EE13_Rb_tree_implISB_Lb1EEC1Ev=so_stub_for_libv2x_radio
-Wl,--defsym=_ZNSt8_Rb_treeIiSt4pairIKiSt10shared_ptrIN5telux4cv2x19ICv2xRxSubscriptionEEESt10_Select1stIS7_ESt4lessIiESaIS7_EE13_Rb_tree_implISB_Lb1EEC2Ev=so_stub_for_libv2x_radio
-Wl,--defsym=_ZNSt8_Rb_treeIiSt4pairIKiSt10shared_ptrIN5telux4cv2x19ICv2xRxSubscriptionEEESt10_Select1stIS7_ESt4lessIiESaIS7_EE13_Rb_tree_implISB_Lb1EED1Ev=so_stub_for_libv2x_radio
-Wl,--defsym=_ZNSt8_Rb_treeIiSt4pairIKiSt10shared_ptrIN5telux4cv2x19ICv2xRxSubscriptionEEESt10_Select1stIS7_ESt4lessIiESaIS7_EE13_Rb_tree_implISB_Lb1EED2Ev=so_stub_for_libv2x_radio
-Wl,--defsym=_ZNSt8_Rb_treeIiSt4pairIKiSt10shared_ptrIN5telux4cv2x19ICv2xRxSubscriptionEEESt10_Select1stIS7_ESt4lessIiESaIS7_EE14_M_create_nodeIJRKSt21piecewise_construct_tSt5tupleIJRS1_EESI_IJEEEEEPSt13_Rb_tree_nodeIS7_EDpOT_=so_stub_for_libv2x_radio
-Wl,--defsym=_ZNSt8_Rb_treeIiSt4pairIKiSt10shared_ptrIN5telux4cv2x19ICv2xRxSubscriptionEEESt10_Select1stIS7_ESt4lessIiESaIS7_EE14_M_insert_nodeEPSt18_Rb_tree_node_baseSF_PSt13_Rb_tree_nodeIS7_E=so_stub_for_libv2x_radio
-Wl,--defsym=_ZNSt8_Rb_treeIiSt4pairIKiSt10shared_ptrIN5telux4cv2x19ICv2xRxSubscriptionEEESt10_Select1stIS7_ESt4lessIiESaIS7_EE14_M_lower_boundEPSt13_Rb_tree_nodeIS7_EPSt18_Rb_tree_node_baseRS1_=so_stub_for_libv2x_radio
-Wl,--defsym=_ZNSt8_Rb_treeIiSt4pairIKiSt10shared_ptrIN5telux4cv2x19ICv2xRxSubscriptionEEESt10_Select1stIS7_ESt4lessIiESaIS7_EE14_M_upper_boundEPSt13_Rb_tree_nodeIS7_EPSt18_Rb_tree_node_baseRS1_=so_stub_for_libv2x_radio
-Wl,--defsym=_ZNSt8_Rb_treeIiSt4pairIKiSt10shared_ptrIN5telux4cv2x19ICv2xRxSubscriptionEEESt10_Select1stIS7_ESt4lessIiESaIS7_EE15_M_destroy_nodeEPSt13_Rb_tree_nodeIS7_E=so_stub_for_libv2x_radio
-Wl,--defsym=_ZNSt8_Rb_treeIiSt4pairIKiSt10shared_ptrIN5telux4cv2x19ICv2xRxSubscriptionEEESt10_Select1stIS7_ESt4lessIiESaIS7_EE17_M_construct_nodeIJRKSt21piecewise_construct_tSt5tupleIJRS1_EESI_IJEEEEEvPSt13_Rb_tree_nodeIS7_EDpOT_=so_stub_for_libv2x_radio
-Wl,--defsym=_ZNSt8_Rb_treeIiSt4pairIKiSt10shared_ptrIN5telux4cv2x19ICv2xRxSubscriptionEEESt10_Select1stIS7_ESt4lessIiESaIS7_EE21_M_get_Node_allocatorEv=so_stub_for_libv2x_radio
-Wl,--defsym=_ZNSt8_Rb_treeIiSt4pairIKiSt10shared_ptrIN5telux4cv2x19ICv2xRxSubscriptionEEESt10_Select1stIS7_ESt4lessIiESaIS7_EE22_M_emplace_hint_uniqueIJRKSt21piecewise_construct_tSt5tupleIJRS1_EESI_IJEEEEESt17_Rb_tree_iteratorIS7_ESt23_Rb_tree_const_iteratorIS7_EDpOT_=so_stub_for_libv2x_radio
-Wl,--defsym=_ZNSt8_Rb_treeIiSt4pairIKiSt10shared_ptrIN5telux4cv2x19ICv2xRxSubscriptionEEESt10_Select1stIS7_ESt4lessIiESaIS7_EE24_M_get_insert_unique_posERS1_=so_stub_for_libv2x_radio
-Wl,--defsym=_ZNSt8_Rb_treeIiSt4pairIKiSt10shared_ptrIN5telux4cv2x19ICv2xRxSubscriptionEEESt10_Select1stIS7_ESt4lessIiESaIS7_EE29_M_get_insert_hint_unique_posESt23_Rb_tree_const_iteratorIS7_ERS1_=so_stub_for_libv2x_radio
-Wl,--defsym=_ZNSt8_Rb_treeIiSt4pairIKiSt10shared_ptrIN5telux4cv2x19ICv2xRxSubscriptionEEESt10_Select1stIS7_ESt4lessIiESaIS7_EE3endEv=so_stub_for_libv2x_radio
-Wl,--defsym=_ZNSt8_Rb_treeIiSt4pairIKiSt10shared_ptrIN5telux4cv2x19ICv2xRxSubscriptionEEESt10_Select1stIS7_ESt4lessIiESaIS7_EE5beginEv=so_stub_for_libv2x_radio
-Wl,--defsym=_ZNSt8_Rb_treeIiSt4pairIKiSt10shared_ptrIN5telux4cv2x19ICv2xRxSubscriptionEEESt10_Select1stIS7_ESt4lessIiESaIS7_EE5clearEv=so_stub_for_libv2x_radio
-Wl,--defsym=_ZNSt8_Rb_treeIiSt4pairIKiSt10shared_ptrIN5telux4cv2x19ICv2xRxSubscriptionEEESt10_Select1stIS7_ESt4lessIiESaIS7_EE5eraseERS1_=so_stub_for_libv2x_radio
-Wl,--defsym=_ZNSt8_Rb_treeIiSt4pairIKiSt10shared_ptrIN5telux4cv2x19ICv2xRxSubscriptionEEESt10_Select1stIS7_ESt4lessIiESaIS7_EE6_M_endEv=so_stub_for_libv2x_radio
-Wl,--defsym=_ZNSt8_Rb_treeIiSt4pairIKiSt10shared_ptrIN5telux4cv2x19ICv2xRxSubscriptionEEESt10_Select1stIS7_ESt4lessIiESaIS7_EE6_S_keyEPKSt13_Rb_tree_nodeIS7_E=so_stub_for_libv2x_radio
-Wl,--defsym=_ZNSt8_Rb_treeIiSt4pairIKiSt10shared_ptrIN5telux4cv2x19ICv2xRxSubscriptionEEESt10_Select1stIS7_ESt4lessIiESaIS7_EE6_S_keyEPKSt18_Rb_tree_node_base=so_stub_for_libv2x_radio
-Wl,--defsym=_ZNSt8_Rb_treeIiSt4pairIKiSt10shared_ptrIN5telux4cv2x19ICv2xRxSubscriptionEEESt10_Select1stIS7_ESt4lessIiESaIS7_EE7_S_leftEPKSt18_Rb_tree_node_base=so_stub_for_libv2x_radio
-Wl,--defsym=_ZNSt8_Rb_treeIiSt4pairIKiSt10shared_ptrIN5telux4cv2x19ICv2xRxSubscriptionEEESt10_Select1stIS7_ESt4lessIiESaIS7_EE7_S_leftEPSt18_Rb_tree_node_base=so_stub_for_libv2x_radio
-Wl,--defsym=_ZNSt8_Rb_treeIiSt4pairIKiSt10shared_ptrIN5telux4cv2x19ICv2xRxSubscriptionEEESt10_Select1stIS7_ESt4lessIiESaIS7_EE8_M_beginEv=so_stub_for_libv2x_radio
-Wl,--defsym=_ZNSt8_Rb_treeIiSt4pairIKiSt10shared_ptrIN5telux4cv2x19ICv2xRxSubscriptionEEESt10_Select1stIS7_ESt4lessIiESaIS7_EE8_M_eraseEPSt13_Rb_tree_nodeIS7_E=so_stub_for_libv2x_radio
-Wl,--defsym=_ZNSt8_Rb_treeIiSt4pairIKiSt10shared_ptrIN5telux4cv2x19ICv2xRxSubscriptionEEESt10_Select1stIS7_ESt4lessIiESaIS7_EE8_S_rightEPKSt18_Rb_tree_node_base=so_stub_for_libv2x_radio
-Wl,--defsym=_ZNSt8_Rb_treeIiSt4pairIKiSt10shared_ptrIN5telux4cv2x19ICv2xRxSubscriptionEEESt10_Select1stIS7_ESt4lessIiESaIS7_EE8_S_rightEPSt18_Rb_tree_node_base=so_stub_for_libv2x_radio
-Wl,--defsym=_ZNSt8_Rb_treeIiSt4pairIKiSt10shared_ptrIN5telux4cv2x19ICv2xRxSubscriptionEEESt10_Select1stIS7_ESt4lessIiESaIS7_EE8_S_valueEPKSt13_Rb_tree_nodeIS7_E=so_stub_for_libv2x_radio
-Wl,--defsym=_ZNSt8_Rb_treeIiSt4pairIKiSt10shared_ptrIN5telux4cv2x19ICv2xRxSubscriptionEEESt10_Select1stIS7_ESt4lessIiESaIS7_EE8_S_valueEPKSt18_Rb_tree_node_base=so_stub_for_libv2x_radio
-Wl,--defsym=_ZNSt8_Rb_treeIiSt4pairIKiSt10shared_ptrIN5telux4cv2x19ICv2xRxSubscriptionEEESt10_Select1stIS7_ESt4lessIiESaIS7_EEC1Ev=so_stub_for_libv2x_radio
-Wl,--defsym=_ZNSt8_Rb_treeIiSt4pairIKiSt10shared_ptrIN5telux4cv2x19ICv2xRxSubscriptionEEESt10_Select1stIS7_ESt4lessIiESaIS7_EEC2Ev=so_stub_for_libv2x_radio
-Wl,--defsym=_ZNSt8_Rb_treeIiSt4pairIKiSt10shared_ptrIN5telux4cv2x19ICv2xRxSubscriptionEEESt10_Select1stIS7_ESt4lessIiESaIS7_EED1Ev=so_stub_for_libv2x_radio
-Wl,--defsym=_ZNSt8_Rb_treeIiSt4pairIKiSt10shared_ptrIN5telux4cv2x19ICv2xRxSubscriptionEEESt10_Select1stIS7_ESt4lessIiESaIS7_EED2Ev=so_stub_for_libv2x_radio
-Wl,--defsym=_ZNSt8_Rb_treeIjSt4pairIKjP31v2x_per_sps_reservation_calls_tESt10_Select1stIS4_ESt4lessIjESaIS4_EE11equal_rangeERS1_=so_stub_for_libv2x_radio
-Wl,--defsym=_ZNSt8_Rb_treeIjSt4pairIKjP31v2x_per_sps_reservation_calls_tESt10_Select1stIS4_ESt4lessIjESaIS4_EE11lower_boundERS1_=so_stub_for_libv2x_radio
-Wl,--defsym=_ZNSt8_Rb_treeIjSt4pairIKjP31v2x_per_sps_reservation_calls_tESt10_Select1stIS4_ESt4lessIjESaIS4_EE11_M_get_nodeEv=so_stub_for_libv2x_radio
-Wl,--defsym=_ZNSt8_Rb_treeIjSt4pairIKjP31v2x_per_sps_reservation_calls_tESt10_Select1stIS4_ESt4lessIjESaIS4_EE11_M_leftmostEv=so_stub_for_libv2x_radio
-Wl,--defsym=_ZNSt8_Rb_treeIjSt4pairIKjP31v2x_per_sps_reservation_calls_tESt10_Select1stIS4_ESt4lessIjESaIS4_EE11_M_put_nodeEPSt13_Rb_tree_nodeIS4_E=so_stub_for_libv2x_radio
-Wl,--defsym=_ZNSt8_Rb_treeIjSt4pairIKjP31v2x_per_sps_reservation_calls_tESt10_Select1stIS4_ESt4lessIjESaIS4_EE12_M_drop_nodeEPSt13_Rb_tree_nodeIS4_E=so_stub_for_libv2x_radio
-Wl,--defsym=_ZNSt8_Rb_treeIjSt4pairIKjP31v2x_per_sps_reservation_calls_tESt10_Select1stIS4_ESt4lessIjESaIS4_EE12_M_erase_auxESt23_Rb_tree_const_iteratorIS4_E=so_stub_for_libv2x_radio
-Wl,--defsym=_ZNSt8_Rb_treeIjSt4pairIKjP31v2x_per_sps_reservation_calls_tESt10_Select1stIS4_ESt4lessIjESaIS4_EE12_M_erase_auxESt23_Rb_tree_const_iteratorIS4_ESC_=so_stub_for_libv2x_radio
-Wl,--defsym=_ZNSt8_Rb_treeIjSt4pairIKjP31v2x_per_sps_reservation_calls_tESt10_Select1stIS4_ESt4lessIjESaIS4_EE12_M_rightmostEv=so_stub_for_libv2x_radio
-Wl,--defsym=_ZNSt8_Rb_treeIjSt4pairIKjP31v2x_per_sps_reservation_calls_tESt10_Select1stIS4_ESt4lessIjESaIS4_EE13_Rb_tree_implIS8_Lb1EEC1Ev=so_stub_for_libv2x_radio
-Wl,--defsym=_ZNSt8_Rb_treeIjSt4pairIKjP31v2x_per_sps_reservation_calls_tESt10_Select1stIS4_ESt4lessIjESaIS4_EE13_Rb_tree_implIS8_Lb1EEC2Ev=so_stub_for_libv2x_radio
-Wl,--defsym=_ZNSt8_Rb_treeIjSt4pairIKjP31v2x_per_sps_reservation_calls_tESt10_Select1stIS4_ESt4lessIjESaIS4_EE13_Rb_tree_implIS8_Lb1EED1Ev=so_stub_for_libv2x_radio
-Wl,--defsym=_ZNSt8_Rb_treeIjSt4pairIKjP31v2x_per_sps_reservation_calls_tESt10_Select1stIS4_ESt4lessIjESaIS4_EE13_Rb_tree_implIS8_Lb1EED2Ev=so_stub_for_libv2x_radio
-Wl,--defsym=_ZNSt8_Rb_treeIjSt4pairIKjP31v2x_per_sps_reservation_calls_tESt10_Select1stIS4_ESt4lessIjESaIS4_EE14_M_create_nodeIJRKSt21piecewise_construct_tSt5tupleIJRS1_EESF_IJEEEEEPSt13_Rb_tree_nodeIS4_EDpOT_=so_stub_for_libv2x_radio
-Wl,--defsym=_ZNSt8_Rb_treeIjSt4pairIKjP31v2x_per_sps_reservation_calls_tESt10_Select1stIS4_ESt4lessIjESaIS4_EE14_M_insert_nodeEPSt18_Rb_tree_node_baseSC_PSt13_Rb_tree_nodeIS4_E=so_stub_for_libv2x_radio
-Wl,--defsym=_ZNSt8_Rb_treeIjSt4pairIKjP31v2x_per_sps_reservation_calls_tESt10_Select1stIS4_ESt4lessIjESaIS4_EE14_M_lower_boundEPSt13_Rb_tree_nodeIS4_EPSt18_Rb_tree_node_baseRS1_=so_stub_for_libv2x_radio
-Wl,--defsym=_ZNSt8_Rb_treeIjSt4pairIKjP31v2x_per_sps_reservation_calls_tESt10_Select1stIS4_ESt4lessIjESaIS4_EE14_M_upper_boundEPSt13_Rb_tree_nodeIS4_EPSt18_Rb_tree_node_baseRS1_=so_stub_for_libv2x_radio
-Wl,--defsym=_ZNSt8_Rb_treeIjSt4pairIKjP31v2x_per_sps_reservation_calls_tESt10_Select1stIS4_ESt4lessIjESaIS4_EE15_M_destroy_nodeEPSt13_Rb_tree_nodeIS4_E=so_stub_for_libv2x_radio
-Wl,--defsym=_ZNSt8_Rb_treeIjSt4pairIKjP31v2x_per_sps_reservation_calls_tESt10_Select1stIS4_ESt4lessIjESaIS4_EE17_M_construct_nodeIJRKSt21piecewise_construct_tSt5tupleIJRS1_EESF_IJEEEEEvPSt13_Rb_tree_nodeIS4_EDpOT_=so_stub_for_libv2x_radio
-Wl,--defsym=_ZNSt8_Rb_treeIjSt4pairIKjP31v2x_per_sps_reservation_calls_tESt10_Select1stIS4_ESt4lessIjESaIS4_EE21_M_get_Node_allocatorEv=so_stub_for_libv2x_radio
-Wl,--defsym=_ZNSt8_Rb_treeIjSt4pairIKjP31v2x_per_sps_reservation_calls_tESt10_Select1stIS4_ESt4lessIjESaIS4_EE22_M_emplace_hint_uniqueIJRKSt21piecewise_construct_tSt5tupleIJRS1_EESF_IJEEEEESt17_Rb_tree_iteratorIS4_ESt23_Rb_tree_const_iteratorIS4_EDpOT_=so_stub_for_libv2x_radio
-Wl,--defsym=_ZNSt8_Rb_treeIjSt4pairIKjP31v2x_per_sps_reservation_calls_tESt10_Select1stIS4_ESt4lessIjESaIS4_EE24_M_get_insert_unique_posERS1_=so_stub_for_libv2x_radio
-Wl,--defsym=_ZNSt8_Rb_treeIjSt4pairIKjP31v2x_per_sps_reservation_calls_tESt10_Select1stIS4_ESt4lessIjESaIS4_EE29_M_get_insert_hint_unique_posESt23_Rb_tree_const_iteratorIS4_ERS1_=so_stub_for_libv2x_radio
-Wl,--defsym=_ZNSt8_Rb_treeIjSt4pairIKjP31v2x_per_sps_reservation_calls_tESt10_Select1stIS4_ESt4lessIjESaIS4_EE3endEv=so_stub_for_libv2x_radio
-Wl,--defsym=_ZNSt8_Rb_treeIjSt4pairIKjP31v2x_per_sps_reservation_calls_tESt10_Select1stIS4_ESt4lessIjESaIS4_EE5beginEv=so_stub_for_libv2x_radio
-Wl,--defsym=_ZNSt8_Rb_treeIjSt4pairIKjP31v2x_per_sps_reservation_calls_tESt10_Select1stIS4_ESt4lessIjESaIS4_EE5clearEv=so_stub_for_libv2x_radio
-Wl,--defsym=_ZNSt8_Rb_treeIjSt4pairIKjP31v2x_per_sps_reservation_calls_tESt10_Select1stIS4_ESt4lessIjESaIS4_EE5eraseERS1_=so_stub_for_libv2x_radio
-Wl,--defsym=_ZNSt8_Rb_treeIjSt4pairIKjP31v2x_per_sps_reservation_calls_tESt10_Select1stIS4_ESt4lessIjESaIS4_EE6_M_endEv=so_stub_for_libv2x_radio
-Wl,--defsym=_ZNSt8_Rb_treeIjSt4pairIKjP31v2x_per_sps_reservation_calls_tESt10_Select1stIS4_ESt4lessIjESaIS4_EE6_S_keyEPKSt13_Rb_tree_nodeIS4_E=so_stub_for_libv2x_radio
-Wl,--defsym=_ZNSt8_Rb_treeIjSt4pairIKjP31v2x_per_sps_reservation_calls_tESt10_Select1stIS4_ESt4lessIjESaIS4_EE6_S_keyEPKSt18_Rb_tree_node_base=so_stub_for_libv2x_radio
-Wl,--defsym=_ZNSt8_Rb_treeIjSt4pairIKjP31v2x_per_sps_reservation_calls_tESt10_Select1stIS4_ESt4lessIjESaIS4_EE7_S_leftEPKSt18_Rb_tree_node_base=so_stub_for_libv2x_radio
-Wl,--defsym=_ZNSt8_Rb_treeIjSt4pairIKjP31v2x_per_sps_reservation_calls_tESt10_Select1stIS4_ESt4lessIjESaIS4_EE7_S_leftEPSt18_Rb_tree_node_base=so_stub_for_libv2x_radio
-Wl,--defsym=_ZNSt8_Rb_treeIjSt4pairIKjP31v2x_per_sps_reservation_calls_tESt10_Select1stIS4_ESt4lessIjESaIS4_EE8_M_beginEv=so_stub_for_libv2x_radio
-Wl,--defsym=_ZNSt8_Rb_treeIjSt4pairIKjP31v2x_per_sps_reservation_calls_tESt10_Select1stIS4_ESt4lessIjESaIS4_EE8_M_eraseEPSt13_Rb_tree_nodeIS4_E=so_stub_for_libv2x_radio
-Wl,--defsym=_ZNSt8_Rb_treeIjSt4pairIKjP31v2x_per_sps_reservation_calls_tESt10_Select1stIS4_ESt4lessIjESaIS4_EE8_S_rightEPKSt18_Rb_tree_node_base=so_stub_for_libv2x_radio
-Wl,--defsym=_ZNSt8_Rb_treeIjSt4pairIKjP31v2x_per_sps_reservation_calls_tESt10_Select1stIS4_ESt4lessIjESaIS4_EE8_S_rightEPSt18_Rb_tree_node_base=so_stub_for_libv2x_radio
-Wl,--defsym=_ZNSt8_Rb_treeIjSt4pairIKjP31v2x_per_sps_reservation_calls_tESt10_Select1stIS4_ESt4lessIjESaIS4_EE8_S_valueEPKSt13_Rb_tree_nodeIS4_E=so_stub_for_libv2x_radio
-Wl,--defsym=_ZNSt8_Rb_treeIjSt4pairIKjP31v2x_per_sps_reservation_calls_tESt10_Select1stIS4_ESt4lessIjESaIS4_EE8_S_valueEPKSt18_Rb_tree_node_base=so_stub_for_libv2x_radio
-Wl,--defsym=_ZNSt8_Rb_treeIjSt4pairIKjP31v2x_per_sps_reservation_calls_tESt10_Select1stIS4_ESt4lessIjESaIS4_EEC1Ev=so_stub_for_libv2x_radio
-Wl,--defsym=_ZNSt8_Rb_treeIjSt4pairIKjP31v2x_per_sps_reservation_calls_tESt10_Select1stIS4_ESt4lessIjESaIS4_EEC2Ev=so_stub_for_libv2x_radio
-Wl,--defsym=_ZNSt8_Rb_treeIjSt4pairIKjP31v2x_per_sps_reservation_calls_tESt10_Select1stIS4_ESt4lessIjESaIS4_EED1Ev=so_stub_for_libv2x_radio
-Wl,--defsym=_ZNSt8_Rb_treeIjSt4pairIKjP31v2x_per_sps_reservation_calls_tESt10_Select1stIS4_ESt4lessIjESaIS4_EED2Ev=so_stub_for_libv2x_radio
-Wl,--defsym=_ZNSt8_Rb_treeIN5telux4cv2x14Cv2xStatusTypeESt4pairIKS2_NSt7__cxx1112basic_stringIcSt11char_traitsIcESaIcEEEESt10_Select1stISB_ESt4lessIS2_ESaISB_EE10_M_insert_IRKSB_NSH_11_Alloc_nodeEEESt17_Rb_tree_iteratorISB_EPSt18_Rb_tree_node_baseSP_OT_RT0_=so_stub_for_libv2x_radio
-Wl,--defsym=_ZNSt8_Rb_treeIN5telux4cv2x14Cv2xStatusTypeESt4pairIKS2_NSt7__cxx1112basic_stringIcSt11char_traitsIcESaIcEEEESt10_Select1stISB_ESt4lessIS2_ESaISB_EE11_Alloc_nodeC1ERSH_=so_stub_for_libv2x_radio
-Wl,--defsym=_ZNSt8_Rb_treeIN5telux4cv2x14Cv2xStatusTypeESt4pairIKS2_NSt7__cxx1112basic_stringIcSt11char_traitsIcESaIcEEEESt10_Select1stISB_ESt4lessIS2_ESaISB_EE11_Alloc_nodeC2ERSH_=so_stub_for_libv2x_radio
-Wl,--defsym=_ZNSt8_Rb_treeIN5telux4cv2x14Cv2xStatusTypeESt4pairIKS2_NSt7__cxx1112basic_stringIcSt11char_traitsIcESaIcEEEESt10_Select1stISB_ESt4lessIS2_ESaISB_EE11lower_boundERS4_=so_stub_for_libv2x_radio
-Wl,--defsym=_ZNSt8_Rb_treeIN5telux4cv2x14Cv2xStatusTypeESt4pairIKS2_NSt7__cxx1112basic_stringIcSt11char_traitsIcESaIcEEEESt10_Select1stISB_ESt4lessIS2_ESaISB_EE11_M_get_nodeEv=so_stub_for_libv2x_radio
-Wl,--defsym=_ZNSt8_Rb_treeIN5telux4cv2x14Cv2xStatusTypeESt4pairIKS2_NSt7__cxx1112basic_stringIcSt11char_traitsIcESaIcEEEESt10_Select1stISB_ESt4lessIS2_ESaISB_EE11_M_leftmostEv=so_stub_for_libv2x_radio
-Wl,--defsym=_ZNSt8_Rb_treeIN5telux4cv2x14Cv2xStatusTypeESt4pairIKS2_NSt7__cxx1112basic_stringIcSt11char_traitsIcESaIcEEEESt10_Select1stISB_ESt4lessIS2_ESaISB_EE11_M_put_nodeEPSt13_Rb_tree_nodeISB_E=so_stub_for_libv2x_radio
-Wl,--defsym=_ZNSt8_Rb_treeIN5telux4cv2x14Cv2xStatusTypeESt4pairIKS2_NSt7__cxx1112basic_stringIcSt11char_traitsIcESaIcEEEESt10_Select1stISB_ESt4lessIS2_ESaISB_EE12_M_drop_nodeEPSt13_Rb_tree_nodeISB_E=so_stub_for_libv2x_radio
-Wl,--defsym=_ZNSt8_Rb_treeIN5telux4cv2x14Cv2xStatusTypeESt4pairIKS2_NSt7__cxx1112basic_stringIcSt11char_traitsIcESaIcEEEESt10_Select1stISB_ESt4lessIS2_ESaISB_EE12_M_rightmostEv=so_stub_for_libv2x_radio
-Wl,--defsym=_ZNSt8_Rb_treeIN5telux4cv2x14Cv2xStatusTypeESt4pairIKS2_NSt7__cxx1112basic_stringIcSt11char_traitsIcESaIcEEEESt10_Select1stISB_ESt4lessIS2_ESaISB_EE13_Rb_tree_implISF_Lb1EEC1ERKSF_OSaISt13_Rb_tree_nodeISB_EE=so_stub_for_libv2x_radio
-Wl,--defsym=_ZNSt8_Rb_treeIN5telux4cv2x14Cv2xStatusTypeESt4pairIKS2_NSt7__cxx1112basic_stringIcSt11char_traitsIcESaIcEEEESt10_Select1stISB_ESt4lessIS2_ESaISB_EE13_Rb_tree_implISF_Lb1EEC2ERKSF_OSaISt13_Rb_tree_nodeISB_EE=so_stub_for_libv2x_radio
-Wl,--defsym=_ZNSt8_Rb_treeIN5telux4cv2x14Cv2xStatusTypeESt4pairIKS2_NSt7__cxx1112basic_stringIcSt11char_traitsIcESaIcEEEESt10_Select1stISB_ESt4lessIS2_ESaISB_EE13_Rb_tree_implISF_Lb1EED1Ev=so_stub_for_libv2x_radio
-Wl,--defsym=_ZNSt8_Rb_treeIN5telux4cv2x14Cv2xStatusTypeESt4pairIKS2_NSt7__cxx1112basic_stringIcSt11char_traitsIcESaIcEEEESt10_Select1stISB_ESt4lessIS2_ESaISB_EE13_Rb_tree_implISF_Lb1EED2Ev=so_stub_for_libv2x_radio
-Wl,--defsym=_ZNSt8_Rb_treeIN5telux4cv2x14Cv2xStatusTypeESt4pairIKS2_NSt7__cxx1112basic_stringIcSt11char_traitsIcESaIcEEEESt10_Select1stISB_ESt4lessIS2_ESaISB_EE14_M_create_nodeIJRKSB_EEEPSt13_Rb_tree_nodeISB_EDpOT_=so_stub_for_libv2x_radio
-Wl,--defsym=_ZNSt8_Rb_treeIN5telux4cv2x14Cv2xStatusTypeESt4pairIKS2_NSt7__cxx1112basic_stringIcSt11char_traitsIcESaIcEEEESt10_Select1stISB_ESt4lessIS2_ESaISB_EE14_M_create_nodeIJRKSt21piecewise_construct_tSt5tupleIJRS4_EESM_IJEEEEEPSt13_Rb_tree_nodeISB_EDpOT_=so_stub_for_libv2x_radio
-Wl,--defsym=_ZNSt8_Rb_treeIN5telux4cv2x14Cv2xStatusTypeESt4pairIKS2_NSt7__cxx1112basic_stringIcSt11char_traitsIcESaIcEEEESt10_Select1stISB_ESt4lessIS2_ESaISB_EE14_M_insert_nodeEPSt18_Rb_tree_node_baseSJ_PSt13_Rb_tree_nodeISB_E=so_stub_for_libv2x_radio
-Wl,--defsym=_ZNSt8_Rb_treeIN5telux4cv2x14Cv2xStatusTypeESt4pairIKS2_NSt7__cxx1112basic_stringIcSt11char_traitsIcESaIcEEEESt10_Select1stISB_ESt4lessIS2_ESaISB_EE14_M_lower_boundEPSt13_Rb_tree_nodeISB_EPSt18_Rb_tree_node_baseRS4_=so_stub_for_libv2x_radio
-Wl,--defsym=_ZNSt8_Rb_treeIN5telux4cv2x14Cv2xStatusTypeESt4pairIKS2_NSt7__cxx1112basic_stringIcSt11char_traitsIcESaIcEEEESt10_Select1stISB_ESt4lessIS2_ESaISB_EE15_M_destroy_nodeEPSt13_Rb_tree_nodeISB_E=so_stub_for_libv2x_radio
-Wl,--defsym=_ZNSt8_Rb_treeIN5telux4cv2x14Cv2xStatusTypeESt4pairIKS2_NSt7__cxx1112basic_stringIcSt11char_traitsIcESaIcEEEESt10_Select1stISB_ESt4lessIS2_ESaISB_EE16_M_insert_uniqueIPKSB_EEvT_SL_=so_stub_for_libv2x_radio
-Wl,--defsym=_ZNSt8_Rb_treeIN5telux4cv2x14Cv2xStatusTypeESt4pairIKS2_NSt7__cxx1112basic_stringIcSt11char_traitsIcESaIcEEEESt10_Select1stISB_ESt4lessIS2_ESaISB_EE17_M_construct_nodeIJRKSB_EEEvPSt13_Rb_tree_nodeISB_EDpOT_=so_stub_for_libv2x_radio
-Wl,--defsym=_ZNSt8_Rb_treeIN5telux4cv2x14Cv2xStatusTypeESt4pairIKS2_NSt7__cxx1112basic_stringIcSt11char_traitsIcESaIcEEEESt10_Select1stISB_ESt4lessIS2_ESaISB_EE17_M_construct_nodeIJRKSt21piecewise_construct_tSt5tupleIJRS4_EESM_IJEEEEEvPSt13_Rb_tree_nodeISB_EDpOT_=so_stub_for_libv2x_radio
-Wl,--defsym=_ZNSt8_Rb_treeIN5telux4cv2x14Cv2xStatusTypeESt4pairIKS2_NSt7__cxx1112basic_stringIcSt11char_traitsIcESaIcEEEESt10_Select1stISB_ESt4lessIS2_ESaISB_EE17_M_insert_unique_IRKSB_NSH_11_Alloc_nodeEEESt17_Rb_tree_iteratorISB_ESt23_Rb_tree_const_iteratorISB_EOT_RT0_=so_stub_for_libv2x_radio
-Wl,--defsym=_ZNSt8_Rb_treeIN5telux4cv2x14Cv2xStatusTypeESt4pairIKS2_NSt7__cxx1112basic_stringIcSt11char_traitsIcESaIcEEEESt10_Select1stISB_ESt4lessIS2_ESaISB_EE21_M_get_Node_allocatorEv=so_stub_for_libv2x_radio
-Wl,--defsym=_ZNSt8_Rb_treeIN5telux4cv2x14Cv2xStatusTypeESt4pairIKS2_NSt7__cxx1112basic_stringIcSt11char_traitsIcESaIcEEEESt10_Select1stISB_ESt4lessIS2_ESaISB_EE22_M_emplace_hint_uniqueIJRKSt21piecewise_construct_tSt5tupleIJRS4_EESM_IJEEEEESt17_Rb_tree_iteratorISB_ESt23_Rb_tree_const_iteratorISB_EDpOT_=so_stub_for_libv2x_radio
-Wl,--defsym=_ZNSt8_Rb_treeIN5telux4cv2x14Cv2xStatusTypeESt4pairIKS2_NSt7__cxx1112basic_stringIcSt11char_traitsIcESaIcEEEESt10_Select1stISB_ESt4lessIS2_ESaISB_EE24_M_get_insert_unique_posERS4_=so_stub_for_libv2x_radio
-Wl,--defsym=_ZNSt8_Rb_treeIN5telux4cv2x14Cv2xStatusTypeESt4pairIKS2_NSt7__cxx1112basic_stringIcSt11char_traitsIcESaIcEEEESt10_Select1stISB_ESt4lessIS2_ESaISB_EE29_M_get_insert_hint_unique_posESt23_Rb_tree_const_iteratorISB_ERS4_=so_stub_for_libv2x_radio
-Wl,--defsym=_ZNSt8_Rb_treeIN5telux4cv2x14Cv2xStatusTypeESt4pairIKS2_NSt7__cxx1112basic_stringIcSt11char_traitsIcESaIcEEEESt10_Select1stISB_ESt4lessIS2_ESaISB_EE3endEv=so_stub_for_libv2x_radio
-Wl,--defsym=_ZNSt8_Rb_treeIN5telux4cv2x14Cv2xStatusTypeESt4pairIKS2_NSt7__cxx1112basic_stringIcSt11char_traitsIcESaIcEEEESt10_Select1stISB_ESt4lessIS2_ESaISB_EE5beginEv=so_stub_for_libv2x_radio
-Wl,--defsym=_ZNSt8_Rb_treeIN5telux4cv2x14Cv2xStatusTypeESt4pairIKS2_NSt7__cxx1112basic_stringIcSt11char_traitsIcESaIcEEEESt10_Select1stISB_ESt4lessIS2_ESaISB_EE6_M_endEv=so_stub_for_libv2x_radio
-Wl,--defsym=_ZNSt8_Rb_treeIN5telux4cv2x14Cv2xStatusTypeESt4pairIKS2_NSt7__cxx1112basic_stringIcSt11char_traitsIcESaIcEEEESt10_Select1stISB_ESt4lessIS2_ESaISB_EE6_S_keyEPKSt13_Rb_tree_nodeISB_E=so_stub_for_libv2x_radio
-Wl,--defsym=_ZNSt8_Rb_treeIN5telux4cv2x14Cv2xStatusTypeESt4pairIKS2_NSt7__cxx1112basic_stringIcSt11char_traitsIcESaIcEEEESt10_Select1stISB_ESt4lessIS2_ESaISB_EE6_S_keyEPKSt18_Rb_tree_node_base=so_stub_for_libv2x_radio
-Wl,--defsym=_ZNSt8_Rb_treeIN5telux4cv2x14Cv2xStatusTypeESt4pairIKS2_NSt7__cxx1112basic_stringIcSt11char_traitsIcESaIcEEEESt10_Select1stISB_ESt4lessIS2_ESaISB_EE7_S_leftEPSt18_Rb_tree_node_base=so_stub_for_libv2x_radio
-Wl,--defsym=_ZNSt8_Rb_treeIN5telux4cv2x14Cv2xStatusTypeESt4pairIKS2_NSt7__cxx1112basic_stringIcSt11char_traitsIcESaIcEEEESt10_Select1stISB_ESt4lessIS2_ESaISB_EE8_M_beginEv=so_stub_for_libv2x_radio
-Wl,--defsym=_ZNSt8_Rb_treeIN5telux4cv2x14Cv2xStatusTypeESt4pairIKS2_NSt7__cxx1112basic_stringIcSt11char_traitsIcESaIcEEEESt10_Select1stISB_ESt4lessIS2_ESaISB_EE8_M_eraseEPSt13_Rb_tree_nodeISB_E=so_stub_for_libv2x_radio
-Wl,--defsym=_ZNSt8_Rb_treeIN5telux4cv2x14Cv2xStatusTypeESt4pairIKS2_NSt7__cxx1112basic_stringIcSt11char_traitsIcESaIcEEEESt10_Select1stISB_ESt4lessIS2_ESaISB_EE8_S_rightEPSt18_Rb_tree_node_base=so_stub_for_libv2x_radio
-Wl,--defsym=_ZNSt8_Rb_treeIN5telux4cv2x14Cv2xStatusTypeESt4pairIKS2_NSt7__cxx1112basic_stringIcSt11char_traitsIcESaIcEEEESt10_Select1stISB_ESt4lessIS2_ESaISB_EE8_S_valueEPKSt13_Rb_tree_nodeISB_E=so_stub_for_libv2x_radio
-Wl,--defsym=_ZNSt8_Rb_treeIN5telux4cv2x14Cv2xStatusTypeESt4pairIKS2_NSt7__cxx1112basic_stringIcSt11char_traitsIcESaIcEEEESt10_Select1stISB_ESt4lessIS2_ESaISB_EE8_S_valueEPKSt18_Rb_tree_node_base=so_stub_for_libv2x_radio
-Wl,--defsym=_ZNSt8_Rb_treeIN5telux4cv2x14Cv2xStatusTypeESt4pairIKS2_NSt7__cxx1112basic_stringIcSt11char_traitsIcESaIcEEEESt10_Select1stISB_ESt4lessIS2_ESaISB_EEC1ERKSF_RKSG_=so_stub_for_libv2x_radio
-Wl,--defsym=_ZNSt8_Rb_treeIN5telux4cv2x14Cv2xStatusTypeESt4pairIKS2_NSt7__cxx1112basic_stringIcSt11char_traitsIcESaIcEEEESt10_Select1stISB_ESt4lessIS2_ESaISB_EEC2ERKSF_RKSG_=so_stub_for_libv2x_radio
-Wl,--defsym=_ZNSt8_Rb_treeIN5telux4cv2x14Cv2xStatusTypeESt4pairIKS2_NSt7__cxx1112basic_stringIcSt11char_traitsIcESaIcEEEESt10_Select1stISB_ESt4lessIS2_ESaISB_EED1Ev=so_stub_for_libv2x_radio
-Wl,--defsym=_ZNSt8_Rb_treeIN5telux4cv2x14Cv2xStatusTypeESt4pairIKS2_NSt7__cxx1112basic_stringIcSt11char_traitsIcESaIcEEEESt10_Select1stISB_ESt4lessIS2_ESaISB_EED2Ev=so_stub_for_libv2x_radio
-Wl,--defsym=_ZNSt8weak_ptrIN5telux4cv2x13ICv2xListenerEEC1IS2_vEERKSt10shared_ptrIT_E=so_stub_for_libv2x_radio
-Wl,--defsym=_ZNSt8weak_ptrIN5telux4cv2x13ICv2xListenerEEC2IS2_vEERKSt10shared_ptrIT_E=so_stub_for_libv2x_radio
-Wl,--defsym=_ZNSt8weak_ptrIN5telux4cv2x13ICv2xListenerEED1Ev=so_stub_for_libv2x_radio
-Wl,--defsym=_ZNSt8weak_ptrIN5telux4cv2x13ICv2xListenerEED2Ev=so_stub_for_libv2x_radio
-Wl,--defsym=_ZNSt8weak_ptrIN5telux4cv2x18ICv2xRadioListenerEEC1IS2_vEERKSt10shared_ptrIT_E=so_stub_for_libv2x_radio
-Wl,--defsym=_ZNSt8weak_ptrIN5telux4cv2x18ICv2xRadioListenerEEC2IS2_vEERKSt10shared_ptrIT_E=so_stub_for_libv2x_radio
-Wl,--defsym=_ZNSt8weak_ptrIN5telux4cv2x18ICv2xRadioListenerEED1Ev=so_stub_for_libv2x_radio
-Wl,--defsym=_ZNSt8weak_ptrIN5telux4cv2x18ICv2xRadioListenerEED2Ev=so_stub_for_libv2x_radio
-Wl,--defsym=_ZNSt8weak_ptrIN5telux4cv2x19ICv2xConfigListenerEEC1IS2_vEERKSt10shared_ptrIT_E=so_stub_for_libv2x_radio
-Wl,--defsym=_ZNSt8weak_ptrIN5telux4cv2x19ICv2xConfigListenerEEC2IS2_vEERKSt10shared_ptrIT_E=so_stub_for_libv2x_radio
-Wl,--defsym=_ZNSt8weak_ptrIN5telux4cv2x19ICv2xConfigListenerEED1Ev=so_stub_for_libv2x_radio
-Wl,--defsym=_ZNSt8weak_ptrIN5telux4cv2x19ICv2xConfigListenerEED2Ev=so_stub_for_libv2x_radio
-Wl,--defsym=_ZNSt9_Any_data9_M_accessEv=so_stub_for_libv2x_radio
-Wl,--defsym=_ZNSt9_Any_data9_M_accessINSt13__future_base13_State_baseV27_SetterIiOiEEEERT_v=so_stub_for_libv2x_radio
-Wl,--defsym=_ZNSt9_Any_data9_M_accessINSt13__future_base13_State_baseV27_SetterIN5telux6common9ErrorCodeERKS6_EEEERT_v=so_stub_for_libv2x_radio
-Wl,--defsym=_ZNSt9_Any_data9_M_accessINSt13__future_base13_State_baseV27_SetterISt4pairIN5telux6common9ErrorCodeES7_EOS8_EEEERT_v=so_stub_for_libv2x_radio
-Wl,--defsym=_ZNSt9_Any_data9_M_accessIPFvSt10shared_ptrIN5telux4cv2x11ICv2xTxFlowEENS2_6common9ErrorCodeEEEERT_v=so_stub_for_libv2x_radio
-Wl,--defsym=_ZNSt9_Any_data9_M_accessIPKSt9type_infoEERT_v=so_stub_for_libv2x_radio
-Wl,--defsym=_ZNSt9_Any_data9_M_accessIPNSt13__future_base13_State_baseV27_SetterIiOiEEEERT_v=so_stub_for_libv2x_radio
-Wl,--defsym=_ZNSt9_Any_data9_M_accessIPNSt13__future_base13_State_baseV27_SetterIN5telux6common9ErrorCodeERKS6_EEEERT_v=so_stub_for_libv2x_radio
-Wl,--defsym=_ZNSt9_Any_data9_M_accessIPNSt13__future_base13_State_baseV27_SetterISt4pairIN5telux6common9ErrorCodeES7_EOS8_EEEERT_v=so_stub_for_libv2x_radio
-Wl,--defsym=_ZNSt9_Any_data9_M_accessIPPFvSt10shared_ptrIN5telux4cv2x11ICv2xTxFlowEENS2_6common9ErrorCodeEEEERT_v=so_stub_for_libv2x_radio
-Wl,--defsym=_ZNSt9once_flagC1Ev=so_stub_for_libv2x_radio
-Wl,--defsym=_ZNSt9once_flagC2Ev=so_stub_for_libv2x_radio
-Wl,--defsym=_ZnwjPv=so_stub_for_libv2x_radio
-Wl,--defsym=_ZSt10_ConstructIN5telux4cv2x14Cv2xPoolStatusEJRKS2_EEvPT_DpOT0_=so_stub_for_libv2x_radio
-Wl,--defsym=_ZSt10_ConstructIN5telux4cv2x14Cv2xPoolStatusEJRS2_EEvPT_DpOT0_=so_stub_for_libv2x_radio
-Wl,--defsym=_ZSt11__addressofIbEPT_RS0_=so_stub_for_libv2x_radio
-Wl,--defsym=_ZSt11__addressofIiEPT_RS0_=so_stub_for_libv2x_radio
-Wl,--defsym=_ZSt11__addressofIKN5telux6common9ErrorCodeEEPT_RS4_=so_stub_for_libv2x_radio
-Wl,--defsym=_ZSt11__addressofIKNSt13__future_base13_State_baseV27_SetterIiOiEEEPT_RS6_=so_stub_for_libv2x_radio
-Wl,--defsym=_ZSt11__addressofIKNSt13__future_base13_State_baseV27_SetterIN5telux6common9ErrorCodeERKS5_EEEPT_RSA_=so_stub_for_libv2x_radio
-Wl,--defsym=_ZSt11__addressofIKNSt13__future_base13_State_baseV27_SetterISt4pairIN5telux6common9ErrorCodeES6_EOS7_EEEPT_RSB_=so_stub_for_libv2x_radio
-Wl,--defsym=_ZSt11__addressofIKPFvSt10shared_ptrIN5telux4cv2x11ICv2xTxFlowEENS1_6common9ErrorCodeEEEPT_RSA_=so_stub_for_libv2x_radio
-Wl,--defsym=_ZSt11__addressofIN5telux4cv2x14Cv2xPoolStatusEEPT_RS3_=so_stub_for_libv2x_radio
-Wl,--defsym=_ZSt11__addressofISaISt23_Sp_counted_ptr_inplaceI12Cv2xListenerSaIS1_ELN9__gnu_cxx12_Lock_policyE2EEEEPT_RS7_=so_stub_for_libv2x_radio
-Wl,--defsym=_ZSt11__addressofISaISt23_Sp_counted_ptr_inplaceI13RadioListenerSaIS1_ELN9__gnu_cxx12_Lock_policyE2EEEEPT_RS7_=so_stub_for_libv2x_radio
-Wl,--defsym=_ZSt11__addressofISaISt23_Sp_counted_ptr_inplaceI14ConfigListenerSaIS1_ELN9__gnu_cxx12_Lock_policyE2EEEEPT_RS7_=so_stub_for_libv2x_radio
-Wl,--defsym=_ZSt11__addressofISaISt23_Sp_counted_ptr_inplaceINSt13__future_base13_State_baseV2ESaIS2_ELN9__gnu_cxx12_Lock_policyE2EEEEPT_RS8_=so_stub_for_libv2x_radio
-Wl,--defsym=_ZSt11__addressofISaISt23_Sp_counted_ptr_inplaceISt6vectorIjSaIjEESaIS3_ELN9__gnu_cxx12_Lock_policyE2EEEEPT_RS9_=so_stub_for_libv2x_radio
-Wl,--defsym=_ZSt11__addressofISt10unique_ptrINSt13__future_base7_ResultI21_v2x_status_enum_typeEENS1_12_Result_base8_DeleterEEEPT_RS8_=so_stub_for_libv2x_radio
-Wl,--defsym=_ZSt11__addressofISt4pairIN5telux6common9ErrorCodeES3_EEPT_RS5_=so_stub_for_libv2x_radio
-Wl,--defsym=_ZSt11__addressofISt5mutexEPT_RS1_=so_stub_for_libv2x_radio
-Wl,--defsym=_ZSt11__addressofISt8functionIFSt10unique_ptrINSt13__future_base12_Result_baseENS3_8_DeleterEEvEEEPT_RS8_=so_stub_for_libv2x_radio
-Wl,--defsym=_ZSt11__addressofIZSt9call_onceIMNSt13__future_base13_State_baseV2EFvPSt8functionIFSt10unique_ptrINS1_12_Result_baseENS5_8_DeleterEEvEEPbEJPS2_SA_SB_EEvRSt9once_flagOT_DpOT0_EUlvE_EPSH_RSH_=so_stub_for_libv2x_radio
-Wl,--defsym=_ZSt11__addressofIZSt9call_onceIMSt6threadFvvEJPS1_EEvRSt9once_flagOT_DpOT0_EUlvE_EPS7_RS7_=so_stub_for_libv2x_radio
-Wl,--defsym=_ZSt11make_sharedI12Cv2xListenerJEESt10shared_ptrIT_EDpOT0_=so_stub_for_libv2x_radio
-Wl,--defsym=_ZSt11make_sharedI13RadioListenerJEESt10shared_ptrIT_EDpOT0_=so_stub_for_libv2x_radio
-Wl,--defsym=_ZSt11make_sharedI14ConfigListenerJEESt10shared_ptrIT_EDpOT0_=so_stub_for_libv2x_radio
-Wl,--defsym=_ZSt11make_sharedINSt13__future_base13_State_baseV2EJEESt10shared_ptrIT_EDpOT0_=so_stub_for_libv2x_radio
-Wl,--defsym=_ZSt11make_sharedISt6vectorIjSaIjEEJRS2_EESt10shared_ptrIT_EDpOT0_=so_stub_for_libv2x_radio
-Wl,--defsym=_ZSt12__get_helperILj0EPNSt13__future_base12_Result_baseEJNS1_8_DeleterEEERKT0_RKSt11_Tuple_implIXT_EJS4_DpT1_EE=so_stub_for_libv2x_radio
-Wl,--defsym=_ZSt12__get_helperILj0EPNSt13__future_base12_Result_baseEJNS1_8_DeleterEEERT0_RSt11_Tuple_implIXT_EJS4_DpT1_EE=so_stub_for_libv2x_radio
-Wl,--defsym=_ZSt12__get_helperILj0EPNSt13__future_base7_ResultI21_v2x_status_enum_typeEEJNS0_12_Result_base8_DeleterEEERKT0_RKSt11_Tuple_implIXT_EJS7_DpT1_EE=so_stub_for_libv2x_radio
-Wl,--defsym=_ZSt12__get_helperILj0EPNSt13__future_base7_ResultI21_v2x_status_enum_typeEEJNS0_12_Result_base8_DeleterEEERT0_RSt11_Tuple_implIXT_EJS7_DpT1_EE=so_stub_for_libv2x_radio
-Wl,--defsym=_ZSt12__get_helperILj0EPNSt13__future_base7_ResultIiEEJNS0_12_Result_base8_DeleterEEERKT0_RKSt11_Tuple_implIXT_EJS6_DpT1_EE=so_stub_for_libv2x_radio
-Wl,--defsym=_ZSt12__get_helperILj0EPNSt13__future_base7_ResultIiEEJNS0_12_Result_base8_DeleterEEERT0_RSt11_Tuple_implIXT_EJS6_DpT1_EE=so_stub_for_libv2x_radio
-Wl,--defsym=_ZSt12__get_helperILj0EPNSt13__future_base7_ResultIN5telux6common9ErrorCodeEEEJNS0_12_Result_base8_DeleterEEERKT0_RKSt11_Tuple_implIXT_EJS9_DpT1_EE=so_stub_for_libv2x_radio
-Wl,--defsym=_ZSt12__get_helperILj0EPNSt13__future_base7_ResultIN5telux6common9ErrorCodeEEEJNS0_12_Result_base8_DeleterEEERT0_RSt11_Tuple_implIXT_EJS9_DpT1_EE=so_stub_for_libv2x_radio
-Wl,--defsym=_ZSt12__get_helperILj0EPNSt13__future_base7_ResultISt4pairIN5telux6common9ErrorCodeES5_EEEJNS0_12_Result_base8_DeleterEEERKT0_RKSt11_Tuple_implIXT_EJSB_DpT1_EE=so_stub_for_libv2x_radio
-Wl,--defsym=_ZSt12__get_helperILj0EPNSt13__future_base7_ResultISt4pairIN5telux6common9ErrorCodeES5_EEEJNS0_12_Result_base8_DeleterEEERT0_RSt11_Tuple_implIXT_EJSB_DpT1_EE=so_stub_for_libv2x_radio
-Wl,--defsym=_ZSt12__get_helperILj0EPNSt6thread6_StateEJSt14default_deleteIS1_EEERT0_RSt11_Tuple_implIXT_EJS5_DpT1_EE=so_stub_for_libv2x_radio
-Wl,--defsym=_ZSt12__get_helperILj0ERK11v2x_event_tJEERT0_RSt11_Tuple_implIXT_EJS3_DpT1_EE=so_stub_for_libv2x_radio
-Wl,--defsym=_ZSt12__get_helperILj0ERKiJEERT0_RSt11_Tuple_implIXT_EJS2_DpT1_EE=so_stub_for_libv2x_radio
-Wl,--defsym=_ZSt12__get_helperILj0ERKjJEERT0_RSt11_Tuple_implIXT_EJS2_DpT1_EE=so_stub_for_libv2x_radio
-Wl,--defsym=_ZSt12__get_helperILj0ERKN5telux4cv2x14Cv2xStatusTypeEJEERT0_RSt11_Tuple_implIXT_EJS5_DpT1_EE=so_stub_for_libv2x_radio
-Wl,--defsym=_ZSt12__get_helperILj1ENSt13__future_base12_Result_base8_DeleterEJEERT0_RSt11_Tuple_implIXT_EJS3_DpT1_EE=so_stub_for_libv2x_radio
-Wl,--defsym=_ZSt12__get_helperILj1ESt14default_deleteINSt6thread6_StateEEJEERT0_RSt11_Tuple_implIXT_EJS4_DpT1_EE=so_stub_for_libv2x_radio
-Wl,--defsym=_ZSt12__miter_baseIN9__gnu_cxx17__normal_iteratorIPKjSt6vectorIjSaIjEEEEET_S8_=so_stub_for_libv2x_radio
-Wl,--defsym=_ZSt12__miter_baseIN9__gnu_cxx17__normal_iteratorIPKN5telux4cv2x12TxPoolIdInfoESt6vectorIS4_SaIS4_EEEEET_SB_=so_stub_for_libv2x_radio
-Wl,--defsym=_ZSt12__miter_baseIN9__gnu_cxx17__normal_iteratorIPKN5telux4cv2x14Cv2xPoolStatusESt6vectorIS4_SaIS4_EEEEET_SB_=so_stub_for_libv2x_radio
-Wl,--defsym=_ZSt12__miter_baseIN9__gnu_cxx17__normal_iteratorIPKySt6vectorIySaIyEEEEET_S8_=so_stub_for_libv2x_radio
-Wl,--defsym=_ZSt12__miter_baseIPjEDTcl12__miter_basecldtfp_4baseEEESt13move_iteratorIT_E=so_stub_for_libv2x_radio
-Wl,--defsym=_ZSt12__miter_baseIPjET_S1_=so_stub_for_libv2x_radio
-Wl,--defsym=_ZSt12__miter_baseIPN5telux4cv2x12TxPoolIdInfoEET_S4_=so_stub_for_libv2x_radio
-Wl,--defsym=_ZSt12__miter_baseIPN5telux4cv2x13TrustedUEInfoEEDTcl12__miter_basecldtfp_4baseEEESt13move_iteratorIT_E=so_stub_for_libv2x_radio
-Wl,--defsym=_ZSt12__miter_baseIPN5telux4cv2x13TrustedUEInfoEET_S4_=so_stub_for_libv2x_radio
-Wl,--defsym=_ZSt12__miter_baseIPN5telux4cv2x14Cv2xPoolStatusEET_S4_=so_stub_for_libv2x_radio
-Wl,--defsym=_ZSt12__miter_baseIPyET_S1_=so_stub_for_libv2x_radio
-Wl,--defsym=_ZSt12__niter_baseIPjET_S1_=so_stub_for_libv2x_radio
-Wl,--defsym=_ZSt12__niter_baseIPKjSt6vectorIjSaIjEEET_N9__gnu_cxx17__normal_iteratorIS5_T0_EE=so_stub_for_libv2x_radio
-Wl,--defsym=_ZSt12__niter_baseIPKN5telux4cv2x12TxPoolIdInfoESt6vectorIS2_SaIS2_EEET_N9__gnu_cxx17__normal_iteratorIS8_T0_EE=so_stub_for_libv2x_radio
-Wl,--defsym=_ZSt12__niter_baseIPKN5telux4cv2x14Cv2xPoolStatusESt6vectorIS2_SaIS2_EEET_N9__gnu_cxx17__normal_iteratorIS8_T0_EE=so_stub_for_libv2x_radio
-Wl,--defsym=_ZSt12__niter_baseIPKySt6vectorIySaIyEEET_N9__gnu_cxx17__normal_iteratorIS5_T0_EE=so_stub_for_libv2x_radio
-Wl,--defsym=_ZSt12__niter_baseIPN5telux4cv2x12TxPoolIdInfoEET_S4_=so_stub_for_libv2x_radio
-Wl,--defsym=_ZSt12__niter_baseIPN5telux4cv2x12TxPoolIdInfoESt6vectorIS2_SaIS2_EEET_N9__gnu_cxx17__normal_iteratorIS7_T0_EE=so_stub_for_libv2x_radio
-Wl,--defsym=_ZSt12__niter_baseIPN5telux4cv2x13TrustedUEInfoEET_S4_=so_stub_for_libv2x_radio
-Wl,--defsym=_ZSt12__niter_baseIPN5telux4cv2x14Cv2xPoolStatusEET_S4_=so_stub_for_libv2x_radio
-Wl,--defsym=_ZSt12__niter_baseIPN5telux4cv2x14Cv2xPoolStatusESt6vectorIS2_SaIS2_EEET_N9__gnu_cxx17__normal_iteratorIS7_T0_EE=so_stub_for_libv2x_radio
-Wl,--defsym=_ZSt12__niter_baseIPyET_S1_=so_stub_for_libv2x_radio
-Wl,--defsym=_ZSt12__niter_baseIPySt6vectorIySaIyEEET_N9__gnu_cxx17__normal_iteratorIS4_T0_EE=so_stub_for_libv2x_radio
-Wl,--defsym=_ZSt12__to_addressISt23_Sp_counted_ptr_inplaceI12Cv2xListenerSaIS1_ELN9__gnu_cxx12_Lock_policyE2EEEPT_S7_=so_stub_for_libv2x_radio
-Wl,--defsym=_ZSt12__to_addressISt23_Sp_counted_ptr_inplaceI13RadioListenerSaIS1_ELN9__gnu_cxx12_Lock_policyE2EEEPT_S7_=so_stub_for_libv2x_radio
-Wl,--defsym=_ZSt12__to_addressISt23_Sp_counted_ptr_inplaceI14ConfigListenerSaIS1_ELN9__gnu_cxx12_Lock_policyE2EEEPT_S7_=so_stub_for_libv2x_radio
-Wl,--defsym=_ZSt12__to_addressISt23_Sp_counted_ptr_inplaceINSt13__future_base13_State_baseV2ESaIS2_ELN9__gnu_cxx12_Lock_policyE2EEEPT_S8_=so_stub_for_libv2x_radio
-Wl,--defsym=_ZSt12__to_addressISt23_Sp_counted_ptr_inplaceISt6vectorIjSaIjEESaIS3_ELN9__gnu_cxx12_Lock_policyE2EEEPT_S9_=so_stub_for_libv2x_radio
-Wl,--defsym=_ZSt13__copy_move_aILb0EPKjPjET1_T0_S4_S3_=so_stub_for_libv2x_radio
-Wl,--defsym=_ZSt13__copy_move_aILb0EPKN5telux4cv2x12TxPoolIdInfoEPS2_ET1_T0_S7_S6_=so_stub_for_libv2x_radio
-Wl,--defsym=_ZSt13__copy_move_aILb0EPKN5telux4cv2x14Cv2xPoolStatusEPS2_ET1_T0_S7_S6_=so_stub_for_libv2x_radio
-Wl,--defsym=_ZSt13__copy_move_aILb0EPKyPyET1_T0_S4_S3_=so_stub_for_libv2x_radio
-Wl,--defsym=_ZSt13__copy_move_aILb0EPN5telux4cv2x12TxPoolIdInfoES3_ET1_T0_S5_S4_=so_stub_for_libv2x_radio
-Wl,--defsym=_ZSt13__copy_move_aILb0EPN5telux4cv2x14Cv2xPoolStatusES3_ET1_T0_S5_S4_=so_stub_for_libv2x_radio
-Wl,--defsym=_ZSt13__copy_move_aILb0EPyS0_ET1_T0_S2_S1_=so_stub_for_libv2x_radio
-Wl,--defsym=_ZSt13__copy_move_aILb1EPjS0_ET1_T0_S2_S1_=so_stub_for_libv2x_radio
-Wl,--defsym=_ZSt13__copy_move_aILb1EPN5telux4cv2x13TrustedUEInfoES3_ET1_T0_S5_S4_=so_stub_for_libv2x_radio
-Wl,--defsym=_ZSt13__invoke_implIvMNSt13__future_base13_State_baseV2EFvPSt8functionIFSt10unique_ptrINS0_12_Result_baseENS4_8_DeleterEEvEEPbEPS1_JS9_SA_EET_St21__invoke_memfun_derefOT0_OT1_DpOT2_=so_stub_for_libv2x_radio
-Wl,--defsym=_ZSt13__invoke_implIvMSt6threadFvvEPS0_JEET_St21__invoke_memfun_derefOT0_OT1_DpOT2_=so_stub_for_libv2x_radio
-Wl,--defsym=_ZSt14__copy_move_a2ILb0EN9__gnu_cxx17__normal_iteratorIPKjSt6vectorIjSaIjEEEEPjET1_T0_SA_S9_=so_stub_for_libv2x_radio
-Wl,--defsym=_ZSt14__copy_move_a2ILb0EN9__gnu_cxx17__normal_iteratorIPKN5telux4cv2x12TxPoolIdInfoESt6vectorIS4_SaIS4_EEEENS1_IPS4_S9_EEET1_T0_SE_SD_=so_stub_for_libv2x_radio
-Wl,--defsym=_ZSt14__copy_move_a2ILb0EN9__gnu_cxx17__normal_iteratorIPKN5telux4cv2x12TxPoolIdInfoESt6vectorIS4_SaIS4_EEEEPS4_ET1_T0_SD_SC_=so_stub_for_libv2x_radio
-Wl,--defsym=_ZSt14__copy_move_a2ILb0EN9__gnu_cxx17__normal_iteratorIPKN5telux4cv2x14Cv2xPoolStatusESt6vectorIS4_SaIS4_EEEENS1_IPS4_S9_EEET1_T0_SE_SD_=so_stub_for_libv2x_radio
-Wl,--defsym=_ZSt14__copy_move_a2ILb0EN9__gnu_cxx17__normal_iteratorIPKySt6vectorIySaIyEEEENS1_IPyS6_EEET1_T0_SB_SA_=so_stub_for_libv2x_radio
-Wl,--defsym=_ZSt14__copy_move_a2ILb0EN9__gnu_cxx17__normal_iteratorIPKySt6vectorIySaIyEEEEPyET1_T0_SA_S9_=so_stub_for_libv2x_radio
-Wl,--defsym=_ZSt14__copy_move_a2ILb0EPN5telux4cv2x12TxPoolIdInfoES3_ET1_T0_S5_S4_=so_stub_for_libv2x_radio
-Wl,--defsym=_ZSt14__copy_move_a2ILb0EPN5telux4cv2x14Cv2xPoolStatusES3_ET1_T0_S5_S4_=so_stub_for_libv2x_radio
-Wl,--defsym=_ZSt14__copy_move_a2ILb0EPyS0_ET1_T0_S2_S1_=so_stub_for_libv2x_radio
-Wl,--defsym=_ZSt14__copy_move_a2ILb1EPjS0_ET1_T0_S2_S1_=so_stub_for_libv2x_radio
-Wl,--defsym=_ZSt14__copy_move_a2ILb1EPN5telux4cv2x13TrustedUEInfoES3_ET1_T0_S5_S4_=so_stub_for_libv2x_radio
-Wl,--defsym=_ZSt15allocate_sharedI12Cv2xListenerSaIS0_EJEESt10shared_ptrIT_ERKT0_DpOT1_=so_stub_for_libv2x_radio
-Wl,--defsym=_ZSt15allocate_sharedI13RadioListenerSaIS0_EJEESt10shared_ptrIT_ERKT0_DpOT1_=so_stub_for_libv2x_radio
-Wl,--defsym=_ZSt15allocate_sharedI14ConfigListenerSaIS0_EJEESt10shared_ptrIT_ERKT0_DpOT1_=so_stub_for_libv2x_radio
-Wl,--defsym=_ZSt15allocate_sharedINSt13__future_base13_State_baseV2ESaIS1_EJEESt10shared_ptrIT_ERKT0_DpOT1_=so_stub_for_libv2x_radio
-Wl,--defsym=_ZSt15allocate_sharedISt6vectorIjSaIjEESaIS2_EJRS2_EESt10shared_ptrIT_ERKT0_DpOT1_=so_stub_for_libv2x_radio
-Wl,--defsym=_ZSt15__alloc_on_copyISaIN5telux4cv2x12TxPoolIdInfoEEEvRT_RKS4_=so_stub_for_libv2x_radio
-Wl,--defsym=_ZSt15__alloc_on_copyISaIN5telux4cv2x14Cv2xPoolStatusEEEvRT_RKS4_=so_stub_for_libv2x_radio
-Wl,--defsym=_ZSt15__alloc_on_copyISaIyEEvRT_RKS1_=so_stub_for_libv2x_radio
-Wl,--defsym=_ZSt15make_error_codeSt11future_errc=so_stub_for_libv2x_radio
-Wl,--defsym=_ZSt18__allocate_guardedISaISt23_Sp_counted_ptr_inplaceI12Cv2xListenerSaIS1_ELN9__gnu_cxx12_Lock_policyE2EEEESt15__allocated_ptrIT_ERS8_=so_stub_for_libv2x_radio
-Wl,--defsym=_ZSt18__allocate_guardedISaISt23_Sp_counted_ptr_inplaceI13RadioListenerSaIS1_ELN9__gnu_cxx12_Lock_policyE2EEEESt15__allocated_ptrIT_ERS8_=so_stub_for_libv2x_radio
-Wl,--defsym=_ZSt18__allocate_guardedISaISt23_Sp_counted_ptr_inplaceI14ConfigListenerSaIS1_ELN9__gnu_cxx12_Lock_policyE2EEEESt15__allocated_ptrIT_ERS8_=so_stub_for_libv2x_radio
-Wl,--defsym=_ZSt18__allocate_guardedISaISt23_Sp_counted_ptr_inplaceINSt13__future_base13_State_baseV2ESaIS2_ELN9__gnu_cxx12_Lock_policyE2EEEESt15__allocated_ptrIT_ERS9_=so_stub_for_libv2x_radio
-Wl,--defsym=_ZSt18__allocate_guardedISaISt23_Sp_counted_ptr_inplaceISt6vectorIjSaIjEESaIS3_ELN9__gnu_cxx12_Lock_policyE2EEEESt15__allocated_ptrIT_ERSA_=so_stub_for_libv2x_radio
-Wl,--defsym=_ZSt18__do_alloc_on_copyISaIN5telux4cv2x12TxPoolIdInfoEEEvRT_RKS4_St17integral_constantIbLb0EE=so_stub_for_libv2x_radio
-Wl,--defsym=_ZSt18__do_alloc_on_copyISaIN5telux4cv2x14Cv2xPoolStatusEEEvRT_RKS4_St17integral_constantIbLb0EE=so_stub_for_libv2x_radio
-Wl,--defsym=_ZSt18__do_alloc_on_copyISaIyEEvRT_RKS1_St17integral_constantIbLb0EE=so_stub_for_libv2x_radio
-Wl,--defsym=_ZSt18make_exception_ptrISt12future_errorENSt15__exception_ptr13exception_ptrET_=so_stub_for_libv2x_radio
-Wl,--defsym=_ZSt18uninitialized_copyIN9__gnu_cxx17__normal_iteratorIPKjSt6vectorIjSaIjEEEEPjET0_T_SA_S9_=so_stub_for_libv2x_radio
-Wl,--defsym=_ZSt18uninitialized_copyIN9__gnu_cxx17__normal_iteratorIPKN5telux4cv2x12TxPoolIdInfoESt6vectorIS4_SaIS4_EEEEPS4_ET0_T_SD_SC_=so_stub_for_libv2x_radio
-Wl,--defsym=_ZSt18uninitialized_copyIN9__gnu_cxx17__normal_iteratorIPKN5telux4cv2x14Cv2xPoolStatusESt6vectorIS4_SaIS4_EEEEPS4_ET0_T_SD_SC_=so_stub_for_libv2x_radio
-Wl,--defsym=_ZSt18uninitialized_copyIN9__gnu_cxx17__normal_iteratorIPKySt6vectorIySaIyEEEEPyET0_T_SA_S9_=so_stub_for_libv2x_radio
-Wl,--defsym=_ZSt18uninitialized_copyIPN5telux4cv2x12TxPoolIdInfoES3_ET0_T_S5_S4_=so_stub_for_libv2x_radio
-Wl,--defsym=_ZSt18uninitialized_copyIPN5telux4cv2x14Cv2xPoolStatusES3_ET0_T_S5_S4_=so_stub_for_libv2x_radio
-Wl,--defsym=_ZSt18uninitialized_copyIPyS0_ET0_T_S2_S1_=so_stub_for_libv2x_radio
-Wl,--defsym=_ZSt18uninitialized_copyISt13move_iteratorIPjES1_ET0_T_S4_S3_=so_stub_for_libv2x_radio
-Wl,--defsym=_ZSt18uninitialized_copyISt13move_iteratorIPN5telux4cv2x13TrustedUEInfoEES4_ET0_T_S7_S6_=so_stub_for_libv2x_radio
-Wl,--defsym=_ZSt20make_error_conditionSt4errc=so_stub_for_libv2x_radio
-Wl,--defsym=_ZSt22__uninitialized_copy_aIN9__gnu_cxx17__normal_iteratorIPKjSt6vectorIjSaIjEEEEPjjET0_T_SA_S9_RSaIT1_E=so_stub_for_libv2x_radio
-Wl,--defsym=_ZSt22__uninitialized_copy_aIN9__gnu_cxx17__normal_iteratorIPKN5telux4cv2x12TxPoolIdInfoESt6vectorIS4_SaIS4_EEEEPS4_S4_ET0_T_SD_SC_RSaIT1_E=so_stub_for_libv2x_radio
-Wl,--defsym=_ZSt22__uninitialized_copy_aIN9__gnu_cxx17__normal_iteratorIPKN5telux4cv2x14Cv2xPoolStatusESt6vectorIS4_SaIS4_EEEEPS4_S4_ET0_T_SD_SC_RSaIT1_E=so_stub_for_libv2x_radio
-Wl,--defsym=_ZSt22__uninitialized_copy_aIN9__gnu_cxx17__normal_iteratorIPKySt6vectorIySaIyEEEEPyyET0_T_SA_S9_RSaIT1_E=so_stub_for_libv2x_radio
-Wl,--defsym=_ZSt22__uninitialized_copy_aIPN5telux4cv2x12TxPoolIdInfoES3_S2_ET0_T_S5_S4_RSaIT1_E=so_stub_for_libv2x_radio
-Wl,--defsym=_ZSt22__uninitialized_copy_aIPN5telux4cv2x14Cv2xPoolStatusES3_S2_ET0_T_S5_S4_RSaIT1_E=so_stub_for_libv2x_radio
-Wl,--defsym=_ZSt22__uninitialized_copy_aIPyS0_yET0_T_S2_S1_RSaIT1_E=so_stub_for_libv2x_radio
-Wl,--defsym=_ZSt22__uninitialized_copy_aISt13move_iteratorIPjES1_jET0_T_S4_S3_RSaIT1_E=so_stub_for_libv2x_radio
-Wl,--defsym=_ZSt22__uninitialized_copy_aISt13move_iteratorIPN5telux4cv2x13TrustedUEInfoEES4_S3_ET0_T_S7_S6_RSaIT1_E=so_stub_for_libv2x_radio
-Wl,--defsym=_ZSt32__make_move_if_noexcept_iteratorIjSt13move_iteratorIPjEET0_PT_=so_stub_for_libv2x_radio
-Wl,--defsym=_ZSt32__make_move_if_noexcept_iteratorIN5telux4cv2x13TrustedUEInfoESt13move_iteratorIPS2_EET0_PT_=so_stub_for_libv2x_radio
-Wl,--defsym=_ZSt34__uninitialized_move_if_noexcept_aIPjS0_SaIjEET0_T_S3_S2_RT1_=so_stub_for_libv2x_radio
-Wl,--defsym=_ZSt34__uninitialized_move_if_noexcept_aIPN5telux4cv2x13TrustedUEInfoES3_SaIS2_EET0_T_S6_S5_RT1_=so_stub_for_libv2x_radio
-Wl,--defsym=_ZSt3getILj0EJPNSt13__future_base12_Result_baseENS1_8_DeleterEEERKNSt13tuple_elementIXT_ESt5tupleIJDpT0_EEE4typeERKS8_=so_stub_for_libv2x_radio
-Wl,--defsym=_ZSt3getILj0EJPNSt13__future_base12_Result_baseENS1_8_DeleterEEERNSt13tuple_elementIXT_ESt5tupleIJDpT0_EEE4typeERS8_=so_stub_for_libv2x_radio
-Wl,--defsym=_ZSt3getILj0EJPNSt13__future_base7_ResultI21_v2x_status_enum_typeEENS0_12_Result_base8_DeleterEEERKNSt13tuple_elementIXT_ESt5tupleIJDpT0_EEE4typeERKSB_=so_stub_for_libv2x_radio
-Wl,--defsym=_ZSt3getILj0EJPNSt13__future_base7_ResultI21_v2x_status_enum_typeEENS0_12_Result_base8_DeleterEEERNSt13tuple_elementIXT_ESt5tupleIJDpT0_EEE4typeERSB_=so_stub_for_libv2x_radio
-Wl,--defsym=_ZSt3getILj0EJPNSt13__future_base7_ResultIiEENS0_12_Result_base8_DeleterEEERKNSt13tuple_elementIXT_ESt5tupleIJDpT0_EEE4typeERKSA_=so_stub_for_libv2x_radio
-Wl,--defsym=_ZSt3getILj0EJPNSt13__future_base7_ResultIiEENS0_12_Result_base8_DeleterEEERNSt13tuple_elementIXT_ESt5tupleIJDpT0_EEE4typeERSA_=so_stub_for_libv2x_radio
-Wl,--defsym=_ZSt3getILj0EJPNSt13__future_base7_ResultIN5telux6common9ErrorCodeEEENS0_12_Result_base8_DeleterEEERKNSt13tuple_elementIXT_ESt5tupleIJDpT0_EEE4typeERKSD_=so_stub_for_libv2x_radio
-Wl,--defsym=_ZSt3getILj0EJPNSt13__future_base7_ResultIN5telux6common9ErrorCodeEEENS0_12_Result_base8_DeleterEEERNSt13tuple_elementIXT_ESt5tupleIJDpT0_EEE4typeERSD_=so_stub_for_libv2x_radio
-Wl,--defsym=_ZSt3getILj0EJPNSt13__future_base7_ResultISt4pairIN5telux6common9ErrorCodeES5_EEENS0_12_Result_base8_DeleterEEERKNSt13tuple_elementIXT_ESt5tupleIJDpT0_EEE4typeERKSF_=so_stub_for_libv2x_radio
-Wl,--defsym=_ZSt3getILj0EJPNSt13__future_base7_ResultISt4pairIN5telux6common9ErrorCodeES5_EEENS0_12_Result_base8_DeleterEEERNSt13tuple_elementIXT_ESt5tupleIJDpT0_EEE4typeERSF_=so_stub_for_libv2x_radio
-Wl,--defsym=_ZSt3getILj0EJPNSt6thread6_StateESt14default_deleteIS1_EEERNSt13tuple_elementIXT_ESt5tupleIJDpT0_EEE4typeERS9_=so_stub_for_libv2x_radio
-Wl,--defsym=_ZSt3getILj0EJRK11v2x_event_tEERNSt13tuple_elementIXT_ESt5tupleIJDpT0_EEE4typeERS7_=so_stub_for_libv2x_radio
-Wl,--defsym=_ZSt3getILj0EJRKiEERNSt13tuple_elementIXT_ESt5tupleIJDpT0_EEE4typeERS6_=so_stub_for_libv2x_radio
-Wl,--defsym=_ZSt3getILj0EJRKjEERNSt13tuple_elementIXT_ESt5tupleIJDpT0_EEE4typeERS6_=so_stub_for_libv2x_radio
-Wl,--defsym=_ZSt3getILj0EJRKN5telux4cv2x14Cv2xStatusTypeEEERNSt13tuple_elementIXT_ESt5tupleIJDpT0_EEE4typeERS9_=so_stub_for_libv2x_radio
-Wl,--defsym=_ZSt3getILj1EJPNSt13__future_base12_Result_baseENS1_8_DeleterEEERNSt13tuple_elementIXT_ESt5tupleIJDpT0_EEE4typeERS8_=so_stub_for_libv2x_radio
-Wl,--defsym=_ZSt3getILj1EJPNSt13__future_base7_ResultI21_v2x_status_enum_typeEENS0_12_Result_base8_DeleterEEERNSt13tuple_elementIXT_ESt5tupleIJDpT0_EEE4typeERSB_=so_stub_for_libv2x_radio
-Wl,--defsym=_ZSt3getILj1EJPNSt13__future_base7_ResultIiEENS0_12_Result_base8_DeleterEEERNSt13tuple_elementIXT_ESt5tupleIJDpT0_EEE4typeERSA_=so_stub_for_libv2x_radio
-Wl,--defsym=_ZSt3getILj1EJPNSt13__future_base7_ResultIN5telux6common9ErrorCodeEEENS0_12_Result_base8_DeleterEEERNSt13tuple_elementIXT_ESt5tupleIJDpT0_EEE4typeERSD_=so_stub_for_libv2x_radio
-Wl,--defsym=_ZSt3getILj1EJPNSt13__future_base7_ResultISt4pairIN5telux6common9ErrorCodeES5_EEENS0_12_Result_base8_DeleterEEERNSt13tuple_elementIXT_ESt5tupleIJDpT0_EEE4typeERSF_=so_stub_for_libv2x_radio
-Wl,--defsym=_ZSt3getILj1EJPNSt6thread6_StateESt14default_deleteIS1_EEERNSt13tuple_elementIXT_ESt5tupleIJDpT0_EEE4typeERS9_=so_stub_for_libv2x_radio
-Wl,--defsym=_ZSt3maxIjERKT_S2_S2_=so_stub_for_libv2x_radio
-Wl,--defsym=_ZSt4copyIN9__gnu_cxx17__normal_iteratorIPKjSt6vectorIjSaIjEEEEPjET0_T_SA_S9_=so_stub_for_libv2x_radio
-Wl,--defsym=_ZSt4copyIN9__gnu_cxx17__normal_iteratorIPKN5telux4cv2x12TxPoolIdInfoESt6vectorIS4_SaIS4_EEEENS1_IPS4_S9_EEET0_T_SE_SD_=so_stub_for_libv2x_radio
-Wl,--defsym=_ZSt4copyIN9__gnu_cxx17__normal_iteratorIPKN5telux4cv2x12TxPoolIdInfoESt6vectorIS4_SaIS4_EEEEPS4_ET0_T_SD_SC_=so_stub_for_libv2x_radio
-Wl,--defsym=_ZSt4copyIN9__gnu_cxx17__normal_iteratorIPKN5telux4cv2x14Cv2xPoolStatusESt6vectorIS4_SaIS4_EEEENS1_IPS4_S9_EEET0_T_SE_SD_=so_stub_for_libv2x_radio
-Wl,--defsym=_ZSt4copyIN9__gnu_cxx17__normal_iteratorIPKySt6vectorIySaIyEEEENS1_IPyS6_EEET0_T_SB_SA_=so_stub_for_libv2x_radio
-Wl,--defsym=_ZSt4copyIN9__gnu_cxx17__normal_iteratorIPKySt6vectorIySaIyEEEEPyET0_T_SA_S9_=so_stub_for_libv2x_radio
-Wl,--defsym=_ZSt4copyIPN5telux4cv2x12TxPoolIdInfoES3_ET0_T_S5_S4_=so_stub_for_libv2x_radio
-Wl,--defsym=_ZSt4copyIPN5telux4cv2x14Cv2xPoolStatusES3_ET0_T_S5_S4_=so_stub_for_libv2x_radio
-Wl,--defsym=_ZSt4copyIPyS0_ET0_T_S2_S1_=so_stub_for_libv2x_radio
-Wl,--defsym=_ZSt4copyISt13move_iteratorIPjES1_ET0_T_S4_S3_=so_stub_for_libv2x_radio
-Wl,--defsym=_ZSt4copyISt13move_iteratorIPN5telux4cv2x13TrustedUEInfoEES4_ET0_T_S7_S6_=so_stub_for_libv2x_radio
-Wl,--defsym=_ZSt4moveIR21_v2x_status_enum_typeEONSt16remove_referenceIT_E4typeEOS3_=so_stub_for_libv2x_radio
-Wl,--defsym=_ZSt4moveIRbEONSt16remove_referenceIT_E4typeEOS2_=so_stub_for_libv2x_radio
-Wl,--defsym=_ZSt4moveIRiEONSt16remove_referenceIT_E4typeEOS2_=so_stub_for_libv2x_radio
-Wl,--defsym=_ZSt4moveIRKSaI12Cv2xListenerEEONSt16remove_referenceIT_E4typeEOS5_=so_stub_for_libv2x_radio
-Wl,--defsym=_ZSt4moveIRKSaI13RadioListenerEEONSt16remove_referenceIT_E4typeEOS5_=so_stub_for_libv2x_radio
-Wl,--defsym=_ZSt4moveIRKSaI14ConfigListenerEEONSt16remove_referenceIT_E4typeEOS5_=so_stub_for_libv2x_radio
-Wl,--defsym=_ZSt4moveIRKSaINSt13__future_base13_State_baseV2EEEONSt16remove_referenceIT_E4typeEOS6_=so_stub_for_libv2x_radio
-Wl,--defsym=_ZSt4moveIRKSaISt6vectorIjSaIjEEEEONSt16remove_referenceIT_E4typeEOS7_=so_stub_for_libv2x_radio
-Wl,--defsym=_ZSt4moveIRN5telux6common6StatusEEONSt16remove_referenceIT_E4typeEOS5_=so_stub_for_libv2x_radio
-Wl,--defsym=_ZSt4moveIRN5telux6common9ErrorCodeEEONSt16remove_referenceIT_E4typeEOS5_=so_stub_for_libv2x_radio
-Wl,--defsym=_ZSt4moveIRNSt13__future_base13_State_baseV27_SetterIiOiEEEONSt16remove_referenceIT_E4typeEOS7_=so_stub_for_libv2x_radio
-Wl,--defsym=_ZSt4moveIRNSt13__future_base13_State_baseV27_SetterIN5telux6common9ErrorCodeERKS5_EEEONSt16remove_referenceIT_E4typeEOSB_=so_stub_for_libv2x_radio
-Wl,--defsym=_ZSt4moveIRNSt13__future_base13_State_baseV27_SetterISt4pairIN5telux6common9ErrorCodeES6_EOS7_EEEONSt16remove_referenceIT_E4typeEOSC_=so_stub_for_libv2x_radio
-Wl,--defsym=_ZSt4moveIRNSt6thread2idEEONSt16remove_referenceIT_E4typeEOS4_=so_stub_for_libv2x_radio
-Wl,--defsym=_ZSt4moveIRNSt7__cxx1112basic_stringIcSt11char_traitsIcESaIcEEEEONSt16remove_referenceIT_E4typeEOS8_=so_stub_for_libv2x_radio
-Wl,--defsym=_ZSt4moveIRPFvSt10shared_ptrIN5telux4cv2x11ICv2xTxFlowEENS1_6common9ErrorCodeEEEONSt16remove_referenceIT_E4typeEOSB_=so_stub_for_libv2x_radio
-Wl,--defsym=_ZSt4moveIRPN5telux4cv2x10ICv2xRadioEEONSt16remove_referenceIT_E4typeEOS6_=so_stub_for_libv2x_radio
-Wl,--defsym=_ZSt4moveIRPN5telux4cv2x13ICv2xListenerEEONSt16remove_referenceIT_E4typeEOS6_=so_stub_for_libv2x_radio
-Wl,--defsym=_ZSt4moveIRPN5telux4cv2x14Cv2xPoolStatusEEONSt16remove_referenceIT_E4typeEOS6_=so_stub_for_libv2x_radio
-Wl,--defsym=_ZSt4moveIRPN5telux4cv2x17ICv2xRadioManagerEEONSt16remove_referenceIT_E4typeEOS6_=so_stub_for_libv2x_radio
-Wl,--defsym=_ZSt4moveIRPN5telux4cv2x18ICv2xRadioListenerEEONSt16remove_referenceIT_E4typeEOS6_=so_stub_for_libv2x_radio
-Wl,--defsym=_ZSt4moveIRPN5telux4cv2x19ICv2xConfigListenerEEONSt16remove_referenceIT_E4typeEOS6_=so_stub_for_libv2x_radio
-Wl,--defsym=_ZSt4moveIRPNSt13__future_base13_State_baseV2EEONSt16remove_referenceIT_E4typeEOS5_=so_stub_for_libv2x_radio
-Wl,--defsym=_ZSt4moveIRSaIN5telux4cv2x14Cv2xPoolStatusEEEONSt16remove_referenceIT_E4typeEOS6_=so_stub_for_libv2x_radio
-Wl,--defsym=_ZSt4moveIRSaISt13_Rb_tree_nodeISt4pairIK11v2x_event_tNSt7__cxx1112basic_stringIcSt11char_traitsIcESaIcEEEEEEEONSt16remove_referenceIT_E4typeEOSF_=so_stub_for_libv2x_radio
-Wl,--defsym=_ZSt4moveIRSaISt13_Rb_tree_nodeISt4pairIKN5telux4cv2x14Cv2xStatusTypeENSt7__cxx1112basic_stringIcSt11char_traitsIcESaIcEEEEEEEONSt16remove_referenceIT_E4typeEOSH_=so_stub_for_libv2x_radio
-Wl,--defsym=_ZSt4moveIRSt10shared_ptrI12Cv2xListenerEEONSt16remove_referenceIT_E4typeEOS5_=so_stub_for_libv2x_radio
-Wl,--defsym=_ZSt4moveIRSt10shared_ptrI13RadioListenerEEONSt16remove_referenceIT_E4typeEOS5_=so_stub_for_libv2x_radio
-Wl,--defsym=_ZSt4moveIRSt10shared_ptrI14ConfigListenerEEONSt16remove_referenceIT_E4typeEOS5_=so_stub_for_libv2x_radio
-Wl,--defsym=_ZSt4moveIRSt10shared_ptrIN5telux4cv2x10ICv2xRadioEEEONSt16remove_referenceIT_E4typeEOS7_=so_stub_for_libv2x_radio
-Wl,--defsym=_ZSt4moveIRSt10shared_ptrIN5telux4cv2x11ICv2xTxFlowEEEONSt16remove_referenceIT_E4typeEOS7_=so_stub_for_libv2x_radio
-Wl,--defsym=_ZSt4moveIRSt10shared_ptrIN5telux4cv2x15ICv2xTxRxSocketEEEONSt16remove_referenceIT_E4typeEOS7_=so_stub_for_libv2x_radio
-Wl,--defsym=_ZSt4moveIRSt10shared_ptrIN5telux4cv2x17ICv2xRadioManagerEEEONSt16remove_referenceIT_E4typeEOS7_=so_stub_for_libv2x_radio
-Wl,--defsym=_ZSt4moveIRSt10shared_ptrIN5telux4cv2x19ICv2xRxSubscriptionEEEONSt16remove_referenceIT_E4typeEOS7_=so_stub_for_libv2x_radio
-Wl,--defsym=_ZSt4moveIRSt10shared_ptrINSt13__future_base13_State_baseV2EEEONSt16remove_referenceIT_E4typeEOS6_=so_stub_for_libv2x_radio
-Wl,--defsym=_ZSt4moveIRSt10unique_ptrINSt13__future_base7_ResultI21_v2x_status_enum_typeEENS1_12_Result_base8_DeleterEEEONSt16remove_referenceIT_E4typeEOSA_=so_stub_for_libv2x_radio
-Wl,--defsym=_ZSt4moveIRSt10unique_ptrINSt13__future_base7_ResultIiEENS1_12_Result_base8_DeleterEEEONSt16remove_referenceIT_E4typeEOS9_=so_stub_for_libv2x_radio
-Wl,--defsym=_ZSt4moveIRSt10unique_ptrINSt13__future_base7_ResultIN5telux6common9ErrorCodeEEENS1_12_Result_base8_DeleterEEEONSt16remove_referenceIT_E4typeEOSC_=so_stub_for_libv2x_radio
-Wl,--defsym=_ZSt4moveIRSt10unique_ptrINSt13__future_base7_ResultISt4pairIN5telux6common9ErrorCodeES6_EEENS1_12_Result_base8_DeleterEEEONSt16remove_referenceIT_E4typeEOSE_=so_stub_for_libv2x_radio
-Wl,--defsym=_ZSt4moveIRSt11_Tuple_implILj1EJNSt13__future_base12_Result_base8_DeleterEEEEONSt16remove_referenceIT_E4typeEOS7_=so_stub_for_libv2x_radio
-Wl,--defsym=_ZSt4moveIRSt12__shared_ptrI12Cv2xListenerLN9__gnu_cxx12_Lock_policyE2EEEONSt16remove_referenceIT_E4typeEOS7_=so_stub_for_libv2x_radio
-Wl,--defsym=_ZSt4moveIRSt12__shared_ptrI13RadioListenerLN9__gnu_cxx12_Lock_policyE2EEEONSt16remove_referenceIT_E4typeEOS7_=so_stub_for_libv2x_radio
-Wl,--defsym=_ZSt4moveIRSt12__shared_ptrI14ConfigListenerLN9__gnu_cxx12_Lock_policyE2EEEONSt16remove_referenceIT_E4typeEOS7_=so_stub_for_libv2x_radio
-Wl,--defsym=_ZSt4moveIRSt12__shared_ptrIN5telux4cv2x10ICv2xRadioELN9__gnu_cxx12_Lock_policyE2EEEONSt16remove_referenceIT_E4typeEOS9_=so_stub_for_libv2x_radio
-Wl,--defsym=_ZSt4moveIRSt12__shared_ptrIN5telux4cv2x17ICv2xRadioManagerELN9__gnu_cxx12_Lock_policyE2EEEONSt16remove_referenceIT_E4typeEOS9_=so_stub_for_libv2x_radio
-Wl,--defsym=_ZSt4moveIRSt12__shared_ptrINSt13__future_base13_State_baseV2ELN9__gnu_cxx12_Lock_policyE2EEEONSt16remove_referenceIT_E4typeEOS8_=so_stub_for_libv2x_radio
-Wl,--defsym=_ZSt4moveIRSt15__uniq_ptr_implINSt13__future_base12_Result_baseENS2_8_DeleterEEEONSt16remove_referenceIT_E4typeEOS7_=so_stub_for_libv2x_radio
-Wl,--defsym=_ZSt4moveIRSt4pairIN5telux6common9ErrorCodeES3_EEONSt16remove_referenceIT_E4typeEOS7_=so_stub_for_libv2x_radio
-Wl,--defsym=_ZSt4moveIRSt5tupleIJPNSt13__future_base12_Result_baseENS2_8_DeleterEEEEONSt16remove_referenceIT_E4typeEOS8_=so_stub_for_libv2x_radio
-Wl,--defsym=_ZSt4moveIRSt6vectorIN5telux4cv2x14Cv2xPoolStatusESaIS3_EEEONSt16remove_referenceIT_E4typeEOS8_=so_stub_for_libv2x_radio
-Wl,--defsym=_ZSt4swapINSt6thread2idEENSt9enable_ifIXsrSt6__and_IJSt6__not_ISt15__is_tuple_likeIT_EESt21is_move_constructibleIS6_ESt18is_move_assignableIS6_EEE5valueEvE4typeERS6_SG_=so_stub_for_libv2x_radio
-Wl,--defsym=_ZSt4swapIPN5telux4cv2x10ICv2xRadioEENSt9enable_ifIXsrSt6__and_IJSt6__not_ISt15__is_tuple_likeIT_EESt21is_move_constructibleIS8_ESt18is_move_assignableIS8_EEE5valueEvE4typeERS8_SI_=so_stub_for_libv2x_radio
-Wl,--defsym=_ZSt4swapIPN5telux4cv2x13ICv2xListenerEENSt9enable_ifIXsrSt6__and_IJSt6__not_ISt15__is_tuple_likeIT_EESt21is_move_constructibleIS8_ESt18is_move_assignableIS8_EEE5valueEvE4typeERS8_SI_=so_stub_for_libv2x_radio
-Wl,--defsym=_ZSt4swapIPN5telux4cv2x14Cv2xPoolStatusEENSt9enable_ifIXsrSt6__and_IJSt6__not_ISt15__is_tuple_likeIT_EESt21is_move_constructibleIS8_ESt18is_move_assignableIS8_EEE5valueEvE4typeERS8_SI_=so_stub_for_libv2x_radio
-Wl,--defsym=_ZSt4swapIPN5telux4cv2x17ICv2xRadioManagerEENSt9enable_ifIXsrSt6__and_IJSt6__not_ISt15__is_tuple_likeIT_EESt21is_move_constructibleIS8_ESt18is_move_assignableIS8_EEE5valueEvE4typeERS8_SI_=so_stub_for_libv2x_radio
-Wl,--defsym=_ZSt4swapIPN5telux4cv2x18ICv2xRadioListenerEENSt9enable_ifIXsrSt6__and_IJSt6__not_ISt15__is_tuple_likeIT_EESt21is_move_constructibleIS8_ESt18is_move_assignableIS8_EEE5valueEvE4typeERS8_SI_=so_stub_for_libv2x_radio
-Wl,--defsym=_ZSt4swapIPN5telux4cv2x19ICv2xConfigListenerEENSt9enable_ifIXsrSt6__and_IJSt6__not_ISt15__is_tuple_likeIT_EESt21is_move_constructibleIS8_ESt18is_move_assignableIS8_EEE5valueEvE4typeERS8_SI_=so_stub_for_libv2x_radio
-Wl,--defsym=_ZSt4swapIPNSt13__future_base13_State_baseV2EENSt9enable_ifIXsrSt6__and_IJSt6__not_ISt15__is_tuple_likeIT_EESt21is_move_constructibleIS7_ESt18is_move_assignableIS7_EEE5valueEvE4typeERS7_SH_=so_stub_for_libv2x_radio
-Wl,--defsym=_ZSt4swapISt15__uniq_ptr_implINSt13__future_base12_Result_baseENS2_8_DeleterEEENSt9enable_ifIXsrSt6__and_IJSt6__not_ISt15__is_tuple_likeIT_EESt21is_move_constructibleIS9_ESt18is_move_assignableIS9_EEE5valueEvE4typeERS9_SJ_=so_stub_for_libv2x_radio
-Wl,--defsym=_ZSt7forwardI11v2x_event_tEOT_RNSt16remove_referenceIS1_E4typeE=so_stub_for_libv2x_radio
-Wl,--defsym=_ZSt7forwardIMNSt13__future_base13_State_baseV2EFvPSt8functionIFSt10unique_ptrINS0_12_Result_baseENS4_8_DeleterEEvEEPbEEOT_RNSt16remove_referenceISD_E4typeE=so_stub_for_libv2x_radio
-Wl,--defsym=_ZSt7forwardIMSt6threadFvvEEOT_RNSt16remove_referenceIS3_E4typeE=so_stub_for_libv2x_radio
-Wl,--defsym=_ZSt7forwardIN5telux4cv2x12Cv2xStatusExEEOT_RNSt16remove_referenceIS3_E4typeE=so_stub_for_libv2x_radio
-Wl,--defsym=_ZSt7forwardIN5telux4cv2x14Cv2xStatusTypeEEOT_RNSt16remove_referenceIS3_E4typeE=so_stub_for_libv2x_radio
-Wl,--defsym=_ZSt7forwardIN5telux6common9ErrorCodeEEOT_RNSt16remove_referenceIS3_E4typeE=so_stub_for_libv2x_radio
-Wl,--defsym=_ZSt7forwardINSt13__future_base12_Result_base8_DeleterEEOT_RNSt16remove_referenceIS3_E4typeE=so_stub_for_libv2x_radio
-Wl,--defsym=_ZSt7forwardIPbEOT_RNSt16remove_referenceIS1_E4typeE=so_stub_for_libv2x_radio
-Wl,--defsym=_ZSt7forwardIPNSt13__future_base12_Result_baseEEOT_RNSt16remove_referenceIS3_E4typeE=so_stub_for_libv2x_radio
-Wl,--defsym=_ZSt7forwardIPNSt13__future_base13_State_baseV2EEOT_RNSt16remove_referenceIS3_E4typeE=so_stub_for_libv2x_radio
-Wl,--defsym=_ZSt7forwardIPSt6threadEOT_RNSt16remove_referenceIS2_E4typeE=so_stub_for_libv2x_radio
-Wl,--defsym=_ZSt7forwardIPSt8functionIFSt10unique_ptrINSt13__future_base12_Result_baseENS3_8_DeleterEEvEEEOT_RNSt16remove_referenceIS9_E4typeE=so_stub_for_libv2x_radio
-Wl,--defsym=_ZSt7forwardIRA10_KcEOT_RNSt16remove_referenceIS3_E4typeE=so_stub_for_libv2x_radio
-Wl,--defsym=_ZSt7forwardIRA13_KcEOT_RNSt16remove_referenceIS3_E4typeE=so_stub_for_libv2x_radio
-Wl,--defsym=_ZSt7forwardIRA15_KcEOT_RNSt16remove_referenceIS3_E4typeE=so_stub_for_libv2x_radio
-Wl,--defsym=_ZSt7forwardIRA7_KcEOT_RNSt16remove_referenceIS3_E4typeE=so_stub_for_libv2x_radio
-Wl,--defsym=_ZSt7forwardIRA8_KcEOT_RNSt16remove_referenceIS3_E4typeE=so_stub_for_libv2x_radio
-Wl,--defsym=_ZSt7forwardIRA9_KcEOT_RNSt16remove_referenceIS3_E4typeE=so_stub_for_libv2x_radio
-Wl,--defsym=_ZSt7forwardIRK11v2x_event_tEOT_RNSt16remove_referenceIS3_E4typeE=so_stub_for_libv2x_radio
-Wl,--defsym=_ZSt7forwardIRKiEOT_RNSt16remove_referenceIS2_E4typeE=so_stub_for_libv2x_radio
-Wl,--defsym=_ZSt7forwardIRKjEOT_RNSt16remove_referenceIS2_E4typeE=so_stub_for_libv2x_radio
-Wl,--defsym=_ZSt7forwardIRKN5telux4cv2x13TrustedUEInfoEEOT_RNSt16remove_referenceIS5_E4typeE=so_stub_for_libv2x_radio
-Wl,--defsym=_ZSt7forwardIRKN5telux4cv2x14Cv2xPoolStatusEEOT_RNSt16remove_referenceIS5_E4typeE=so_stub_for_libv2x_radio
-Wl,--defsym=_ZSt7forwardIRKN5telux4cv2x14Cv2xStatusTypeEEOT_RNSt16remove_referenceIS5_E4typeE=so_stub_for_libv2x_radio
-Wl,--defsym=_ZSt7forwardIRKN5telux4cv2x21Cv2xRadioCapabilitiesEEOT_RNSt16remove_referenceIS5_E4typeE=so_stub_for_libv2x_radio
-Wl,--defsym=_ZSt7forwardIRKSt21piecewise_construct_tEOT_RNSt16remove_referenceIS3_E4typeE=so_stub_for_libv2x_radio
-Wl,--defsym=_ZSt7forwardIRKSt4pairIK11v2x_event_tNSt7__cxx1112basic_stringIcSt11char_traitsIcESaIcEEEEEOT_RNSt16remove_referenceISC_E4typeE=so_stub_for_libv2x_radio
-Wl,--defsym=_ZSt7forwardIRKSt4pairIKN5telux4cv2x14Cv2xStatusTypeENSt7__cxx1112basic_stringIcSt11char_traitsIcESaIcEEEEEOT_RNSt16remove_referenceISE_E4typeE=so_stub_for_libv2x_radio
-Wl,--defsym=_ZSt7forwardIRN5telux4cv2x14Cv2xPoolStatusEEOT_RNSt16remove_referenceIS4_E4typeE=so_stub_for_libv2x_radio
-Wl,--defsym=_ZSt7forwardIRN5telux6common9ErrorCodeEEOT_RNSt16remove_referenceIS4_E4typeE=so_stub_for_libv2x_radio
-Wl,--defsym=_ZSt7forwardIRPNSt13__future_base12_Result_baseEEOT_RNSt16remove_referenceIS4_E4typeE=so_stub_for_libv2x_radio
-Wl,--defsym=_ZSt7forwardIRPNSt13__future_base7_ResultI21_v2x_status_enum_typeEEEOT_RNSt16remove_referenceIS6_E4typeE=so_stub_for_libv2x_radio
-Wl,--defsym=_ZSt7forwardIRPNSt13__future_base7_ResultIiEEEOT_RNSt16remove_referenceIS5_E4typeE=so_stub_for_libv2x_radio
-Wl,--defsym=_ZSt7forwardIRPNSt13__future_base7_ResultIN5telux6common9ErrorCodeEEEEOT_RNSt16remove_referenceIS8_E4typeE=so_stub_for_libv2x_radio
-Wl,--defsym=_ZSt7forwardIRPNSt13__future_base7_ResultISt4pairIN5telux6common9ErrorCodeES5_EEEEOT_RNSt16remove_referenceISA_E4typeE=so_stub_for_libv2x_radio
-Wl,--defsym=_ZSt7forwardIRPSt13_Rb_tree_nodeISt4pairIK11v2x_event_tNSt7__cxx1112basic_stringIcSt11char_traitsIcESaIcEEEEEEOT_RNSt16remove_referenceISE_E4typeE=so_stub_for_libv2x_radio
-Wl,--defsym=_ZSt7forwardIRPSt13_Rb_tree_nodeISt4pairIKiSt10shared_ptrIN5telux4cv2x11ICv2xTxFlowEEEEEOT_RNSt16remove_referenceISC_E4typeE=so_stub_for_libv2x_radio
-Wl,--defsym=_ZSt7forwardIRPSt13_Rb_tree_nodeISt4pairIKiSt10shared_ptrIN5telux4cv2x15ICv2xTxRxSocketEEEEEOT_RNSt16remove_referenceISC_E4typeE=so_stub_for_libv2x_radio
-Wl,--defsym=_ZSt7forwardIRPSt13_Rb_tree_nodeISt4pairIKiSt10shared_ptrIN5telux4cv2x19ICv2xRxSubscriptionEEEEEOT_RNSt16remove_referenceISC_E4typeE=so_stub_for_libv2x_radio
-Wl,--defsym=_ZSt7forwardIRPSt13_Rb_tree_nodeISt4pairIKjP31v2x_per_sps_reservation_calls_tEEEOT_RNSt16remove_referenceIS9_E4typeE=so_stub_for_libv2x_radio
-Wl,--defsym=_ZSt7forwardIRPSt13_Rb_tree_nodeISt4pairIKN5telux4cv2x14Cv2xStatusTypeENSt7__cxx1112basic_stringIcSt11char_traitsIcESaIcEEEEEEOT_RNSt16remove_referenceISG_E4typeE=so_stub_for_libv2x_radio
-Wl,--defsym=_ZSt7forwardIRPSt18_Rb_tree_node_baseEOT_RNSt16remove_referenceIS3_E4typeE=so_stub_for_libv2x_radio
-Wl,--defsym=_ZSt7forwardIRSt6vectorIjSaIjEEEOT_RNSt16remove_referenceIS4_E4typeE=so_stub_for_libv2x_radio
-Wl,--defsym=_ZSt7forwardISt10shared_ptrIN5telux4cv2x11ICv2xTxFlowEEEOT_RNSt16remove_referenceIS5_E4typeE=so_stub_for_libv2x_radio
-Wl,--defsym=_ZSt7forwardISt10shared_ptrIN5telux4cv2x15ICv2xTxRxSocketEEEOT_RNSt16remove_referenceIS5_E4typeE=so_stub_for_libv2x_radio
-Wl,--defsym=_ZSt7forwardISt10shared_ptrIN5telux4cv2x19ICv2xRxSubscriptionEEEOT_RNSt16remove_referenceIS5_E4typeE=so_stub_for_libv2x_radio
-Wl,--defsym=_ZSt7forwardISt17_Rb_tree_iteratorISt4pairIKiSt10shared_ptrIN5telux4cv2x11ICv2xTxFlowEEEEEOT_RNSt16remove_referenceISA_E4typeE=so_stub_for_libv2x_radio
-Wl,--defsym=_ZSt7forwardISt17_Rb_tree_iteratorISt4pairIKiSt10shared_ptrIN5telux4cv2x15ICv2xTxRxSocketEEEEEOT_RNSt16remove_referenceISA_E4typeE=so_stub_for_libv2x_radio
-Wl,--defsym=_ZSt7forwardISt17_Rb_tree_iteratorISt4pairIKiSt10shared_ptrIN5telux4cv2x19ICv2xRxSubscriptionEEEEEOT_RNSt16remove_referenceISA_E4typeE=so_stub_for_libv2x_radio
-Wl,--defsym=_ZSt7forwardISt17_Rb_tree_iteratorISt4pairIKjP31v2x_per_sps_reservation_calls_tEEEOT_RNSt16remove_referenceIS7_E4typeE=so_stub_for_libv2x_radio
-Wl,--defsym=_ZSt7forwardISt5tupleIJEEEOT_RNSt16remove_referenceIS2_E4typeE=so_stub_for_libv2x_radio
-Wl,--defsym=_ZSt7forwardISt5tupleIJRK11v2x_event_tEEEOT_RNSt16remove_referenceIS5_E4typeE=so_stub_for_libv2x_radio
-Wl,--defsym=_ZSt7forwardISt5tupleIJRKiEEEOT_RNSt16remove_referenceIS4_E4typeE=so_stub_for_libv2x_radio
-Wl,--defsym=_ZSt7forwardISt5tupleIJRKjEEEOT_RNSt16remove_referenceIS4_E4typeE=so_stub_for_libv2x_radio
-Wl,--defsym=_ZSt7forwardISt5tupleIJRKN5telux4cv2x14Cv2xStatusTypeEEEEOT_RNSt16remove_referenceIS7_E4typeE=so_stub_for_libv2x_radio
-Wl,--defsym=_ZSt8_DestroyIN9__gnu_cxx17__normal_iteratorIPN5telux4cv2x12TxPoolIdInfoESt6vectorIS4_SaIS4_EEEEEvT_SA_=so_stub_for_libv2x_radio
-Wl,--defsym=_ZSt8_DestroyIN9__gnu_cxx17__normal_iteratorIPN5telux4cv2x12TxPoolIdInfoESt6vectorIS4_SaIS4_EEEES4_EvT_SA_RSaIT0_E=so_stub_for_libv2x_radio
-Wl,--defsym=_ZSt8_DestroyIN9__gnu_cxx17__normal_iteratorIPN5telux4cv2x14Cv2xPoolStatusESt6vectorIS4_SaIS4_EEEEEvT_SA_=so_stub_for_libv2x_radio
-Wl,--defsym=_ZSt8_DestroyIN9__gnu_cxx17__normal_iteratorIPN5telux4cv2x14Cv2xPoolStatusESt6vectorIS4_SaIS4_EEEES4_EvT_SA_RSaIT0_E=so_stub_for_libv2x_radio
-Wl,--defsym=_ZSt8_DestroyIN9__gnu_cxx17__normal_iteratorIPySt6vectorIySaIyEEEEEvT_S7_=so_stub_for_libv2x_radio
-Wl,--defsym=_ZSt8_DestroyIN9__gnu_cxx17__normal_iteratorIPySt6vectorIySaIyEEEEyEvT_S7_RSaIT0_E=so_stub_for_libv2x_radio
-Wl,--defsym=_ZSt8_DestroyIPjEvT_S1_=so_stub_for_libv2x_radio
-Wl,--defsym=_ZSt8_DestroyIPjjEvT_S1_RSaIT0_E=so_stub_for_libv2x_radio
-Wl,--defsym=_ZSt8_DestroyIPN5telux4cv2x12TxPoolIdInfoEEvT_S4_=so_stub_for_libv2x_radio
-Wl,--defsym=_ZSt8_DestroyIPN5telux4cv2x12TxPoolIdInfoES2_EvT_S4_RSaIT0_E=so_stub_for_libv2x_radio
-Wl,--defsym=_ZSt8_DestroyIPN5telux4cv2x13TrustedUEInfoEEvT_S4_=so_stub_for_libv2x_radio
-Wl,--defsym=_ZSt8_DestroyIPN5telux4cv2x13TrustedUEInfoES2_EvT_S4_RSaIT0_E=so_stub_for_libv2x_radio
-Wl,--defsym=_ZSt8_DestroyIPN5telux4cv2x14Cv2xPoolStatusEEvT_S4_=so_stub_for_libv2x_radio
-Wl,--defsym=_ZSt8_DestroyIPN5telux4cv2x14Cv2xPoolStatusES2_EvT_S4_RSaIT0_E=so_stub_for_libv2x_radio
-Wl,--defsym=_ZSt8_DestroyIPyEvT_S1_=so_stub_for_libv2x_radio
-Wl,--defsym=_ZSt8_DestroyIPyyEvT_S1_RSaIT0_E=so_stub_for_libv2x_radio
-Wl,--defsym=_ZSt8__invokeIMNSt13__future_base13_State_baseV2EFvPSt8functionIFSt10unique_ptrINS0_12_Result_baseENS4_8_DeleterEEvEEPbEJPS1_S9_SA_EENSt15__invoke_resultIT_JDpT0_EE4typeEOSF_DpOSG_=so_stub_for_libv2x_radio
-Wl,--defsym=_ZSt8__invokeIMSt6threadFvvEJPS0_EENSt15__invoke_resultIT_JDpT0_EE4typeEOS5_DpOS6_=so_stub_for_libv2x_radio
-Wl,--defsym=_ZSt9call_onceIMNSt13__future_base13_State_baseV2EFvPSt8functionIFSt10unique_ptrINS0_12_Result_baseENS4_8_DeleterEEvEEPbEJPS1_S9_SA_EEvRSt9once_flagOT_DpOT0_=so_stub_for_libv2x_radio
-Wl,--defsym=_ZSt9call_onceIMSt6threadFvvEJPS0_EEvRSt9once_flagOT_DpOT0_=so_stub_for_libv2x_radio
-Wl,--defsym=_ZStanSt12memory_orderSt23__memory_order_modifier=so_stub_for_libv2x_radio
-Wl,--defsym=_ZStanSt6launchS_=so_stub_for_libv2x_radio
-Wl,--defsym=_ZSteqIcEN9__gnu_cxx11__enable_ifIXsrSt9__is_charIT_E7__valueEbE6__typeERKNSt7__cxx1112basic_stringIS3_St11char_traitsIS3_ESaIS3_EEESE_=so_stub_for_libv2x_radio
-Wl,--defsym=_ZSteqNSt6thread2idES0_=so_stub_for_libv2x_radio
-Wl,--defsym=_ZSteqRKSt10error_codeRKSt15error_condition=so_stub_for_libv2x_radio
-Wl,--defsym=_ZStlsIcSt11char_traitsIcELj8EERSt13basic_ostreamIT_T0_ES6_RKSt6bitsetIXT1_EE=so_stub_for_libv2x_radio
-Wl,--defsym=_ZStneIN5telux4cv2x12TxPoolIdInfoEEbRKSaIT_ES6_=so_stub_for_libv2x_radio
-Wl,--defsym=_ZStneIN5telux4cv2x14Cv2xPoolStatusEEbRKSaIT_ES6_=so_stub_for_libv2x_radio
-Wl,--defsym=_ZStneIyEbRKSaIT_ES3_=so_stub_for_libv2x_radio
-Wl,--defsym=_ZStneRKSt10error_codeRKSt15error_condition=so_stub_for_libv2x_radio
-Wl,--defsym=_ZStorSt13_Ios_OpenmodeS_=so_stub_for_libv2x_radio
-Wl,--defsym=_ZStplIcSt11char_traitsIcESaIcEENSt7__cxx1112basic_stringIT_T0_T1_EEPKS5_OS8_=so_stub_for_libv2x_radio
-Wl,--defsym=_ZTI12Cv2xListener=so_stub_for_libv2x_radio
-Wl,--defsym=_ZTI13RadioListener=so_stub_for_libv2x_radio
-Wl,--defsym=_ZTI14ConfigListener=so_stub_for_libv2x_radio
-Wl,--defsym=_ZTIFvSt10shared_ptrIN5telux4cv2x11ICv2xTxFlowEENS0_6common9ErrorCodeEE=so_stub_for_libv2x_radio
-Wl,--defsym=_ZTIN5telux4cv2x13ICv2xListenerE=so_stub_for_libv2x_radio
-Wl,--defsym=_ZTIN5telux4cv2x18ICv2xRadioListenerE=so_stub_for_libv2x_radio
-Wl,--defsym=_ZTIN5telux4cv2x19ICv2xConfigListenerE=so_stub_for_libv2x_radio
-Wl,--defsym=_ZTIN5telux6common22IServiceStatusListenerE=so_stub_for_libv2x_radio
-Wl,--defsym=_ZTINSt13__future_base13_State_baseV27_SetterIiOiEE=so_stub_for_libv2x_radio
-Wl,--defsym=_ZTINSt13__future_base13_State_baseV27_SetterIN5telux6common9ErrorCodeERKS4_EE=so_stub_for_libv2x_radio
-Wl,--defsym=_ZTINSt13__future_base13_State_baseV27_SetterISt4pairIN5telux6common9ErrorCodeES5_EOS6_EE=so_stub_for_libv2x_radio
-Wl,--defsym=_ZTINSt13__future_base13_State_baseV2E=so_stub_for_libv2x_radio
-Wl,--defsym=_ZTINSt13__future_base21_Async_state_commonV2E=so_stub_for_libv2x_radio
-Wl,--defsym=_ZTINSt13__future_base7_ResultI21_v2x_status_enum_typeEE=so_stub_for_libv2x_radio
-Wl,--defsym=_ZTINSt13__future_base7_ResultIiEE=so_stub_for_libv2x_radio
-Wl,--defsym=_ZTINSt13__future_base7_ResultIN5telux6common9ErrorCodeEEE=so_stub_for_libv2x_radio
-Wl,--defsym=_ZTINSt13__future_base7_ResultISt4pairIN5telux6common9ErrorCodeES4_EEE=so_stub_for_libv2x_radio
-Wl,--defsym=_ZTIPFvSt10shared_ptrIN5telux4cv2x11ICv2xTxFlowEENS0_6common9ErrorCodeEE=so_stub_for_libv2x_radio
-Wl,--defsym=_ZTISt11_Mutex_baseILN9__gnu_cxx12_Lock_policyE2EE=so_stub_for_libv2x_radio
-Wl,--defsym=_ZTISt16_Sp_counted_baseILN9__gnu_cxx12_Lock_policyE2EE=so_stub_for_libv2x_radio
-Wl,--defsym=_ZTISt19_Sp_make_shared_tag=so_stub_for_libv2x_radio
-Wl,--defsym=_ZTISt23_Sp_counted_ptr_inplaceI12Cv2xListenerSaIS0_ELN9__gnu_cxx12_Lock_policyE2EE=so_stub_for_libv2x_radio
-Wl,--defsym=_ZTISt23_Sp_counted_ptr_inplaceI13RadioListenerSaIS0_ELN9__gnu_cxx12_Lock_policyE2EE=so_stub_for_libv2x_radio
-Wl,--defsym=_ZTISt23_Sp_counted_ptr_inplaceI14ConfigListenerSaIS0_ELN9__gnu_cxx12_Lock_policyE2EE=so_stub_for_libv2x_radio
-Wl,--defsym=_ZTISt23_Sp_counted_ptr_inplaceINSt13__future_base13_State_baseV2ESaIS1_ELN9__gnu_cxx12_Lock_policyE2EE=so_stub_for_libv2x_radio
-Wl,--defsym=_ZTISt23_Sp_counted_ptr_inplaceISt6vectorIjSaIjEESaIS2_ELN9__gnu_cxx12_Lock_policyE2EE=so_stub_for_libv2x_radio
-Wl,--defsym=_ZTS12Cv2xListener=so_stub_for_libv2x_radio
-Wl,--defsym=_ZTS13RadioListener=so_stub_for_libv2x_radio
-Wl,--defsym=_ZTS14ConfigListener=so_stub_for_libv2x_radio
-Wl,--defsym=_ZTSFvSt10shared_ptrIN5telux4cv2x11ICv2xTxFlowEENS0_6common9ErrorCodeEE=so_stub_for_libv2x_radio
-Wl,--defsym=_ZTSN5telux4cv2x13ICv2xListenerE=so_stub_for_libv2x_radio
-Wl,--defsym=_ZTSN5telux4cv2x18ICv2xRadioListenerE=so_stub_for_libv2x_radio
-Wl,--defsym=_ZTSN5telux4cv2x19ICv2xConfigListenerE=so_stub_for_libv2x_radio
-Wl,--defsym=_ZTSN5telux6common22IServiceStatusListenerE=so_stub_for_libv2x_radio
-Wl,--defsym=_ZTSNSt13__future_base13_State_baseV27_SetterIiOiEE=so_stub_for_libv2x_radio
-Wl,--defsym=_ZTSNSt13__future_base13_State_baseV27_SetterIN5telux6common9ErrorCodeERKS4_EE=so_stub_for_libv2x_radio
-Wl,--defsym=_ZTSNSt13__future_base13_State_baseV27_SetterISt4pairIN5telux6common9ErrorCodeES5_EOS6_EE=so_stub_for_libv2x_radio
-Wl,--defsym=_ZTSNSt13__future_base13_State_baseV2E=so_stub_for_libv2x_radio
-Wl,--defsym=_ZTSNSt13__future_base21_Async_state_commonV2E=so_stub_for_libv2x_radio
-Wl,--defsym=_ZTSNSt13__future_base7_ResultI21_v2x_status_enum_typeEE=so_stub_for_libv2x_radio
-Wl,--defsym=_ZTSNSt13__future_base7_ResultIiEE=so_stub_for_libv2x_radio
-Wl,--defsym=_ZTSNSt13__future_base7_ResultIN5telux6common9ErrorCodeEEE=so_stub_for_libv2x_radio
-Wl,--defsym=_ZTSNSt13__future_base7_ResultISt4pairIN5telux6common9ErrorCodeES4_EEE=so_stub_for_libv2x_radio
-Wl,--defsym=_ZTSPFvSt10shared_ptrIN5telux4cv2x11ICv2xTxFlowEENS0_6common9ErrorCodeEE=so_stub_for_libv2x_radio
-Wl,--defsym=_ZTSSt11_Mutex_baseILN9__gnu_cxx12_Lock_policyE2EE=so_stub_for_libv2x_radio
-Wl,--defsym=_ZTSSt16_Sp_counted_baseILN9__gnu_cxx12_Lock_policyE2EE=so_stub_for_libv2x_radio
-Wl,--defsym=_ZTSSt19_Sp_make_shared_tag=so_stub_for_libv2x_radio
-Wl,--defsym=_ZTSSt23_Sp_counted_ptr_inplaceI12Cv2xListenerSaIS0_ELN9__gnu_cxx12_Lock_policyE2EE=so_stub_for_libv2x_radio
-Wl,--defsym=_ZTSSt23_Sp_counted_ptr_inplaceI13RadioListenerSaIS0_ELN9__gnu_cxx12_Lock_policyE2EE=so_stub_for_libv2x_radio
-Wl,--defsym=_ZTSSt23_Sp_counted_ptr_inplaceI14ConfigListenerSaIS0_ELN9__gnu_cxx12_Lock_policyE2EE=so_stub_for_libv2x_radio
-Wl,--defsym=_ZTSSt23_Sp_counted_ptr_inplaceINSt13__future_base13_State_baseV2ESaIS1_ELN9__gnu_cxx12_Lock_policyE2EE=so_stub_for_libv2x_radio
-Wl,--defsym=_ZTSSt23_Sp_counted_ptr_inplaceISt6vectorIjSaIjEESaIS2_ELN9__gnu_cxx12_Lock_policyE2EE=so_stub_for_libv2x_radio
-Wl,--defsym=_ZTV12Cv2xListener=so_stub_for_libv2x_radio
-Wl,--defsym=_ZTV13RadioListener=so_stub_for_libv2x_radio
-Wl,--defsym=_ZTV14ConfigListener=so_stub_for_libv2x_radio
-Wl,--defsym=_ZTVN5telux4cv2x13ICv2xListenerE=so_stub_for_libv2x_radio
-Wl,--defsym=_ZTVN5telux4cv2x18ICv2xRadioListenerE=so_stub_for_libv2x_radio
-Wl,--defsym=_ZTVN5telux4cv2x19ICv2xConfigListenerE=so_stub_for_libv2x_radio
-Wl,--defsym=_ZTVN5telux6common22IServiceStatusListenerE=so_stub_for_libv2x_radio
-Wl,--defsym=_ZTVNSt13__future_base13_State_baseV2E=so_stub_for_libv2x_radio
-Wl,--defsym=_ZTVNSt13__future_base21_Async_state_commonV2E=so_stub_for_libv2x_radio
-Wl,--defsym=_ZTVNSt13__future_base7_ResultI21_v2x_status_enum_typeEE=so_stub_for_libv2x_radio
-Wl,--defsym=_ZTVNSt13__future_base7_ResultIiEE=so_stub_for_libv2x_radio
-Wl,--defsym=_ZTVNSt13__future_base7_ResultIN5telux6common9ErrorCodeEEE=so_stub_for_libv2x_radio
-Wl,--defsym=_ZTVNSt13__future_base7_ResultISt4pairIN5telux6common9ErrorCodeES4_EEE=so_stub_for_libv2x_radio
-Wl,--defsym=_ZTVSt16_Sp_counted_baseILN9__gnu_cxx12_Lock_policyE2EE=so_stub_for_libv2x_radio
-Wl,--defsym=_ZTVSt23_Sp_counted_ptr_inplaceI12Cv2xListenerSaIS0_ELN9__gnu_cxx12_Lock_policyE2EE=so_stub_for_libv2x_radio
-Wl,--defsym=_ZTVSt23_Sp_counted_ptr_inplaceI13RadioListenerSaIS0_ELN9__gnu_cxx12_Lock_policyE2EE=so_stub_for_libv2x_radio
-Wl,--defsym=_ZTVSt23_Sp_counted_ptr_inplaceI14ConfigListenerSaIS0_ELN9__gnu_cxx12_Lock_policyE2EE=so_stub_for_libv2x_radio
-Wl,--defsym=_ZTVSt23_Sp_counted_ptr_inplaceINSt13__future_base13_State_baseV2ESaIS1_ELN9__gnu_cxx12_Lock_policyE2EE=so_stub_for_libv2x_radio
-Wl,--defsym=_ZTVSt23_Sp_counted_ptr_inplaceISt6vectorIjSaIjEESaIS2_ELN9__gnu_cxx12_Lock_policyE2EE=so_stub_for_libv2x_radio
-Wl,--defsym=_ZZSt9call_onceIMNSt13__future_base13_State_baseV2EFvPSt8functionIFSt10unique_ptrINS0_12_Result_baseENS4_8_DeleterEEvEEPbEJPS1_S9_SA_EEvRSt9once_flagOT_DpOT0_ENKUlvE0_clEv=so_stub_for_libv2x_radio
-Wl,--defsym=_ZZSt9call_onceIMNSt13__future_base13_State_baseV2EFvPSt8functionIFSt10unique_ptrINS0_12_Result_baseENS4_8_DeleterEEvEEPbEJPS1_S9_SA_EEvRSt9once_flagOT_DpOT0_ENKUlvE0_cvPFvvEEv=so_stub_for_libv2x_radio
-Wl,--defsym=_ZZSt9call_onceIMNSt13__future_base13_State_baseV2EFvPSt8functionIFSt10unique_ptrINS0_12_Result_baseENS4_8_DeleterEEvEEPbEJPS1_S9_SA_EEvRSt9once_flagOT_DpOT0_ENKUlvE_clEv=so_stub_for_libv2x_radio
-Wl,--defsym=_ZZSt9call_onceIMNSt13__future_base13_State_baseV2EFvPSt8functionIFSt10unique_ptrINS0_12_Result_baseENS4_8_DeleterEEvEEPbEJPS1_S9_SA_EEvRSt9once_flagOT_DpOT0_ENUlvE0_4_FUNEv=so_stub_for_libv2x_radio
-Wl,--defsym=_ZZSt9call_onceIMSt6threadFvvEJPS0_EEvRSt9once_flagOT_DpOT0_ENKUlvE0_clEv=so_stub_for_libv2x_radio
-Wl,--defsym=_ZZSt9call_onceIMSt6threadFvvEJPS0_EEvRSt9once_flagOT_DpOT0_ENKUlvE0_cvPFvvEEv=so_stub_for_libv2x_radio
-Wl,--defsym=_ZZSt9call_onceIMSt6threadFvvEJPS0_EEvRSt9once_flagOT_DpOT0_ENKUlvE_clEv=so_stub_for_libv2x_radio
-Wl,--defsym=_ZZSt9call_onceIMSt6threadFvvEJPS0_EEvRSt9once_flagOT_DpOT0_ENUlvE0_4_FUNEv=so_stub_for_libv2x_radio
